 electromagnetAndLoadCell_slrt

 Timestamp is 5ac658ed (Thu Apr  5 13:12:13 2018)

 Preferred load address is 10000000

 Start         Length     Name                   Class
 0001:00000000 00061b28H .text$mn                CODE
 0002:00000000 00000104H .CRT$XCA                DATA
 0002:00000104 00000104H .CRT$XCZ                DATA
 0002:00000208 00000104H .CRT$XIA                DATA
 0002:0000030c 00000110H .CRT$XIC                DATA
 0002:0000041c 00000104H .CRT$XIZ                DATA
 0002:00000520 00000104H .CRT$XPA                DATA
 0002:00000624 0000010cH .CRT$XPX                DATA
 0002:00000730 00000104H .CRT$XPXA               DATA
 0002:00000834 00000104H .CRT$XPZ                DATA
 0002:00000938 00000104H .CRT$XTA                DATA
 0002:00000a3c 00000104H .CRT$XTZ                DATA
 0002:00000b40 0000c9b4H .rdata                  DATA
 0002:0000d4f4 0000038cH .rdata$r                DATA
 0002:0000d880 00000110H .rdata$sxdata           DATA
 0002:0000d990 000001c4H .rdata$zzzdbg           DATA
 0002:0000db54 00000104H .rtc$IAA                DATA
 0002:0000dc58 00000104H .rtc$IZZ                DATA
 0002:0000dd5c 00000104H .rtc$TAA                DATA
 0002:0000de60 00000108H .rtc$TZZ                DATA
 0002:0000df68 00000ac8H .xdata$x                DATA
 0002:0000ea30 000001f4H .edata                  DATA
 0003:00000000 00000f90H .data                   DATA
 0003:00000f90 000001f0H .data$r                 DATA
 0003:00001180 00013f20H .bss                    DATA
 0004:00000000 000001d4H .idata$5                DATA
 0004:000001d4 00000014H .idata$2                DATA
 0004:000001e8 00000014H .idata$3                DATA
 0004:000001fc 000001d4H .idata$4                DATA
 0004:000003d0 00000843H .idata$6                DATA
 0005:00000000 00000224H .gfids$x                DATA
 0005:00000224 000001a5H .gfids$y                DATA
 0006:00000000 00000104H .00cfg                  DATA

  Address         Publics by Value              Rva+Base       Lib:Object

 0000:00000000       ___dynamic_value_reloc_table 00000000     <absolute>
 0000:00000000       ___guard_iat_count         00000000     <absolute>
 0000:00000000       ___guard_longjmp_table     00000000     <absolute>
 0000:00000000       __except_list              00000000     <absolute>
 0000:00000000       ___guard_iat_table         00000000     <absolute>
 0000:00000000       ___guard_longjmp_count     00000000     <absolute>
 0000:00000000       ___guard_fids_count        00000000     <absolute>
 0000:00000000       ___guard_fids_table        00000000     <absolute>
 0000:00000003       ___safe_se_handler_count   00000003     <absolute>
 0000:00000100       ___guard_flags             00000100     <absolute>
 0000:00000000       ___ImageBase               10000000     <linker-defined>
 0001:00005ec0       _MdlInitialize             10006ec0 f   electromagnetAndLoadCell.obj
 0001:00005ed0       _MdlInitializeSampleTimes  10006ed0 f   electromagnetAndLoadCell.obj
 0001:00005ee0       _MdlInitializeSizes        10006ee0 f   electromagnetAndLoadCell.obj
 0001:00005ef0       _MdlOutputs                10006ef0 f   electromagnetAndLoadCell.obj
 0001:00005f50       _MdlStart                  10006f50 f   electromagnetAndLoadCell.obj
 0001:00005f60       _MdlTerminate              10006f60 f   electromagnetAndLoadCell.obj
 0001:00005f90       _MdlUpdate                 10006f90 f   electromagnetAndLoadCell.obj
 0001:00006020       ___local_stdio_printf_options 10007020 f i electromagnetAndLoadCell.obj
 0001:00006030       __vfprintf_l               10007030 f i electromagnetAndLoadCell.obj
 0001:00006060       _electromagnetAndLoadCell  10007060 f   electromagnetAndLoadCell.obj
 0001:00006e30       _printf                    10007e30 f i electromagnetAndLoadCell.obj
 0001:00006e70       _rt_mxCreateCharMatrixFromStrings 10007e70 f   rt_matrx.obj
 0001:00006fd0       _rt_mxCreateDoubleMatrix   10007fd0 f   rt_matrx.obj
 0001:00007030       _rt_mxCreateNumericArray   10008030 f   rt_matrx.obj
 0001:000070b0       _rt_mxCreateString         100080b0 f   rt_matrx.obj
 0001:00007140       _rt_mxDuplicateArray       10008140 f   rt_matrx.obj
 0001:000071a0       _rt_mxGetDimensions        100081a0 f   rt_matrx.obj
 0001:000071e0       _rt_mxGetEps               100081e0 f   rt_matrx.obj
 0001:000071f0       _rt_mxGetString            100081f0 f   rt_matrx.obj
 0001:00007270       _rtPrintfNoOp              10008270 f   rt_printf.obj
 0001:00007280       _electromagnetAndLoadCell_GetCAPIStaticMap 10008280 f   electromagnetAndLoadCell_capi.obj
 0001:00007290       _electromagnetAndLoadCell_InitializeDataMapInfo 10008290 f   electromagnetAndLoadCell_capi.obj
 0001:00007320       _rtGetInf                  10008320 f   rtGetInf.obj
 0001:00007350       _rtGetInfF                 10008350 f   rtGetInf.obj
 0001:00007370       _rtGetMinusInf             10008370 f   rtGetInf.obj
 0001:000073a0       _rtGetMinusInfF            100083a0 f   rtGetInf.obj
 0001:000073c0       _rtGetNaN                  100083c0 f   rtGetNaN.obj
 0001:000073f0       _rtGetNaNF                 100083f0 f   rtGetNaN.obj
 0001:00007410       _rtIsInf                   10008410 f   rt_nonfinite.obj
 0001:00007450       _rtIsInfF                  10008450 f   rt_nonfinite.obj
 0001:00007490       _rtIsNaN                   10008490 f   rt_nonfinite.obj
 0001:000074b0       _rtIsNaNF                  100084b0 f   rt_nonfinite.obj
 0001:000074d0       _rt_InitInfAndNaN          100084d0 f   rt_nonfinite.obj
 0001:00007530       _rt_CleanUpForStateLogWithMMI 10008530 f   rt_logging_mmi.obj
 0001:00007640       _rt_FillStateSigInfoFromMMI 10008640 f   rt_logging_mmi.obj
 0001:000079e0       _rtwCAPI_CountSysRan       100089e0 f   rtw_modelmap_utils.obj
 0001:00007a80       _rtwCAPI_EncodePath        10008a80 f   rtw_modelmap_utils.obj
 0001:00007b80       _rtwCAPI_FillSysRan        10008b80 f   rtw_modelmap_utils.obj
 0001:00007c70       _rtwCAPI_FreeFullPaths     10008c70 f   rtw_modelmap_utils.obj
 0001:00007d00       _rtwCAPI_GetFullStateBlockPath 10008d00 f   rtw_modelmap_utils.obj
 0001:00007eb0       _rtwCAPI_GetNumContStateRecords 10008eb0 f   rtw_modelmap_utils.obj
 0001:00007f70       _rtwCAPI_GetNumSigLogRecords 10008f70 f   rtw_modelmap_utils.obj
 0001:00007fc0       _rtwCAPI_GetNumSigLogRecordsForRTWLogging 10008fc0 f   rtw_modelmap_utils.obj
 0001:00008060       _rtwCAPI_GetNumStateRecords 10009060 f   rtw_modelmap_utils.obj
 0001:000080b0       _rtwCAPI_GetNumStateRecordsForRTWLogging 100090b0 f   rtw_modelmap_utils.obj
 0001:00008150       _rtwCAPI_GetSigAddrFromMap 10009150 f   rtw_modelmap_utils.obj
 0001:00008210       _rtwCAPI_GetSigLogRecordInfo 10009210 f   rtw_modelmap_utils.obj
 0001:00008640       _rtwCAPI_GetStateRecordInfo 10009640 f   rtw_modelmap_utils.obj
 0001:00008af0       _rtwCAPI_GetStateWidth     10009af0 f   rtw_modelmap_utils.obj
 0001:00008b50       _rtwCAPI_HasStates         10009b50 f   rtw_modelmap_utils.obj
 0001:00008bc0       _rtwCAPI_UpdateFullPaths   10009bc0 f   rtw_modelmap_utils.obj
 0001:00008da0       __vsnprintf_l              10009da0 f i rt_logging.obj
 0001:00008de0       __vsprintf_l               10009de0 f i rt_logging.obj
 0001:00008e20       _fprintf                   10009e20 f i rt_logging.obj
 0001:00009730       _rt_CreateLogVar           1000a730 f   rt_logging.obj
 0001:000097c0       _rt_CreateLogVarWithConvert 1000a7c0 f   rt_logging.obj
 0001:0000a140       _rt_CreateStructLogVar     1000b140 f   rt_logging.obj
 0001:0000aea0       _rt_GetMxIdFromDTypeId     1000bea0 f   rt_logging.obj
 0001:0000aed0       _rt_GetMxIdFromDTypeIdForRSim 1000bed0 f   rt_logging.obj
 0001:0000d7a0       _rt_StartDataLogging       1000e7a0 f   rt_logging.obj
 0001:0000dc60       _rt_StartDataLoggingWithStartTime 1000ec60 f   rt_logging.obj
 0001:0000e5c0       _rt_StopDataLogging        1000f5c0 f   rt_logging.obj
 0001:0000e5e0       _rt_StopDataLoggingImpl    1000f5e0 f   rt_logging.obj
 0001:0000e910       _rt_UpdateLogVar           1000f910 f   rt_logging.obj
 0001:0000fa30       _rt_UpdateStructLogVar     10010a30 f   rt_logging.obj
 0001:0000fac0       _rt_UpdateTXXFYLogVars     10010ac0 f   rt_logging.obj
 0001:0000fdf0       _rt_UpdateTXYLogVars       10010df0 f   rt_logging.obj
 0001:00010040       _sprintf                   10011040 f i rt_logging.obj
 0001:00010080       _DllMain@12                10011080 f   xpctarget.obj
 0001:00010090       _SLRTSetErrorStatus        10011090 f   xpctarget.obj
 0001:000100b0       _changeStepSize            100110b0 f   xpctarget.obj
 0001:00010100       _electromagnetAndLoadCell_ChangeStepSize 10011100 f   xpctarget.obj
 0001:00010150       _getDLMVersion             10011150 f   xpctarget.obj
 0001:00010160       _getRefMdlPath             10011160 f   xpctarget.obj
 0001:000101e0       _getRefMdlSignalNumber     100111e0 f   xpctarget.obj
 0001:00010290       _getrlmdlinfo              10011290 f   xpctarget.obj
 0001:00010470       _updateDiscreteEvents      10011470 f   xpctarget.obj
 0001:00010480       _getNumRef                 10011480 f   appmappingData.obj
 0001:00010490       _vprintf                   10011490 f i legacy_stdio.obj
 0001:000104d0       _adquanserq8               100114d0 f   adquanserq8.obj
 0001:00010bf0       _daquanserq8               10011bf0 f   daquanserq8.obj
 0001:00011560       _GetPCIDeviceFull          10012560 f   xpcruntime:xpcimports.obj
 0001:000115a0       _ShowPCIDevice             100125a0 f   xpcruntime:xpcimports.obj
 0001:00011d60       _xpcGetPciConfigAtSlot     10012d60 f   xpcruntime:xpcimports.obj
 0001:00012070       _xpcInitProcs              10013070 f   xpcruntime:xpcimports.obj
 0001:000133d0       _xpceuploadevent           100143d0 f   xpcruntime:xpcimports.obj
 0001:000133e0       __ftoui3                   100143e0 f   LIBCMT:_ftol3_.obj
 0001:000133ef       __ftoul3                   100143ef f   LIBCMT:_ftol3_.obj
 0001:000133fe       __ftol3                    100143fe f   LIBCMT:_ftol3_.obj
 0001:0001340b       __ftol3_NaN                1001440b f   LIBCMT:_ftol3_.obj
 0001:00013423       __ftol3_work               10014423 f   LIBCMT:_ftol3_.obj
 0001:000134a9       __ftol3_common             100144a9 f   LIBCMT:_ftol3_.obj
 0001:0001356b       __ftol3_arg_error          1001456b f   LIBCMT:_ftol3_.obj
 0001:0001357d       __ftol3_except             1001457d f   LIBCMT:_ftol3_.obj
 0001:000135c1       __dtoui3                   100145c1 f   LIBCMT:_ftol3_.obj
 0001:000135d0       __dtoul3                   100145d0 f   LIBCMT:_ftol3_.obj
 0001:000135df       __dtol3                    100145df f   LIBCMT:_ftol3_.obj
 0001:000135ec       __dtol3_NaN                100145ec f   LIBCMT:_ftol3_.obj
 0001:00013609       __dtol3_work               10014609 f   LIBCMT:_ftol3_.obj
 0001:000136f0       __ultod3                   100146f0 f   LIBCMT:_ftol3_.obj
 0001:00013730       __ltod3                    10014730 f   LIBCMT:_ftol3_.obj
 0001:00013834       ___raise_securityfailure   10014834 f   LIBCMT:gs_report.obj
 0001:00013866       ___report_gsfailure        10014866 f   LIBCMT:gs_report.obj
 0001:0001399f       ___report_rangecheckfailure 1001499f f   LIBCMT:gs_report.obj
 0001:000139ae       ___report_securityfailure  100149ae f   LIBCMT:gs_report.obj
 0001:00013ab2       ___report_securityfailureEx 10014ab2 f   LIBCMT:gs_report.obj
 0001:00013c0d       @__security_check_cookie@4 10014c0d f   LIBCMT:_secchk_.obj
 0001:00013c22       ___isa_available_init      10014c22 f   LIBCMT:_cpu_disp_.obj
 0001:000141ea       __CRT_INIT@12              100151ea f   LIBCMT:dll_dllmain.obj
 0001:000141f5       __DllMainCRTStartup@12     100151f5 f   LIBCMT:dll_dllmain.obj
 0001:00014220       ??$__crt_fast_decode_pointer@PAP6AXXZ@@YAPAP6AXXZQAP6AXXZ@Z 10015220 f i LIBCMT:utility.obj
 0001:00014239       ??$__crt_fast_encode_pointer@PAP6AXXZ@@YAPAP6AXXZQAP6AXXZ@Z 10015239 f i LIBCMT:utility.obj
 0001:0001425d       ?__crt_rotate_pointer_value@@YAIIH@Z 1001525d f i LIBCMT:utility.obj
 0001:0001426d       ?configure_argv@__scrt_narrow_argv_policy@@SAHXZ 1001526d f i LIBCMT:utility.obj
 0001:00014311       _NtCurrentTeb              10015311 f i LIBCMT:utility.obj
 0001:00014318       ___scrt_acquire_startup_lock 10015318 f   LIBCMT:utility.obj
 0001:0001435a       ___scrt_dllmain_after_initialize_c 1001535a f   LIBCMT:utility.obj
 0001:0001438f       ___scrt_dllmain_before_initialize_c 1001538f f   LIBCMT:utility.obj
 0001:000143a0       ___scrt_dllmain_crt_thread_attach 100153a0 f   LIBCMT:utility.obj
 0001:000143c6       ___scrt_dllmain_crt_thread_detach 100153c6 f   LIBCMT:utility.obj
 0001:000143d6       ___scrt_dllmain_exception_filter 100153d6 f   LIBCMT:utility.obj
 0001:00014415       ___scrt_dllmain_uninitialize_c 10015415 f   LIBCMT:utility.obj
 0001:00014440       ___scrt_dllmain_uninitialize_critical 10015440 f   LIBCMT:utility.obj
 0001:00014450       ___scrt_initialize_crt     10015450 f   LIBCMT:utility.obj
 0001:00014497       ___scrt_initialize_onexit_tables 10015497 f   LIBCMT:utility.obj
 0001:00014553       ___scrt_is_nonwritable_in_current_image 10015553 f   LIBCMT:utility.obj
 0001:000145ff       ___scrt_release_startup_lock 100155ff f   LIBCMT:utility.obj
 0001:00014623       ___scrt_uninitialize_crt   10015623 f   LIBCMT:utility.obj
 0001:00014655       __onexit                   10015655 f   LIBCMT:utility.obj
 0001:0001469e       _at_quick_exit             1001569e f   LIBCMT:utility.obj
 0001:000146db       _atexit                    100156db f   LIBCMT:utility.obj
 0001:000146f5       ___security_init_cookie    100156f5 f   LIBCMT:gs_support.obj
 0001:000147b8       ?__scrt_initialize_type_info@@YAXXZ 100157b8 f   LIBCMT:tncleanup.obj
 0001:000147c7       ?__scrt_uninitialize_type_info@@YAXXZ 100157c7 f   LIBCMT:tncleanup.obj
 0001:000147d6       ___local_stdio_scanf_options 100157d6 f i LIBCMT:default_local_stdio_options.obj
 0001:000147dc       ___scrt_initialize_default_local_stdio_options 100157dc f   LIBCMT:default_local_stdio_options.obj
 0001:00014800       ___scrt_get_dyn_tls_init_callback 10015800 f   LIBCMT:dyn_tls_init.obj
 0001:00014806       ___scrt_fastfail           10015806 f   LIBCMT:utility_desktop.obj
 0001:00014967       ___scrt_get_show_window_mode 10015967 f   LIBCMT:utility_desktop.obj
 0001:000149a6       ___scrt_initialize_winrt   100159a6 f   LIBCMT:utility_desktop.obj
 0001:000149a9       ___scrt_is_managed_app     100159a9 f   LIBCMT:utility_desktop.obj
 0001:000149fe       ___scrt_set_unhandled_exception_filter 100159fe f   LIBCMT:utility_desktop.obj
 0001:00014a0d       ___scrt_unhandled_exception_filter@4 10015a0d f   LIBCMT:utility_desktop.obj
 0001:00014a5e       __crt_debugger_hook        10015a5e f   LIBCMT:utility_desktop.obj
 0001:00014a68       __RTC_Initialize           10015a68 f   LIBCMT:_initsect_.obj
 0001:00014a9d       __RTC_Terminate            10015a9d f   LIBCMT:_initsect_.obj
 0001:00014ad2       @_guard_check_icall@4      10015ad2 f i LIBCMT:checkcfg.obj
 0001:00014ae0       __SEH_prolog4              10015ae0 f   LIBCMT:_sehprolg4_.obj
 0001:00014b26       __SEH_epilog4              10015b26 f   LIBCMT:_sehprolg4_.obj
 0001:00014b51       __get_startup_argv_mode    10015b51 f   LIBCMT:argv_mode.obj
 0001:00014b55       ___scrt_is_ucrt_dll_in_use 10015b55 f   LIBCMT:ucrt_detection.obj
 0001:00014b64       @_guard_check_icall_nop@4  10015b64 f i LIBCMT:guard_support.obj
 0001:00014b65       __guard_icall_checks_enforced 10015b65 f i LIBCMT:guard_support.obj
 0001:00014b7c       _GetModuleHandleA@4        10015b7c f   kernel32:KERNEL32.dll
 0001:00014b82       _GetProcAddress@8          10015b82 f   kernel32:KERNEL32.dll
 0001:00014b88       _UnhandledExceptionFilter@4 10015b88 f   kernel32:KERNEL32.dll
 0001:00014b8e       _SetUnhandledExceptionFilter@4 10015b8e f   kernel32:KERNEL32.dll
 0001:00014b94       _GetCurrentProcess@0       10015b94 f   kernel32:KERNEL32.dll
 0001:00014b9a       _TerminateProcess@8        10015b9a f   kernel32:KERNEL32.dll
 0001:00014ba0       _IsProcessorFeaturePresent@4 10015ba0 f   kernel32:KERNEL32.dll
 0001:00014ba6       _QueryPerformanceCounter@4 10015ba6 f   kernel32:KERNEL32.dll
 0001:00014bac       _GetCurrentProcessId@0     10015bac f   kernel32:KERNEL32.dll
 0001:00014bb2       _GetCurrentThreadId@0      10015bb2 f   kernel32:KERNEL32.dll
 0001:00014bb8       _GetSystemTimeAsFileTime@4 10015bb8 f   kernel32:KERNEL32.dll
 0001:00014bbe       _InitializeSListHead@4     10015bbe f   kernel32:KERNEL32.dll
 0001:00014bc4       _IsDebuggerPresent@0       10015bc4 f   kernel32:KERNEL32.dll
 0001:00014bca       _GetStartupInfoW@4         10015bca f   kernel32:KERNEL32.dll
 0001:00014bd0       _GetModuleHandleW@4        10015bd0 f   kernel32:KERNEL32.dll
 0001:00014be0       _memset                    10015be0 f   libvcruntime:memset.obj
 0001:00014d90       _memcpy                    10015d90 f   libvcruntime:memcpy.obj
 0001:00015470       _memmove                   10016470 f   libvcruntime:memmove.obj
 0001:00015b50       _strchr                    10016b50 f   libvcruntime:strchr.obj
 0001:00015bbe       ___from_strstr_to_strchr   10016bbe     libvcruntime:strchr.obj
 0001:00015d10       __except_handler4          10016d10 f   libvcruntime:_chandler4_.obj
 0001:00015ecf       ___vcrt_initialize         10016ecf f   libvcruntime:initialization.obj
 0001:00015f02       ___vcrt_thread_attach      10016f02 f   libvcruntime:initialization.obj
 0001:00015f0f       ___vcrt_thread_detach      10016f0f f   libvcruntime:initialization.obj
 0001:00015f1c       ___vcrt_uninitialize       10016f1c f   libvcruntime:initialization.obj
 0001:00015f42       ___vcrt_uninitialize_critical 10016f42 f   libvcruntime:initialization.obj
 0001:00015f5d       ??$?RD@__crt_internal_free_policy@@QBEXQBD@Z 10016f5d f i libvcruntime:std_type_info.obj
 0001:00015f71       ??$?RX@__crt_internal_free_policy@@QBEXQBX@Z 10016f71 f i libvcruntime:std_type_info.obj
 0001:00015f85       ??$__crt_interlocked_compare_exchange_pointer@$$CBD$$T$$T@@YAPBDPDSBD$$T1@Z 10016f85 f i libvcruntime:std_type_info.obj
 0001:00015f9b       ??$__crt_interlocked_compare_exchange_pointer@$$CBDPAD$$T@@YAPBDPDSBDQAD$$T@Z 10016f9b f i libvcruntime:std_type_info.obj
 0001:00015fb1       ??$__crt_interlocked_read_pointer@$$CBD@@YAPBDPDSBD@Z 10016fb1 f i libvcruntime:std_type_info.obj
 0001:00015fc5       ??0?$__crt_unique_heap_ptr@DU__crt_internal_free_policy@@@@QAE@QAD@Z 10016fc5 f i libvcruntime:std_type_info.obj
 0001:00015fd6       ??0?$__crt_unique_heap_ptr@XU__crt_internal_free_policy@@@@QAE@QAX@Z 10016fd6 f i libvcruntime:std_type_info.obj
 0001:00015fe7       ??1?$__crt_unique_heap_ptr@DU__crt_internal_free_policy@@@@QAE@XZ 10016fe7 f i libvcruntime:std_type_info.obj
 0001:00015ffb       ??1?$__crt_unique_heap_ptr@XU__crt_internal_free_policy@@@@QAE@XZ 10016ffb f i libvcruntime:std_type_info.obj
 0001:0001601b       ??B?$__crt_unique_heap_ptr@DU__crt_internal_free_policy@@@@QBE_NXZ 1001701b f i libvcruntime:std_type_info.obj
 0001:00016022       ??B?$__crt_unique_heap_ptr@XU__crt_internal_free_policy@@@@QBE_NXZ 10017022 f i libvcruntime:std_type_info.obj
 0001:00016051       ?detach@?$__crt_unique_heap_ptr@XU__crt_internal_free_policy@@@@QAEPAXXZ 10017051 f i libvcruntime:std_type_info.obj
 0001:00016057       ?get@?$__crt_unique_heap_ptr@DU__crt_internal_free_policy@@@@QBEPADXZ 10017057 f i libvcruntime:std_type_info.obj
 0001:0001605a       ?get@?$__crt_unique_heap_ptr@XU__crt_internal_free_policy@@@@QBEPAXXZ 1001705a f i libvcruntime:std_type_info.obj
 0001:0001605d       ?is_valid@?$__crt_unique_heap_ptr@DU__crt_internal_free_policy@@@@QBE_NXZ 1001705d f i libvcruntime:std_type_info.obj
 0001:00016064       ?is_valid@?$__crt_unique_heap_ptr@XU__crt_internal_free_policy@@@@QBE_NXZ 10017064 f i libvcruntime:std_type_info.obj
 0001:0001606b       ?release@?$__crt_unique_heap_ptr@DU__crt_internal_free_policy@@@@QAEXXZ 1001706b f i libvcruntime:std_type_info.obj
 0001:0001607f       ?release@?$__crt_unique_heap_ptr@XU__crt_internal_free_policy@@@@QAEXXZ 1001707f f i libvcruntime:std_type_info.obj
 0001:00016093       ___std_type_info_compare   10017093 f   libvcruntime:std_type_info.obj
 0001:000160de       ___std_type_info_destroy_list 100170de f   libvcruntime:std_type_info.obj
 0001:00016109       ___std_type_info_hash      10017109 f   libvcruntime:std_type_info.obj
 0001:00016138       ___std_type_info_name      10017138 f   libvcruntime:std_type_info.obj
 0001:00016240       __local_unwind4            10017240 f   libvcruntime:_exsup4_.obj
 0001:00016316       __seh_longjmp_unwind4@4    10017316 f   libvcruntime:_exsup4_.obj
 0001:0001633e       @_EH4_CallFilterFunc@8     1001733e f   libvcruntime:_exsup4_.obj
 0001:00016355       @_EH4_TransferToHandler@8  10017355 f   libvcruntime:_exsup4_.obj
 0001:0001636e       @_EH4_GlobalUnwind2@8      1001736e f   libvcruntime:_exsup4_.obj
 0001:00016387       @_EH4_LocalUnwind@16       10017387 f   libvcruntime:_exsup4_.obj
 0001:000163f5       ___except_validate_context_record 100173f5 f   libvcruntime:jbcxrval.obj
 0001:000163f6       ___except_validate_jump_buffer 100173f6 f   libvcruntime:jbcxrval.obj
 0001:000163f7       ??$?RU__vcrt_ptd@@@__crt_internal_free_policy@@QBEXQBU__vcrt_ptd@@@Z 100173f7 f i libvcruntime:per_thread_data.obj
 0001:0001640b       ??0?$__crt_unique_heap_ptr@U__vcrt_ptd@@U__crt_internal_free_policy@@@@QAE@QAU__vcrt_ptd@@@Z 1001740b f i libvcruntime:per_thread_data.obj
 0001:0001642e       ??1?$__crt_unique_heap_ptr@U__vcrt_ptd@@U__crt_internal_free_policy@@@@QAE@XZ 1001742e f i libvcruntime:per_thread_data.obj
 0001:0001644d       ??B?$__crt_unique_heap_ptr@U__vcrt_ptd@@U__crt_internal_free_policy@@@@QBE_NXZ 1001744d f i libvcruntime:per_thread_data.obj
 0001:00016454       ?detach@?$__crt_unique_heap_ptr@U__vcrt_ptd@@U__crt_internal_free_policy@@@@QAEPAU__vcrt_ptd@@XZ 10017454 f i libvcruntime:per_thread_data.obj
 0001:0001645a       ?get@?$__crt_unique_heap_ptr@U__vcrt_ptd@@U__crt_internal_free_policy@@@@QBEPAU__vcrt_ptd@@XZ 1001745a f i libvcruntime:per_thread_data.obj
 0001:0001645d       ?is_valid@?$__crt_unique_heap_ptr@U__vcrt_ptd@@U__crt_internal_free_policy@@@@QBE_NXZ 1001745d f i libvcruntime:per_thread_data.obj
 0001:00016464       ?release@?$__crt_unique_heap_ptr@U__vcrt_ptd@@U__crt_internal_free_policy@@@@QAEXXZ 10017464 f i libvcruntime:per_thread_data.obj
 0001:00016498       ___vcrt_freefls@4          10017498 f   libvcruntime:per_thread_data.obj
 0001:000164bb       ___vcrt_freeptd            100174bb f   libvcruntime:per_thread_data.obj
 0001:000164fe       ___vcrt_getptd             100174fe f   libvcruntime:per_thread_data.obj
 0001:0001650f       ___vcrt_getptd_noexit      1001750f f   libvcruntime:per_thread_data.obj
 0001:000165c5       ___vcrt_initialize_ptd     100175c5 f   libvcruntime:per_thread_data.obj
 0001:00016604       ___vcrt_uninitialize_ptd   10017604 f   libvcruntime:per_thread_data.obj
 0001:00016625       ___vcrt_initialize_locks   10017625 f   libvcruntime:locks.obj
 0001:00016670       ___vcrt_lock               10017670 f   libvcruntime:locks.obj
 0001:0001668a       ___vcrt_uninitialize_locks 1001768a f   libvcruntime:locks.obj
 0001:000166c4       ___vcrt_unlock             100176c4 f   libvcruntime:locks.obj
 0001:000166de       ??$?BX@__crt_fast_encoded_nullptr_t@@QBEPAXXZ 100176de f i libvcruntime:winapi_downlevel.obj
 0001:000166fc       ??$__crt_fast_decode_pointer@PAX@@YAPAXQAX@Z 100176fc f i libvcruntime:winapi_downlevel.obj
 0001:00016715       ??$__crt_fast_encode_pointer@PAX@@YAPAXQAX@Z 10017715 f i libvcruntime:winapi_downlevel.obj
 0001:00016739       ??$__crt_interlocked_compare_exchange_pointer@UHINSTANCE__@@$$T$$T@@YAPAUHINSTANCE__@@PDSAU0@$$T1@Z 10017739 f i libvcruntime:winapi_downlevel.obj
 0001:0001674f       ??$__crt_interlocked_compare_exchange_pointer@X$$T$$T@@YAPAXPDSAX$$T1@Z 1001774f f i libvcruntime:winapi_downlevel.obj
 0001:00016765       ??$__crt_interlocked_exchange_pointer@UHINSTANCE__@@PAU1@@@YAPAUHINSTANCE__@@PDSAU0@QAU0@@Z 10017765 f i libvcruntime:winapi_downlevel.obj
 0001:00016775       ??$__crt_interlocked_exchange_pointer@UHINSTANCE__@@PAX@@YAPAUHINSTANCE__@@PDSAU0@QAX@Z 10017775 f i libvcruntime:winapi_downlevel.obj
 0001:00016785       ??$__crt_interlocked_exchange_pointer@XPAX@@YAPAXPDSAXQAX@Z 10017785 f i libvcruntime:winapi_downlevel.obj
 0001:00016795       ??$__crt_interlocked_read_pointer@UHINSTANCE__@@@@YAPAUHINSTANCE__@@PDSAU0@@Z 10017795 f i libvcruntime:winapi_downlevel.obj
 0001:000167a9       ??$__crt_interlocked_read_pointer@X@@YAPAXPDSAX@Z 100177a9 f i libvcruntime:winapi_downlevel.obj
 0001:000167bd       ?__crt_fast_encode_pointer@@YA?AU__crt_fast_encoded_nullptr_t@@$$T@Z 100177bd f i libvcruntime:winapi_downlevel.obj
 0001:00016b01       ___vcrt_EventRegister      10017b01 f   libvcruntime:winapi_downlevel.obj
 0001:00016b51       ___vcrt_EventSetInformation 10017b51 f   libvcruntime:winapi_downlevel.obj
 0001:00016ba4       ___vcrt_EventUnregister    10017ba4 f   libvcruntime:winapi_downlevel.obj
 0001:00016bec       ___vcrt_EventWriteTransfer 10017bec f   libvcruntime:winapi_downlevel.obj
 0001:00016c47       ___vcrt_FlsAlloc           10017c47 f   libvcruntime:winapi_downlevel.obj
 0001:00016c8f       ___vcrt_FlsFree            10017c8f f   libvcruntime:winapi_downlevel.obj
 0001:00016cd7       ___vcrt_FlsGetValue        10017cd7 f   libvcruntime:winapi_downlevel.obj
 0001:00016d1f       ___vcrt_FlsSetValue        10017d1f f   libvcruntime:winapi_downlevel.obj
 0001:00016d6b       ___vcrt_InitializeCriticalSectionEx 10017d6b f   libvcruntime:winapi_downlevel.obj
 0001:00016dc2       ___vcrt_initialize_winapi_thunks 10017dc2 f   libvcruntime:winapi_downlevel.obj
 0001:00016e0a       ___vcrt_uninitialize_winapi_thunks 10017e0a f   libvcruntime:winapi_downlevel.obj
 0001:00016e48       ??$?B$$A6AXXZ@__crt_fast_encoded_nullptr_t@@QBEP6AXXZXZ 10017e48 f i libvcruntime:purevirt_data.obj
 0001:00016e66       ??$__crt_fast_encode_pointer@P6AXXZ@@YAP6AXXZQ6AXXZ@Z 10017e66 f i libvcruntime:purevirt_data.obj
 0001:00016e8a       ___vcrt_initialize_pure_virtual_call_handler 10017e8a f   libvcruntime:purevirt_data.obj
 0001:00016eae       ??$__vcrt_va_start_verify_argument_type@QBD@@YAXXZ 10017eae f i libvcruntime:undname.obj
 0001:00016eaf       ??0Block@_HeapManager@@QAE@XZ 10017eaf f i libvcruntime:undname.obj
 0001:00016eb5       ??0DName@@QAE@AAPBDD@Z     10017eb5 f   libvcruntime:undname.obj
 0001:00016f9c       ??0DName@@QAE@ABV0@@Z      10017f9c f i libvcruntime:undname.obj
 0001:00016fb7       ??0DName@@QAE@D@Z          10017fb7 f   libvcruntime:undname.obj
 0001:00016fee       ??0DName@@QAE@PAV0@@Z      10017fee f   libvcruntime:undname.obj
 0001:0001704e       ??0DName@@QAE@PBD@Z        1001804e f   libvcruntime:undname.obj
 0001:00017096       ??0DName@@QAE@W4DNameStatus@@@Z 10018096 f   libvcruntime:undname.obj
 0001:000170e9       ??0DName@@QAE@XZ           100180e9 f i libvcruntime:undname.obj
 0001:000170fe       ??0DName@@QAE@_J@Z         100180fe f   libvcruntime:undname.obj
 0001:000171b8       ??0DName@@QAE@_K@Z         100181b8 f   libvcruntime:undname.obj
 0001:00017242       ??0DNameNode@@IAE@XZ       10018242 f   libvcruntime:undname.obj
 0001:0001724d       ??0DNameStatusNode@@AAE@W4DNameStatus@@@Z 1001824d f   libvcruntime:undname.obj
 0001:00017278       ??0Replicator@@QAE@XZ      10018278 f i libvcruntime:undname.obj
 0001:0001727e       ??0UnDecorator@@QAE@PADPBDHP6APADJ@ZK@Z 1001827e f i libvcruntime:undname.obj
 0001:00017301       ??0charNode@@QAE@D@Z       10018301 f   libvcruntime:undname.obj
 0001:0001731b       ??0pDNameNode@@QAE@PAVDName@@@Z 1001831b f   libvcruntime:undname.obj
 0001:0001734d       ??0pairNode@@QAE@PAVDNameNode@@0@Z 1001834d f   libvcruntime:undname.obj
 0001:00017373       ??0pcharNode@@QAE@PBDH@Z   10018373 f   libvcruntime:undname.obj
 0001:000173e2       ??2@YAPAXIAAV_HeapManager@@H@Z 100183e2 f i libvcruntime:undname.obj
 0001:000173fc       ??4DName@@QAEAAV0@ABV0@@Z  100183fc f   libvcruntime:undname.obj
 0001:00017417       ??4DName@@QAEAAV0@D@Z      10018417 f i libvcruntime:undname.obj
 0001:0001744e       ??4DName@@QAEAAV0@PAV0@@Z  1001844e f   libvcruntime:undname.obj
 0001:000174a9       ??4DName@@QAEAAV0@PBD@Z    100184a9 f   libvcruntime:undname.obj
 0001:000174e7       ??4DName@@QAEAAV0@W4DNameStatus@@@Z 100184e7 f   libvcruntime:undname.obj
 0001:00017529       ??AReplicator@@QBE?AVDName@@H@Z 10018529 f   libvcruntime:undname.obj
 0001:00017574       ??BUnDecorator@@QAEPADXZ   10018574 f i libvcruntime:undname.obj
 0001:0001774b       ??H@YA?AVDName@@DABV0@@Z   1001874b f i libvcruntime:undname.obj
 0001:00017778       ??H@YA?AVDName@@PBDABV0@@Z 10018778 f i libvcruntime:undname.obj
 0001:000177a5       ??H@YA?AVDName@@W4DNameStatus@@ABV0@@Z 100187a5 f i libvcruntime:undname.obj
 0001:000177d2       ??HDName@@QBE?AV0@ABV0@@Z  100187d2 f   libvcruntime:undname.obj
 0001:000177fc       ??HDName@@QBE?AV0@D@Z      100187fc f   libvcruntime:undname.obj
 0001:00017826       ??HDName@@QBE?AV0@PAV0@@Z  10018826 f   libvcruntime:undname.obj
 0001:00017850       ??HDName@@QBE?AV0@PBD@Z    10018850 f   libvcruntime:undname.obj
 0001:0001787a       ??HDName@@QBE?AV0@W4DNameStatus@@@Z 1001887a f   libvcruntime:undname.obj
 0001:000178a4       ??YDName@@QAEAAV0@ABV0@@Z  100188a4 f   libvcruntime:undname.obj
 0001:000178f7       ??YDName@@QAEAAV0@D@Z      100188f7 f   libvcruntime:undname.obj
 0001:0001795b       ??YDName@@QAEAAV0@PAV0@@Z  1001895b f   libvcruntime:undname.obj
 0001:000179d9       ??YDName@@QAEAAV0@PBD@Z    100189d9 f   libvcruntime:undname.obj
 0001:00017a52       ??YDName@@QAEAAV0@W4DNameStatus@@@Z 10018a52 f   libvcruntime:undname.obj
 0001:00017aa2       ??YReplicator@@QAEAAV0@ABVDName@@@Z 10018aa2 f   libvcruntime:undname.obj
 0001:00017afe       ??_5DName@@QAEAAV0@ABV0@@Z 10018afe f   libvcruntime:undname.obj
 0001:00017b21       ?Constructor@_HeapManager@@QAEXP6APAXI@ZP6AXPAX@Z@Z 10018b21 f i libvcruntime:undname.obj
 0001:00017b45       ?Destructor@_HeapManager@@QAEXXZ 10018b45 f i libvcruntime:undname.obj
 0001:00017b8c       ?UScore@UnDecorator@@SAPBDW4Tokens@@@Z 10018b8c f   libvcruntime:undname.obj
 0001:00017bb0       ?append@DName@@AAEXPAVDNameNode@@@Z 10018bb0 f   libvcruntime:undname.obj
 0001:00017c07       ?composeDeclaration@UnDecorator@@CA?AVDName@@ABV2@@Z 10018c07 f i libvcruntime:undname.obj
 0001:00018c42       ?doAccessSpecifiers@UnDecorator@@SAHXZ 10019c42 f i libvcruntime:undname.obj
 0001:00018c53       ?doAllocationLanguage@UnDecorator@@SAHXZ 10019c53 f i libvcruntime:undname.obj
 0001:00018c64       ?doAllocationModel@UnDecorator@@SAHXZ 10019c64 f i libvcruntime:undname.obj
 0001:00018c75       ?doEcsu@UnDecorator@@SAHXZ 10019c75 f i libvcruntime:undname.obj
 0001:00018c86       ?doEllipsis@UnDecorator@@SAHXZ 10019c86 f i libvcruntime:undname.obj
 0001:00018c97       ?doFunctionReturns@UnDecorator@@SAHXZ 10019c97 f i libvcruntime:undname.obj
 0001:00018ca8       ?doMSKeywords@UnDecorator@@SAHXZ 10019ca8 f i libvcruntime:undname.obj
 0001:00018cb8       ?doMemberTypes@UnDecorator@@SAHXZ 10019cb8 f i libvcruntime:undname.obj
 0001:00018cc9       ?doNameOnly@UnDecorator@@SAHXZ 10019cc9 f i libvcruntime:undname.obj
 0001:00018cd6       ?doNoIdentCharCheck@UnDecorator@@SAHXZ 10019cd6 f i libvcruntime:undname.obj
 0001:00018ce3       ?doPchar@DName@@AAEXPBDH@Z 10019ce3 f   libvcruntime:undname.obj
 0001:00018d8f       ?doPtr64@UnDecorator@@SAHXZ 10019d8f f i libvcruntime:undname.obj
 0001:00018da0       ?doRestrictionSpec@UnDecorator@@SAHXZ 10019da0 f i libvcruntime:undname.obj
 0001:00018db1       ?doThisTypes@UnDecorator@@SAHXZ 10019db1 f i libvcruntime:undname.obj
 0001:00018dc7       ?doThrowTypes@UnDecorator@@SAHXZ 10019dc7 f i libvcruntime:undname.obj
 0001:00018dd8       ?doTypeOnly@UnDecorator@@SAHXZ 10019dd8 f i libvcruntime:undname.obj
 0001:00018de5       ?doUnderScore@UnDecorator@@SAHXZ 10019de5 f i libvcruntime:undname.obj
 0001:00018df2       ?getArgumentList@UnDecorator@@CA?AVDName@@XZ 10019df2 f   libvcruntime:undname.obj
 0001:00018f41       ?getArgumentTypes@UnDecorator@@CA?AVDName@@XZ 10019f41 f   libvcruntime:undname.obj
 0001:00019059       ?getArrayType@UnDecorator@@CA?AVDName@@ABV2@@Z 1001a059 f i libvcruntime:undname.obj
 0001:000192db       ?getBasedType@UnDecorator@@CA?AVDName@@XZ 1001a2db f   libvcruntime:undname.obj
 0001:0001939a       ?getBasicDataType@UnDecorator@@CA?AVDName@@ABV2@@Z 1001a39a f   libvcruntime:undname.obj
 0001:00019884       ?getCallIndex@UnDecorator@@CA?AVDName@@XZ 1001a884 f i libvcruntime:undname.obj
 0001:0001989d       ?getCallingConvention@UnDecorator@@CA?AVDName@@XZ 1001a89d f   libvcruntime:undname.obj
 0001:0001998b       ?getDataIndirectType@UnDecorator@@CA?AVDName@@ABV2@PBD0H@Z 1001a98b f   libvcruntime:undname.obj
 0001:0001a136       ?getDataIndirectType@UnDecorator@@CA?AVDName@@XZ 1001b136 f i libvcruntime:undname.obj
 0001:0001a17d       ?getDataType@UnDecorator@@CA?AVDName@@PAV2@@Z 1001b17d f   libvcruntime:undname.obj
 0001:0001a283       ?getDecoratedName@UnDecorator@@CA?AVDName@@XZ 1001b283 f   libvcruntime:undname.obj
 0001:0001a562       ?getDimension@UnDecorator@@CA?AVDName@@_N@Z 1001b562 f   libvcruntime:undname.obj
 0001:0001a6e6       ?getDispatchTarget@UnDecorator@@CA?AVDName@@XZ 1001b6e6 f   libvcruntime:undname.obj
 0001:0001a757       ?getDisplacement@UnDecorator@@CA?AVDName@@XZ 1001b757 f i libvcruntime:undname.obj
 0001:0001a770       ?getECSUDataType@UnDecorator@@CA?AVDName@@XZ 1001b770 f   libvcruntime:undname.obj
 0001:0001a8d4       ?getECSUName@UnDecorator@@CA?AVDName@@XZ 1001b8d4 f i libvcruntime:undname.obj
 0001:0001a8e9       ?getEnumType@UnDecorator@@CA?AVDName@@XZ 1001b8e9 f i libvcruntime:undname.obj
 0001:0001aa10       ?getExtendedDataIndirectType@UnDecorator@@CA?AVDName@@AAPBDAA_NH@Z 1001ba10 f   libvcruntime:undname.obj
 0001:0001ac23       ?getExternalDataType@UnDecorator@@CA?AVDName@@ABV2@@Z 1001bc23 f i libvcruntime:undname.obj
 0001:0001acba       ?getFunctionIndirectType@UnDecorator@@CA?AVDName@@ABV2@@Z 1001bcba f   libvcruntime:undname.obj
 0001:0001b1c5       ?getGuardNumber@UnDecorator@@CA?AVDName@@XZ 1001c1c5 f i libvcruntime:undname.obj
 0001:0001b1de       ?getLastChar@DName@@QBEDXZ 1001c1de f i libvcruntime:undname.obj
 0001:0001b204       ?getLastChar@DNameStatusNode@@UBEDXZ 1001c204 f i libvcruntime:undname.obj
 0001:0001b213       ?getLastChar@charNode@@UBEDXZ 1001c213 f i libvcruntime:undname.obj
 0001:0001b217       ?getLastChar@pDNameNode@@UBEDXZ 1001c217 f i libvcruntime:undname.obj
 0001:0001b228       ?getLastChar@pairNode@@UBEDXZ 1001c228 f i libvcruntime:undname.obj
 0001:0001b267       ?getLastChar@pcharNode@@UBEDXZ 1001c267 f i libvcruntime:undname.obj
 0001:0001b27d       ?getLexicalFrame@UnDecorator@@CA?AVDName@@XZ 1001c27d f i libvcruntime:undname.obj
 0001:0001b2c9       ?getMemory@_HeapManager@@QAEPAXIH@Z 1001c2c9 f   libvcruntime:undname.obj
 0001:0001b37a       ?getNumberOfDimensions@UnDecorator@@CAHXZ 1001c37a f   libvcruntime:undname.obj
 0001:0001b3f3       ?getOperatorName@UnDecorator@@CA?AVDName@@_NPA_N@Z 1001c3f3 f i libvcruntime:undname.obj
 0001:0001bba3       ?getPointerType@UnDecorator@@CA?AVDName@@ABV2@0@Z 1001cba3 f i libvcruntime:undname.obj
 0001:0001bbc8       ?getPointerTypeArray@UnDecorator@@CA?AVDName@@ABV2@0@Z 1001cbc8 f i libvcruntime:undname.obj
 0001:0001bbed       ?getPrimaryDataType@UnDecorator@@CA?AVDName@@ABV2@@Z 1001cbed f   libvcruntime:undname.obj
 0001:0001be5e       ?getPtrRefDataType@UnDecorator@@CA?AVDName@@ABV2@H@Z 1001ce5e f   libvcruntime:undname.obj
 0001:0001bfa0       ?getPtrRefType@UnDecorator@@CA?AVDName@@ABV2@0PBD@Z 1001cfa0 f   libvcruntime:undname.obj
 0001:0001c0db       ?getReferenceType@UnDecorator@@CA?AVDName@@ABV2@0PBD@Z 1001d0db f i libvcruntime:undname.obj
 0001:0001c0fe       ?getRestrictionSpec@UnDecorator@@CA?AVDName@@XZ 1001d0fe f   libvcruntime:undname.obj
 0001:0001c22c       ?getReturnType@UnDecorator@@CA?AVDName@@PAV2@@Z 1001d22c f   libvcruntime:undname.obj
 0001:0001c266       ?getScope@UnDecorator@@CA?AVDName@@XZ 1001d266 f   libvcruntime:undname.obj
 0001:0001c73b       ?getScopedName@UnDecorator@@CA?AVDName@@XZ 1001d73b f   libvcruntime:undname.obj
 0001:0001c874       ?getSignedDimension@UnDecorator@@CA?AVDName@@XZ 1001d874 f   libvcruntime:undname.obj
 0001:0001c8db       ?getStorageConvention@UnDecorator@@CA?AVDName@@XZ 1001d8db f i libvcruntime:undname.obj
 0001:0001c8f0       ?getString@DName@@QBEPADPAD0@Z 1001d8f0 f i libvcruntime:undname.obj
 0001:0001c927       ?getString@DName@@QBEPADPADH@Z 1001d927 f i libvcruntime:undname.obj
 0001:0001c992       ?getString@DNameStatusNode@@UBEPADPAD0@Z 1001d992 f i libvcruntime:undname.obj
 0001:0001c9c2       ?getString@charNode@@UBEPADPAD0@Z 1001d9c2 f i libvcruntime:undname.obj
 0001:0001c9dc       ?getString@pDNameNode@@UBEPADPAD0@Z 1001d9dc f i libvcruntime:undname.obj
 0001:0001c9f8       ?getString@pairNode@@UBEPADPAD0@Z 1001d9f8 f i libvcruntime:undname.obj
 0001:0001ca4d       ?getString@pcharNode@@UBEPADPAD0@Z 1001da4d f i libvcruntime:undname.obj
 0001:0001ca6e       ?getStringEncoding@UnDecorator@@CA?AVDName@@PADH@Z 1001da6e f   libvcruntime:undname.obj
 0001:0001cb39       ?getStringHelper@@YAPADPAD00H@Z 1001db39 f i libvcruntime:undname.obj
 0001:0001cb7d       ?getSymbolName@UnDecorator@@CA?AVDName@@XZ 1001db7d f i libvcruntime:undname.obj
 0001:0001cbd7       ?getTemplateArgumentList@UnDecorator@@CA?AVDName@@XZ 1001dbd7 f   libvcruntime:undname.obj
 0001:0001cf24       ?getTemplateConstant@UnDecorator@@CA?AVDName@@XZ 1001df24 f   libvcruntime:undname.obj
 0001:0001d339       ?getTemplateName@UnDecorator@@CA?AVDName@@_N@Z 1001e339 f   libvcruntime:undname.obj
 0001:0001d4e4       ?getThisType@UnDecorator@@CA?AVDName@@XZ 1001e4e4 f i libvcruntime:undname.obj
 0001:0001d52c       ?getThrowTypes@UnDecorator@@CA?AVDName@@XZ 1001e52c f   libvcruntime:undname.obj
 0001:0001d5d8       ?getTypeEncoding@UnDecorator@@CAHXZ 1001e5d8 f i libvcruntime:undname.obj
 0001:0001d9d4       ?getVCallThunkType@UnDecorator@@CA?AVDName@@XZ 1001e9d4 f i libvcruntime:undname.obj
 0001:0001da1d       ?getVbTableType@UnDecorator@@CA?AVDName@@ABV2@@Z 1001ea1d f i libvcruntime:undname.obj
 0001:0001da37       ?getVdispMapType@UnDecorator@@CA?AVDName@@ABV2@@Z 1001ea37 f i libvcruntime:undname.obj
 0001:0001daa2       ?getVfTableType@UnDecorator@@CA?AVDName@@ABV2@@Z 1001eaa2 f i libvcruntime:undname.obj
 0001:0001dc60       ?getZName@UnDecorator@@CA?AVDName@@_N0@Z 1001ec60 f   libvcruntime:undname.obj
 0001:0001df30       ?haveTemplateParameters@UnDecorator@@SAHXZ 1001ef30 f i libvcruntime:undname.obj
 0001:0001df3d       ?isArray@DName@@QBEHXZ     1001ef3d f i libvcruntime:undname.obj
 0001:0001df49       ?isComArray@DName@@QBEHXZ  1001ef49 f i libvcruntime:undname.obj
 0001:0001df55       ?isEmpty@DName@@QBEHXZ     1001ef55 f i libvcruntime:undname.obj
 0001:0001df5f       ?isFull@Replicator@@QBEHXZ 1001ef5f f i libvcruntime:undname.obj
 0001:0001df6a       ?isNoTE@DName@@QBEHXZ      1001ef6a f i libvcruntime:undname.obj
 0001:0001df76       ?isPinPtr@DName@@QBEHXZ    1001ef76 f i libvcruntime:undname.obj
 0001:0001df82       ?isPtrRef@DName@@QBEHXZ    1001ef82 f i libvcruntime:undname.obj
 0001:0001df8e       ?isUDC@DName@@QBEHXZ       1001ef8e f i libvcruntime:undname.obj
 0001:0001dfa3       ?isUDTThunk@DName@@QBEHXZ  1001efa3 f i libvcruntime:undname.obj
 0001:0001dfb8       ?isVCallThunk@DName@@QBEHXZ 1001efb8 f i libvcruntime:undname.obj
 0001:0001dfc4       ?isValid@DName@@QBEHXZ     1001efc4 f i libvcruntime:undname.obj
 0001:0001dfd0       ?length@DName@@QBEHXZ      1001efd0 f i libvcruntime:undname.obj
 0001:0001dff5       ?length@DNameStatusNode@@UBEHXZ 1001eff5 f i libvcruntime:undname.obj
 0001:0001dff9       ?length@charNode@@UBEHXZ   1001eff9 f i libvcruntime:undname.obj
 0001:0001dffd       ?length@pDNameNode@@UBEHXZ 1001effd f i libvcruntime:undname.obj
 0001:0001e00e       ?length@pairNode@@UBEHXZ   1001f00e f i libvcruntime:undname.obj
 0001:0001e06a       ?length@pcharNode@@UBEHXZ  1001f06a f i libvcruntime:undname.obj
 0001:0001e06e       ?make@DNameStatusNode@@SAPAV1@W4DNameStatus@@@Z 1001f06e f i libvcruntime:undname.obj
 0001:0001e115       ?setIsArray@DName@@QAEXXZ  1001f115 f i libvcruntime:undname.obj
 0001:0001e11f       ?setIsComArray@DName@@QAEXXZ 1001f11f f i libvcruntime:undname.obj
 0001:0001e129       ?setIsNoTE@DName@@QAEXXZ   1001f129 f i libvcruntime:undname.obj
 0001:0001e133       ?setIsPinPtr@DName@@QAEXXZ 1001f133 f i libvcruntime:undname.obj
 0001:0001e13d       ?setIsUDC@DName@@QAEXXZ    1001f13d f i libvcruntime:undname.obj
 0001:0001e14d       ?setIsVCallThunk@DName@@QAEXXZ 1001f14d f i libvcruntime:undname.obj
 0001:0001e157       ?setPtrRef@DName@@QAEAAV1@XZ 1001f157 f i libvcruntime:undname.obj
 0001:0001e163       ?status@DName@@QBE?AW4DNameStatus@@XZ 1001f163 f i libvcruntime:undname.obj
 0001:0001e1e8       ___unDName                 1001f1e8 f   libvcruntime:undname.obj
 0001:0001e2a2       ___unDNameEx               1001f2a2 f   libvcruntime:undname.obj
 0001:0001e35c       __vsprintf_s_l             1001f35c f i libvcruntime:undname.obj
 0001:0001e394       _sprintf_s                 1001f394 f i libvcruntime:undname.obj
 0001:0001e3c0       __global_unwind2           1001f3c0 f   libvcruntime:_exsup_.obj
 0001:0001e425       __local_unwind2            1001f425 f   libvcruntime:_exsup_.obj
 0001:0001e4a9       __abnormal_termination     1001f4a9 f   libvcruntime:_exsup_.obj
 0001:0001e4cc       __NLG_Notify1              1001f4cc f   libvcruntime:_exsup_.obj
 0001:0001e4d5       __NLG_Notify               1001f4d5 f   libvcruntime:_exsup_.obj
 0001:0001e4ec       __NLG_Dispatch             1001f4ec     libvcruntime:_exsup_.obj
 0001:0001e4ec       __NLG_Dispatch2            1001f4ec     libvcruntime:_exsup_.obj
 0001:0001e4f4       __NLG_Call                 1001f4f4 f   libvcruntime:_exsup_.obj
 0001:0001e4f6       __NLG_Return2              1001f4f6     libvcruntime:_exsup_.obj
 0001:0001e544       ??$__crt_fast_decode_pointer@P6AXXZ@@YAP6AXXZQ6AXXZ@Z 1001f544 f i libvcruntime:purevirt.obj
 0001:0001e55d       ??$__crt_interlocked_compare_exchange_pointer@$$A6AXXZ$$T$$T@@YAP6AXXZPDS6AXXZ$$T1@Z 1001f55d f i libvcruntime:purevirt.obj
 0001:0001e573       ??$__crt_interlocked_exchange_pointer@$$A6AXXZP6AXXZ@@YAP6AXXZPDS6AXXZQ6AXXZ@Z 1001f573 f i libvcruntime:purevirt.obj
 0001:0001e583       ??$__crt_interlocked_read_pointer@$$A6AXXZ@@YAP6AXXZPDS6AXXZ@Z 1001f583 f i libvcruntime:purevirt.obj
 0001:0001e597       __get_purecall_handler     1001f597 f   libvcruntime:purevirt.obj
 0001:0001e5bd       __purecall                 1001f5bd f   libvcruntime:purevirt.obj
 0001:0001e5de       __set_purecall_handler     1001f5de f   libvcruntime:purevirt.obj
 0001:0001e60c       _malloc                    1001f60c f   libucrt:malloc.obj
 0001:0001e619       ??$?RPAU__crt_stdio_stream_data@@@__crt_internal_free_policy@@QBEXQBQAU__crt_stdio_stream_data@@@Z 1001f619 f i libucrt:_file.obj
 0001:0001e62f       ??0?$__crt_unique_heap_ptr@PAU__crt_stdio_stream_data@@U__crt_internal_free_policy@@@@QAE@QAPAU__crt_stdio_stream_data@@@Z 1001f62f f i libucrt:_file.obj
 0001:0001e643       ??0__crt_stdio_stream@@QAE@QAU_iobuf@@@Z 1001f643 f i libucrt:_file.obj
 0001:0001e657       ??1?$__crt_unique_heap_ptr@PAU__crt_stdio_stream_data@@U__crt_internal_free_policy@@@@QAE@XZ 1001f657 f i libucrt:_file.obj
 0001:0001e66d       ??C__crt_stdio_stream@@QBEPAU__crt_stdio_stream_data@@XZ 1001f66d f i libucrt:_file.obj
 0001:0001e670       ?detach@?$__crt_unique_heap_ptr@PAU__crt_stdio_stream_data@@U__crt_internal_free_policy@@@@QAEPAPAU__crt_stdio_stream_data@@XZ 1001f670 f i libucrt:_file.obj
 0001:0001e676       ?release@?$__crt_unique_heap_ptr@PAU__crt_stdio_stream_data@@U__crt_internal_free_policy@@@@QAEXXZ 1001f676 f i libucrt:_file.obj
 0001:0001e68c       ___acrt_initialize_stdio   1001f68c f   libucrt:_file.obj
 0001:0001e786       ___acrt_iob_func           1001f786 f   libucrt:_file.obj
 0001:0001e79a       ___acrt_uninitialize_stdio 1001f79a f   libucrt:_file.obj
 0001:0001e7f9       __get_stream_buffer_pointers 1001f7f9 f   libucrt:_file.obj
 0001:0001e850       __lock_file                1001f850 f   libucrt:_file.obj
 0001:0001e869       __unlock_file              1001f869 f   libucrt:_file.obj
 0001:0001e882       ??$?0ABV?$stream_output_adapter@D@__crt_stdio_output@@AB_KABQBDABQAU__crt_locale_pointers@@ABQAD@?$format_validation_base@DV?$stream_output_adapter@D@__crt_stdio_output@@@__crt_stdio_output@@IAE@ABV?$stream_output_adapter@D@1@AB_KABQBDABQAU__crt_locale_pointers@@ABQAD@Z 1001f882 f i libucrt:output.obj
 0001:0001e8ad       ??$?0ABV?$stream_output_adapter@D@__crt_stdio_output@@AB_KABQBDABQAU__crt_locale_pointers@@ABQAD@?$positional_parameter_base@DV?$stream_output_adapter@D@__crt_stdio_output@@@__crt_stdio_output@@IAE@ABV?$stream_output_adapter@D@1@AB_KABQBDABQAU__crt_locale_pointers@@ABQAD@Z 1001f8ad f i libucrt:output.obj
 0001:0001e907       ??$?0ABV?$stream_output_adapter@D@__crt_stdio_output@@AB_KABQBDABQAU__crt_locale_pointers@@ABQAD@?$standard_base@DV?$stream_output_adapter@D@__crt_stdio_output@@@__crt_stdio_output@@IAE@ABV?$stream_output_adapter@D@1@AB_KABQBDABQAU__crt_locale_pointers@@ABQAD@Z 1001f907 f i libucrt:output.obj
 0001:0001e949       ??$?0ABV?$stream_output_adapter@_W@__crt_stdio_output@@AB_KABQB_WABQAU__crt_locale_pointers@@ABQAD@?$format_validation_base@_WV?$stream_output_adapter@_W@__crt_stdio_output@@@__crt_stdio_output@@IAE@ABV?$stream_output_adapter@_W@1@AB_KABQB_WABQAU__crt_locale_pointers@@ABQAD@Z 1001f949 f i libucrt:output.obj
 0001:0001e974       ??$?0ABV?$stream_output_adapter@_W@__crt_stdio_output@@AB_KABQB_WABQAU__crt_locale_pointers@@ABQAD@?$positional_parameter_base@_WV?$stream_output_adapter@_W@__crt_stdio_output@@@__crt_stdio_output@@IAE@ABV?$stream_output_adapter@_W@1@AB_KABQB_WABQAU__crt_locale_pointers@@ABQAD@Z 1001f974 f i libucrt:output.obj
 0001:0001e9ce       ??$?0ABV?$stream_output_adapter@_W@__crt_stdio_output@@AB_KABQB_WABQAU__crt_locale_pointers@@ABQAD@?$standard_base@_WV?$stream_output_adapter@_W@__crt_stdio_output@@@__crt_stdio_output@@IAE@ABV?$stream_output_adapter@_W@1@AB_KABQB_WABQAU__crt_locale_pointers@@ABQAD@Z 1001f9ce f i libucrt:output.obj
 0001:0001ea10       ??$?0ABV?$string_output_adapter@D@__crt_stdio_output@@AB_KABQBDABQAU__crt_locale_pointers@@ABQAD@?$format_validation_base@DV?$string_output_adapter@D@__crt_stdio_output@@@__crt_stdio_output@@IAE@ABV?$string_output_adapter@D@1@AB_KABQBDABQAU__crt_locale_pointers@@ABQAD@Z 1001fa10 f i libucrt:output.obj
 0001:0001ea3b       ??$?0ABV?$string_output_adapter@D@__crt_stdio_output@@AB_KABQBDABQAU__crt_locale_pointers@@ABQAD@?$positional_parameter_base@DV?$string_output_adapter@D@__crt_stdio_output@@@__crt_stdio_output@@IAE@ABV?$string_output_adapter@D@1@AB_KABQBDABQAU__crt_locale_pointers@@ABQAD@Z 1001fa3b f i libucrt:output.obj
 0001:0001ea95       ??$?0ABV?$string_output_adapter@D@__crt_stdio_output@@AB_KABQBDABQAU__crt_locale_pointers@@ABQAD@?$standard_base@DV?$string_output_adapter@D@__crt_stdio_output@@@__crt_stdio_output@@IAE@ABV?$string_output_adapter@D@1@AB_KABQBDABQAU__crt_locale_pointers@@ABQAD@Z 1001fa95 f i libucrt:output.obj
 0001:0001ead7       ??$?0ABV?$string_output_adapter@_W@__crt_stdio_output@@AB_KABQB_WABQAU__crt_locale_pointers@@ABQAD@?$format_validation_base@_WV?$string_output_adapter@_W@__crt_stdio_output@@@__crt_stdio_output@@IAE@ABV?$string_output_adapter@_W@1@AB_KABQB_WABQAU__crt_locale_pointers@@ABQAD@Z 1001fad7 f i libucrt:output.obj
 0001:0001eb02       ??$?0ABV?$string_output_adapter@_W@__crt_stdio_output@@AB_KABQB_WABQAU__crt_locale_pointers@@ABQAD@?$positional_parameter_base@_WV?$string_output_adapter@_W@__crt_stdio_output@@@__crt_stdio_output@@IAE@ABV?$string_output_adapter@_W@1@AB_KABQB_WABQAU__crt_locale_pointers@@ABQAD@Z 1001fb02 f i libucrt:output.obj
 0001:0001eb5c       ??$?0ABV?$string_output_adapter@_W@__crt_stdio_output@@AB_KABQB_WABQAU__crt_locale_pointers@@ABQAD@?$standard_base@_WV?$string_output_adapter@_W@__crt_stdio_output@@@__crt_stdio_output@@IAE@ABV?$string_output_adapter@_W@1@AB_KABQB_WABQAU__crt_locale_pointers@@ABQAD@Z 1001fb5c f i libucrt:output.obj
 0001:0001eb9e       ??$?RV<lambda_2293f24e3ce1ad6fe22ccfb9dec07671>@@AAV<lambda_2565fc715a641e539f44ad02d6823606>@@V<lambda_d3217f279b832965d9ca670dc2993570>@@@?$__crt_seh_guarded_call@H@@QAEH$$QAV<lambda_2293f24e3ce1ad6fe22ccfb9dec07671>@@AAV<lambda_2565fc715a641e539f44ad02d6823606>@@$$QAV<lambda_d3217f279b832965d9ca670dc2993570>@@@Z 1001fb9e f i libucrt:output.obj
 0001:0001ec03       ??$?RV<lambda_4d4ac866be0fa3c441830420fabdd2cb>@@AAV<lambda_63a10c2dc8dbb9e4dd1890be52af7c93>@@V<lambda_002af9fa0f8fe472b648c51882d4fc32>@@@?$__crt_seh_guarded_call@H@@QAEH$$QAV<lambda_4d4ac866be0fa3c441830420fabdd2cb>@@AAV<lambda_63a10c2dc8dbb9e4dd1890be52af7c93>@@$$QAV<lambda_002af9fa0f8fe472b648c51882d4fc32>@@@Z 1001fc03 f i libucrt:output.obj
 0001:0001ec68       ??$?RV<lambda_5be909dfbae0a631386585770cd7b676>@@AAV<lambda_e516058a9c289d98c8ca9fea99247804>@@V<lambda_afe2e0cdc5e0ecf6f0d6f5e2f8985e38>@@@?$__crt_seh_guarded_call@H@@QAEH$$QAV<lambda_5be909dfbae0a631386585770cd7b676>@@AAV<lambda_e516058a9c289d98c8ca9fea99247804>@@$$QAV<lambda_afe2e0cdc5e0ecf6f0d6f5e2f8985e38>@@@Z 1001fc68 f i libucrt:output.obj
 0001:0001eccd       ??$?RV<lambda_823d65812123d985753d53e2a8c25d20>@@AAV<lambda_0a97c9e57da7be065955385c79108ff2>@@V<lambda_4d2973f3ad2d226f00468307185dca1b>@@@?$__crt_seh_guarded_call@H@@QAEH$$QAV<lambda_823d65812123d985753d53e2a8c25d20>@@AAV<lambda_0a97c9e57da7be065955385c79108ff2>@@$$QAV<lambda_4d2973f3ad2d226f00468307185dca1b>@@@Z 1001fccd f i libucrt:output.obj
 0001:0001ed32       ??$?RV<lambda_ab9923ffb5d694ec0d78876dd103e44f>@@AAV<lambda_481dd5778c961fbcd3b60b650e9b9dc4>@@V<lambda_7923d86c9e3f319b415918ec4b39749c>@@@?$__crt_seh_guarded_call@H@@QAEH$$QAV<lambda_ab9923ffb5d694ec0d78876dd103e44f>@@AAV<lambda_481dd5778c961fbcd3b60b650e9b9dc4>@@$$QAV<lambda_7923d86c9e3f319b415918ec4b39749c>@@@Z 1001fd32 f i libucrt:output.obj
 0001:0001ed97       ??$?RV<lambda_db08b09ef7aa9d4f8620ce68402612bc>@@AAV<lambda_4f2c1eaeead2a5fc776db5b62ea0fb9b>@@V<lambda_3ae262bc35d4ba6a3825c4f6bcaaf95c>@@@?$__crt_seh_guarded_call@H@@QAEH$$QAV<lambda_db08b09ef7aa9d4f8620ce68402612bc>@@AAV<lambda_4f2c1eaeead2a5fc776db5b62ea0fb9b>@@$$QAV<lambda_3ae262bc35d4ba6a3825c4f6bcaaf95c>@@@Z 1001fd97 f i libucrt:output.obj
 0001:0001edfc       ??$__acrt_lock_stream_and_call@V<lambda_0a97c9e57da7be065955385c79108ff2>@@@@YAHQAU_iobuf@@$$QAV<lambda_0a97c9e57da7be065955385c79108ff2>@@@Z 1001fdfc f i libucrt:output.obj
 0001:0001ee2e       ??$__acrt_lock_stream_and_call@V<lambda_2565fc715a641e539f44ad02d6823606>@@@@YAHQAU_iobuf@@$$QAV<lambda_2565fc715a641e539f44ad02d6823606>@@@Z 1001fe2e f i libucrt:output.obj
 0001:0001ee60       ??$__acrt_lock_stream_and_call@V<lambda_481dd5778c961fbcd3b60b650e9b9dc4>@@@@YAHQAU_iobuf@@$$QAV<lambda_481dd5778c961fbcd3b60b650e9b9dc4>@@@Z 1001fe60 f i libucrt:output.obj
 0001:0001ee92       ??$__acrt_lock_stream_and_call@V<lambda_4f2c1eaeead2a5fc776db5b62ea0fb9b>@@@@YAHQAU_iobuf@@$$QAV<lambda_4f2c1eaeead2a5fc776db5b62ea0fb9b>@@@Z 1001fe92 f i libucrt:output.obj
 0001:0001eec4       ??$__acrt_lock_stream_and_call@V<lambda_63a10c2dc8dbb9e4dd1890be52af7c93>@@@@YAHQAU_iobuf@@$$QAV<lambda_63a10c2dc8dbb9e4dd1890be52af7c93>@@@Z 1001fec4 f i libucrt:output.obj
 0001:0001eef6       ??$__acrt_lock_stream_and_call@V<lambda_e516058a9c289d98c8ca9fea99247804>@@@@YAHQAU_iobuf@@$$QAV<lambda_e516058a9c289d98c8ca9fea99247804>@@@Z 1001fef6 f i libucrt:output.obj
 0001:0001ef28       ??$__crt_interlocked_read@J@@YAJPDJ@Z 1001ff28 f i libucrt:output.obj
 0001:00020173       ??$count@D@formatting_buffer@__crt_stdio_output@@QBEIXZ 10021173 f i libucrt:output.obj
 0001:00020191       ??$data@D@formatting_buffer@__crt_stdio_output@@QAEPADXZ 10021191 f i libucrt:output.obj
 0001:000201a1       ??$data@_W@formatting_buffer@__crt_stdio_output@@QAEPA_WXZ 100211a1 f i libucrt:output.obj
 0001:000201b1       ??$ensure_buffer_is_big_enough@D@formatting_buffer@__crt_stdio_output@@QAE_NI@Z 100211b1 f i libucrt:output.obj
 0001:00020258       ??$extract_argument_from_va_list@C_J@?$positional_parameter_base@DV?$stream_output_adapter@D@__crt_stdio_output@@@__crt_stdio_output@@IAE_NAA_J@Z 10021258 f i libucrt:output.obj
 0001:000202f6       ??$extract_argument_from_va_list@C_J@?$positional_parameter_base@DV?$string_output_adapter@D@__crt_stdio_output@@@__crt_stdio_output@@IAE_NAA_J@Z 100212f6 f i libucrt:output.obj
 0001:00020394       ??$extract_argument_from_va_list@C_J@?$positional_parameter_base@_WV?$stream_output_adapter@_W@__crt_stdio_output@@@__crt_stdio_output@@IAE_NAA_J@Z 10021394 f i libucrt:output.obj
 0001:00020432       ??$extract_argument_from_va_list@C_J@?$positional_parameter_base@_WV?$string_output_adapter@_W@__crt_stdio_output@@@__crt_stdio_output@@IAE_NAA_J@Z 10021432 f i libucrt:output.obj
 0001:000204d0       ??$extract_argument_from_va_list@C_J@?$standard_base@DV?$stream_output_adapter@D@__crt_stdio_output@@@__crt_stdio_output@@IAE_NAA_J@Z 100214d0 f i libucrt:output.obj
 0001:000204f6       ??$extract_argument_from_va_list@C_J@?$standard_base@DV?$string_output_adapter@D@__crt_stdio_output@@@__crt_stdio_output@@IAE_NAA_J@Z 100214f6 f i libucrt:output.obj
 0001:0002051c       ??$extract_argument_from_va_list@C_J@?$standard_base@_WV?$stream_output_adapter@_W@__crt_stdio_output@@@__crt_stdio_output@@IAE_NAA_J@Z 1002151c f i libucrt:output.obj
 0001:00020542       ??$extract_argument_from_va_list@C_J@?$standard_base@_WV?$string_output_adapter@_W@__crt_stdio_output@@@__crt_stdio_output@@IAE_NAA_J@Z 10021542 f i libucrt:output.obj
 0001:00020568       ??$extract_argument_from_va_list@E_J@?$positional_parameter_base@DV?$stream_output_adapter@D@__crt_stdio_output@@@__crt_stdio_output@@IAE_NAA_J@Z 10021568 f i libucrt:output.obj
 0001:00020606       ??$extract_argument_from_va_list@E_J@?$positional_parameter_base@DV?$string_output_adapter@D@__crt_stdio_output@@@__crt_stdio_output@@IAE_NAA_J@Z 10021606 f i libucrt:output.obj
 0001:000206a4       ??$extract_argument_from_va_list@E_J@?$positional_parameter_base@_WV?$stream_output_adapter@_W@__crt_stdio_output@@@__crt_stdio_output@@IAE_NAA_J@Z 100216a4 f i libucrt:output.obj
 0001:00020742       ??$extract_argument_from_va_list@E_J@?$positional_parameter_base@_WV?$string_output_adapter@_W@__crt_stdio_output@@@__crt_stdio_output@@IAE_NAA_J@Z 10021742 f i libucrt:output.obj
 0001:000207e0       ??$extract_argument_from_va_list@E_J@?$standard_base@DV?$stream_output_adapter@D@__crt_stdio_output@@@__crt_stdio_output@@IAE_NAA_J@Z 100217e0 f i libucrt:output.obj
 0001:00020806       ??$extract_argument_from_va_list@E_J@?$standard_base@DV?$string_output_adapter@D@__crt_stdio_output@@@__crt_stdio_output@@IAE_NAA_J@Z 10021806 f i libucrt:output.obj
 0001:0002082c       ??$extract_argument_from_va_list@E_J@?$standard_base@_WV?$stream_output_adapter@_W@__crt_stdio_output@@@__crt_stdio_output@@IAE_NAA_J@Z 1002182c f i libucrt:output.obj
 0001:00020852       ??$extract_argument_from_va_list@E_J@?$standard_base@_WV?$string_output_adapter@_W@__crt_stdio_output@@@__crt_stdio_output@@IAE_NAA_J@Z 10021852 f i libucrt:output.obj
 0001:00020878       ??$extract_argument_from_va_list@F_J@?$positional_parameter_base@DV?$stream_output_adapter@D@__crt_stdio_output@@@__crt_stdio_output@@IAE_NAA_J@Z 10021878 f i libucrt:output.obj
 0001:00020916       ??$extract_argument_from_va_list@F_J@?$positional_parameter_base@DV?$string_output_adapter@D@__crt_stdio_output@@@__crt_stdio_output@@IAE_NAA_J@Z 10021916 f i libucrt:output.obj
 0001:000209b4       ??$extract_argument_from_va_list@F_J@?$positional_parameter_base@_WV?$stream_output_adapter@_W@__crt_stdio_output@@@__crt_stdio_output@@IAE_NAA_J@Z 100219b4 f i libucrt:output.obj
 0001:00020a52       ??$extract_argument_from_va_list@F_J@?$positional_parameter_base@_WV?$string_output_adapter@_W@__crt_stdio_output@@@__crt_stdio_output@@IAE_NAA_J@Z 10021a52 f i libucrt:output.obj
 0001:00020af0       ??$extract_argument_from_va_list@F_J@?$standard_base@DV?$stream_output_adapter@D@__crt_stdio_output@@@__crt_stdio_output@@IAE_NAA_J@Z 10021af0 f i libucrt:output.obj
 0001:00020b16       ??$extract_argument_from_va_list@F_J@?$standard_base@DV?$string_output_adapter@D@__crt_stdio_output@@@__crt_stdio_output@@IAE_NAA_J@Z 10021b16 f i libucrt:output.obj
 0001:00020b3c       ??$extract_argument_from_va_list@F_J@?$standard_base@_WV?$stream_output_adapter@_W@__crt_stdio_output@@@__crt_stdio_output@@IAE_NAA_J@Z 10021b3c f i libucrt:output.obj
 0001:00020b62       ??$extract_argument_from_va_list@F_J@?$standard_base@_WV?$string_output_adapter@_W@__crt_stdio_output@@@__crt_stdio_output@@IAE_NAA_J@Z 10021b62 f i libucrt:output.obj
 0001:00020b88       ??$extract_argument_from_va_list@GD@?$positional_parameter_base@DV?$stream_output_adapter@D@__crt_stdio_output@@@__crt_stdio_output@@IAE_NAAD@Z 10021b88 f i libucrt:output.obj
 0001:00020c25       ??$extract_argument_from_va_list@GD@?$positional_parameter_base@DV?$string_output_adapter@D@__crt_stdio_output@@@__crt_stdio_output@@IAE_NAAD@Z 10021c25 f i libucrt:output.obj
 0001:00020cc2       ??$extract_argument_from_va_list@GD@?$standard_base@DV?$stream_output_adapter@D@__crt_stdio_output@@@__crt_stdio_output@@IAE_NAAD@Z 10021cc2 f i libucrt:output.obj
 0001:00020ce2       ??$extract_argument_from_va_list@GD@?$standard_base@DV?$string_output_adapter@D@__crt_stdio_output@@@__crt_stdio_output@@IAE_NAAD@Z 10021ce2 f i libucrt:output.obj
 0001:00020d02       ??$extract_argument_from_va_list@G_J@?$positional_parameter_base@DV?$stream_output_adapter@D@__crt_stdio_output@@@__crt_stdio_output@@IAE_NAA_J@Z 10021d02 f i libucrt:output.obj
 0001:00020da0       ??$extract_argument_from_va_list@G_J@?$positional_parameter_base@DV?$string_output_adapter@D@__crt_stdio_output@@@__crt_stdio_output@@IAE_NAA_J@Z 10021da0 f i libucrt:output.obj
 0001:00020e3e       ??$extract_argument_from_va_list@G_J@?$positional_parameter_base@_WV?$stream_output_adapter@_W@__crt_stdio_output@@@__crt_stdio_output@@IAE_NAA_J@Z 10021e3e f i libucrt:output.obj
 0001:00020edc       ??$extract_argument_from_va_list@G_J@?$positional_parameter_base@_WV?$string_output_adapter@_W@__crt_stdio_output@@@__crt_stdio_output@@IAE_NAA_J@Z 10021edc f i libucrt:output.obj
 0001:00020f7a       ??$extract_argument_from_va_list@G_J@?$standard_base@DV?$stream_output_adapter@D@__crt_stdio_output@@@__crt_stdio_output@@IAE_NAA_J@Z 10021f7a f i libucrt:output.obj
 0001:00020fa0       ??$extract_argument_from_va_list@G_J@?$standard_base@DV?$string_output_adapter@D@__crt_stdio_output@@@__crt_stdio_output@@IAE_NAA_J@Z 10021fa0 f i libucrt:output.obj
 0001:00020fc6       ??$extract_argument_from_va_list@G_J@?$standard_base@_WV?$stream_output_adapter@_W@__crt_stdio_output@@@__crt_stdio_output@@IAE_NAA_J@Z 10021fc6 f i libucrt:output.obj
 0001:00020fec       ??$extract_argument_from_va_list@G_J@?$standard_base@_WV?$string_output_adapter@_W@__crt_stdio_output@@@__crt_stdio_output@@IAE_NAA_J@Z 10021fec f i libucrt:output.obj
 0001:00021012       ??$extract_argument_from_va_list@H_J@?$positional_parameter_base@DV?$stream_output_adapter@D@__crt_stdio_output@@@__crt_stdio_output@@IAE_NAA_J@Z 10022012 f i libucrt:output.obj
 0001:000210ae       ??$extract_argument_from_va_list@H_J@?$positional_parameter_base@DV?$string_output_adapter@D@__crt_stdio_output@@@__crt_stdio_output@@IAE_NAA_J@Z 100220ae f i libucrt:output.obj
 0001:0002114a       ??$extract_argument_from_va_list@H_J@?$positional_parameter_base@_WV?$stream_output_adapter@_W@__crt_stdio_output@@@__crt_stdio_output@@IAE_NAA_J@Z 1002214a f i libucrt:output.obj
 0001:000211e6       ??$extract_argument_from_va_list@H_J@?$positional_parameter_base@_WV?$string_output_adapter@_W@__crt_stdio_output@@@__crt_stdio_output@@IAE_NAA_J@Z 100221e6 f i libucrt:output.obj
 0001:00021282       ??$extract_argument_from_va_list@H_J@?$standard_base@DV?$stream_output_adapter@D@__crt_stdio_output@@@__crt_stdio_output@@IAE_NAA_J@Z 10022282 f i libucrt:output.obj
 0001:000212a7       ??$extract_argument_from_va_list@H_J@?$standard_base@DV?$string_output_adapter@D@__crt_stdio_output@@@__crt_stdio_output@@IAE_NAA_J@Z 100222a7 f i libucrt:output.obj
 0001:000212cc       ??$extract_argument_from_va_list@H_J@?$standard_base@_WV?$stream_output_adapter@_W@__crt_stdio_output@@@__crt_stdio_output@@IAE_NAA_J@Z 100222cc f i libucrt:output.obj
 0001:000212f1       ??$extract_argument_from_va_list@H_J@?$standard_base@_WV?$string_output_adapter@_W@__crt_stdio_output@@@__crt_stdio_output@@IAE_NAA_J@Z 100222f1 f i libucrt:output.obj
 0001:00021316       ??$extract_argument_from_va_list@I_J@?$positional_parameter_base@DV?$stream_output_adapter@D@__crt_stdio_output@@@__crt_stdio_output@@IAE_NAA_J@Z 10022316 f i libucrt:output.obj
 0001:000213bd       ??$extract_argument_from_va_list@I_J@?$positional_parameter_base@DV?$string_output_adapter@D@__crt_stdio_output@@@__crt_stdio_output@@IAE_NAA_J@Z 100223bd f i libucrt:output.obj
 0001:00021464       ??$extract_argument_from_va_list@I_J@?$positional_parameter_base@_WV?$stream_output_adapter@_W@__crt_stdio_output@@@__crt_stdio_output@@IAE_NAA_J@Z 10022464 f i libucrt:output.obj
 0001:0002150b       ??$extract_argument_from_va_list@I_J@?$positional_parameter_base@_WV?$string_output_adapter@_W@__crt_stdio_output@@@__crt_stdio_output@@IAE_NAA_J@Z 1002250b f i libucrt:output.obj
 0001:000215b2       ??$extract_argument_from_va_list@I_J@?$standard_base@DV?$stream_output_adapter@D@__crt_stdio_output@@@__crt_stdio_output@@IAE_NAA_J@Z 100225b2 f i libucrt:output.obj
 0001:000215d7       ??$extract_argument_from_va_list@I_J@?$standard_base@DV?$string_output_adapter@D@__crt_stdio_output@@@__crt_stdio_output@@IAE_NAA_J@Z 100225d7 f i libucrt:output.obj
 0001:000215fc       ??$extract_argument_from_va_list@I_J@?$standard_base@_WV?$stream_output_adapter@_W@__crt_stdio_output@@@__crt_stdio_output@@IAE_NAA_J@Z 100225fc f i libucrt:output.obj
 0001:00021621       ??$extract_argument_from_va_list@I_J@?$standard_base@_WV?$string_output_adapter@_W@__crt_stdio_output@@@__crt_stdio_output@@IAE_NAA_J@Z 10022621 f i libucrt:output.obj
 0001:00021646       ??$extract_argument_from_va_list@PADPAD@?$positional_parameter_base@DV?$stream_output_adapter@D@__crt_stdio_output@@@__crt_stdio_output@@IAE_NAAPAD@Z 10022646 f i libucrt:output.obj
 0001:000216e3       ??$extract_argument_from_va_list@PADPAD@?$positional_parameter_base@DV?$string_output_adapter@D@__crt_stdio_output@@@__crt_stdio_output@@IAE_NAAPAD@Z 100226e3 f i libucrt:output.obj
 0001:00021780       ??$extract_argument_from_va_list@PADPAD@?$positional_parameter_base@_WV?$stream_output_adapter@_W@__crt_stdio_output@@@__crt_stdio_output@@IAE_NAAPAD@Z 10022780 f i libucrt:output.obj
 0001:0002181d       ??$extract_argument_from_va_list@PADPAD@?$positional_parameter_base@_WV?$string_output_adapter@_W@__crt_stdio_output@@@__crt_stdio_output@@IAE_NAAPAD@Z 1002281d f i libucrt:output.obj
 0001:000218ba       ??$extract_argument_from_va_list@PADPAD@?$standard_base@DV?$stream_output_adapter@D@__crt_stdio_output@@@__crt_stdio_output@@IAE_NAAPAD@Z 100228ba f i libucrt:output.obj
 0001:000218da       ??$extract_argument_from_va_list@PADPAD@?$standard_base@DV?$string_output_adapter@D@__crt_stdio_output@@@__crt_stdio_output@@IAE_NAAPAD@Z 100228da f i libucrt:output.obj
 0001:000218fa       ??$extract_argument_from_va_list@PADPAD@?$standard_base@_WV?$stream_output_adapter@_W@__crt_stdio_output@@@__crt_stdio_output@@IAE_NAAPAD@Z 100228fa f i libucrt:output.obj
 0001:0002191a       ??$extract_argument_from_va_list@PADPAD@?$standard_base@_WV?$string_output_adapter@_W@__crt_stdio_output@@@__crt_stdio_output@@IAE_NAAPAD@Z 1002291a f i libucrt:output.obj
 0001:0002193a       ??$extract_argument_from_va_list@PAUansi_string@?1??type_case_Z@?$output_processor@DV?$stream_output_adapter@D@__crt_stdio_output@@V?$format_validation_base@DV?$stream_output_adapter@D@__crt_stdio_output@@@2@@__crt_stdio_output@@AAE_NXZ@PAU1?1??234@AAE_NXZ@@?$standard_base@DV?$stream_output_adapter@D@__crt_stdio_output@@@__crt_stdio_output@@IAE_NAAPAUansi_string@?1??type_case_Z@?$output_processor@DV?$stream_output_adapter@D@__crt_stdio_output@@V?$format_validation_base@DV?$stream_output_adapter@D@__crt_stdio_output@@@2@@1@AAE_NXZ@@Z 1002293a f i libucrt:output.obj
 0001:0002195a       ??$extract_argument_from_va_list@PAUansi_string@?1??type_case_Z@?$output_processor@DV?$stream_output_adapter@D@__crt_stdio_output@@V?$positional_parameter_base@DV?$stream_output_adapter@D@__crt_stdio_output@@@2@@__crt_stdio_output@@AAE_NXZ@PAU1?1??234@AAE_NXZ@@?$positional_parameter_base@DV?$stream_output_adapter@D@__crt_stdio_output@@@__crt_stdio_output@@IAE_NAAPAUansi_string@?1??type_case_Z@?$output_processor@DV?$stream_output_adapter@D@__crt_stdio_output@@V?$positional_parameter_base@DV?$stream_output_adapter@D@__crt_stdio_output@@@2@@1@AAE_NXZ@@Z 1002295a f i libucrt:output.obj
 0001:000219f7       ??$extract_argument_from_va_list@PAUansi_string@?1??type_case_Z@?$output_processor@DV?$stream_output_adapter@D@__crt_stdio_output@@V?$positional_parameter_base@DV?$stream_output_adapter@D@__crt_stdio_output@@@2@@__crt_stdio_output@@AAE_NXZ@PAU1?1??234@AAE_NXZ@@?$standard_base@DV?$stream_output_adapter@D@__crt_stdio_output@@@__crt_stdio_output@@IAE_NAAPAUansi_string@?1??type_case_Z@?$output_processor@DV?$stream_output_adapter@D@__crt_stdio_output@@V?$positional_parameter_base@DV?$stream_output_adapter@D@__crt_stdio_output@@@2@@1@AAE_NXZ@@Z 100229f7 f i libucrt:output.obj
 0001:00021a17       ??$extract_argument_from_va_list@PAUansi_string@?1??type_case_Z@?$output_processor@DV?$stream_output_adapter@D@__crt_stdio_output@@V?$standard_base@DV?$stream_output_adapter@D@__crt_stdio_output@@@2@@__crt_stdio_output@@AAE_NXZ@PAU1?1??234@AAE_NXZ@@?$standard_base@DV?$stream_output_adapter@D@__crt_stdio_output@@@__crt_stdio_output@@IAE_NAAPAUansi_string@?1??type_case_Z@?$output_processor@DV?$stream_output_adapter@D@__crt_stdio_output@@V?$standard_base@DV?$stream_output_adapter@D@__crt_stdio_output@@@2@@1@AAE_NXZ@@Z 10022a17 f i libucrt:output.obj
 0001:00021a37       ??$extract_argument_from_va_list@PAUansi_string@?1??type_case_Z@?$output_processor@DV?$string_output_adapter@D@__crt_stdio_output@@V?$format_validation_base@DV?$string_output_adapter@D@__crt_stdio_output@@@2@@__crt_stdio_output@@AAE_NXZ@PAU1?1??234@AAE_NXZ@@?$standard_base@DV?$string_output_adapter@D@__crt_stdio_output@@@__crt_stdio_output@@IAE_NAAPAUansi_string@?1??type_case_Z@?$output_processor@DV?$string_output_adapter@D@__crt_stdio_output@@V?$format_validation_base@DV?$string_output_adapter@D@__crt_stdio_output@@@2@@1@AAE_NXZ@@Z 10022a37 f i libucrt:output.obj
 0001:00021a57       ??$extract_argument_from_va_list@PAUansi_string@?1??type_case_Z@?$output_processor@DV?$string_output_adapter@D@__crt_stdio_output@@V?$positional_parameter_base@DV?$string_output_adapter@D@__crt_stdio_output@@@2@@__crt_stdio_output@@AAE_NXZ@PAU1?1??234@AAE_NXZ@@?$positional_parameter_base@DV?$string_output_adapter@D@__crt_stdio_output@@@__crt_stdio_output@@IAE_NAAPAUansi_string@?1??type_case_Z@?$output_processor@DV?$string_output_adapter@D@__crt_stdio_output@@V?$positional_parameter_base@DV?$string_output_adapter@D@__crt_stdio_output@@@2@@1@AAE_NXZ@@Z 10022a57 f i libucrt:output.obj
 0001:00021af4       ??$extract_argument_from_va_list@PAUansi_string@?1??type_case_Z@?$output_processor@DV?$string_output_adapter@D@__crt_stdio_output@@V?$positional_parameter_base@DV?$string_output_adapter@D@__crt_stdio_output@@@2@@__crt_stdio_output@@AAE_NXZ@PAU1?1??234@AAE_NXZ@@?$standard_base@DV?$string_output_adapter@D@__crt_stdio_output@@@__crt_stdio_output@@IAE_NAAPAUansi_string@?1??type_case_Z@?$output_processor@DV?$string_output_adapter@D@__crt_stdio_output@@V?$positional_parameter_base@DV?$string_output_adapter@D@__crt_stdio_output@@@2@@1@AAE_NXZ@@Z 10022af4 f i libucrt:output.obj
 0001:00021b14       ??$extract_argument_from_va_list@PAUansi_string@?1??type_case_Z@?$output_processor@DV?$string_output_adapter@D@__crt_stdio_output@@V?$standard_base@DV?$string_output_adapter@D@__crt_stdio_output@@@2@@__crt_stdio_output@@AAE_NXZ@PAU1?1??234@AAE_NXZ@@?$standard_base@DV?$string_output_adapter@D@__crt_stdio_output@@@__crt_stdio_output@@IAE_NAAPAUansi_string@?1??type_case_Z@?$output_processor@DV?$string_output_adapter@D@__crt_stdio_output@@V?$standard_base@DV?$string_output_adapter@D@__crt_stdio_output@@@2@@1@AAE_NXZ@@Z 10022b14 f i libucrt:output.obj
 0001:00021b34       ??$extract_argument_from_va_list@PAUansi_string@?1??type_case_Z@?$output_processor@_WV?$stream_output_adapter@_W@__crt_stdio_output@@V?$format_validation_base@_WV?$stream_output_adapter@_W@__crt_stdio_output@@@2@@__crt_stdio_output@@AAE_NXZ@PAU1?1??234@AAE_NXZ@@?$standard_base@_WV?$stream_output_adapter@_W@__crt_stdio_output@@@__crt_stdio_output@@IAE_NAAPAUansi_string@?1??type_case_Z@?$output_processor@_WV?$stream_output_adapter@_W@__crt_stdio_output@@V?$format_validation_base@_WV?$stream_output_adapter@_W@__crt_stdio_output@@@2@@1@AAE_NXZ@@Z 10022b34 f i libucrt:output.obj
 0001:00021b54       ??$extract_argument_from_va_list@PAUansi_string@?1??type_case_Z@?$output_processor@_WV?$stream_output_adapter@_W@__crt_stdio_output@@V?$positional_parameter_base@_WV?$stream_output_adapter@_W@__crt_stdio_output@@@2@@__crt_stdio_output@@AAE_NXZ@PAU1?1??234@AAE_NXZ@@?$positional_parameter_base@_WV?$stream_output_adapter@_W@__crt_stdio_output@@@__crt_stdio_output@@IAE_NAAPAUansi_string@?1??type_case_Z@?$output_processor@_WV?$stream_output_adapter@_W@__crt_stdio_output@@V?$positional_parameter_base@_WV?$stream_output_adapter@_W@__crt_stdio_output@@@2@@1@AAE_NXZ@@Z 10022b54 f i libucrt:output.obj
 0001:00021bf1       ??$extract_argument_from_va_list@PAUansi_string@?1??type_case_Z@?$output_processor@_WV?$stream_output_adapter@_W@__crt_stdio_output@@V?$positional_parameter_base@_WV?$stream_output_adapter@_W@__crt_stdio_output@@@2@@__crt_stdio_output@@AAE_NXZ@PAU1?1??234@AAE_NXZ@@?$standard_base@_WV?$stream_output_adapter@_W@__crt_stdio_output@@@__crt_stdio_output@@IAE_NAAPAUansi_string@?1??type_case_Z@?$output_processor@_WV?$stream_output_adapter@_W@__crt_stdio_output@@V?$positional_parameter_base@_WV?$stream_output_adapter@_W@__crt_stdio_output@@@2@@1@AAE_NXZ@@Z 10022bf1 f i libucrt:output.obj
 0001:00021c11       ??$extract_argument_from_va_list@PAUansi_string@?1??type_case_Z@?$output_processor@_WV?$stream_output_adapter@_W@__crt_stdio_output@@V?$standard_base@_WV?$stream_output_adapter@_W@__crt_stdio_output@@@2@@__crt_stdio_output@@AAE_NXZ@PAU1?1??234@AAE_NXZ@@?$standard_base@_WV?$stream_output_adapter@_W@__crt_stdio_output@@@__crt_stdio_output@@IAE_NAAPAUansi_string@?1??type_case_Z@?$output_processor@_WV?$stream_output_adapter@_W@__crt_stdio_output@@V?$standard_base@_WV?$stream_output_adapter@_W@__crt_stdio_output@@@2@@1@AAE_NXZ@@Z 10022c11 f i libucrt:output.obj
 0001:00021c31       ??$extract_argument_from_va_list@PAUansi_string@?1??type_case_Z@?$output_processor@_WV?$string_output_adapter@_W@__crt_stdio_output@@V?$format_validation_base@_WV?$string_output_adapter@_W@__crt_stdio_output@@@2@@__crt_stdio_output@@AAE_NXZ@PAU1?1??234@AAE_NXZ@@?$standard_base@_WV?$string_output_adapter@_W@__crt_stdio_output@@@__crt_stdio_output@@IAE_NAAPAUansi_string@?1??type_case_Z@?$output_processor@_WV?$string_output_adapter@_W@__crt_stdio_output@@V?$format_validation_base@_WV?$string_output_adapter@_W@__crt_stdio_output@@@2@@1@AAE_NXZ@@Z 10022c31 f i libucrt:output.obj
 0001:00021c51       ??$extract_argument_from_va_list@PAUansi_string@?1??type_case_Z@?$output_processor@_WV?$string_output_adapter@_W@__crt_stdio_output@@V?$positional_parameter_base@_WV?$string_output_adapter@_W@__crt_stdio_output@@@2@@__crt_stdio_output@@AAE_NXZ@PAU1?1??234@AAE_NXZ@@?$positional_parameter_base@_WV?$string_output_adapter@_W@__crt_stdio_output@@@__crt_stdio_output@@IAE_NAAPAUansi_string@?1??type_case_Z@?$output_processor@_WV?$string_output_adapter@_W@__crt_stdio_output@@V?$positional_parameter_base@_WV?$string_output_adapter@_W@__crt_stdio_output@@@2@@1@AAE_NXZ@@Z 10022c51 f i libucrt:output.obj
 0001:00021cee       ??$extract_argument_from_va_list@PAUansi_string@?1??type_case_Z@?$output_processor@_WV?$string_output_adapter@_W@__crt_stdio_output@@V?$positional_parameter_base@_WV?$string_output_adapter@_W@__crt_stdio_output@@@2@@__crt_stdio_output@@AAE_NXZ@PAU1?1??234@AAE_NXZ@@?$standard_base@_WV?$string_output_adapter@_W@__crt_stdio_output@@@__crt_stdio_output@@IAE_NAAPAUansi_string@?1??type_case_Z@?$output_processor@_WV?$string_output_adapter@_W@__crt_stdio_output@@V?$positional_parameter_base@_WV?$string_output_adapter@_W@__crt_stdio_output@@@2@@1@AAE_NXZ@@Z 10022cee f i libucrt:output.obj
 0001:00021d0e       ??$extract_argument_from_va_list@PAUansi_string@?1??type_case_Z@?$output_processor@_WV?$string_output_adapter@_W@__crt_stdio_output@@V?$standard_base@_WV?$string_output_adapter@_W@__crt_stdio_output@@@2@@__crt_stdio_output@@AAE_NXZ@PAU1?1??234@AAE_NXZ@@?$standard_base@_WV?$string_output_adapter@_W@__crt_stdio_output@@@__crt_stdio_output@@IAE_NAAPAUansi_string@?1??type_case_Z@?$output_processor@_WV?$string_output_adapter@_W@__crt_stdio_output@@V?$standard_base@_WV?$string_output_adapter@_W@__crt_stdio_output@@@2@@1@AAE_NXZ@@Z 10022d0e f i libucrt:output.obj
 0001:00021d2e       ??$extract_argument_from_va_list@PAXPAX@?$positional_parameter_base@DV?$stream_output_adapter@D@__crt_stdio_output@@@__crt_stdio_output@@IAE_NAAPAX@Z 10022d2e f i libucrt:output.obj
 0001:00021dcb       ??$extract_argument_from_va_list@PAXPAX@?$positional_parameter_base@DV?$string_output_adapter@D@__crt_stdio_output@@@__crt_stdio_output@@IAE_NAAPAX@Z 10022dcb f i libucrt:output.obj
 0001:00021e68       ??$extract_argument_from_va_list@PAXPAX@?$positional_parameter_base@_WV?$stream_output_adapter@_W@__crt_stdio_output@@@__crt_stdio_output@@IAE_NAAPAX@Z 10022e68 f i libucrt:output.obj
 0001:00021f05       ??$extract_argument_from_va_list@PAXPAX@?$positional_parameter_base@_WV?$string_output_adapter@_W@__crt_stdio_output@@@__crt_stdio_output@@IAE_NAAPAX@Z 10022f05 f i libucrt:output.obj
 0001:00021fa2       ??$extract_argument_from_va_list@PAXPAX@?$standard_base@DV?$stream_output_adapter@D@__crt_stdio_output@@@__crt_stdio_output@@IAE_NAAPAX@Z 10022fa2 f i libucrt:output.obj
 0001:00021fc2       ??$extract_argument_from_va_list@PAXPAX@?$standard_base@DV?$string_output_adapter@D@__crt_stdio_output@@@__crt_stdio_output@@IAE_NAAPAX@Z 10022fc2 f i libucrt:output.obj
 0001:00021fe2       ??$extract_argument_from_va_list@PAXPAX@?$standard_base@_WV?$stream_output_adapter@_W@__crt_stdio_output@@@__crt_stdio_output@@IAE_NAAPAX@Z 10022fe2 f i libucrt:output.obj
 0001:00022002       ??$extract_argument_from_va_list@PAXPAX@?$standard_base@_WV?$string_output_adapter@_W@__crt_stdio_output@@@__crt_stdio_output@@IAE_NAAPAX@Z 10023002 f i libucrt:output.obj
 0001:00022022       ??$extract_argument_from_va_list@U_CRT_DOUBLE@@U1@@?$positional_parameter_base@DV?$stream_output_adapter@D@__crt_stdio_output@@@__crt_stdio_output@@IAE_NAAU_CRT_DOUBLE@@@Z 10023022 f i libucrt:output.obj
 0001:000220d3       ??$extract_argument_from_va_list@U_CRT_DOUBLE@@U1@@?$positional_parameter_base@DV?$string_output_adapter@D@__crt_stdio_output@@@__crt_stdio_output@@IAE_NAAU_CRT_DOUBLE@@@Z 100230d3 f i libucrt:output.obj
 0001:00022184       ??$extract_argument_from_va_list@U_CRT_DOUBLE@@U1@@?$positional_parameter_base@_WV?$stream_output_adapter@_W@__crt_stdio_output@@@__crt_stdio_output@@IAE_NAAU_CRT_DOUBLE@@@Z 10023184 f i libucrt:output.obj
 0001:00022235       ??$extract_argument_from_va_list@U_CRT_DOUBLE@@U1@@?$positional_parameter_base@_WV?$string_output_adapter@_W@__crt_stdio_output@@@__crt_stdio_output@@IAE_NAAU_CRT_DOUBLE@@@Z 10023235 f i libucrt:output.obj
 0001:000222e6       ??$extract_argument_from_va_list@U_CRT_DOUBLE@@U1@@?$standard_base@DV?$stream_output_adapter@D@__crt_stdio_output@@@__crt_stdio_output@@IAE_NAAU_CRT_DOUBLE@@@Z 100232e6 f i libucrt:output.obj
 0001:0002230e       ??$extract_argument_from_va_list@U_CRT_DOUBLE@@U1@@?$standard_base@DV?$string_output_adapter@D@__crt_stdio_output@@@__crt_stdio_output@@IAE_NAAU_CRT_DOUBLE@@@Z 1002330e f i libucrt:output.obj
 0001:00022336       ??$extract_argument_from_va_list@U_CRT_DOUBLE@@U1@@?$standard_base@_WV?$stream_output_adapter@_W@__crt_stdio_output@@@__crt_stdio_output@@IAE_NAAU_CRT_DOUBLE@@@Z 10023336 f i libucrt:output.obj
 0001:0002235e       ??$extract_argument_from_va_list@U_CRT_DOUBLE@@U1@@?$standard_base@_WV?$string_output_adapter@_W@__crt_stdio_output@@@__crt_stdio_output@@IAE_NAAU_CRT_DOUBLE@@@Z 1002335e f i libucrt:output.obj
 0001:00022386       ??$extract_argument_from_va_list@_J_J@?$positional_parameter_base@DV?$stream_output_adapter@D@__crt_stdio_output@@@__crt_stdio_output@@IAE_NAA_J@Z 10023386 f i libucrt:output.obj
 0001:00022437       ??$extract_argument_from_va_list@_J_J@?$positional_parameter_base@DV?$string_output_adapter@D@__crt_stdio_output@@@__crt_stdio_output@@IAE_NAA_J@Z 10023437 f i libucrt:output.obj
 0001:000224e8       ??$extract_argument_from_va_list@_J_J@?$positional_parameter_base@_WV?$stream_output_adapter@_W@__crt_stdio_output@@@__crt_stdio_output@@IAE_NAA_J@Z 100234e8 f i libucrt:output.obj
 0001:00022599       ??$extract_argument_from_va_list@_J_J@?$positional_parameter_base@_WV?$string_output_adapter@_W@__crt_stdio_output@@@__crt_stdio_output@@IAE_NAA_J@Z 10023599 f i libucrt:output.obj
 0001:0002264a       ??$extract_argument_from_va_list@_J_J@?$standard_base@DV?$stream_output_adapter@D@__crt_stdio_output@@@__crt_stdio_output@@IAE_NAA_J@Z 1002364a f i libucrt:output.obj
 0001:00022672       ??$extract_argument_from_va_list@_J_J@?$standard_base@DV?$string_output_adapter@D@__crt_stdio_output@@@__crt_stdio_output@@IAE_NAA_J@Z 10023672 f i libucrt:output.obj
 0001:0002269a       ??$extract_argument_from_va_list@_J_J@?$standard_base@_WV?$stream_output_adapter@_W@__crt_stdio_output@@@__crt_stdio_output@@IAE_NAA_J@Z 1002369a f i libucrt:output.obj
 0001:000226c2       ??$extract_argument_from_va_list@_J_J@?$standard_base@_WV?$string_output_adapter@_W@__crt_stdio_output@@@__crt_stdio_output@@IAE_NAA_J@Z 100236c2 f i libucrt:output.obj
 0001:000226ea       ??$extract_argument_from_va_list@_K_J@?$positional_parameter_base@DV?$stream_output_adapter@D@__crt_stdio_output@@@__crt_stdio_output@@IAE_NAA_J@Z 100236ea f i libucrt:output.obj
 0001:0002279b       ??$extract_argument_from_va_list@_K_J@?$positional_parameter_base@DV?$string_output_adapter@D@__crt_stdio_output@@@__crt_stdio_output@@IAE_NAA_J@Z 1002379b f i libucrt:output.obj
 0001:0002284c       ??$extract_argument_from_va_list@_K_J@?$positional_parameter_base@_WV?$stream_output_adapter@_W@__crt_stdio_output@@@__crt_stdio_output@@IAE_NAA_J@Z 1002384c f i libucrt:output.obj
 0001:000228fd       ??$extract_argument_from_va_list@_K_J@?$positional_parameter_base@_WV?$string_output_adapter@_W@__crt_stdio_output@@@__crt_stdio_output@@IAE_NAA_J@Z 100238fd f i libucrt:output.obj
 0001:000229ae       ??$extract_argument_from_va_list@_K_J@?$standard_base@DV?$stream_output_adapter@D@__crt_stdio_output@@@__crt_stdio_output@@IAE_NAA_J@Z 100239ae f i libucrt:output.obj
 0001:000229d6       ??$extract_argument_from_va_list@_K_J@?$standard_base@DV?$string_output_adapter@D@__crt_stdio_output@@@__crt_stdio_output@@IAE_NAA_J@Z 100239d6 f i libucrt:output.obj
 0001:000229fe       ??$extract_argument_from_va_list@_K_J@?$standard_base@_WV?$stream_output_adapter@_W@__crt_stdio_output@@@__crt_stdio_output@@IAE_NAA_J@Z 100239fe f i libucrt:output.obj
 0001:00022a26       ??$extract_argument_from_va_list@_K_J@?$standard_base@_WV?$string_output_adapter@_W@__crt_stdio_output@@@__crt_stdio_output@@IAE_NAA_J@Z 10023a26 f i libucrt:output.obj
 0001:00022a4e       ??$extract_argument_from_va_list@_W_W@?$positional_parameter_base@DV?$stream_output_adapter@D@__crt_stdio_output@@@__crt_stdio_output@@IAE_NAA_W@Z 10023a4e f i libucrt:output.obj
 0001:00022af0       ??$extract_argument_from_va_list@_W_W@?$positional_parameter_base@DV?$string_output_adapter@D@__crt_stdio_output@@@__crt_stdio_output@@IAE_NAA_W@Z 10023af0 f i libucrt:output.obj
 0001:00022b92       ??$extract_argument_from_va_list@_W_W@?$positional_parameter_base@_WV?$stream_output_adapter@_W@__crt_stdio_output@@@__crt_stdio_output@@IAE_NAA_W@Z 10023b92 f i libucrt:output.obj
 0001:00022c34       ??$extract_argument_from_va_list@_W_W@?$positional_parameter_base@_WV?$string_output_adapter@_W@__crt_stdio_output@@@__crt_stdio_output@@IAE_NAA_W@Z 10023c34 f i libucrt:output.obj
 0001:00022cd6       ??$extract_argument_from_va_list@_W_W@?$standard_base@DV?$stream_output_adapter@D@__crt_stdio_output@@@__crt_stdio_output@@IAE_NAA_W@Z 10023cd6 f i libucrt:output.obj
 0001:00022cf9       ??$extract_argument_from_va_list@_W_W@?$standard_base@DV?$string_output_adapter@D@__crt_stdio_output@@@__crt_stdio_output@@IAE_NAA_W@Z 10023cf9 f i libucrt:output.obj
 0001:00022d1c       ??$extract_argument_from_va_list@_W_W@?$standard_base@_WV?$stream_output_adapter@_W@__crt_stdio_output@@@__crt_stdio_output@@IAE_NAA_W@Z 10023d1c f i libucrt:output.obj
 0001:00022d3f       ??$extract_argument_from_va_list@_W_W@?$standard_base@_WV?$string_output_adapter@_W@__crt_stdio_output@@@__crt_stdio_output@@IAE_NAA_W@Z 10023d3f f i libucrt:output.obj
 0001:00022d62       ??$get_parameter_type@D@?$positional_parameter_base@DV?$stream_output_adapter@D@__crt_stdio_output@@@__crt_stdio_output@@CA?AW4parameter_type@01@PAD@Z 10023d62 f i libucrt:output.obj
 0001:00022d66       ??$get_parameter_type@D@?$positional_parameter_base@DV?$string_output_adapter@D@__crt_stdio_output@@@__crt_stdio_output@@CA?AW4parameter_type@01@PAD@Z 10023d66 f i libucrt:output.obj
 0001:00022d6a       ??$get_parameter_type@D@?$positional_parameter_base@_WV?$stream_output_adapter@_W@__crt_stdio_output@@@__crt_stdio_output@@CA?AW4parameter_type@01@PAD@Z 10023d6a f i libucrt:output.obj
 0001:00022d6e       ??$get_parameter_type@D@?$positional_parameter_base@_WV?$string_output_adapter@_W@__crt_stdio_output@@@__crt_stdio_output@@CA?AW4parameter_type@01@PAD@Z 10023d6e f i libucrt:output.obj
 0001:00022d72       ??$get_parameter_type@Uansi_string@?1??type_case_Z@?$output_processor@DV?$stream_output_adapter@D@__crt_stdio_output@@V?$positional_parameter_base@DV?$stream_output_adapter@D@__crt_stdio_output@@@2@@__crt_stdio_output@@AAE_NXZ@@?$positional_parameter_base@DV?$stream_output_adapter@D@__crt_stdio_output@@@__crt_stdio_output@@CA?AW4parameter_type@01@PAUansi_string@?1??type_case_Z@?$output_processor@DV?$stream_output_adapter@D@__crt_stdio_output@@V?$positional_parameter_base@DV?$stream_output_adapter@D@__crt_stdio_output@@@2@@1@AAE_NXZ@@Z 10023d72 f i libucrt:output.obj
 0001:00022d76       ??$get_parameter_type@Uansi_string@?1??type_case_Z@?$output_processor@DV?$string_output_adapter@D@__crt_stdio_output@@V?$positional_parameter_base@DV?$string_output_adapter@D@__crt_stdio_output@@@2@@__crt_stdio_output@@AAE_NXZ@@?$positional_parameter_base@DV?$string_output_adapter@D@__crt_stdio_output@@@__crt_stdio_output@@CA?AW4parameter_type@01@PAUansi_string@?1??type_case_Z@?$output_processor@DV?$string_output_adapter@D@__crt_stdio_output@@V?$positional_parameter_base@DV?$string_output_adapter@D@__crt_stdio_output@@@2@@1@AAE_NXZ@@Z 10023d76 f i libucrt:output.obj
 0001:00022d7a       ??$get_parameter_type@Uansi_string@?1??type_case_Z@?$output_processor@_WV?$stream_output_adapter@_W@__crt_stdio_output@@V?$positional_parameter_base@_WV?$stream_output_adapter@_W@__crt_stdio_output@@@2@@__crt_stdio_output@@AAE_NXZ@@?$positional_parameter_base@_WV?$stream_output_adapter@_W@__crt_stdio_output@@@__crt_stdio_output@@CA?AW4parameter_type@01@PAUansi_string@?1??type_case_Z@?$output_processor@_WV?$stream_output_adapter@_W@__crt_stdio_output@@V?$positional_parameter_base@_WV?$stream_output_adapter@_W@__crt_stdio_output@@@2@@1@AAE_NXZ@@Z 10023d7a f i libucrt:output.obj
 0001:00022d7e       ??$get_parameter_type@Uansi_string@?1??type_case_Z@?$output_processor@_WV?$string_output_adapter@_W@__crt_stdio_output@@V?$positional_parameter_base@_WV?$string_output_adapter@_W@__crt_stdio_output@@@2@@__crt_stdio_output@@AAE_NXZ@@?$positional_parameter_base@_WV?$string_output_adapter@_W@__crt_stdio_output@@@__crt_stdio_output@@CA?AW4parameter_type@01@PAUansi_string@?1??type_case_Z@?$output_processor@_WV?$string_output_adapter@_W@__crt_stdio_output@@V?$positional_parameter_base@_WV?$string_output_adapter@_W@__crt_stdio_output@@@2@@1@AAE_NXZ@@Z 10023d7e f i libucrt:output.obj
 0001:00022d82       ??$get_parameter_type@X@?$positional_parameter_base@DV?$stream_output_adapter@D@__crt_stdio_output@@@__crt_stdio_output@@CA?AW4parameter_type@01@PAX@Z 10023d82 f i libucrt:output.obj
 0001:00022d86       ??$get_parameter_type@X@?$positional_parameter_base@DV?$string_output_adapter@D@__crt_stdio_output@@@__crt_stdio_output@@CA?AW4parameter_type@01@PAX@Z 10023d86 f i libucrt:output.obj
 0001:00022d8a       ??$get_parameter_type@X@?$positional_parameter_base@_WV?$stream_output_adapter@_W@__crt_stdio_output@@@__crt_stdio_output@@CA?AW4parameter_type@01@PAX@Z 10023d8a f i libucrt:output.obj
 0001:00022d8e       ??$get_parameter_type@X@?$positional_parameter_base@_WV?$string_output_adapter@_W@__crt_stdio_output@@@__crt_stdio_output@@CA?AW4parameter_type@01@PAX@Z 10023d8e f i libucrt:output.obj
 0001:00022d92       ??$is_character_specifier@D@?$positional_parameter_base@DV?$stream_output_adapter@D@__crt_stdio_output@@@__crt_stdio_output@@CA_ND@Z 10023d92 f i libucrt:output.obj
 0001:00022db1       ??$is_character_specifier@D@?$positional_parameter_base@DV?$string_output_adapter@D@__crt_stdio_output@@@__crt_stdio_output@@CA_ND@Z 10023db1 f i libucrt:output.obj
 0001:00022dd0       ??$is_character_specifier@_W@?$positional_parameter_base@_WV?$stream_output_adapter@_W@__crt_stdio_output@@@__crt_stdio_output@@CA_N_W@Z 10023dd0 f i libucrt:output.obj
 0001:00022df3       ??$is_character_specifier@_W@?$positional_parameter_base@_WV?$string_output_adapter@_W@__crt_stdio_output@@@__crt_stdio_output@@CA_N_W@Z 10023df3 f i libucrt:output.obj
 0001:00022e16       ??$is_integral_specifier@D@?$positional_parameter_base@DV?$stream_output_adapter@D@__crt_stdio_output@@@__crt_stdio_output@@CA_ND@Z 10023e16 f i libucrt:output.obj
 0001:00022e4e       ??$is_integral_specifier@D@?$positional_parameter_base@DV?$string_output_adapter@D@__crt_stdio_output@@@__crt_stdio_output@@CA_ND@Z 10023e4e f i libucrt:output.obj
 0001:00022e86       ??$is_integral_specifier@_W@?$positional_parameter_base@_WV?$stream_output_adapter@_W@__crt_stdio_output@@@__crt_stdio_output@@CA_N_W@Z 10023e86 f i libucrt:output.obj
 0001:00022ed1       ??$is_integral_specifier@_W@?$positional_parameter_base@_WV?$string_output_adapter@_W@__crt_stdio_output@@@__crt_stdio_output@@CA_N_W@Z 10023ed1 f i libucrt:output.obj
 0001:00022f1c       ??$is_pointer_specifier@D@?$positional_parameter_base@DV?$stream_output_adapter@D@__crt_stdio_output@@@__crt_stdio_output@@CA_ND@Z 10023f1c f i libucrt:output.obj
 0001:00022f30       ??$is_pointer_specifier@D@?$positional_parameter_base@DV?$string_output_adapter@D@__crt_stdio_output@@@__crt_stdio_output@@CA_ND@Z 10023f30 f i libucrt:output.obj
 0001:00022f44       ??$is_pointer_specifier@_W@?$positional_parameter_base@_WV?$stream_output_adapter@_W@__crt_stdio_output@@@__crt_stdio_output@@CA_N_W@Z 10023f44 f i libucrt:output.obj
 0001:00022f59       ??$is_pointer_specifier@_W@?$positional_parameter_base@_WV?$string_output_adapter@_W@__crt_stdio_output@@@__crt_stdio_output@@CA_N_W@Z 10023f59 f i libucrt:output.obj
 0001:00022f6e       ??$is_string_specifier@D@?$positional_parameter_base@DV?$stream_output_adapter@D@__crt_stdio_output@@@__crt_stdio_output@@CA_ND@Z 10023f6e f i libucrt:output.obj
 0001:00022f8d       ??$is_string_specifier@D@?$positional_parameter_base@DV?$string_output_adapter@D@__crt_stdio_output@@@__crt_stdio_output@@CA_ND@Z 10023f8d f i libucrt:output.obj
 0001:00022fac       ??$is_string_specifier@_W@?$positional_parameter_base@_WV?$stream_output_adapter@_W@__crt_stdio_output@@@__crt_stdio_output@@CA_N_W@Z 10023fac f i libucrt:output.obj
 0001:00022fcf       ??$is_string_specifier@_W@?$positional_parameter_base@_WV?$string_output_adapter@_W@__crt_stdio_output@@@__crt_stdio_output@@CA_N_W@Z 10023fcf f i libucrt:output.obj
 0001:00022ff2       ??$is_wide_character_specifier@D@__crt_stdio_output@@YA_N_KDW4length_modifier@0@@Z 10023ff2 f i libucrt:output.obj
 0001:00023042       ??$is_wide_character_specifier@_W@__crt_stdio_output@@YA_N_K_WW4length_modifier@0@@Z 10024042 f i libucrt:output.obj
 0001:000230a4       ??$peek_va_arg@C@__crt_stdio_output@@YACPAD@Z 100240a4 f i libucrt:output.obj
 0001:000230b3       ??$peek_va_arg@E@__crt_stdio_output@@YAEPAD@Z 100240b3 f i libucrt:output.obj
 0001:000230c2       ??$peek_va_arg@F@__crt_stdio_output@@YAFPAD@Z 100240c2 f i libucrt:output.obj
 0001:000230d2       ??$peek_va_arg@G@__crt_stdio_output@@YAGPAD@Z 100240d2 f i libucrt:output.obj
 0001:000230e2       ??$peek_va_arg@H@__crt_stdio_output@@YAHPAD@Z 100240e2 f i libucrt:output.obj
 0001:000230f1       ??$peek_va_arg@I@__crt_stdio_output@@YAIPAD@Z 100240f1 f i libucrt:output.obj
 0001:00023100       ??$peek_va_arg@PAD@__crt_stdio_output@@YAPADPAD@Z 10024100 f i libucrt:output.obj
 0001:0002310f       ??$peek_va_arg@PAUansi_string@?1??type_case_Z@?$output_processor@DV?$stream_output_adapter@D@__crt_stdio_output@@V?$positional_parameter_base@DV?$stream_output_adapter@D@__crt_stdio_output@@@2@@__crt_stdio_output@@AAE_NXZ@@__crt_stdio_output@@YAPAUansi_string@?1??type_case_Z@?$output_processor@DV?$stream_output_adapter@D@__crt_stdio_output@@V?$positional_parameter_base@DV?$stream_output_adapter@D@__crt_stdio_output@@@2@@0@AAE_NXZ@PAD@Z 1002410f f i libucrt:output.obj
 0001:0002311e       ??$peek_va_arg@PAUansi_string@?1??type_case_Z@?$output_processor@DV?$string_output_adapter@D@__crt_stdio_output@@V?$positional_parameter_base@DV?$string_output_adapter@D@__crt_stdio_output@@@2@@__crt_stdio_output@@AAE_NXZ@@__crt_stdio_output@@YAPAUansi_string@?1??type_case_Z@?$output_processor@DV?$string_output_adapter@D@__crt_stdio_output@@V?$positional_parameter_base@DV?$string_output_adapter@D@__crt_stdio_output@@@2@@0@AAE_NXZ@PAD@Z 1002411e f i libucrt:output.obj
 0001:0002312d       ??$peek_va_arg@PAUansi_string@?1??type_case_Z@?$output_processor@_WV?$stream_output_adapter@_W@__crt_stdio_output@@V?$positional_parameter_base@_WV?$stream_output_adapter@_W@__crt_stdio_output@@@2@@__crt_stdio_output@@AAE_NXZ@@__crt_stdio_output@@YAPAUansi_string@?1??type_case_Z@?$output_processor@_WV?$stream_output_adapter@_W@__crt_stdio_output@@V?$positional_parameter_base@_WV?$stream_output_adapter@_W@__crt_stdio_output@@@2@@0@AAE_NXZ@PAD@Z 1002412d f i libucrt:output.obj
 0001:0002313c       ??$peek_va_arg@PAUansi_string@?1??type_case_Z@?$output_processor@_WV?$string_output_adapter@_W@__crt_stdio_output@@V?$positional_parameter_base@_WV?$string_output_adapter@_W@__crt_stdio_output@@@2@@__crt_stdio_output@@AAE_NXZ@@__crt_stdio_output@@YAPAUansi_string@?1??type_case_Z@?$output_processor@_WV?$string_output_adapter@_W@__crt_stdio_output@@V?$positional_parameter_base@_WV?$string_output_adapter@_W@__crt_stdio_output@@@2@@0@AAE_NXZ@PAD@Z 1002413c f i libucrt:output.obj
 0001:0002314b       ??$peek_va_arg@PAX@__crt_stdio_output@@YAPAXPAD@Z 1002414b f i libucrt:output.obj
 0001:0002315a       ??$peek_va_arg@U_CRT_DOUBLE@@@__crt_stdio_output@@YA?AU_CRT_DOUBLE@@PAD@Z 1002415a f i libucrt:output.obj
 0001:0002316c       ??$peek_va_arg@_J@__crt_stdio_output@@YA_JPAD@Z 1002416c f i libucrt:output.obj
 0001:0002317e       ??$peek_va_arg@_K@__crt_stdio_output@@YA_KPAD@Z 1002417e f i libucrt:output.obj
 0001:00023190       ??$peek_va_arg@_W@__crt_stdio_output@@YA_WPAD@Z 10024190 f i libucrt:output.obj
 0001:000231a0       ??$puttc_nolock@ABDPAU_iobuf@@@?$__crt_char_traits@D@@SAHABD$$QAPAU_iobuf@@@Z 100241a0 f i libucrt:output.obj
 0001:000231c0       ??$puttc_nolock@AB_WPAU_iobuf@@@?$__crt_char_traits@_W@@SAGAB_W$$QAPAU_iobuf@@@Z 100241c0 f i libucrt:output.obj
 0001:000231e0       ??$read_va_arg@C@__crt_stdio_output@@YACAAPAD@Z 100241e0 f i libucrt:output.obj
 0001:000231f6       ??$read_va_arg@E@__crt_stdio_output@@YAEAAPAD@Z 100241f6 f i libucrt:output.obj
 0001:0002320c       ??$read_va_arg@F@__crt_stdio_output@@YAFAAPAD@Z 1002420c f i libucrt:output.obj
 0001:00023223       ??$read_va_arg@G@__crt_stdio_output@@YAGAAPAD@Z 10024223 f i libucrt:output.obj
 0001:0002323a       ??$read_va_arg@H@__crt_stdio_output@@YAHAAPAD@Z 1002423a f i libucrt:output.obj
 0001:00023250       ??$read_va_arg@I@__crt_stdio_output@@YAIAAPAD@Z 10024250 f i libucrt:output.obj
 0001:00023266       ??$read_va_arg@PAD@__crt_stdio_output@@YAPADAAPAD@Z 10024266 f i libucrt:output.obj
 0001:0002327c       ??$read_va_arg@PAUansi_string@?1??type_case_Z@?$output_processor@DV?$stream_output_adapter@D@__crt_stdio_output@@V?$format_validation_base@DV?$stream_output_adapter@D@__crt_stdio_output@@@2@@__crt_stdio_output@@AAE_NXZ@@__crt_stdio_output@@YAPAUansi_string@?1??type_case_Z@?$output_processor@DV?$stream_output_adapter@D@__crt_stdio_output@@V?$format_validation_base@DV?$stream_output_adapter@D@__crt_stdio_output@@@2@@0@AAE_NXZ@AAPAD@Z 1002427c f i libucrt:output.obj
 0001:00023292       ??$read_va_arg@PAUansi_string@?1??type_case_Z@?$output_processor@DV?$stream_output_adapter@D@__crt_stdio_output@@V?$positional_parameter_base@DV?$stream_output_adapter@D@__crt_stdio_output@@@2@@__crt_stdio_output@@AAE_NXZ@@__crt_stdio_output@@YAPAUansi_string@?1??type_case_Z@?$output_processor@DV?$stream_output_adapter@D@__crt_stdio_output@@V?$positional_parameter_base@DV?$stream_output_adapter@D@__crt_stdio_output@@@2@@0@AAE_NXZ@AAPAD@Z 10024292 f i libucrt:output.obj
 0001:000232a8       ??$read_va_arg@PAUansi_string@?1??type_case_Z@?$output_processor@DV?$stream_output_adapter@D@__crt_stdio_output@@V?$standard_base@DV?$stream_output_adapter@D@__crt_stdio_output@@@2@@__crt_stdio_output@@AAE_NXZ@@__crt_stdio_output@@YAPAUansi_string@?1??type_case_Z@?$output_processor@DV?$stream_output_adapter@D@__crt_stdio_output@@V?$standard_base@DV?$stream_output_adapter@D@__crt_stdio_output@@@2@@0@AAE_NXZ@AAPAD@Z 100242a8 f i libucrt:output.obj
 0001:000232be       ??$read_va_arg@PAUansi_string@?1??type_case_Z@?$output_processor@DV?$string_output_adapter@D@__crt_stdio_output@@V?$format_validation_base@DV?$string_output_adapter@D@__crt_stdio_output@@@2@@__crt_stdio_output@@AAE_NXZ@@__crt_stdio_output@@YAPAUansi_string@?1??type_case_Z@?$output_processor@DV?$string_output_adapter@D@__crt_stdio_output@@V?$format_validation_base@DV?$string_output_adapter@D@__crt_stdio_output@@@2@@0@AAE_NXZ@AAPAD@Z 100242be f i libucrt:output.obj
 0001:000232d4       ??$read_va_arg@PAUansi_string@?1??type_case_Z@?$output_processor@DV?$string_output_adapter@D@__crt_stdio_output@@V?$positional_parameter_base@DV?$string_output_adapter@D@__crt_stdio_output@@@2@@__crt_stdio_output@@AAE_NXZ@@__crt_stdio_output@@YAPAUansi_string@?1??type_case_Z@?$output_processor@DV?$string_output_adapter@D@__crt_stdio_output@@V?$positional_parameter_base@DV?$string_output_adapter@D@__crt_stdio_output@@@2@@0@AAE_NXZ@AAPAD@Z 100242d4 f i libucrt:output.obj
 0001:000232ea       ??$read_va_arg@PAUansi_string@?1??type_case_Z@?$output_processor@DV?$string_output_adapter@D@__crt_stdio_output@@V?$standard_base@DV?$string_output_adapter@D@__crt_stdio_output@@@2@@__crt_stdio_output@@AAE_NXZ@@__crt_stdio_output@@YAPAUansi_string@?1??type_case_Z@?$output_processor@DV?$string_output_adapter@D@__crt_stdio_output@@V?$standard_base@DV?$string_output_adapter@D@__crt_stdio_output@@@2@@0@AAE_NXZ@AAPAD@Z 100242ea f i libucrt:output.obj
 0001:00023300       ??$read_va_arg@PAUansi_string@?1??type_case_Z@?$output_processor@_WV?$stream_output_adapter@_W@__crt_stdio_output@@V?$format_validation_base@_WV?$stream_output_adapter@_W@__crt_stdio_output@@@2@@__crt_stdio_output@@AAE_NXZ@@__crt_stdio_output@@YAPAUansi_string@?1??type_case_Z@?$output_processor@_WV?$stream_output_adapter@_W@__crt_stdio_output@@V?$format_validation_base@_WV?$stream_output_adapter@_W@__crt_stdio_output@@@2@@0@AAE_NXZ@AAPAD@Z 10024300 f i libucrt:output.obj
 0001:00023316       ??$read_va_arg@PAUansi_string@?1??type_case_Z@?$output_processor@_WV?$stream_output_adapter@_W@__crt_stdio_output@@V?$positional_parameter_base@_WV?$stream_output_adapter@_W@__crt_stdio_output@@@2@@__crt_stdio_output@@AAE_NXZ@@__crt_stdio_output@@YAPAUansi_string@?1??type_case_Z@?$output_processor@_WV?$stream_output_adapter@_W@__crt_stdio_output@@V?$positional_parameter_base@_WV?$stream_output_adapter@_W@__crt_stdio_output@@@2@@0@AAE_NXZ@AAPAD@Z 10024316 f i libucrt:output.obj
 0001:0002332c       ??$read_va_arg@PAUansi_string@?1??type_case_Z@?$output_processor@_WV?$stream_output_adapter@_W@__crt_stdio_output@@V?$standard_base@_WV?$stream_output_adapter@_W@__crt_stdio_output@@@2@@__crt_stdio_output@@AAE_NXZ@@__crt_stdio_output@@YAPAUansi_string@?1??type_case_Z@?$output_processor@_WV?$stream_output_adapter@_W@__crt_stdio_output@@V?$standard_base@_WV?$stream_output_adapter@_W@__crt_stdio_output@@@2@@0@AAE_NXZ@AAPAD@Z 1002432c f i libucrt:output.obj
 0001:00023342       ??$read_va_arg@PAUansi_string@?1??type_case_Z@?$output_processor@_WV?$string_output_adapter@_W@__crt_stdio_output@@V?$format_validation_base@_WV?$string_output_adapter@_W@__crt_stdio_output@@@2@@__crt_stdio_output@@AAE_NXZ@@__crt_stdio_output@@YAPAUansi_string@?1??type_case_Z@?$output_processor@_WV?$string_output_adapter@_W@__crt_stdio_output@@V?$format_validation_base@_WV?$string_output_adapter@_W@__crt_stdio_output@@@2@@0@AAE_NXZ@AAPAD@Z 10024342 f i libucrt:output.obj
 0001:00023358       ??$read_va_arg@PAUansi_string@?1??type_case_Z@?$output_processor@_WV?$string_output_adapter@_W@__crt_stdio_output@@V?$positional_parameter_base@_WV?$string_output_adapter@_W@__crt_stdio_output@@@2@@__crt_stdio_output@@AAE_NXZ@@__crt_stdio_output@@YAPAUansi_string@?1??type_case_Z@?$output_processor@_WV?$string_output_adapter@_W@__crt_stdio_output@@V?$positional_parameter_base@_WV?$string_output_adapter@_W@__crt_stdio_output@@@2@@0@AAE_NXZ@AAPAD@Z 10024358 f i libucrt:output.obj
 0001:0002336e       ??$read_va_arg@PAUansi_string@?1??type_case_Z@?$output_processor@_WV?$string_output_adapter@_W@__crt_stdio_output@@V?$standard_base@_WV?$string_output_adapter@_W@__crt_stdio_output@@@2@@__crt_stdio_output@@AAE_NXZ@@__crt_stdio_output@@YAPAUansi_string@?1??type_case_Z@?$output_processor@_WV?$string_output_adapter@_W@__crt_stdio_output@@V?$standard_base@_WV?$string_output_adapter@_W@__crt_stdio_output@@@2@@0@AAE_NXZ@AAPAD@Z 1002436e f i libucrt:output.obj
 0001:00023384       ??$read_va_arg@PAX@__crt_stdio_output@@YAPAXAAPAD@Z 10024384 f i libucrt:output.obj
 0001:0002339a       ??$read_va_arg@U_CRT_DOUBLE@@@__crt_stdio_output@@YA?AU_CRT_DOUBLE@@AAPAD@Z 1002439a f i libucrt:output.obj
 0001:000233b4       ??$read_va_arg@_J@__crt_stdio_output@@YA_JAAPAD@Z 100243b4 f i libucrt:output.obj
 0001:000233ce       ??$read_va_arg@_K@__crt_stdio_output@@YA_KAAPAD@Z 100243ce f i libucrt:output.obj
 0001:000233e8       ??$read_va_arg@_W@__crt_stdio_output@@YA_WAAPAD@Z 100243e8 f i libucrt:output.obj
 0001:000233ff       ??$scratch_count@D@formatting_buffer@__crt_stdio_output@@QBEIXZ 100243ff f i libucrt:output.obj
 0001:00023404       ??$scratch_data@D@formatting_buffer@__crt_stdio_output@@QAEPADXZ 10024404 f i libucrt:output.obj
 0001:00023429       ??$tcstol@AAPBDPAPADH@?$__crt_char_traits@D@@SAJAAPBD$$QAPAPAD$$QAH@Z 10024429 f i libucrt:output.obj
 0001:0002344e       ??$tcstol@AAPB_WPAPA_WH@?$__crt_char_traits@_W@@SAJAAPB_W$$QAPAPA_W$$QAH@Z 1002444e f i libucrt:output.obj
 0001:00023473       ??$tcstol@PBDPAPADH@?$__crt_char_traits@D@@SAJ$$QAPBD$$QAPAPAD$$QAH@Z 10024473 f i libucrt:output.obj
 0001:00023498       ??$tcstol@PB_WPAPA_WH@?$__crt_char_traits@_W@@SAJ$$QAPB_W$$QAPAPA_W$$QAH@Z 10024498 f i libucrt:output.obj
 0001:000234bd       ??$type_case_integer_parse_into_buffer@I@?$output_processor@DV?$stream_output_adapter@D@__crt_stdio_output@@V?$format_validation_base@DV?$stream_output_adapter@D@__crt_stdio_output@@@2@@__crt_stdio_output@@AAEXII_N@Z 100244bd f i libucrt:output.obj
 0001:0002354f       ??$type_case_integer_parse_into_buffer@I@?$output_processor@DV?$stream_output_adapter@D@__crt_stdio_output@@V?$positional_parameter_base@DV?$stream_output_adapter@D@__crt_stdio_output@@@2@@__crt_stdio_output@@AAEXII_N@Z 1002454f f i libucrt:output.obj
 0001:000235e1       ??$type_case_integer_parse_into_buffer@I@?$output_processor@DV?$stream_output_adapter@D@__crt_stdio_output@@V?$standard_base@DV?$stream_output_adapter@D@__crt_stdio_output@@@2@@__crt_stdio_output@@AAEXII_N@Z 100245e1 f i libucrt:output.obj
 0001:00023673       ??$type_case_integer_parse_into_buffer@I@?$output_processor@DV?$string_output_adapter@D@__crt_stdio_output@@V?$format_validation_base@DV?$string_output_adapter@D@__crt_stdio_output@@@2@@__crt_stdio_output@@AAEXII_N@Z 10024673 f i libucrt:output.obj
 0001:00023705       ??$type_case_integer_parse_into_buffer@I@?$output_processor@DV?$string_output_adapter@D@__crt_stdio_output@@V?$positional_parameter_base@DV?$string_output_adapter@D@__crt_stdio_output@@@2@@__crt_stdio_output@@AAEXII_N@Z 10024705 f i libucrt:output.obj
 0001:00023797       ??$type_case_integer_parse_into_buffer@I@?$output_processor@DV?$string_output_adapter@D@__crt_stdio_output@@V?$standard_base@DV?$string_output_adapter@D@__crt_stdio_output@@@2@@__crt_stdio_output@@AAEXII_N@Z 10024797 f i libucrt:output.obj
 0001:00023829       ??$type_case_integer_parse_into_buffer@I@?$output_processor@_WV?$stream_output_adapter@_W@__crt_stdio_output@@V?$format_validation_base@_WV?$stream_output_adapter@_W@__crt_stdio_output@@@2@@__crt_stdio_output@@AAEXII_N@Z 10024829 f i libucrt:output.obj
 0001:000238bb       ??$type_case_integer_parse_into_buffer@I@?$output_processor@_WV?$stream_output_adapter@_W@__crt_stdio_output@@V?$positional_parameter_base@_WV?$stream_output_adapter@_W@__crt_stdio_output@@@2@@__crt_stdio_output@@AAEXII_N@Z 100248bb f i libucrt:output.obj
 0001:0002394d       ??$type_case_integer_parse_into_buffer@I@?$output_processor@_WV?$stream_output_adapter@_W@__crt_stdio_output@@V?$standard_base@_WV?$stream_output_adapter@_W@__crt_stdio_output@@@2@@__crt_stdio_output@@AAEXII_N@Z 1002494d f i libucrt:output.obj
 0001:000239df       ??$type_case_integer_parse_into_buffer@I@?$output_processor@_WV?$string_output_adapter@_W@__crt_stdio_output@@V?$format_validation_base@_WV?$string_output_adapter@_W@__crt_stdio_output@@@2@@__crt_stdio_output@@AAEXII_N@Z 100249df f i libucrt:output.obj
 0001:00023a71       ??$type_case_integer_parse_into_buffer@I@?$output_processor@_WV?$string_output_adapter@_W@__crt_stdio_output@@V?$positional_parameter_base@_WV?$string_output_adapter@_W@__crt_stdio_output@@@2@@__crt_stdio_output@@AAEXII_N@Z 10024a71 f i libucrt:output.obj
 0001:00023b03       ??$type_case_integer_parse_into_buffer@I@?$output_processor@_WV?$string_output_adapter@_W@__crt_stdio_output@@V?$standard_base@_WV?$string_output_adapter@_W@__crt_stdio_output@@@2@@__crt_stdio_output@@AAEXII_N@Z 10024b03 f i libucrt:output.obj
 0001:00023b95       ??$type_case_integer_parse_into_buffer@_K@?$output_processor@DV?$stream_output_adapter@D@__crt_stdio_output@@V?$format_validation_base@DV?$stream_output_adapter@D@__crt_stdio_output@@@2@@__crt_stdio_output@@AAEX_KI_N@Z 10024b95 f i libucrt:output.obj
 0001:00023c3f       ??$type_case_integer_parse_into_buffer@_K@?$output_processor@DV?$stream_output_adapter@D@__crt_stdio_output@@V?$positional_parameter_base@DV?$stream_output_adapter@D@__crt_stdio_output@@@2@@__crt_stdio_output@@AAEX_KI_N@Z 10024c3f f i libucrt:output.obj
 0001:00023ce9       ??$type_case_integer_parse_into_buffer@_K@?$output_processor@DV?$stream_output_adapter@D@__crt_stdio_output@@V?$standard_base@DV?$stream_output_adapter@D@__crt_stdio_output@@@2@@__crt_stdio_output@@AAEX_KI_N@Z 10024ce9 f i libucrt:output.obj
 0001:00023d93       ??$type_case_integer_parse_into_buffer@_K@?$output_processor@DV?$string_output_adapter@D@__crt_stdio_output@@V?$format_validation_base@DV?$string_output_adapter@D@__crt_stdio_output@@@2@@__crt_stdio_output@@AAEX_KI_N@Z 10024d93 f i libucrt:output.obj
 0001:00023e3d       ??$type_case_integer_parse_into_buffer@_K@?$output_processor@DV?$string_output_adapter@D@__crt_stdio_output@@V?$positional_parameter_base@DV?$string_output_adapter@D@__crt_stdio_output@@@2@@__crt_stdio_output@@AAEX_KI_N@Z 10024e3d f i libucrt:output.obj
 0001:00023ee7       ??$type_case_integer_parse_into_buffer@_K@?$output_processor@DV?$string_output_adapter@D@__crt_stdio_output@@V?$standard_base@DV?$string_output_adapter@D@__crt_stdio_output@@@2@@__crt_stdio_output@@AAEX_KI_N@Z 10024ee7 f i libucrt:output.obj
 0001:00023f91       ??$type_case_integer_parse_into_buffer@_K@?$output_processor@_WV?$stream_output_adapter@_W@__crt_stdio_output@@V?$format_validation_base@_WV?$stream_output_adapter@_W@__crt_stdio_output@@@2@@__crt_stdio_output@@AAEX_KI_N@Z 10024f91 f i libucrt:output.obj
 0001:0002403b       ??$type_case_integer_parse_into_buffer@_K@?$output_processor@_WV?$stream_output_adapter@_W@__crt_stdio_output@@V?$positional_parameter_base@_WV?$stream_output_adapter@_W@__crt_stdio_output@@@2@@__crt_stdio_output@@AAEX_KI_N@Z 1002503b f i libucrt:output.obj
 0001:000240e5       ??$type_case_integer_parse_into_buffer@_K@?$output_processor@_WV?$stream_output_adapter@_W@__crt_stdio_output@@V?$standard_base@_WV?$stream_output_adapter@_W@__crt_stdio_output@@@2@@__crt_stdio_output@@AAEX_KI_N@Z 100250e5 f i libucrt:output.obj
 0001:0002418f       ??$type_case_integer_parse_into_buffer@_K@?$output_processor@_WV?$string_output_adapter@_W@__crt_stdio_output@@V?$format_validation_base@_WV?$string_output_adapter@_W@__crt_stdio_output@@@2@@__crt_stdio_output@@AAEX_KI_N@Z 1002518f f i libucrt:output.obj
 0001:00024239       ??$type_case_integer_parse_into_buffer@_K@?$output_processor@_WV?$string_output_adapter@_W@__crt_stdio_output@@V?$positional_parameter_base@_WV?$string_output_adapter@_W@__crt_stdio_output@@@2@@__crt_stdio_output@@AAEX_KI_N@Z 10025239 f i libucrt:output.obj
 0001:000242e3       ??$type_case_integer_parse_into_buffer@_K@?$output_processor@_WV?$string_output_adapter@_W@__crt_stdio_output@@V?$standard_base@_WV?$string_output_adapter@_W@__crt_stdio_output@@@2@@__crt_stdio_output@@AAEX_KI_N@Z 100252e3 f i libucrt:output.obj
 0001:0002438d       ??$write_multiple_characters@V?$stream_output_adapter@D@__crt_stdio_output@@D@__crt_stdio_output@@YAXABV?$stream_output_adapter@D@0@DHQAH@Z 1002538d f i libucrt:output.obj
 0001:000243c4       ??$write_multiple_characters@V?$stream_output_adapter@_W@__crt_stdio_output@@D@__crt_stdio_output@@YAXABV?$stream_output_adapter@_W@0@DHQAH@Z 100253c4 f i libucrt:output.obj
 0001:00024401       ??$write_multiple_characters@V?$string_output_adapter@D@__crt_stdio_output@@D@__crt_stdio_output@@YAXABV?$string_output_adapter@D@0@DHQAH@Z 10025401 f i libucrt:output.obj
 0001:00024438       ??$write_multiple_characters@V?$string_output_adapter@_W@__crt_stdio_output@@D@__crt_stdio_output@@YAXABV?$string_output_adapter@_W@0@DHQAH@Z 10025438 f i libucrt:output.obj
 0001:000246a9       ??0?$common_data@D@__crt_stdio_output@@IAE@XZ 100256a9 f i libucrt:output.obj
 0001:00024701       ??0?$common_data@_W@__crt_stdio_output@@IAE@XZ 10025701 f i libucrt:output.obj
 0001:00024760       ??0?$output_adapter_data@DV?$stream_output_adapter@D@__crt_stdio_output@@@__crt_stdio_output@@IAE@ABV?$stream_output_adapter@D@1@_KQBDQAU__crt_locale_pointers@@QAD@Z 10025760 f i libucrt:output.obj
 0001:000247ab       ??0?$output_adapter_data@DV?$string_output_adapter@D@__crt_stdio_output@@@__crt_stdio_output@@IAE@ABV?$string_output_adapter@D@1@_KQBDQAU__crt_locale_pointers@@QAD@Z 100257ab f i libucrt:output.obj
 0001:000247f6       ??0?$output_adapter_data@_WV?$stream_output_adapter@_W@__crt_stdio_output@@@__crt_stdio_output@@IAE@ABV?$stream_output_adapter@_W@1@_KQB_WQAU__crt_locale_pointers@@QAD@Z 100257f6 f i libucrt:output.obj
 0001:00024841       ??0?$output_adapter_data@_WV?$string_output_adapter@_W@__crt_stdio_output@@@__crt_stdio_output@@IAE@ABV?$string_output_adapter@_W@1@_KQB_WQAU__crt_locale_pointers@@QAD@Z 10025841 f i libucrt:output.obj
 0001:0002488c       ??0?$output_processor@DV?$stream_output_adapter@D@__crt_stdio_output@@V?$format_validation_base@DV?$stream_output_adapter@D@__crt_stdio_output@@@2@@__crt_stdio_output@@QAE@ABV?$stream_output_adapter@D@1@_KQBDQAU__crt_locale_pointers@@QAD@Z 1002588c f i libucrt:output.obj
 0001:000248ce       ??0?$output_processor@DV?$stream_output_adapter@D@__crt_stdio_output@@V?$positional_parameter_base@DV?$stream_output_adapter@D@__crt_stdio_output@@@2@@__crt_stdio_output@@QAE@ABV?$stream_output_adapter@D@1@_KQBDQAU__crt_locale_pointers@@QAD@Z 100258ce f i libucrt:output.obj
 0001:00024908       ??0?$output_processor@DV?$stream_output_adapter@D@__crt_stdio_output@@V?$standard_base@DV?$stream_output_adapter@D@__crt_stdio_output@@@2@@__crt_stdio_output@@QAE@ABV?$stream_output_adapter@D@1@_KQBDQAU__crt_locale_pointers@@QAD@Z 10025908 f i libucrt:output.obj
 0001:0002494a       ??0?$output_processor@DV?$string_output_adapter@D@__crt_stdio_output@@V?$format_validation_base@DV?$string_output_adapter@D@__crt_stdio_output@@@2@@__crt_stdio_output@@QAE@ABV?$string_output_adapter@D@1@_KQBDQAU__crt_locale_pointers@@QAD@Z 1002594a f i libucrt:output.obj
 0001:0002498c       ??0?$output_processor@DV?$string_output_adapter@D@__crt_stdio_output@@V?$positional_parameter_base@DV?$string_output_adapter@D@__crt_stdio_output@@@2@@__crt_stdio_output@@QAE@ABV?$string_output_adapter@D@1@_KQBDQAU__crt_locale_pointers@@QAD@Z 1002598c f i libucrt:output.obj
 0001:000249c6       ??0?$output_processor@DV?$string_output_adapter@D@__crt_stdio_output@@V?$standard_base@DV?$string_output_adapter@D@__crt_stdio_output@@@2@@__crt_stdio_output@@QAE@ABV?$string_output_adapter@D@1@_KQBDQAU__crt_locale_pointers@@QAD@Z 100259c6 f i libucrt:output.obj
 0001:00024a08       ??0?$output_processor@_WV?$stream_output_adapter@_W@__crt_stdio_output@@V?$format_validation_base@_WV?$stream_output_adapter@_W@__crt_stdio_output@@@2@@__crt_stdio_output@@QAE@ABV?$stream_output_adapter@_W@1@_KQB_WQAU__crt_locale_pointers@@QAD@Z 10025a08 f i libucrt:output.obj
 0001:00024a4a       ??0?$output_processor@_WV?$stream_output_adapter@_W@__crt_stdio_output@@V?$positional_parameter_base@_WV?$stream_output_adapter@_W@__crt_stdio_output@@@2@@__crt_stdio_output@@QAE@ABV?$stream_output_adapter@_W@1@_KQB_WQAU__crt_locale_pointers@@QAD@Z 10025a4a f i libucrt:output.obj
 0001:00024a84       ??0?$output_processor@_WV?$stream_output_adapter@_W@__crt_stdio_output@@V?$standard_base@_WV?$stream_output_adapter@_W@__crt_stdio_output@@@2@@__crt_stdio_output@@QAE@ABV?$stream_output_adapter@_W@1@_KQB_WQAU__crt_locale_pointers@@QAD@Z 10025a84 f i libucrt:output.obj
 0001:00024ac6       ??0?$output_processor@_WV?$string_output_adapter@_W@__crt_stdio_output@@V?$format_validation_base@_WV?$string_output_adapter@_W@__crt_stdio_output@@@2@@__crt_stdio_output@@QAE@ABV?$string_output_adapter@_W@1@_KQB_WQAU__crt_locale_pointers@@QAD@Z 10025ac6 f i libucrt:output.obj
 0001:00024b08       ??0?$output_processor@_WV?$string_output_adapter@_W@__crt_stdio_output@@V?$positional_parameter_base@_WV?$string_output_adapter@_W@__crt_stdio_output@@@2@@__crt_stdio_output@@QAE@ABV?$string_output_adapter@_W@1@_KQB_WQAU__crt_locale_pointers@@QAD@Z 10025b08 f i libucrt:output.obj
 0001:00024b42       ??0?$output_processor@_WV?$string_output_adapter@_W@__crt_stdio_output@@V?$standard_base@_WV?$string_output_adapter@_W@__crt_stdio_output@@@2@@__crt_stdio_output@@QAE@ABV?$string_output_adapter@_W@1@_KQB_WQAU__crt_locale_pointers@@QAD@Z 10025b42 f i libucrt:output.obj
 0001:00024b84       ??0?$stream_output_adapter@D@__crt_stdio_output@@QAE@QAU_iobuf@@@Z 10025b84 f i libucrt:output.obj
 0001:00024b98       ??0?$stream_output_adapter@_W@__crt_stdio_output@@QAE@QAU_iobuf@@@Z 10025b98 f i libucrt:output.obj
 0001:00024bac       ??0?$string_output_adapter@D@__crt_stdio_output@@QAE@QAU?$string_output_adapter_context@D@1@@Z 10025bac f i libucrt:output.obj
 0001:00024bc0       ??0?$string_output_adapter@_W@__crt_stdio_output@@QAE@QAU?$string_output_adapter_context@_W@1@@Z 10025bc0 f i libucrt:output.obj
 0001:00024bd4       ??0_LocaleUpdate@@QAE@QAU__crt_locale_pointers@@@Z 10025bd4 f i libucrt:output.obj
 0001:00024c77       ??0__acrt_stdio_temporary_buffering_guard@@QAE@QAU_iobuf@@@Z 10025c77 f i libucrt:output.obj
 0001:00024c9c       ??0__crt_errno_guard@@QAE@QAH@Z 10025c9c f i libucrt:output.obj
 0001:00024cba       ??0formatting_buffer@__crt_stdio_output@@QAE@XZ 10025cba f i libucrt:output.obj
 0001:00024ccf       ??1?$common_data@D@__crt_stdio_output@@QAE@XZ 10025ccf f i libucrt:output.obj
 0001:00024cd9       ??1?$common_data@_W@__crt_stdio_output@@QAE@XZ 10025cd9 f i libucrt:output.obj
 0001:00024ce3       ??1?$format_validation_base@DV?$stream_output_adapter@D@__crt_stdio_output@@@__crt_stdio_output@@QAE@XZ 10025ce3 f i libucrt:output.obj
 0001:00024ced       ??1?$format_validation_base@DV?$string_output_adapter@D@__crt_stdio_output@@@__crt_stdio_output@@QAE@XZ 10025ced f i libucrt:output.obj
 0001:00024cf7       ??1?$format_validation_base@_WV?$stream_output_adapter@_W@__crt_stdio_output@@@__crt_stdio_output@@QAE@XZ 10025cf7 f i libucrt:output.obj
 0001:00024d01       ??1?$format_validation_base@_WV?$string_output_adapter@_W@__crt_stdio_output@@@__crt_stdio_output@@QAE@XZ 10025d01 f i libucrt:output.obj
 0001:00024d0b       ??1?$output_adapter_data@DV?$stream_output_adapter@D@__crt_stdio_output@@@__crt_stdio_output@@QAE@XZ 10025d0b f i libucrt:output.obj
 0001:00024d15       ??1?$output_adapter_data@DV?$string_output_adapter@D@__crt_stdio_output@@@__crt_stdio_output@@QAE@XZ 10025d15 f i libucrt:output.obj
 0001:00024d1f       ??1?$output_adapter_data@_WV?$stream_output_adapter@_W@__crt_stdio_output@@@__crt_stdio_output@@QAE@XZ 10025d1f f i libucrt:output.obj
 0001:00024d29       ??1?$output_adapter_data@_WV?$string_output_adapter@_W@__crt_stdio_output@@@__crt_stdio_output@@QAE@XZ 10025d29 f i libucrt:output.obj
 0001:00024d33       ??1?$output_processor@DV?$stream_output_adapter@D@__crt_stdio_output@@V?$format_validation_base@DV?$stream_output_adapter@D@__crt_stdio_output@@@2@@__crt_stdio_output@@QAE@XZ 10025d33 f i libucrt:output.obj
 0001:00024d3d       ??1?$output_processor@DV?$stream_output_adapter@D@__crt_stdio_output@@V?$positional_parameter_base@DV?$stream_output_adapter@D@__crt_stdio_output@@@2@@__crt_stdio_output@@QAE@XZ 10025d3d f i libucrt:output.obj
 0001:00024d47       ??1?$output_processor@DV?$stream_output_adapter@D@__crt_stdio_output@@V?$standard_base@DV?$stream_output_adapter@D@__crt_stdio_output@@@2@@__crt_stdio_output@@QAE@XZ 10025d47 f i libucrt:output.obj
 0001:00024d51       ??1?$output_processor@DV?$string_output_adapter@D@__crt_stdio_output@@V?$format_validation_base@DV?$string_output_adapter@D@__crt_stdio_output@@@2@@__crt_stdio_output@@QAE@XZ 10025d51 f i libucrt:output.obj
 0001:00024d5b       ??1?$output_processor@DV?$string_output_adapter@D@__crt_stdio_output@@V?$positional_parameter_base@DV?$string_output_adapter@D@__crt_stdio_output@@@2@@__crt_stdio_output@@QAE@XZ 10025d5b f i libucrt:output.obj
 0001:00024d65       ??1?$output_processor@DV?$string_output_adapter@D@__crt_stdio_output@@V?$standard_base@DV?$string_output_adapter@D@__crt_stdio_output@@@2@@__crt_stdio_output@@QAE@XZ 10025d65 f i libucrt:output.obj
 0001:00024d6f       ??1?$output_processor@_WV?$stream_output_adapter@_W@__crt_stdio_output@@V?$format_validation_base@_WV?$stream_output_adapter@_W@__crt_stdio_output@@@2@@__crt_stdio_output@@QAE@XZ 10025d6f f i libucrt:output.obj
 0001:00024d79       ??1?$output_processor@_WV?$stream_output_adapter@_W@__crt_stdio_output@@V?$positional_parameter_base@_WV?$stream_output_adapter@_W@__crt_stdio_output@@@2@@__crt_stdio_output@@QAE@XZ 10025d79 f i libucrt:output.obj
 0001:00024d83       ??1?$output_processor@_WV?$stream_output_adapter@_W@__crt_stdio_output@@V?$standard_base@_WV?$stream_output_adapter@_W@__crt_stdio_output@@@2@@__crt_stdio_output@@QAE@XZ 10025d83 f i libucrt:output.obj
 0001:00024d8d       ??1?$output_processor@_WV?$string_output_adapter@_W@__crt_stdio_output@@V?$format_validation_base@_WV?$string_output_adapter@_W@__crt_stdio_output@@@2@@__crt_stdio_output@@QAE@XZ 10025d8d f i libucrt:output.obj
 0001:00024d97       ??1?$output_processor@_WV?$string_output_adapter@_W@__crt_stdio_output@@V?$positional_parameter_base@_WV?$string_output_adapter@_W@__crt_stdio_output@@@2@@__crt_stdio_output@@QAE@XZ 10025d97 f i libucrt:output.obj
 0001:00024da1       ??1?$output_processor@_WV?$string_output_adapter@_W@__crt_stdio_output@@V?$standard_base@_WV?$string_output_adapter@_W@__crt_stdio_output@@@2@@__crt_stdio_output@@QAE@XZ 10025da1 f i libucrt:output.obj
 0001:00024dab       ??1?$positional_parameter_base@DV?$stream_output_adapter@D@__crt_stdio_output@@@__crt_stdio_output@@QAE@XZ 10025dab f i libucrt:output.obj
 0001:00024db5       ??1?$positional_parameter_base@DV?$string_output_adapter@D@__crt_stdio_output@@@__crt_stdio_output@@QAE@XZ 10025db5 f i libucrt:output.obj
 0001:00024dbf       ??1?$positional_parameter_base@_WV?$stream_output_adapter@_W@__crt_stdio_output@@@__crt_stdio_output@@QAE@XZ 10025dbf f i libucrt:output.obj
 0001:00024dc9       ??1?$positional_parameter_base@_WV?$string_output_adapter@_W@__crt_stdio_output@@@__crt_stdio_output@@QAE@XZ 10025dc9 f i libucrt:output.obj
 0001:00024dd3       ??1?$standard_base@DV?$stream_output_adapter@D@__crt_stdio_output@@@__crt_stdio_output@@QAE@XZ 10025dd3 f i libucrt:output.obj
 0001:00024ddd       ??1?$standard_base@DV?$string_output_adapter@D@__crt_stdio_output@@@__crt_stdio_output@@QAE@XZ 10025ddd f i libucrt:output.obj
 0001:00024de7       ??1?$standard_base@_WV?$stream_output_adapter@_W@__crt_stdio_output@@@__crt_stdio_output@@QAE@XZ 10025de7 f i libucrt:output.obj
 0001:00024df1       ??1?$standard_base@_WV?$string_output_adapter@_W@__crt_stdio_output@@@__crt_stdio_output@@QAE@XZ 10025df1 f i libucrt:output.obj
 0001:00024dfb       ??1_LocaleUpdate@@QAE@XZ   10025dfb f i libucrt:output.obj
 0001:00024e0f       ??1__acrt_stdio_temporary_buffering_guard@@QAE@XZ 10025e0f f i libucrt:output.obj
 0001:00024e21       ??1__crt_errno_guard@@QAE@XZ 10025e21 f i libucrt:output.obj
 0001:00024e36       ??1formatting_buffer@__crt_stdio_output@@QAE@XZ 10025e36 f i libucrt:output.obj
 0001:00024e56       ??4?$__crt_unique_heap_ptr@DU__crt_internal_free_policy@@@@QAEAAV0@$$QAV0@@Z 10025e56 f i libucrt:output.obj
 0001:00025539       ?GetLocaleT@_LocaleUpdate@@QAEPAU__crt_locale_pointers@@XZ 10026539 f i libucrt:output.obj
 0001:0002553d       ?__crt_interlocked_read_32@@YAHPDH@Z 1002653d f i libucrt:output.obj
 0001:0002554c       ?adjust_hexit@?$output_processor@DV?$stream_output_adapter@D@__crt_stdio_output@@V?$format_validation_base@DV?$stream_output_adapter@D@__crt_stdio_output@@@2@@__crt_stdio_output@@CADH_N@Z 1002654c f i libucrt:output.obj
 0001:00025571       ?adjust_hexit@?$output_processor@DV?$stream_output_adapter@D@__crt_stdio_output@@V?$positional_parameter_base@DV?$stream_output_adapter@D@__crt_stdio_output@@@2@@__crt_stdio_output@@CADH_N@Z 10026571 f i libucrt:output.obj
 0001:00025596       ?adjust_hexit@?$output_processor@DV?$stream_output_adapter@D@__crt_stdio_output@@V?$standard_base@DV?$stream_output_adapter@D@__crt_stdio_output@@@2@@__crt_stdio_output@@CADH_N@Z 10026596 f i libucrt:output.obj
 0001:000255bb       ?adjust_hexit@?$output_processor@DV?$string_output_adapter@D@__crt_stdio_output@@V?$format_validation_base@DV?$string_output_adapter@D@__crt_stdio_output@@@2@@__crt_stdio_output@@CADH_N@Z 100265bb f i libucrt:output.obj
 0001:000255e0       ?adjust_hexit@?$output_processor@DV?$string_output_adapter@D@__crt_stdio_output@@V?$positional_parameter_base@DV?$string_output_adapter@D@__crt_stdio_output@@@2@@__crt_stdio_output@@CADH_N@Z 100265e0 f i libucrt:output.obj
 0001:00025605       ?adjust_hexit@?$output_processor@DV?$string_output_adapter@D@__crt_stdio_output@@V?$standard_base@DV?$string_output_adapter@D@__crt_stdio_output@@@2@@__crt_stdio_output@@CADH_N@Z 10026605 f i libucrt:output.obj
 0001:0002562a       ?adjust_hexit@?$output_processor@_WV?$stream_output_adapter@_W@__crt_stdio_output@@V?$format_validation_base@_WV?$stream_output_adapter@_W@__crt_stdio_output@@@2@@__crt_stdio_output@@CADH_N@Z 1002662a f i libucrt:output.obj
 0001:0002564f       ?adjust_hexit@?$output_processor@_WV?$stream_output_adapter@_W@__crt_stdio_output@@V?$positional_parameter_base@_WV?$stream_output_adapter@_W@__crt_stdio_output@@@2@@__crt_stdio_output@@CADH_N@Z 1002664f f i libucrt:output.obj
 0001:00025674       ?adjust_hexit@?$output_processor@_WV?$stream_output_adapter@_W@__crt_stdio_output@@V?$standard_base@_WV?$stream_output_adapter@_W@__crt_stdio_output@@@2@@__crt_stdio_output@@CADH_N@Z 10026674 f i libucrt:output.obj
 0001:00025699       ?adjust_hexit@?$output_processor@_WV?$string_output_adapter@_W@__crt_stdio_output@@V?$format_validation_base@_WV?$string_output_adapter@_W@__crt_stdio_output@@@2@@__crt_stdio_output@@CADH_N@Z 10026699 f i libucrt:output.obj
 0001:000256be       ?adjust_hexit@?$output_processor@_WV?$string_output_adapter@_W@__crt_stdio_output@@V?$positional_parameter_base@_WV?$string_output_adapter@_W@__crt_stdio_output@@@2@@__crt_stdio_output@@CADH_N@Z 100266be f i libucrt:output.obj
 0001:000256e3       ?adjust_hexit@?$output_processor@_WV?$string_output_adapter@_W@__crt_stdio_output@@V?$standard_base@_WV?$string_output_adapter@_W@__crt_stdio_output@@@2@@__crt_stdio_output@@CADH_N@Z 100266e3 f i libucrt:output.obj
 0001:00025708       ?advance_to_next_pass@?$positional_parameter_base@DV?$stream_output_adapter@D@__crt_stdio_output@@@__crt_stdio_output@@IAE_NXZ 10026708 f i libucrt:output.obj
 0001:00025767       ?advance_to_next_pass@?$positional_parameter_base@DV?$string_output_adapter@D@__crt_stdio_output@@@__crt_stdio_output@@IAE_NXZ 10026767 f i libucrt:output.obj
 0001:000257c6       ?advance_to_next_pass@?$positional_parameter_base@_WV?$stream_output_adapter@_W@__crt_stdio_output@@@__crt_stdio_output@@IAE_NXZ 100267c6 f i libucrt:output.obj
 0001:00025825       ?advance_to_next_pass@?$positional_parameter_base@_WV?$string_output_adapter@_W@__crt_stdio_output@@@__crt_stdio_output@@IAE_NXZ 10026825 f i libucrt:output.obj
 0001:00025884       ?advance_to_next_pass@?$standard_base@DV?$stream_output_adapter@D@__crt_stdio_output@@@__crt_stdio_output@@IAE_NXZ 10026884 f i libucrt:output.obj
 0001:0002589b       ?advance_to_next_pass@?$standard_base@DV?$string_output_adapter@D@__crt_stdio_output@@@__crt_stdio_output@@IAE_NXZ 1002689b f i libucrt:output.obj
 0001:000258b2       ?advance_to_next_pass@?$standard_base@_WV?$stream_output_adapter@_W@__crt_stdio_output@@@__crt_stdio_output@@IAE_NXZ 100268b2 f i libucrt:output.obj
 0001:000258c9       ?advance_to_next_pass@?$standard_base@_WV?$string_output_adapter@_W@__crt_stdio_output@@@__crt_stdio_output@@IAE_NXZ 100268c9 f i libucrt:output.obj
 0001:000258e0       ?crop_zeroes@__crt_stdio_output@@YAXPADQAU__crt_locale_pointers@@@Z 100268e0 f i libucrt:output.obj
 0001:0002594c       ?find_next_state@?$output_processor@DV?$stream_output_adapter@D@__crt_stdio_output@@V?$format_validation_base@DV?$stream_output_adapter@D@__crt_stdio_output@@@2@@__crt_stdio_output@@ABE?AW4state@2@DW432@@Z 1002694c f i libucrt:output.obj
 0001:0002598e       ?find_next_state@?$output_processor@DV?$stream_output_adapter@D@__crt_stdio_output@@V?$positional_parameter_base@DV?$stream_output_adapter@D@__crt_stdio_output@@@2@@__crt_stdio_output@@ABE?AW4state@2@DW432@@Z 1002698e f i libucrt:output.obj
 0001:000259d0       ?find_next_state@?$output_processor@DV?$stream_output_adapter@D@__crt_stdio_output@@V?$standard_base@DV?$stream_output_adapter@D@__crt_stdio_output@@@2@@__crt_stdio_output@@ABE?AW4state@2@DW432@@Z 100269d0 f i libucrt:output.obj
 0001:00025a0e       ?find_next_state@?$output_processor@DV?$string_output_adapter@D@__crt_stdio_output@@V?$format_validation_base@DV?$string_output_adapter@D@__crt_stdio_output@@@2@@__crt_stdio_output@@ABE?AW4state@2@DW432@@Z 10026a0e f i libucrt:output.obj
 0001:00025a50       ?find_next_state@?$output_processor@DV?$string_output_adapter@D@__crt_stdio_output@@V?$positional_parameter_base@DV?$string_output_adapter@D@__crt_stdio_output@@@2@@__crt_stdio_output@@ABE?AW4state@2@DW432@@Z 10026a50 f i libucrt:output.obj
 0001:00025a92       ?find_next_state@?$output_processor@DV?$string_output_adapter@D@__crt_stdio_output@@V?$standard_base@DV?$string_output_adapter@D@__crt_stdio_output@@@2@@__crt_stdio_output@@ABE?AW4state@2@DW432@@Z 10026a92 f i libucrt:output.obj
 0001:00025ad0       ?find_next_state@?$output_processor@_WV?$stream_output_adapter@_W@__crt_stdio_output@@V?$format_validation_base@_WV?$stream_output_adapter@_W@__crt_stdio_output@@@2@@__crt_stdio_output@@ABE?AW4state@2@_WW432@@Z 10026ad0 f i libucrt:output.obj
 0001:00025b14       ?find_next_state@?$output_processor@_WV?$stream_output_adapter@_W@__crt_stdio_output@@V?$positional_parameter_base@_WV?$stream_output_adapter@_W@__crt_stdio_output@@@2@@__crt_stdio_output@@ABE?AW4state@2@_WW432@@Z 10026b14 f i libucrt:output.obj
 0001:00025b58       ?find_next_state@?$output_processor@_WV?$stream_output_adapter@_W@__crt_stdio_output@@V?$standard_base@_WV?$stream_output_adapter@_W@__crt_stdio_output@@@2@@__crt_stdio_output@@ABE?AW4state@2@_WW432@@Z 10026b58 f i libucrt:output.obj
 0001:00025b99       ?find_next_state@?$output_processor@_WV?$string_output_adapter@_W@__crt_stdio_output@@V?$format_validation_base@_WV?$string_output_adapter@_W@__crt_stdio_output@@@2@@__crt_stdio_output@@ABE?AW4state@2@_WW432@@Z 10026b99 f i libucrt:output.obj
 0001:00025bdd       ?find_next_state@?$output_processor@_WV?$string_output_adapter@_W@__crt_stdio_output@@V?$positional_parameter_base@_WV?$string_output_adapter@_W@__crt_stdio_output@@@2@@__crt_stdio_output@@ABE?AW4state@2@_WW432@@Z 10026bdd f i libucrt:output.obj
 0001:00025c21       ?find_next_state@?$output_processor@_WV?$string_output_adapter@_W@__crt_stdio_output@@V?$standard_base@_WV?$string_output_adapter@_W@__crt_stdio_output@@@2@@__crt_stdio_output@@ABE?AW4state@2@_WW432@@Z 10026c21 f i libucrt:output.obj
 0001:00025c62       ?force_decimal_point@__crt_stdio_output@@YAXPADQAU__crt_locale_pointers@@@Z 10026c62 f i libucrt:output.obj
 0001:00025cd5       ?get_flags@__crt_stdio_stream@@QBEJXZ 10026cd5 f i libucrt:output.obj
 0001:00025cdb       ?get_parameter_type@?$positional_parameter_base@DV?$stream_output_adapter@D@__crt_stdio_output@@@__crt_stdio_output@@CA?AW4parameter_type@12@F@Z 10026cdb f i libucrt:output.obj
 0001:00025cdf       ?get_parameter_type@?$positional_parameter_base@DV?$stream_output_adapter@D@__crt_stdio_output@@@__crt_stdio_output@@CA?AW4parameter_type@12@G@Z 10026cdf f i libucrt:output.obj
 0001:00025ce3       ?get_parameter_type@?$positional_parameter_base@DV?$stream_output_adapter@D@__crt_stdio_output@@@__crt_stdio_output@@CA?AW4parameter_type@12@H@Z 10026ce3 f i libucrt:output.obj
 0001:00025ce7       ?get_parameter_type@?$positional_parameter_base@DV?$stream_output_adapter@D@__crt_stdio_output@@@__crt_stdio_output@@CA?AW4parameter_type@12@I@Z 10026ce7 f i libucrt:output.obj
 0001:00025ceb       ?get_parameter_type@?$positional_parameter_base@DV?$stream_output_adapter@D@__crt_stdio_output@@@__crt_stdio_output@@CA?AW4parameter_type@12@U_CRT_DOUBLE@@@Z 10026ceb f i libucrt:output.obj
 0001:00025cef       ?get_parameter_type@?$positional_parameter_base@DV?$stream_output_adapter@D@__crt_stdio_output@@@__crt_stdio_output@@CA?AW4parameter_type@12@_J@Z 10026cef f i libucrt:output.obj
 0001:00025cf3       ?get_parameter_type@?$positional_parameter_base@DV?$stream_output_adapter@D@__crt_stdio_output@@@__crt_stdio_output@@CA?AW4parameter_type@12@_K@Z 10026cf3 f i libucrt:output.obj
 0001:00025cf7       ?get_parameter_type@?$positional_parameter_base@DV?$stream_output_adapter@D@__crt_stdio_output@@@__crt_stdio_output@@CA?AW4parameter_type@12@_W@Z 10026cf7 f i libucrt:output.obj
 0001:00025cfb       ?get_parameter_type@?$positional_parameter_base@DV?$string_output_adapter@D@__crt_stdio_output@@@__crt_stdio_output@@CA?AW4parameter_type@12@F@Z 10026cfb f i libucrt:output.obj
 0001:00025cff       ?get_parameter_type@?$positional_parameter_base@DV?$string_output_adapter@D@__crt_stdio_output@@@__crt_stdio_output@@CA?AW4parameter_type@12@G@Z 10026cff f i libucrt:output.obj
 0001:00025d03       ?get_parameter_type@?$positional_parameter_base@DV?$string_output_adapter@D@__crt_stdio_output@@@__crt_stdio_output@@CA?AW4parameter_type@12@H@Z 10026d03 f i libucrt:output.obj
 0001:00025d07       ?get_parameter_type@?$positional_parameter_base@DV?$string_output_adapter@D@__crt_stdio_output@@@__crt_stdio_output@@CA?AW4parameter_type@12@I@Z 10026d07 f i libucrt:output.obj
 0001:00025d0b       ?get_parameter_type@?$positional_parameter_base@DV?$string_output_adapter@D@__crt_stdio_output@@@__crt_stdio_output@@CA?AW4parameter_type@12@U_CRT_DOUBLE@@@Z 10026d0b f i libucrt:output.obj
 0001:00025d0f       ?get_parameter_type@?$positional_parameter_base@DV?$string_output_adapter@D@__crt_stdio_output@@@__crt_stdio_output@@CA?AW4parameter_type@12@_J@Z 10026d0f f i libucrt:output.obj
 0001:00025d13       ?get_parameter_type@?$positional_parameter_base@DV?$string_output_adapter@D@__crt_stdio_output@@@__crt_stdio_output@@CA?AW4parameter_type@12@_K@Z 10026d13 f i libucrt:output.obj
 0001:00025d17       ?get_parameter_type@?$positional_parameter_base@DV?$string_output_adapter@D@__crt_stdio_output@@@__crt_stdio_output@@CA?AW4parameter_type@12@_W@Z 10026d17 f i libucrt:output.obj
 0001:00025d1b       ?get_parameter_type@?$positional_parameter_base@_WV?$stream_output_adapter@_W@__crt_stdio_output@@@__crt_stdio_output@@CA?AW4parameter_type@12@F@Z 10026d1b f i libucrt:output.obj
 0001:00025d1f       ?get_parameter_type@?$positional_parameter_base@_WV?$stream_output_adapter@_W@__crt_stdio_output@@@__crt_stdio_output@@CA?AW4parameter_type@12@G@Z 10026d1f f i libucrt:output.obj
 0001:00025d23       ?get_parameter_type@?$positional_parameter_base@_WV?$stream_output_adapter@_W@__crt_stdio_output@@@__crt_stdio_output@@CA?AW4parameter_type@12@H@Z 10026d23 f i libucrt:output.obj
 0001:00025d27       ?get_parameter_type@?$positional_parameter_base@_WV?$stream_output_adapter@_W@__crt_stdio_output@@@__crt_stdio_output@@CA?AW4parameter_type@12@I@Z 10026d27 f i libucrt:output.obj
 0001:00025d2b       ?get_parameter_type@?$positional_parameter_base@_WV?$stream_output_adapter@_W@__crt_stdio_output@@@__crt_stdio_output@@CA?AW4parameter_type@12@U_CRT_DOUBLE@@@Z 10026d2b f i libucrt:output.obj
 0001:00025d2f       ?get_parameter_type@?$positional_parameter_base@_WV?$stream_output_adapter@_W@__crt_stdio_output@@@__crt_stdio_output@@CA?AW4parameter_type@12@_J@Z 10026d2f f i libucrt:output.obj
 0001:00025d33       ?get_parameter_type@?$positional_parameter_base@_WV?$stream_output_adapter@_W@__crt_stdio_output@@@__crt_stdio_output@@CA?AW4parameter_type@12@_K@Z 10026d33 f i libucrt:output.obj
 0001:00025d37       ?get_parameter_type@?$positional_parameter_base@_WV?$stream_output_adapter@_W@__crt_stdio_output@@@__crt_stdio_output@@CA?AW4parameter_type@12@_W@Z 10026d37 f i libucrt:output.obj
 0001:00025d3b       ?get_parameter_type@?$positional_parameter_base@_WV?$string_output_adapter@_W@__crt_stdio_output@@@__crt_stdio_output@@CA?AW4parameter_type@12@F@Z 10026d3b f i libucrt:output.obj
 0001:00025d3f       ?get_parameter_type@?$positional_parameter_base@_WV?$string_output_adapter@_W@__crt_stdio_output@@@__crt_stdio_output@@CA?AW4parameter_type@12@G@Z 10026d3f f i libucrt:output.obj
 0001:00025d43       ?get_parameter_type@?$positional_parameter_base@_WV?$string_output_adapter@_W@__crt_stdio_output@@@__crt_stdio_output@@CA?AW4parameter_type@12@H@Z 10026d43 f i libucrt:output.obj
 0001:00025d47       ?get_parameter_type@?$positional_parameter_base@_WV?$string_output_adapter@_W@__crt_stdio_output@@@__crt_stdio_output@@CA?AW4parameter_type@12@I@Z 10026d47 f i libucrt:output.obj
 0001:00025d4b       ?get_parameter_type@?$positional_parameter_base@_WV?$string_output_adapter@_W@__crt_stdio_output@@@__crt_stdio_output@@CA?AW4parameter_type@12@U_CRT_DOUBLE@@@Z 10026d4b f i libucrt:output.obj
 0001:00025d4f       ?get_parameter_type@?$positional_parameter_base@_WV?$string_output_adapter@_W@__crt_stdio_output@@@__crt_stdio_output@@CA?AW4parameter_type@12@_J@Z 10026d4f f i libucrt:output.obj
 0001:00025d53       ?get_parameter_type@?$positional_parameter_base@_WV?$string_output_adapter@_W@__crt_stdio_output@@@__crt_stdio_output@@CA?AW4parameter_type@12@_K@Z 10026d53 f i libucrt:output.obj
 0001:00025d57       ?get_parameter_type@?$positional_parameter_base@_WV?$string_output_adapter@_W@__crt_stdio_output@@@__crt_stdio_output@@CA?AW4parameter_type@12@_W@Z 10026d57 f i libucrt:output.obj
 0001:00025d5b       ?has_flag@?$output_processor@DV?$stream_output_adapter@D@__crt_stdio_output@@V?$format_validation_base@DV?$stream_output_adapter@D@__crt_stdio_output@@@2@@__crt_stdio_output@@ABE_NI@Z 10026d5b f i libucrt:output.obj
 0001:00025d75       ?has_flag@?$output_processor@DV?$stream_output_adapter@D@__crt_stdio_output@@V?$positional_parameter_base@DV?$stream_output_adapter@D@__crt_stdio_output@@@2@@__crt_stdio_output@@ABE_NI@Z 10026d75 f i libucrt:output.obj
 0001:00025d8f       ?has_flag@?$output_processor@DV?$stream_output_adapter@D@__crt_stdio_output@@V?$standard_base@DV?$stream_output_adapter@D@__crt_stdio_output@@@2@@__crt_stdio_output@@ABE_NI@Z 10026d8f f i libucrt:output.obj
 0001:00025da9       ?has_flag@?$output_processor@DV?$string_output_adapter@D@__crt_stdio_output@@V?$format_validation_base@DV?$string_output_adapter@D@__crt_stdio_output@@@2@@__crt_stdio_output@@ABE_NI@Z 10026da9 f i libucrt:output.obj
 0001:00025dc3       ?has_flag@?$output_processor@DV?$string_output_adapter@D@__crt_stdio_output@@V?$positional_parameter_base@DV?$string_output_adapter@D@__crt_stdio_output@@@2@@__crt_stdio_output@@ABE_NI@Z 10026dc3 f i libucrt:output.obj
 0001:00025ddd       ?has_flag@?$output_processor@DV?$string_output_adapter@D@__crt_stdio_output@@V?$standard_base@DV?$string_output_adapter@D@__crt_stdio_output@@@2@@__crt_stdio_output@@ABE_NI@Z 10026ddd f i libucrt:output.obj
 0001:00025df7       ?has_flag@?$output_processor@_WV?$stream_output_adapter@_W@__crt_stdio_output@@V?$format_validation_base@_WV?$stream_output_adapter@_W@__crt_stdio_output@@@2@@__crt_stdio_output@@ABE_NI@Z 10026df7 f i libucrt:output.obj
 0001:00025e11       ?has_flag@?$output_processor@_WV?$stream_output_adapter@_W@__crt_stdio_output@@V?$positional_parameter_base@_WV?$stream_output_adapter@_W@__crt_stdio_output@@@2@@__crt_stdio_output@@ABE_NI@Z 10026e11 f i libucrt:output.obj
 0001:00025e2b       ?has_flag@?$output_processor@_WV?$stream_output_adapter@_W@__crt_stdio_output@@V?$standard_base@_WV?$stream_output_adapter@_W@__crt_stdio_output@@@2@@__crt_stdio_output@@ABE_NI@Z 10026e2b f i libucrt:output.obj
 0001:00025e45       ?has_flag@?$output_processor@_WV?$string_output_adapter@_W@__crt_stdio_output@@V?$format_validation_base@_WV?$string_output_adapter@_W@__crt_stdio_output@@@2@@__crt_stdio_output@@ABE_NI@Z 10026e45 f i libucrt:output.obj
 0001:00025e5f       ?has_flag@?$output_processor@_WV?$string_output_adapter@_W@__crt_stdio_output@@V?$positional_parameter_base@_WV?$string_output_adapter@_W@__crt_stdio_output@@@2@@__crt_stdio_output@@ABE_NI@Z 10026e5f f i libucrt:output.obj
 0001:00025e79       ?has_flag@?$output_processor@_WV?$string_output_adapter@_W@__crt_stdio_output@@V?$standard_base@_WV?$string_output_adapter@_W@__crt_stdio_output@@@2@@__crt_stdio_output@@ABE_NI@Z 10026e79 f i libucrt:output.obj
 0001:00025e93       ?is_positional_parameter_reappearance_consistent@?$positional_parameter_base@DV?$stream_output_adapter@D@__crt_stdio_output@@@__crt_stdio_output@@AAE_NABUparameter_data@12@W4parameter_type@12@DW4length_modifier@2@@Z 10026e93 f i libucrt:output.obj
 0001:0002600c       ?is_positional_parameter_reappearance_consistent@?$positional_parameter_base@DV?$string_output_adapter@D@__crt_stdio_output@@@__crt_stdio_output@@AAE_NABUparameter_data@12@W4parameter_type@12@DW4length_modifier@2@@Z 1002700c f i libucrt:output.obj
 0001:00026185       ?is_positional_parameter_reappearance_consistent@?$positional_parameter_base@_WV?$stream_output_adapter@_W@__crt_stdio_output@@@__crt_stdio_output@@AAE_NABUparameter_data@12@W4parameter_type@12@_WW4length_modifier@2@@Z 10027185 f i libucrt:output.obj
 0001:000262f0       ?is_positional_parameter_reappearance_consistent@?$positional_parameter_base@_WV?$string_output_adapter@_W@__crt_stdio_output@@@__crt_stdio_output@@AAE_NABUparameter_data@12@W4parameter_type@12@_WW4length_modifier@2@@Z 100272f0 f i libucrt:output.obj
 0001:0002645b       ?is_string_backed@__crt_stdio_stream@@QBE_NXZ 1002745b f i libucrt:output.obj
 0001:0002646a       ?narrow_null_string@?$output_processor@DV?$stream_output_adapter@D@__crt_stdio_output@@V?$format_validation_base@DV?$stream_output_adapter@D@__crt_stdio_output@@@2@@__crt_stdio_output@@CAPADXZ 1002746a f i libucrt:output.obj
 0001:00026470       ?narrow_null_string@?$output_processor@DV?$stream_output_adapter@D@__crt_stdio_output@@V?$positional_parameter_base@DV?$stream_output_adapter@D@__crt_stdio_output@@@2@@__crt_stdio_output@@CAPADXZ 10027470 f i libucrt:output.obj
 0001:00026476       ?narrow_null_string@?$output_processor@DV?$stream_output_adapter@D@__crt_stdio_output@@V?$standard_base@DV?$stream_output_adapter@D@__crt_stdio_output@@@2@@__crt_stdio_output@@CAPADXZ 10027476 f i libucrt:output.obj
 0001:0002647c       ?narrow_null_string@?$output_processor@DV?$string_output_adapter@D@__crt_stdio_output@@V?$format_validation_base@DV?$string_output_adapter@D@__crt_stdio_output@@@2@@__crt_stdio_output@@CAPADXZ 1002747c f i libucrt:output.obj
 0001:00026482       ?narrow_null_string@?$output_processor@DV?$string_output_adapter@D@__crt_stdio_output@@V?$positional_parameter_base@DV?$string_output_adapter@D@__crt_stdio_output@@@2@@__crt_stdio_output@@CAPADXZ 10027482 f i libucrt:output.obj
 0001:00026488       ?narrow_null_string@?$output_processor@DV?$string_output_adapter@D@__crt_stdio_output@@V?$standard_base@DV?$string_output_adapter@D@__crt_stdio_output@@@2@@__crt_stdio_output@@CAPADXZ 10027488 f i libucrt:output.obj
 0001:0002648e       ?narrow_null_string@?$output_processor@_WV?$stream_output_adapter@_W@__crt_stdio_output@@V?$format_validation_base@_WV?$stream_output_adapter@_W@__crt_stdio_output@@@2@@__crt_stdio_output@@CAPADXZ 1002748e f i libucrt:output.obj
 0001:00026494       ?narrow_null_string@?$output_processor@_WV?$stream_output_adapter@_W@__crt_stdio_output@@V?$positional_parameter_base@_WV?$stream_output_adapter@_W@__crt_stdio_output@@@2@@__crt_stdio_output@@CAPADXZ 10027494 f i libucrt:output.obj
 0001:0002649a       ?narrow_null_string@?$output_processor@_WV?$stream_output_adapter@_W@__crt_stdio_output@@V?$standard_base@_WV?$stream_output_adapter@_W@__crt_stdio_output@@@2@@__crt_stdio_output@@CAPADXZ 1002749a f i libucrt:output.obj
 0001:000264a0       ?narrow_null_string@?$output_processor@_WV?$string_output_adapter@_W@__crt_stdio_output@@V?$format_validation_base@_WV?$string_output_adapter@_W@__crt_stdio_output@@@2@@__crt_stdio_output@@CAPADXZ 100274a0 f i libucrt:output.obj
 0001:000264a6       ?narrow_null_string@?$output_processor@_WV?$string_output_adapter@_W@__crt_stdio_output@@V?$positional_parameter_base@_WV?$string_output_adapter@_W@__crt_stdio_output@@@2@@__crt_stdio_output@@CAPADXZ 100274a6 f i libucrt:output.obj
 0001:000264ac       ?narrow_null_string@?$output_processor@_WV?$string_output_adapter@_W@__crt_stdio_output@@V?$standard_base@_WV?$string_output_adapter@_W@__crt_stdio_output@@@2@@__crt_stdio_output@@CAPADXZ 100274ac f i libucrt:output.obj
 0001:000264b2       ?parse_int_from_format_string@?$output_processor@DV?$stream_output_adapter@D@__crt_stdio_output@@V?$format_validation_base@DV?$stream_output_adapter@D@__crt_stdio_output@@@2@@__crt_stdio_output@@AAE_NQAH@Z 100274b2 f i libucrt:output.obj
 0001:00026525       ?parse_int_from_format_string@?$output_processor@DV?$stream_output_adapter@D@__crt_stdio_output@@V?$positional_parameter_base@DV?$stream_output_adapter@D@__crt_stdio_output@@@2@@__crt_stdio_output@@AAE_NQAH@Z 10027525 f i libucrt:output.obj
 0001:00026598       ?parse_int_from_format_string@?$output_processor@DV?$stream_output_adapter@D@__crt_stdio_output@@V?$standard_base@DV?$stream_output_adapter@D@__crt_stdio_output@@@2@@__crt_stdio_output@@AAE_NQAH@Z 10027598 f i libucrt:output.obj
 0001:0002660b       ?parse_int_from_format_string@?$output_processor@DV?$string_output_adapter@D@__crt_stdio_output@@V?$format_validation_base@DV?$string_output_adapter@D@__crt_stdio_output@@@2@@__crt_stdio_output@@AAE_NQAH@Z 1002760b f i libucrt:output.obj
 0001:0002667e       ?parse_int_from_format_string@?$output_processor@DV?$string_output_adapter@D@__crt_stdio_output@@V?$positional_parameter_base@DV?$string_output_adapter@D@__crt_stdio_output@@@2@@__crt_stdio_output@@AAE_NQAH@Z 1002767e f i libucrt:output.obj
 0001:000266f1       ?parse_int_from_format_string@?$output_processor@DV?$string_output_adapter@D@__crt_stdio_output@@V?$standard_base@DV?$string_output_adapter@D@__crt_stdio_output@@@2@@__crt_stdio_output@@AAE_NQAH@Z 100276f1 f i libucrt:output.obj
 0001:00026764       ?parse_int_from_format_string@?$output_processor@_WV?$stream_output_adapter@_W@__crt_stdio_output@@V?$format_validation_base@_WV?$stream_output_adapter@_W@__crt_stdio_output@@@2@@__crt_stdio_output@@AAE_NQAH@Z 10027764 f i libucrt:output.obj
 0001:000267d9       ?parse_int_from_format_string@?$output_processor@_WV?$stream_output_adapter@_W@__crt_stdio_output@@V?$positional_parameter_base@_WV?$stream_output_adapter@_W@__crt_stdio_output@@@2@@__crt_stdio_output@@AAE_NQAH@Z 100277d9 f i libucrt:output.obj
 0001:0002684e       ?parse_int_from_format_string@?$output_processor@_WV?$stream_output_adapter@_W@__crt_stdio_output@@V?$standard_base@_WV?$stream_output_adapter@_W@__crt_stdio_output@@@2@@__crt_stdio_output@@AAE_NQAH@Z 1002784e f i libucrt:output.obj
 0001:000268c3       ?parse_int_from_format_string@?$output_processor@_WV?$string_output_adapter@_W@__crt_stdio_output@@V?$format_validation_base@_WV?$string_output_adapter@_W@__crt_stdio_output@@@2@@__crt_stdio_output@@AAE_NQAH@Z 100278c3 f i libucrt:output.obj
 0001:00026938       ?parse_int_from_format_string@?$output_processor@_WV?$string_output_adapter@_W@__crt_stdio_output@@V?$positional_parameter_base@_WV?$string_output_adapter@_W@__crt_stdio_output@@@2@@__crt_stdio_output@@AAE_NQAH@Z 10027938 f i libucrt:output.obj
 0001:000269ad       ?parse_int_from_format_string@?$output_processor@_WV?$string_output_adapter@_W@__crt_stdio_output@@V?$standard_base@_WV?$string_output_adapter@_W@__crt_stdio_output@@@2@@__crt_stdio_output@@AAE_NQAH@Z 100279ad f i libucrt:output.obj
 0001:00026a22       ?process@?$output_processor@DV?$stream_output_adapter@D@__crt_stdio_output@@V?$format_validation_base@DV?$stream_output_adapter@D@__crt_stdio_output@@@2@@__crt_stdio_output@@QAEHXZ 10027a22 f i libucrt:output.obj
 0001:00026b94       ?process@?$output_processor@DV?$stream_output_adapter@D@__crt_stdio_output@@V?$positional_parameter_base@DV?$stream_output_adapter@D@__crt_stdio_output@@@2@@__crt_stdio_output@@QAEHXZ 10027b94 f i libucrt:output.obj
 0001:00026d47       ?process@?$output_processor@DV?$stream_output_adapter@D@__crt_stdio_output@@V?$standard_base@DV?$stream_output_adapter@D@__crt_stdio_output@@@2@@__crt_stdio_output@@QAEHXZ 10027d47 f i libucrt:output.obj
 0001:00026eaa       ?process@?$output_processor@DV?$string_output_adapter@D@__crt_stdio_output@@V?$format_validation_base@DV?$string_output_adapter@D@__crt_stdio_output@@@2@@__crt_stdio_output@@QAEHXZ 10027eaa f i libucrt:output.obj
 0001:0002701c       ?process@?$output_processor@DV?$string_output_adapter@D@__crt_stdio_output@@V?$positional_parameter_base@DV?$string_output_adapter@D@__crt_stdio_output@@@2@@__crt_stdio_output@@QAEHXZ 1002801c f i libucrt:output.obj
 0001:000271cf       ?process@?$output_processor@DV?$string_output_adapter@D@__crt_stdio_output@@V?$standard_base@DV?$string_output_adapter@D@__crt_stdio_output@@@2@@__crt_stdio_output@@QAEHXZ 100281cf f i libucrt:output.obj
 0001:00027332       ?process@?$output_processor@_WV?$stream_output_adapter@_W@__crt_stdio_output@@V?$format_validation_base@_WV?$stream_output_adapter@_W@__crt_stdio_output@@@2@@__crt_stdio_output@@QAEHXZ 10028332 f i libucrt:output.obj
 0001:000274ae       ?process@?$output_processor@_WV?$stream_output_adapter@_W@__crt_stdio_output@@V?$positional_parameter_base@_WV?$stream_output_adapter@_W@__crt_stdio_output@@@2@@__crt_stdio_output@@QAEHXZ 100284ae f i libucrt:output.obj
 0001:00027666       ?process@?$output_processor@_WV?$stream_output_adapter@_W@__crt_stdio_output@@V?$standard_base@_WV?$stream_output_adapter@_W@__crt_stdio_output@@@2@@__crt_stdio_output@@QAEHXZ 10028666 f i libucrt:output.obj
 0001:000277ce       ?process@?$output_processor@_WV?$string_output_adapter@_W@__crt_stdio_output@@V?$format_validation_base@_WV?$string_output_adapter@_W@__crt_stdio_output@@@2@@__crt_stdio_output@@QAEHXZ 100287ce f i libucrt:output.obj
 0001:0002794a       ?process@?$output_processor@_WV?$string_output_adapter@_W@__crt_stdio_output@@V?$positional_parameter_base@_WV?$string_output_adapter@_W@__crt_stdio_output@@@2@@__crt_stdio_output@@QAEHXZ 1002894a f i libucrt:output.obj
 0001:00027b02       ?process@?$output_processor@_WV?$string_output_adapter@_W@__crt_stdio_output@@V?$standard_base@_WV?$string_output_adapter@_W@__crt_stdio_output@@@2@@__crt_stdio_output@@QAEHXZ 10028b02 f i libucrt:output.obj
 0001:00027c6a       ?public_stream@__crt_stdio_stream@@QBEPAU_iobuf@@XZ 10028c6a f i libucrt:output.obj
 0001:00027c6d       ?set_flag@?$output_processor@DV?$stream_output_adapter@D@__crt_stdio_output@@V?$format_validation_base@DV?$stream_output_adapter@D@__crt_stdio_output@@@2@@__crt_stdio_output@@AAEXI@Z 10028c6d f i libucrt:output.obj
 0001:00027c7f       ?set_flag@?$output_processor@DV?$stream_output_adapter@D@__crt_stdio_output@@V?$positional_parameter_base@DV?$stream_output_adapter@D@__crt_stdio_output@@@2@@__crt_stdio_output@@AAEXI@Z 10028c7f f i libucrt:output.obj
 0001:00027c91       ?set_flag@?$output_processor@DV?$stream_output_adapter@D@__crt_stdio_output@@V?$standard_base@DV?$stream_output_adapter@D@__crt_stdio_output@@@2@@__crt_stdio_output@@AAEXI@Z 10028c91 f i libucrt:output.obj
 0001:00027ca3       ?set_flag@?$output_processor@DV?$string_output_adapter@D@__crt_stdio_output@@V?$format_validation_base@DV?$string_output_adapter@D@__crt_stdio_output@@@2@@__crt_stdio_output@@AAEXI@Z 10028ca3 f i libucrt:output.obj
 0001:00027cb5       ?set_flag@?$output_processor@DV?$string_output_adapter@D@__crt_stdio_output@@V?$positional_parameter_base@DV?$string_output_adapter@D@__crt_stdio_output@@@2@@__crt_stdio_output@@AAEXI@Z 10028cb5 f i libucrt:output.obj
 0001:00027cc7       ?set_flag@?$output_processor@DV?$string_output_adapter@D@__crt_stdio_output@@V?$standard_base@DV?$string_output_adapter@D@__crt_stdio_output@@@2@@__crt_stdio_output@@AAEXI@Z 10028cc7 f i libucrt:output.obj
 0001:00027cd9       ?set_flag@?$output_processor@_WV?$stream_output_adapter@_W@__crt_stdio_output@@V?$format_validation_base@_WV?$stream_output_adapter@_W@__crt_stdio_output@@@2@@__crt_stdio_output@@AAEXI@Z 10028cd9 f i libucrt:output.obj
 0001:00027ceb       ?set_flag@?$output_processor@_WV?$stream_output_adapter@_W@__crt_stdio_output@@V?$positional_parameter_base@_WV?$stream_output_adapter@_W@__crt_stdio_output@@@2@@__crt_stdio_output@@AAEXI@Z 10028ceb f i libucrt:output.obj
 0001:00027cfd       ?set_flag@?$output_processor@_WV?$stream_output_adapter@_W@__crt_stdio_output@@V?$standard_base@_WV?$stream_output_adapter@_W@__crt_stdio_output@@@2@@__crt_stdio_output@@AAEXI@Z 10028cfd f i libucrt:output.obj
 0001:00027d0f       ?set_flag@?$output_processor@_WV?$string_output_adapter@_W@__crt_stdio_output@@V?$format_validation_base@_WV?$string_output_adapter@_W@__crt_stdio_output@@@2@@__crt_stdio_output@@AAEXI@Z 10028d0f f i libucrt:output.obj
 0001:00027d21       ?set_flag@?$output_processor@_WV?$string_output_adapter@_W@__crt_stdio_output@@V?$positional_parameter_base@_WV?$string_output_adapter@_W@__crt_stdio_output@@@2@@__crt_stdio_output@@AAEXI@Z 10028d21 f i libucrt:output.obj
 0001:00027d33       ?set_flag@?$output_processor@_WV?$string_output_adapter@_W@__crt_stdio_output@@V?$standard_base@_WV?$string_output_adapter@_W@__crt_stdio_output@@@2@@__crt_stdio_output@@AAEXI@Z 10028d33 f i libucrt:output.obj
 0001:00027d45       ?should_format@?$positional_parameter_base@DV?$stream_output_adapter@D@__crt_stdio_output@@@__crt_stdio_output@@IAE_NXZ 10028d45 f i libucrt:output.obj
 0001:00027d60       ?should_format@?$positional_parameter_base@DV?$string_output_adapter@D@__crt_stdio_output@@@__crt_stdio_output@@IAE_NXZ 10028d60 f i libucrt:output.obj
 0001:00027d7b       ?should_format@?$positional_parameter_base@_WV?$stream_output_adapter@_W@__crt_stdio_output@@@__crt_stdio_output@@IAE_NXZ 10028d7b f i libucrt:output.obj
 0001:00027d96       ?should_format@?$positional_parameter_base@_WV?$string_output_adapter@_W@__crt_stdio_output@@@__crt_stdio_output@@IAE_NXZ 10028d96 f i libucrt:output.obj
 0001:00027db1       ?should_format@?$standard_base@DV?$stream_output_adapter@D@__crt_stdio_output@@@__crt_stdio_output@@IAE_NXZ 10028db1 f i libucrt:output.obj
 0001:00027db4       ?should_format@?$standard_base@DV?$string_output_adapter@D@__crt_stdio_output@@@__crt_stdio_output@@IAE_NXZ 10028db4 f i libucrt:output.obj
 0001:00027db7       ?should_format@?$standard_base@_WV?$stream_output_adapter@_W@__crt_stdio_output@@@__crt_stdio_output@@IAE_NXZ 10028db7 f i libucrt:output.obj
 0001:00027dba       ?should_format@?$standard_base@_WV?$string_output_adapter@_W@__crt_stdio_output@@@__crt_stdio_output@@IAE_NXZ 10028dba f i libucrt:output.obj
 0001:00027dbd       ?should_skip_normal_state_processing@?$positional_parameter_base@DV?$stream_output_adapter@D@__crt_stdio_output@@@__crt_stdio_output@@IAE_NXZ 10028dbd f i libucrt:output.obj
 0001:00027def       ?should_skip_normal_state_processing@?$positional_parameter_base@DV?$string_output_adapter@D@__crt_stdio_output@@@__crt_stdio_output@@IAE_NXZ 10028def f i libucrt:output.obj
 0001:00027e21       ?should_skip_normal_state_processing@?$positional_parameter_base@_WV?$stream_output_adapter@_W@__crt_stdio_output@@@__crt_stdio_output@@IAE_NXZ 10028e21 f i libucrt:output.obj
 0001:00027e53       ?should_skip_normal_state_processing@?$positional_parameter_base@_WV?$string_output_adapter@_W@__crt_stdio_output@@@__crt_stdio_output@@IAE_NXZ 10028e53 f i libucrt:output.obj
 0001:00027e85       ?should_skip_normal_state_processing@?$standard_base@DV?$stream_output_adapter@D@__crt_stdio_output@@@__crt_stdio_output@@IAE_NXZ 10028e85 f i libucrt:output.obj
 0001:00027e88       ?should_skip_normal_state_processing@?$standard_base@DV?$string_output_adapter@D@__crt_stdio_output@@@__crt_stdio_output@@IAE_NXZ 10028e88 f i libucrt:output.obj
 0001:00027e8b       ?should_skip_normal_state_processing@?$standard_base@_WV?$stream_output_adapter@_W@__crt_stdio_output@@@__crt_stdio_output@@IAE_NXZ 10028e8b f i libucrt:output.obj
 0001:00027e8e       ?should_skip_normal_state_processing@?$standard_base@_WV?$string_output_adapter@_W@__crt_stdio_output@@@__crt_stdio_output@@IAE_NXZ 10028e8e f i libucrt:output.obj
 0001:00027e91       ?should_skip_type_state_output@?$positional_parameter_base@DV?$stream_output_adapter@D@__crt_stdio_output@@@__crt_stdio_output@@IBE_NXZ 10028e91 f i libucrt:output.obj
 0001:00027ead       ?should_skip_type_state_output@?$positional_parameter_base@DV?$string_output_adapter@D@__crt_stdio_output@@@__crt_stdio_output@@IBE_NXZ 10028ead f i libucrt:output.obj
 0001:00027ec9       ?should_skip_type_state_output@?$positional_parameter_base@_WV?$stream_output_adapter@_W@__crt_stdio_output@@@__crt_stdio_output@@IBE_NXZ 10028ec9 f i libucrt:output.obj
 0001:00027ee5       ?should_skip_type_state_output@?$positional_parameter_base@_WV?$string_output_adapter@_W@__crt_stdio_output@@@__crt_stdio_output@@IBE_NXZ 10028ee5 f i libucrt:output.obj
 0001:00027f01       ?should_skip_type_state_output@?$standard_base@DV?$stream_output_adapter@D@__crt_stdio_output@@@__crt_stdio_output@@IBE_NXZ 10028f01 f i libucrt:output.obj
 0001:00027f04       ?should_skip_type_state_output@?$standard_base@DV?$string_output_adapter@D@__crt_stdio_output@@@__crt_stdio_output@@IBE_NXZ 10028f04 f i libucrt:output.obj
 0001:00027f07       ?should_skip_type_state_output@?$standard_base@_WV?$stream_output_adapter@_W@__crt_stdio_output@@@__crt_stdio_output@@IBE_NXZ 10028f07 f i libucrt:output.obj
 0001:00027f0a       ?should_skip_type_state_output@?$standard_base@_WV?$string_output_adapter@_W@__crt_stdio_output@@@__crt_stdio_output@@IBE_NXZ 10028f0a f i libucrt:output.obj
 0001:00027f0d       ?state_case_dot@?$output_processor@DV?$stream_output_adapter@D@__crt_stdio_output@@V?$format_validation_base@DV?$stream_output_adapter@D@__crt_stdio_output@@@2@@__crt_stdio_output@@AAE_NXZ 10028f0d f i libucrt:output.obj
 0001:00027f14       ?state_case_dot@?$output_processor@DV?$stream_output_adapter@D@__crt_stdio_output@@V?$positional_parameter_base@DV?$stream_output_adapter@D@__crt_stdio_output@@@2@@__crt_stdio_output@@AAE_NXZ 10028f14 f i libucrt:output.obj
 0001:00027f1b       ?state_case_dot@?$output_processor@DV?$stream_output_adapter@D@__crt_stdio_output@@V?$standard_base@DV?$stream_output_adapter@D@__crt_stdio_output@@@2@@__crt_stdio_output@@AAE_NXZ 10028f1b f i libucrt:output.obj
 0001:00027f22       ?state_case_dot@?$output_processor@DV?$string_output_adapter@D@__crt_stdio_output@@V?$format_validation_base@DV?$string_output_adapter@D@__crt_stdio_output@@@2@@__crt_stdio_output@@AAE_NXZ 10028f22 f i libucrt:output.obj
 0001:00027f29       ?state_case_dot@?$output_processor@DV?$string_output_adapter@D@__crt_stdio_output@@V?$positional_parameter_base@DV?$string_output_adapter@D@__crt_stdio_output@@@2@@__crt_stdio_output@@AAE_NXZ 10028f29 f i libucrt:output.obj
 0001:00027f30       ?state_case_dot@?$output_processor@DV?$string_output_adapter@D@__crt_stdio_output@@V?$standard_base@DV?$string_output_adapter@D@__crt_stdio_output@@@2@@__crt_stdio_output@@AAE_NXZ 10028f30 f i libucrt:output.obj
 0001:00027f37       ?state_case_dot@?$output_processor@_WV?$stream_output_adapter@_W@__crt_stdio_output@@V?$format_validation_base@_WV?$stream_output_adapter@_W@__crt_stdio_output@@@2@@__crt_stdio_output@@AAE_NXZ 10028f37 f i libucrt:output.obj
 0001:00027f3e       ?state_case_dot@?$output_processor@_WV?$stream_output_adapter@_W@__crt_stdio_output@@V?$positional_parameter_base@_WV?$stream_output_adapter@_W@__crt_stdio_output@@@2@@__crt_stdio_output@@AAE_NXZ 10028f3e f i libucrt:output.obj
 0001:00027f45       ?state_case_dot@?$output_processor@_WV?$stream_output_adapter@_W@__crt_stdio_output@@V?$standard_base@_WV?$stream_output_adapter@_W@__crt_stdio_output@@@2@@__crt_stdio_output@@AAE_NXZ 10028f45 f i libucrt:output.obj
 0001:00027f4c       ?state_case_dot@?$output_processor@_WV?$string_output_adapter@_W@__crt_stdio_output@@V?$format_validation_base@_WV?$string_output_adapter@_W@__crt_stdio_output@@@2@@__crt_stdio_output@@AAE_NXZ 10028f4c f i libucrt:output.obj
 0001:00027f53       ?state_case_dot@?$output_processor@_WV?$string_output_adapter@_W@__crt_stdio_output@@V?$positional_parameter_base@_WV?$string_output_adapter@_W@__crt_stdio_output@@@2@@__crt_stdio_output@@AAE_NXZ 10028f53 f i libucrt:output.obj
 0001:00027f5a       ?state_case_dot@?$output_processor@_WV?$string_output_adapter@_W@__crt_stdio_output@@V?$standard_base@_WV?$string_output_adapter@_W@__crt_stdio_output@@@2@@__crt_stdio_output@@AAE_NXZ 10028f5a f i libucrt:output.obj
 0001:00027f61       ?state_case_flag@?$output_processor@DV?$stream_output_adapter@D@__crt_stdio_output@@V?$format_validation_base@DV?$stream_output_adapter@D@__crt_stdio_output@@@2@@__crt_stdio_output@@AAE_NXZ 10028f61 f i libucrt:output.obj
 0001:00027fad       ?state_case_flag@?$output_processor@DV?$stream_output_adapter@D@__crt_stdio_output@@V?$positional_parameter_base@DV?$stream_output_adapter@D@__crt_stdio_output@@@2@@__crt_stdio_output@@AAE_NXZ 10028fad f i libucrt:output.obj
 0001:00027ff9       ?state_case_flag@?$output_processor@DV?$stream_output_adapter@D@__crt_stdio_output@@V?$standard_base@DV?$stream_output_adapter@D@__crt_stdio_output@@@2@@__crt_stdio_output@@AAE_NXZ 10028ff9 f i libucrt:output.obj
 0001:00028045       ?state_case_flag@?$output_processor@DV?$string_output_adapter@D@__crt_stdio_output@@V?$format_validation_base@DV?$string_output_adapter@D@__crt_stdio_output@@@2@@__crt_stdio_output@@AAE_NXZ 10029045 f i libucrt:output.obj
 0001:00028091       ?state_case_flag@?$output_processor@DV?$string_output_adapter@D@__crt_stdio_output@@V?$positional_parameter_base@DV?$string_output_adapter@D@__crt_stdio_output@@@2@@__crt_stdio_output@@AAE_NXZ 10029091 f i libucrt:output.obj
 0001:000280dd       ?state_case_flag@?$output_processor@DV?$string_output_adapter@D@__crt_stdio_output@@V?$standard_base@DV?$string_output_adapter@D@__crt_stdio_output@@@2@@__crt_stdio_output@@AAE_NXZ 100290dd f i libucrt:output.obj
 0001:00028129       ?state_case_flag@?$output_processor@_WV?$stream_output_adapter@_W@__crt_stdio_output@@V?$format_validation_base@_WV?$stream_output_adapter@_W@__crt_stdio_output@@@2@@__crt_stdio_output@@AAE_NXZ 10029129 f i libucrt:output.obj
 0001:00028175       ?state_case_flag@?$output_processor@_WV?$stream_output_adapter@_W@__crt_stdio_output@@V?$positional_parameter_base@_WV?$stream_output_adapter@_W@__crt_stdio_output@@@2@@__crt_stdio_output@@AAE_NXZ 10029175 f i libucrt:output.obj
 0001:000281c1       ?state_case_flag@?$output_processor@_WV?$stream_output_adapter@_W@__crt_stdio_output@@V?$standard_base@_WV?$stream_output_adapter@_W@__crt_stdio_output@@@2@@__crt_stdio_output@@AAE_NXZ 100291c1 f i libucrt:output.obj
 0001:0002820d       ?state_case_flag@?$output_processor@_WV?$string_output_adapter@_W@__crt_stdio_output@@V?$format_validation_base@_WV?$string_output_adapter@_W@__crt_stdio_output@@@2@@__crt_stdio_output@@AAE_NXZ 1002920d f i libucrt:output.obj
 0001:00028259       ?state_case_flag@?$output_processor@_WV?$string_output_adapter@_W@__crt_stdio_output@@V?$positional_parameter_base@_WV?$string_output_adapter@_W@__crt_stdio_output@@@2@@__crt_stdio_output@@AAE_NXZ 10029259 f i libucrt:output.obj
 0001:000282a5       ?state_case_flag@?$output_processor@_WV?$string_output_adapter@_W@__crt_stdio_output@@V?$standard_base@_WV?$string_output_adapter@_W@__crt_stdio_output@@@2@@__crt_stdio_output@@AAE_NXZ 100292a5 f i libucrt:output.obj
 0001:000282f1       ?state_case_normal@?$output_processor@DV?$stream_output_adapter@D@__crt_stdio_output@@V?$format_validation_base@DV?$stream_output_adapter@D@__crt_stdio_output@@@2@@__crt_stdio_output@@AAE_NXZ 100292f1 f i libucrt:output.obj
 0001:00028317       ?state_case_normal@?$output_processor@DV?$stream_output_adapter@D@__crt_stdio_output@@V?$positional_parameter_base@DV?$stream_output_adapter@D@__crt_stdio_output@@@2@@__crt_stdio_output@@AAE_NXZ 10029317 f i libucrt:output.obj
 0001:00028354       ?state_case_normal@?$output_processor@DV?$stream_output_adapter@D@__crt_stdio_output@@V?$standard_base@DV?$stream_output_adapter@D@__crt_stdio_output@@@2@@__crt_stdio_output@@AAE_NXZ 10029354 f i libucrt:output.obj
 0001:0002837a       ?state_case_normal@?$output_processor@DV?$string_output_adapter@D@__crt_stdio_output@@V?$format_validation_base@DV?$string_output_adapter@D@__crt_stdio_output@@@2@@__crt_stdio_output@@AAE_NXZ 1002937a f i libucrt:output.obj
 0001:000283a0       ?state_case_normal@?$output_processor@DV?$string_output_adapter@D@__crt_stdio_output@@V?$positional_parameter_base@DV?$string_output_adapter@D@__crt_stdio_output@@@2@@__crt_stdio_output@@AAE_NXZ 100293a0 f i libucrt:output.obj
 0001:000283dd       ?state_case_normal@?$output_processor@DV?$string_output_adapter@D@__crt_stdio_output@@V?$standard_base@DV?$string_output_adapter@D@__crt_stdio_output@@@2@@__crt_stdio_output@@AAE_NXZ 100293dd f i libucrt:output.obj
 0001:00028403       ?state_case_normal@?$output_processor@_WV?$stream_output_adapter@_W@__crt_stdio_output@@V?$format_validation_base@_WV?$stream_output_adapter@_W@__crt_stdio_output@@@2@@__crt_stdio_output@@AAE_NXZ 10029403 f i libucrt:output.obj
 0001:00028429       ?state_case_normal@?$output_processor@_WV?$stream_output_adapter@_W@__crt_stdio_output@@V?$positional_parameter_base@_WV?$stream_output_adapter@_W@__crt_stdio_output@@@2@@__crt_stdio_output@@AAE_NXZ 10029429 f i libucrt:output.obj
 0001:00028466       ?state_case_normal@?$output_processor@_WV?$stream_output_adapter@_W@__crt_stdio_output@@V?$standard_base@_WV?$stream_output_adapter@_W@__crt_stdio_output@@@2@@__crt_stdio_output@@AAE_NXZ 10029466 f i libucrt:output.obj
 0001:0002848c       ?state_case_normal@?$output_processor@_WV?$string_output_adapter@_W@__crt_stdio_output@@V?$format_validation_base@_WV?$string_output_adapter@_W@__crt_stdio_output@@@2@@__crt_stdio_output@@AAE_NXZ 1002948c f i libucrt:output.obj
 0001:000284b2       ?state_case_normal@?$output_processor@_WV?$string_output_adapter@_W@__crt_stdio_output@@V?$positional_parameter_base@_WV?$string_output_adapter@_W@__crt_stdio_output@@@2@@__crt_stdio_output@@AAE_NXZ 100294b2 f i libucrt:output.obj
 0001:000284ef       ?state_case_normal@?$output_processor@_WV?$string_output_adapter@_W@__crt_stdio_output@@V?$standard_base@_WV?$string_output_adapter@_W@__crt_stdio_output@@@2@@__crt_stdio_output@@AAE_NXZ 100294ef f i libucrt:output.obj
 0001:00028515       ?state_case_normal_common@?$output_processor@DV?$stream_output_adapter@D@__crt_stdio_output@@V?$format_validation_base@DV?$stream_output_adapter@D@__crt_stdio_output@@@2@@__crt_stdio_output@@AAE_NXZ 10029515 f i libucrt:output.obj
 0001:00028549       ?state_case_normal_common@?$output_processor@DV?$stream_output_adapter@D@__crt_stdio_output@@V?$positional_parameter_base@DV?$stream_output_adapter@D@__crt_stdio_output@@@2@@__crt_stdio_output@@AAE_NXZ 10029549 f i libucrt:output.obj
 0001:0002857d       ?state_case_normal_common@?$output_processor@DV?$stream_output_adapter@D@__crt_stdio_output@@V?$standard_base@DV?$stream_output_adapter@D@__crt_stdio_output@@@2@@__crt_stdio_output@@AAE_NXZ 1002957d f i libucrt:output.obj
 0001:000285b1       ?state_case_normal_common@?$output_processor@DV?$string_output_adapter@D@__crt_stdio_output@@V?$format_validation_base@DV?$string_output_adapter@D@__crt_stdio_output@@@2@@__crt_stdio_output@@AAE_NXZ 100295b1 f i libucrt:output.obj
 0001:000285e5       ?state_case_normal_common@?$output_processor@DV?$string_output_adapter@D@__crt_stdio_output@@V?$positional_parameter_base@DV?$string_output_adapter@D@__crt_stdio_output@@@2@@__crt_stdio_output@@AAE_NXZ 100295e5 f i libucrt:output.obj
 0001:00028619       ?state_case_normal_common@?$output_processor@DV?$string_output_adapter@D@__crt_stdio_output@@V?$standard_base@DV?$string_output_adapter@D@__crt_stdio_output@@@2@@__crt_stdio_output@@AAE_NXZ 10029619 f i libucrt:output.obj
 0001:0002864d       ?state_case_normal_common@?$output_processor@_WV?$stream_output_adapter@_W@__crt_stdio_output@@V?$format_validation_base@_WV?$stream_output_adapter@_W@__crt_stdio_output@@@2@@__crt_stdio_output@@AAE_NXZ 1002964d f i libucrt:output.obj
 0001:0002866e       ?state_case_normal_common@?$output_processor@_WV?$stream_output_adapter@_W@__crt_stdio_output@@V?$positional_parameter_base@_WV?$stream_output_adapter@_W@__crt_stdio_output@@@2@@__crt_stdio_output@@AAE_NXZ 1002966e f i libucrt:output.obj
 0001:0002868f       ?state_case_normal_common@?$output_processor@_WV?$stream_output_adapter@_W@__crt_stdio_output@@V?$standard_base@_WV?$stream_output_adapter@_W@__crt_stdio_output@@@2@@__crt_stdio_output@@AAE_NXZ 1002968f f i libucrt:output.obj
 0001:000286b0       ?state_case_normal_common@?$output_processor@_WV?$string_output_adapter@_W@__crt_stdio_output@@V?$format_validation_base@_WV?$string_output_adapter@_W@__crt_stdio_output@@@2@@__crt_stdio_output@@AAE_NXZ 100296b0 f i libucrt:output.obj
 0001:000286d1       ?state_case_normal_common@?$output_processor@_WV?$string_output_adapter@_W@__crt_stdio_output@@V?$positional_parameter_base@_WV?$string_output_adapter@_W@__crt_stdio_output@@@2@@__crt_stdio_output@@AAE_NXZ 100296d1 f i libucrt:output.obj
 0001:000286f2       ?state_case_normal_common@?$output_processor@_WV?$string_output_adapter@_W@__crt_stdio_output@@V?$standard_base@_WV?$string_output_adapter@_W@__crt_stdio_output@@@2@@__crt_stdio_output@@AAE_NXZ 100296f2 f i libucrt:output.obj
 0001:00028713       ?state_case_normal_tchar@?$output_processor@DV?$stream_output_adapter@D@__crt_stdio_output@@V?$format_validation_base@DV?$stream_output_adapter@D@__crt_stdio_output@@@2@@__crt_stdio_output@@AAE_ND@Z 10029713 f i libucrt:output.obj
 0001:0002878c       ?state_case_normal_tchar@?$output_processor@DV?$stream_output_adapter@D@__crt_stdio_output@@V?$positional_parameter_base@DV?$stream_output_adapter@D@__crt_stdio_output@@@2@@__crt_stdio_output@@AAE_ND@Z 1002978c f i libucrt:output.obj
 0001:00028805       ?state_case_normal_tchar@?$output_processor@DV?$stream_output_adapter@D@__crt_stdio_output@@V?$standard_base@DV?$stream_output_adapter@D@__crt_stdio_output@@@2@@__crt_stdio_output@@AAE_ND@Z 10029805 f i libucrt:output.obj
 0001:0002887e       ?state_case_normal_tchar@?$output_processor@DV?$string_output_adapter@D@__crt_stdio_output@@V?$format_validation_base@DV?$string_output_adapter@D@__crt_stdio_output@@@2@@__crt_stdio_output@@AAE_ND@Z 1002987e f i libucrt:output.obj
 0001:000288f7       ?state_case_normal_tchar@?$output_processor@DV?$string_output_adapter@D@__crt_stdio_output@@V?$positional_parameter_base@DV?$string_output_adapter@D@__crt_stdio_output@@@2@@__crt_stdio_output@@AAE_ND@Z 100298f7 f i libucrt:output.obj
 0001:00028970       ?state_case_normal_tchar@?$output_processor@DV?$string_output_adapter@D@__crt_stdio_output@@V?$standard_base@DV?$string_output_adapter@D@__crt_stdio_output@@@2@@__crt_stdio_output@@AAE_ND@Z 10029970 f i libucrt:output.obj
 0001:000289e9       ?state_case_normal_tchar@?$output_processor@_WV?$stream_output_adapter@_W@__crt_stdio_output@@V?$format_validation_base@_WV?$stream_output_adapter@_W@__crt_stdio_output@@@2@@__crt_stdio_output@@AAE_N_W@Z 100299e9 f i libucrt:output.obj
 0001:000289f4       ?state_case_normal_tchar@?$output_processor@_WV?$stream_output_adapter@_W@__crt_stdio_output@@V?$positional_parameter_base@_WV?$stream_output_adapter@_W@__crt_stdio_output@@@2@@__crt_stdio_output@@AAE_N_W@Z 100299f4 f i libucrt:output.obj
 0001:000289ff       ?state_case_normal_tchar@?$output_processor@_WV?$stream_output_adapter@_W@__crt_stdio_output@@V?$standard_base@_WV?$stream_output_adapter@_W@__crt_stdio_output@@@2@@__crt_stdio_output@@AAE_N_W@Z 100299ff f i libucrt:output.obj
 0001:00028a0a       ?state_case_normal_tchar@?$output_processor@_WV?$string_output_adapter@_W@__crt_stdio_output@@V?$format_validation_base@_WV?$string_output_adapter@_W@__crt_stdio_output@@@2@@__crt_stdio_output@@AAE_N_W@Z 10029a0a f i libucrt:output.obj
 0001:00028a15       ?state_case_normal_tchar@?$output_processor@_WV?$string_output_adapter@_W@__crt_stdio_output@@V?$positional_parameter_base@_WV?$string_output_adapter@_W@__crt_stdio_output@@@2@@__crt_stdio_output@@AAE_N_W@Z 10029a15 f i libucrt:output.obj
 0001:00028a20       ?state_case_normal_tchar@?$output_processor@_WV?$string_output_adapter@_W@__crt_stdio_output@@V?$standard_base@_WV?$string_output_adapter@_W@__crt_stdio_output@@@2@@__crt_stdio_output@@AAE_N_W@Z 10029a20 f i libucrt:output.obj
 0001:00028a2b       ?state_case_percent@?$output_processor@DV?$stream_output_adapter@D@__crt_stdio_output@@V?$format_validation_base@DV?$stream_output_adapter@D@__crt_stdio_output@@@2@@__crt_stdio_output@@AAE_NXZ 10029a2b f i libucrt:output.obj
 0001:00028a49       ?state_case_percent@?$output_processor@DV?$stream_output_adapter@D@__crt_stdio_output@@V?$positional_parameter_base@DV?$stream_output_adapter@D@__crt_stdio_output@@@2@@__crt_stdio_output@@AAE_NXZ 10029a49 f i libucrt:output.obj
 0001:00028a67       ?state_case_percent@?$output_processor@DV?$stream_output_adapter@D@__crt_stdio_output@@V?$standard_base@DV?$stream_output_adapter@D@__crt_stdio_output@@@2@@__crt_stdio_output@@AAE_NXZ 10029a67 f i libucrt:output.obj
 0001:00028a85       ?state_case_percent@?$output_processor@DV?$string_output_adapter@D@__crt_stdio_output@@V?$format_validation_base@DV?$string_output_adapter@D@__crt_stdio_output@@@2@@__crt_stdio_output@@AAE_NXZ 10029a85 f i libucrt:output.obj
 0001:00028aa3       ?state_case_percent@?$output_processor@DV?$string_output_adapter@D@__crt_stdio_output@@V?$positional_parameter_base@DV?$string_output_adapter@D@__crt_stdio_output@@@2@@__crt_stdio_output@@AAE_NXZ 10029aa3 f i libucrt:output.obj
 0001:00028ac1       ?state_case_percent@?$output_processor@DV?$string_output_adapter@D@__crt_stdio_output@@V?$standard_base@DV?$string_output_adapter@D@__crt_stdio_output@@@2@@__crt_stdio_output@@AAE_NXZ 10029ac1 f i libucrt:output.obj
 0001:00028adf       ?state_case_percent@?$output_processor@_WV?$stream_output_adapter@_W@__crt_stdio_output@@V?$format_validation_base@_WV?$stream_output_adapter@_W@__crt_stdio_output@@@2@@__crt_stdio_output@@AAE_NXZ 10029adf f i libucrt:output.obj
 0001:00028afd       ?state_case_percent@?$output_processor@_WV?$stream_output_adapter@_W@__crt_stdio_output@@V?$positional_parameter_base@_WV?$stream_output_adapter@_W@__crt_stdio_output@@@2@@__crt_stdio_output@@AAE_NXZ 10029afd f i libucrt:output.obj
 0001:00028b1b       ?state_case_percent@?$output_processor@_WV?$stream_output_adapter@_W@__crt_stdio_output@@V?$standard_base@_WV?$stream_output_adapter@_W@__crt_stdio_output@@@2@@__crt_stdio_output@@AAE_NXZ 10029b1b f i libucrt:output.obj
 0001:00028b39       ?state_case_percent@?$output_processor@_WV?$string_output_adapter@_W@__crt_stdio_output@@V?$format_validation_base@_WV?$string_output_adapter@_W@__crt_stdio_output@@@2@@__crt_stdio_output@@AAE_NXZ 10029b39 f i libucrt:output.obj
 0001:00028b57       ?state_case_percent@?$output_processor@_WV?$string_output_adapter@_W@__crt_stdio_output@@V?$positional_parameter_base@_WV?$string_output_adapter@_W@__crt_stdio_output@@@2@@__crt_stdio_output@@AAE_NXZ 10029b57 f i libucrt:output.obj
 0001:00028b75       ?state_case_percent@?$output_processor@_WV?$string_output_adapter@_W@__crt_stdio_output@@V?$standard_base@_WV?$string_output_adapter@_W@__crt_stdio_output@@@2@@__crt_stdio_output@@AAE_NXZ 10029b75 f i libucrt:output.obj
 0001:00028b93       ?state_case_precision@?$output_processor@DV?$stream_output_adapter@D@__crt_stdio_output@@V?$format_validation_base@DV?$stream_output_adapter@D@__crt_stdio_output@@@2@@__crt_stdio_output@@AAE_NXZ 10029b93 f i libucrt:output.obj
 0001:00028bc5       ?state_case_precision@?$output_processor@DV?$stream_output_adapter@D@__crt_stdio_output@@V?$positional_parameter_base@DV?$stream_output_adapter@D@__crt_stdio_output@@@2@@__crt_stdio_output@@AAE_NXZ 10029bc5 f i libucrt:output.obj
 0001:00028c0d       ?state_case_precision@?$output_processor@DV?$stream_output_adapter@D@__crt_stdio_output@@V?$standard_base@DV?$stream_output_adapter@D@__crt_stdio_output@@@2@@__crt_stdio_output@@AAE_NXZ 10029c0d f i libucrt:output.obj
 0001:00028c3f       ?state_case_precision@?$output_processor@DV?$string_output_adapter@D@__crt_stdio_output@@V?$format_validation_base@DV?$string_output_adapter@D@__crt_stdio_output@@@2@@__crt_stdio_output@@AAE_NXZ 10029c3f f i libucrt:output.obj
 0001:00028c71       ?state_case_precision@?$output_processor@DV?$string_output_adapter@D@__crt_stdio_output@@V?$positional_parameter_base@DV?$string_output_adapter@D@__crt_stdio_output@@@2@@__crt_stdio_output@@AAE_NXZ 10029c71 f i libucrt:output.obj
 0001:00028cb9       ?state_case_precision@?$output_processor@DV?$string_output_adapter@D@__crt_stdio_output@@V?$standard_base@DV?$string_output_adapter@D@__crt_stdio_output@@@2@@__crt_stdio_output@@AAE_NXZ 10029cb9 f i libucrt:output.obj
 0001:00028ceb       ?state_case_precision@?$output_processor@_WV?$stream_output_adapter@_W@__crt_stdio_output@@V?$format_validation_base@_WV?$stream_output_adapter@_W@__crt_stdio_output@@@2@@__crt_stdio_output@@AAE_NXZ 10029ceb f i libucrt:output.obj
 0001:00028d1e       ?state_case_precision@?$output_processor@_WV?$stream_output_adapter@_W@__crt_stdio_output@@V?$positional_parameter_base@_WV?$stream_output_adapter@_W@__crt_stdio_output@@@2@@__crt_stdio_output@@AAE_NXZ 10029d1e f i libucrt:output.obj
 0001:00028d67       ?state_case_precision@?$output_processor@_WV?$stream_output_adapter@_W@__crt_stdio_output@@V?$standard_base@_WV?$stream_output_adapter@_W@__crt_stdio_output@@@2@@__crt_stdio_output@@AAE_NXZ 10029d67 f i libucrt:output.obj
 0001:00028d9a       ?state_case_precision@?$output_processor@_WV?$string_output_adapter@_W@__crt_stdio_output@@V?$format_validation_base@_WV?$string_output_adapter@_W@__crt_stdio_output@@@2@@__crt_stdio_output@@AAE_NXZ 10029d9a f i libucrt:output.obj
 0001:00028dcd       ?state_case_precision@?$output_processor@_WV?$string_output_adapter@_W@__crt_stdio_output@@V?$positional_parameter_base@_WV?$string_output_adapter@_W@__crt_stdio_output@@@2@@__crt_stdio_output@@AAE_NXZ 10029dcd f i libucrt:output.obj
 0001:00028e16       ?state_case_precision@?$output_processor@_WV?$string_output_adapter@_W@__crt_stdio_output@@V?$standard_base@_WV?$string_output_adapter@_W@__crt_stdio_output@@@2@@__crt_stdio_output@@AAE_NXZ 10029e16 f i libucrt:output.obj
 0001:00028e49       ?state_case_size@?$output_processor@DV?$stream_output_adapter@D@__crt_stdio_output@@V?$format_validation_base@DV?$stream_output_adapter@D@__crt_stdio_output@@@2@@__crt_stdio_output@@AAE_NXZ 10029e49 f i libucrt:output.obj
 0001:0002900c       ?state_case_size@?$output_processor@DV?$stream_output_adapter@D@__crt_stdio_output@@V?$positional_parameter_base@DV?$stream_output_adapter@D@__crt_stdio_output@@@2@@__crt_stdio_output@@AAE_NXZ 1002a00c f i libucrt:output.obj
 0001:000291cf       ?state_case_size@?$output_processor@DV?$stream_output_adapter@D@__crt_stdio_output@@V?$standard_base@DV?$stream_output_adapter@D@__crt_stdio_output@@@2@@__crt_stdio_output@@AAE_NXZ 1002a1cf f i libucrt:output.obj
 0001:00029392       ?state_case_size@?$output_processor@DV?$string_output_adapter@D@__crt_stdio_output@@V?$format_validation_base@DV?$string_output_adapter@D@__crt_stdio_output@@@2@@__crt_stdio_output@@AAE_NXZ 1002a392 f i libucrt:output.obj
 0001:00029555       ?state_case_size@?$output_processor@DV?$string_output_adapter@D@__crt_stdio_output@@V?$positional_parameter_base@DV?$string_output_adapter@D@__crt_stdio_output@@@2@@__crt_stdio_output@@AAE_NXZ 1002a555 f i libucrt:output.obj
 0001:00029718       ?state_case_size@?$output_processor@DV?$string_output_adapter@D@__crt_stdio_output@@V?$standard_base@DV?$string_output_adapter@D@__crt_stdio_output@@@2@@__crt_stdio_output@@AAE_NXZ 1002a718 f i libucrt:output.obj
 0001:000298db       ?state_case_size@?$output_processor@_WV?$stream_output_adapter@_W@__crt_stdio_output@@V?$format_validation_base@_WV?$stream_output_adapter@_W@__crt_stdio_output@@@2@@__crt_stdio_output@@AAE_NXZ 1002a8db f i libucrt:output.obj
 0001:00029ab6       ?state_case_size@?$output_processor@_WV?$stream_output_adapter@_W@__crt_stdio_output@@V?$positional_parameter_base@_WV?$stream_output_adapter@_W@__crt_stdio_output@@@2@@__crt_stdio_output@@AAE_NXZ 1002aab6 f i libucrt:output.obj
 0001:00029c91       ?state_case_size@?$output_processor@_WV?$stream_output_adapter@_W@__crt_stdio_output@@V?$standard_base@_WV?$stream_output_adapter@_W@__crt_stdio_output@@@2@@__crt_stdio_output@@AAE_NXZ 1002ac91 f i libucrt:output.obj
 0001:00029e6c       ?state_case_size@?$output_processor@_WV?$string_output_adapter@_W@__crt_stdio_output@@V?$format_validation_base@_WV?$string_output_adapter@_W@__crt_stdio_output@@@2@@__crt_stdio_output@@AAE_NXZ 1002ae6c f i libucrt:output.obj
 0001:0002a047       ?state_case_size@?$output_processor@_WV?$string_output_adapter@_W@__crt_stdio_output@@V?$positional_parameter_base@_WV?$string_output_adapter@_W@__crt_stdio_output@@@2@@__crt_stdio_output@@AAE_NXZ 1002b047 f i libucrt:output.obj
 0001:0002a222       ?state_case_size@?$output_processor@_WV?$string_output_adapter@_W@__crt_stdio_output@@V?$standard_base@_WV?$string_output_adapter@_W@__crt_stdio_output@@@2@@__crt_stdio_output@@AAE_NXZ 1002b222 f i libucrt:output.obj
 0001:0002a3fd       ?state_case_type@?$output_processor@DV?$stream_output_adapter@D@__crt_stdio_output@@V?$format_validation_base@DV?$stream_output_adapter@D@__crt_stdio_output@@@2@@__crt_stdio_output@@AAE_NXZ 1002b3fd f i libucrt:output.obj
 0001:0002a6b7       ?state_case_type@?$output_processor@DV?$stream_output_adapter@D@__crt_stdio_output@@V?$positional_parameter_base@DV?$stream_output_adapter@D@__crt_stdio_output@@@2@@__crt_stdio_output@@AAE_NXZ 1002b6b7 f i libucrt:output.obj
 0001:0002a97f       ?state_case_type@?$output_processor@DV?$stream_output_adapter@D@__crt_stdio_output@@V?$standard_base@DV?$stream_output_adapter@D@__crt_stdio_output@@@2@@__crt_stdio_output@@AAE_NXZ 1002b97f f i libucrt:output.obj
 0001:0002ac39       ?state_case_type@?$output_processor@DV?$string_output_adapter@D@__crt_stdio_output@@V?$format_validation_base@DV?$string_output_adapter@D@__crt_stdio_output@@@2@@__crt_stdio_output@@AAE_NXZ 1002bc39 f i libucrt:output.obj
 0001:0002aef3       ?state_case_type@?$output_processor@DV?$string_output_adapter@D@__crt_stdio_output@@V?$positional_parameter_base@DV?$string_output_adapter@D@__crt_stdio_output@@@2@@__crt_stdio_output@@AAE_NXZ 1002bef3 f i libucrt:output.obj
 0001:0002b1bb       ?state_case_type@?$output_processor@DV?$string_output_adapter@D@__crt_stdio_output@@V?$standard_base@DV?$string_output_adapter@D@__crt_stdio_output@@@2@@__crt_stdio_output@@AAE_NXZ 1002c1bb f i libucrt:output.obj
 0001:0002b475       ?state_case_type@?$output_processor@_WV?$stream_output_adapter@_W@__crt_stdio_output@@V?$format_validation_base@_WV?$stream_output_adapter@_W@__crt_stdio_output@@@2@@__crt_stdio_output@@AAE_NXZ 1002c475 f i libucrt:output.obj
 0001:0002b769       ?state_case_type@?$output_processor@_WV?$stream_output_adapter@_W@__crt_stdio_output@@V?$positional_parameter_base@_WV?$stream_output_adapter@_W@__crt_stdio_output@@@2@@__crt_stdio_output@@AAE_NXZ 1002c769 f i libucrt:output.obj
 0001:0002ba70       ?state_case_type@?$output_processor@_WV?$stream_output_adapter@_W@__crt_stdio_output@@V?$standard_base@_WV?$stream_output_adapter@_W@__crt_stdio_output@@@2@@__crt_stdio_output@@AAE_NXZ 1002ca70 f i libucrt:output.obj
 0001:0002bd64       ?state_case_type@?$output_processor@_WV?$string_output_adapter@_W@__crt_stdio_output@@V?$format_validation_base@_WV?$string_output_adapter@_W@__crt_stdio_output@@@2@@__crt_stdio_output@@AAE_NXZ 1002cd64 f i libucrt:output.obj
 0001:0002c058       ?state_case_type@?$output_processor@_WV?$string_output_adapter@_W@__crt_stdio_output@@V?$positional_parameter_base@_WV?$string_output_adapter@_W@__crt_stdio_output@@@2@@__crt_stdio_output@@AAE_NXZ 1002d058 f i libucrt:output.obj
 0001:0002c35f       ?state_case_type@?$output_processor@_WV?$string_output_adapter@_W@__crt_stdio_output@@V?$standard_base@_WV?$string_output_adapter@_W@__crt_stdio_output@@@2@@__crt_stdio_output@@AAE_NXZ 1002d35f f i libucrt:output.obj
 0001:0002c653       ?state_case_width@?$output_processor@DV?$stream_output_adapter@D@__crt_stdio_output@@V?$format_validation_base@DV?$stream_output_adapter@D@__crt_stdio_output@@@2@@__crt_stdio_output@@AAE_NXZ 1002d653 f i libucrt:output.obj
 0001:0002c688       ?state_case_width@?$output_processor@DV?$stream_output_adapter@D@__crt_stdio_output@@V?$positional_parameter_base@DV?$stream_output_adapter@D@__crt_stdio_output@@@2@@__crt_stdio_output@@AAE_NXZ 1002d688 f i libucrt:output.obj
 0001:0002c6d8       ?state_case_width@?$output_processor@DV?$stream_output_adapter@D@__crt_stdio_output@@V?$standard_base@DV?$stream_output_adapter@D@__crt_stdio_output@@@2@@__crt_stdio_output@@AAE_NXZ 1002d6d8 f i libucrt:output.obj
 0001:0002c70d       ?state_case_width@?$output_processor@DV?$string_output_adapter@D@__crt_stdio_output@@V?$format_validation_base@DV?$string_output_adapter@D@__crt_stdio_output@@@2@@__crt_stdio_output@@AAE_NXZ 1002d70d f i libucrt:output.obj
 0001:0002c742       ?state_case_width@?$output_processor@DV?$string_output_adapter@D@__crt_stdio_output@@V?$positional_parameter_base@DV?$string_output_adapter@D@__crt_stdio_output@@@2@@__crt_stdio_output@@AAE_NXZ 1002d742 f i libucrt:output.obj
 0001:0002c792       ?state_case_width@?$output_processor@DV?$string_output_adapter@D@__crt_stdio_output@@V?$standard_base@DV?$string_output_adapter@D@__crt_stdio_output@@@2@@__crt_stdio_output@@AAE_NXZ 1002d792 f i libucrt:output.obj
 0001:0002c7c7       ?state_case_width@?$output_processor@_WV?$stream_output_adapter@_W@__crt_stdio_output@@V?$format_validation_base@_WV?$stream_output_adapter@_W@__crt_stdio_output@@@2@@__crt_stdio_output@@AAE_NXZ 1002d7c7 f i libucrt:output.obj
 0001:0002c7fe       ?state_case_width@?$output_processor@_WV?$stream_output_adapter@_W@__crt_stdio_output@@V?$positional_parameter_base@_WV?$stream_output_adapter@_W@__crt_stdio_output@@@2@@__crt_stdio_output@@AAE_NXZ 1002d7fe f i libucrt:output.obj
 0001:0002c84f       ?state_case_width@?$output_processor@_WV?$stream_output_adapter@_W@__crt_stdio_output@@V?$standard_base@_WV?$stream_output_adapter@_W@__crt_stdio_output@@@2@@__crt_stdio_output@@AAE_NXZ 1002d84f f i libucrt:output.obj
 0001:0002c886       ?state_case_width@?$output_processor@_WV?$string_output_adapter@_W@__crt_stdio_output@@V?$format_validation_base@_WV?$string_output_adapter@_W@__crt_stdio_output@@@2@@__crt_stdio_output@@AAE_NXZ 1002d886 f i libucrt:output.obj
 0001:0002c8bd       ?state_case_width@?$output_processor@_WV?$string_output_adapter@_W@__crt_stdio_output@@V?$positional_parameter_base@_WV?$string_output_adapter@_W@__crt_stdio_output@@@2@@__crt_stdio_output@@AAE_NXZ 1002d8bd f i libucrt:output.obj
 0001:0002c90e       ?state_case_width@?$output_processor@_WV?$string_output_adapter@_W@__crt_stdio_output@@V?$standard_base@_WV?$string_output_adapter@_W@__crt_stdio_output@@@2@@__crt_stdio_output@@AAE_NXZ 1002d90e f i libucrt:output.obj
 0001:0002c945       ?state_count@?$format_validation_base@DV?$stream_output_adapter@D@__crt_stdio_output@@@__crt_stdio_output@@KAIXZ 1002d945 f i libucrt:output.obj
 0001:0002c949       ?state_count@?$format_validation_base@DV?$string_output_adapter@D@__crt_stdio_output@@@__crt_stdio_output@@KAIXZ 1002d949 f i libucrt:output.obj
 0001:0002c94d       ?state_count@?$format_validation_base@_WV?$stream_output_adapter@_W@__crt_stdio_output@@@__crt_stdio_output@@KAIXZ 1002d94d f i libucrt:output.obj
 0001:0002c951       ?state_count@?$format_validation_base@_WV?$string_output_adapter@_W@__crt_stdio_output@@@__crt_stdio_output@@KAIXZ 1002d951 f i libucrt:output.obj
 0001:0002c955       ?state_count@?$standard_base@DV?$stream_output_adapter@D@__crt_stdio_output@@@__crt_stdio_output@@KAIXZ 1002d955 f i libucrt:output.obj
 0001:0002c959       ?state_count@?$standard_base@DV?$string_output_adapter@D@__crt_stdio_output@@@__crt_stdio_output@@KAIXZ 1002d959 f i libucrt:output.obj
 0001:0002c95d       ?state_count@?$standard_base@_WV?$stream_output_adapter@_W@__crt_stdio_output@@@__crt_stdio_output@@KAIXZ 1002d95d f i libucrt:output.obj
 0001:0002c961       ?state_count@?$standard_base@_WV?$string_output_adapter@_W@__crt_stdio_output@@@__crt_stdio_output@@KAIXZ 1002d961 f i libucrt:output.obj
 0001:0002c965       ?state_transition_table@?$format_validation_base@DV?$stream_output_adapter@D@__crt_stdio_output@@@__crt_stdio_output@@KAPBEXZ 1002d965 f i libucrt:output.obj
 0001:0002c96b       ?state_transition_table@?$format_validation_base@DV?$string_output_adapter@D@__crt_stdio_output@@@__crt_stdio_output@@KAPBEXZ 1002d96b f i libucrt:output.obj
 0001:0002c971       ?state_transition_table@?$format_validation_base@_WV?$stream_output_adapter@_W@__crt_stdio_output@@@__crt_stdio_output@@KAPBEXZ 1002d971 f i libucrt:output.obj
 0001:0002c977       ?state_transition_table@?$format_validation_base@_WV?$string_output_adapter@_W@__crt_stdio_output@@@__crt_stdio_output@@KAPBEXZ 1002d977 f i libucrt:output.obj
 0001:0002c97d       ?state_transition_table@?$standard_base@DV?$stream_output_adapter@D@__crt_stdio_output@@@__crt_stdio_output@@KAPBEXZ 1002d97d f i libucrt:output.obj
 0001:0002c983       ?state_transition_table@?$standard_base@DV?$string_output_adapter@D@__crt_stdio_output@@@__crt_stdio_output@@KAPBEXZ 1002d983 f i libucrt:output.obj
 0001:0002c989       ?state_transition_table@?$standard_base@_WV?$stream_output_adapter@_W@__crt_stdio_output@@@__crt_stdio_output@@KAPBEXZ 1002d989 f i libucrt:output.obj
 0001:0002c98f       ?state_transition_table@?$standard_base@_WV?$string_output_adapter@_W@__crt_stdio_output@@@__crt_stdio_output@@KAPBEXZ 1002d98f f i libucrt:output.obj
 0001:0002c995       ?to_integer_size@__crt_stdio_output@@YAIW4length_modifier@1@@Z 1002d995 f i libucrt:output.obj
 0001:0002ca08       ?type_case_X@?$output_processor@DV?$stream_output_adapter@D@__crt_stdio_output@@V?$format_validation_base@DV?$stream_output_adapter@D@__crt_stdio_output@@@2@@__crt_stdio_output@@AAE_NXZ 1002da08 f i libucrt:output.obj
 0001:0002ca14       ?type_case_X@?$output_processor@DV?$stream_output_adapter@D@__crt_stdio_output@@V?$positional_parameter_base@DV?$stream_output_adapter@D@__crt_stdio_output@@@2@@__crt_stdio_output@@AAE_NXZ 1002da14 f i libucrt:output.obj
 0001:0002ca20       ?type_case_X@?$output_processor@DV?$stream_output_adapter@D@__crt_stdio_output@@V?$standard_base@DV?$stream_output_adapter@D@__crt_stdio_output@@@2@@__crt_stdio_output@@AAE_NXZ 1002da20 f i libucrt:output.obj
 0001:0002ca2c       ?type_case_X@?$output_processor@DV?$string_output_adapter@D@__crt_stdio_output@@V?$format_validation_base@DV?$string_output_adapter@D@__crt_stdio_output@@@2@@__crt_stdio_output@@AAE_NXZ 1002da2c f i libucrt:output.obj
 0001:0002ca38       ?type_case_X@?$output_processor@DV?$string_output_adapter@D@__crt_stdio_output@@V?$positional_parameter_base@DV?$string_output_adapter@D@__crt_stdio_output@@@2@@__crt_stdio_output@@AAE_NXZ 1002da38 f i libucrt:output.obj
 0001:0002ca44       ?type_case_X@?$output_processor@DV?$string_output_adapter@D@__crt_stdio_output@@V?$standard_base@DV?$string_output_adapter@D@__crt_stdio_output@@@2@@__crt_stdio_output@@AAE_NXZ 1002da44 f i libucrt:output.obj
 0001:0002ca50       ?type_case_X@?$output_processor@_WV?$stream_output_adapter@_W@__crt_stdio_output@@V?$format_validation_base@_WV?$stream_output_adapter@_W@__crt_stdio_output@@@2@@__crt_stdio_output@@AAE_NXZ 1002da50 f i libucrt:output.obj
 0001:0002ca5c       ?type_case_X@?$output_processor@_WV?$stream_output_adapter@_W@__crt_stdio_output@@V?$positional_parameter_base@_WV?$stream_output_adapter@_W@__crt_stdio_output@@@2@@__crt_stdio_output@@AAE_NXZ 1002da5c f i libucrt:output.obj
 0001:0002ca68       ?type_case_X@?$output_processor@_WV?$stream_output_adapter@_W@__crt_stdio_output@@V?$standard_base@_WV?$stream_output_adapter@_W@__crt_stdio_output@@@2@@__crt_stdio_output@@AAE_NXZ 1002da68 f i libucrt:output.obj
 0001:0002ca74       ?type_case_X@?$output_processor@_WV?$string_output_adapter@_W@__crt_stdio_output@@V?$format_validation_base@_WV?$string_output_adapter@_W@__crt_stdio_output@@@2@@__crt_stdio_output@@AAE_NXZ 1002da74 f i libucrt:output.obj
 0001:0002ca80       ?type_case_X@?$output_processor@_WV?$string_output_adapter@_W@__crt_stdio_output@@V?$positional_parameter_base@_WV?$string_output_adapter@_W@__crt_stdio_output@@@2@@__crt_stdio_output@@AAE_NXZ 1002da80 f i libucrt:output.obj
 0001:0002ca8c       ?type_case_X@?$output_processor@_WV?$string_output_adapter@_W@__crt_stdio_output@@V?$standard_base@_WV?$string_output_adapter@_W@__crt_stdio_output@@@2@@__crt_stdio_output@@AAE_NXZ 1002da8c f i libucrt:output.obj
 0001:0002ca98       ?type_case_Z@?$output_processor@DV?$stream_output_adapter@D@__crt_stdio_output@@V?$format_validation_base@DV?$stream_output_adapter@D@__crt_stdio_output@@@2@@__crt_stdio_output@@AAE_NXZ 1002da98 f i libucrt:output.obj
 0001:0002cb13       ?type_case_Z@?$output_processor@DV?$stream_output_adapter@D@__crt_stdio_output@@V?$positional_parameter_base@DV?$stream_output_adapter@D@__crt_stdio_output@@@2@@__crt_stdio_output@@AAE_NXZ 1002db13 f i libucrt:output.obj
 0001:0002cbb1       ?type_case_Z@?$output_processor@DV?$stream_output_adapter@D@__crt_stdio_output@@V?$standard_base@DV?$stream_output_adapter@D@__crt_stdio_output@@@2@@__crt_stdio_output@@AAE_NXZ 1002dbb1 f i libucrt:output.obj
 0001:0002cc2c       ?type_case_Z@?$output_processor@DV?$string_output_adapter@D@__crt_stdio_output@@V?$format_validation_base@DV?$string_output_adapter@D@__crt_stdio_output@@@2@@__crt_stdio_output@@AAE_NXZ 1002dc2c f i libucrt:output.obj
 0001:0002cca7       ?type_case_Z@?$output_processor@DV?$string_output_adapter@D@__crt_stdio_output@@V?$positional_parameter_base@DV?$string_output_adapter@D@__crt_stdio_output@@@2@@__crt_stdio_output@@AAE_NXZ 1002dca7 f i libucrt:output.obj
 0001:0002cd45       ?type_case_Z@?$output_processor@DV?$string_output_adapter@D@__crt_stdio_output@@V?$standard_base@DV?$string_output_adapter@D@__crt_stdio_output@@@2@@__crt_stdio_output@@AAE_NXZ 1002dd45 f i libucrt:output.obj
 0001:0002cdc0       ?type_case_Z@?$output_processor@_WV?$stream_output_adapter@_W@__crt_stdio_output@@V?$format_validation_base@_WV?$stream_output_adapter@_W@__crt_stdio_output@@@2@@__crt_stdio_output@@AAE_NXZ 1002ddc0 f i libucrt:output.obj
 0001:0002ce3b       ?type_case_Z@?$output_processor@_WV?$stream_output_adapter@_W@__crt_stdio_output@@V?$positional_parameter_base@_WV?$stream_output_adapter@_W@__crt_stdio_output@@@2@@__crt_stdio_output@@AAE_NXZ 1002de3b f i libucrt:output.obj
 0001:0002ced9       ?type_case_Z@?$output_processor@_WV?$stream_output_adapter@_W@__crt_stdio_output@@V?$standard_base@_WV?$stream_output_adapter@_W@__crt_stdio_output@@@2@@__crt_stdio_output@@AAE_NXZ 1002ded9 f i libucrt:output.obj
 0001:0002cf54       ?type_case_Z@?$output_processor@_WV?$string_output_adapter@_W@__crt_stdio_output@@V?$format_validation_base@_WV?$string_output_adapter@_W@__crt_stdio_output@@@2@@__crt_stdio_output@@AAE_NXZ 1002df54 f i libucrt:output.obj
 0001:0002cfcf       ?type_case_Z@?$output_processor@_WV?$string_output_adapter@_W@__crt_stdio_output@@V?$positional_parameter_base@_WV?$string_output_adapter@_W@__crt_stdio_output@@@2@@__crt_stdio_output@@AAE_NXZ 1002dfcf f i libucrt:output.obj
 0001:0002d06d       ?type_case_Z@?$output_processor@_WV?$string_output_adapter@_W@__crt_stdio_output@@V?$standard_base@_WV?$string_output_adapter@_W@__crt_stdio_output@@@2@@__crt_stdio_output@@AAE_NXZ 1002e06d f i libucrt:output.obj
 0001:0002d0e8       ?type_case_a@?$output_processor@DV?$stream_output_adapter@D@__crt_stdio_output@@V?$format_validation_base@DV?$stream_output_adapter@D@__crt_stdio_output@@@2@@__crt_stdio_output@@AAE_NXZ 1002e0e8 f i libucrt:output.obj
 0001:0002d298       ?type_case_a@?$output_processor@DV?$stream_output_adapter@D@__crt_stdio_output@@V?$positional_parameter_base@DV?$stream_output_adapter@D@__crt_stdio_output@@@2@@__crt_stdio_output@@AAE_NXZ 1002e298 f i libucrt:output.obj
 0001:0002d46f       ?type_case_a@?$output_processor@DV?$stream_output_adapter@D@__crt_stdio_output@@V?$standard_base@DV?$stream_output_adapter@D@__crt_stdio_output@@@2@@__crt_stdio_output@@AAE_NXZ 1002e46f f i libucrt:output.obj
 0001:0002d61f       ?type_case_a@?$output_processor@DV?$string_output_adapter@D@__crt_stdio_output@@V?$format_validation_base@DV?$string_output_adapter@D@__crt_stdio_output@@@2@@__crt_stdio_output@@AAE_NXZ 1002e61f f i libucrt:output.obj
 0001:0002d7cf       ?type_case_a@?$output_processor@DV?$string_output_adapter@D@__crt_stdio_output@@V?$positional_parameter_base@DV?$string_output_adapter@D@__crt_stdio_output@@@2@@__crt_stdio_output@@AAE_NXZ 1002e7cf f i libucrt:output.obj
 0001:0002d9a6       ?type_case_a@?$output_processor@DV?$string_output_adapter@D@__crt_stdio_output@@V?$standard_base@DV?$string_output_adapter@D@__crt_stdio_output@@@2@@__crt_stdio_output@@AAE_NXZ 1002e9a6 f i libucrt:output.obj
 0001:0002db56       ?type_case_a@?$output_processor@_WV?$stream_output_adapter@_W@__crt_stdio_output@@V?$format_validation_base@_WV?$stream_output_adapter@_W@__crt_stdio_output@@@2@@__crt_stdio_output@@AAE_NXZ 1002eb56 f i libucrt:output.obj
 0001:0002dd24       ?type_case_a@?$output_processor@_WV?$stream_output_adapter@_W@__crt_stdio_output@@V?$positional_parameter_base@_WV?$stream_output_adapter@_W@__crt_stdio_output@@@2@@__crt_stdio_output@@AAE_NXZ 1002ed24 f i libucrt:output.obj
 0001:0002df19       ?type_case_a@?$output_processor@_WV?$stream_output_adapter@_W@__crt_stdio_output@@V?$standard_base@_WV?$stream_output_adapter@_W@__crt_stdio_output@@@2@@__crt_stdio_output@@AAE_NXZ 1002ef19 f i libucrt:output.obj
 0001:0002e0e7       ?type_case_a@?$output_processor@_WV?$string_output_adapter@_W@__crt_stdio_output@@V?$format_validation_base@_WV?$string_output_adapter@_W@__crt_stdio_output@@@2@@__crt_stdio_output@@AAE_NXZ 1002f0e7 f i libucrt:output.obj
 0001:0002e2b5       ?type_case_a@?$output_processor@_WV?$string_output_adapter@_W@__crt_stdio_output@@V?$positional_parameter_base@_WV?$string_output_adapter@_W@__crt_stdio_output@@@2@@__crt_stdio_output@@AAE_NXZ 1002f2b5 f i libucrt:output.obj
 0001:0002e4aa       ?type_case_a@?$output_processor@_WV?$string_output_adapter@_W@__crt_stdio_output@@V?$standard_base@_WV?$string_output_adapter@_W@__crt_stdio_output@@@2@@__crt_stdio_output@@AAE_NXZ 1002f4aa f i libucrt:output.obj
 0001:0002e678       ?type_case_c@?$output_processor@DV?$stream_output_adapter@D@__crt_stdio_output@@V?$format_validation_base@DV?$stream_output_adapter@D@__crt_stdio_output@@@2@@__crt_stdio_output@@AAE_NXZ 1002f678 f i libucrt:output.obj
 0001:0002e682       ?type_case_c@?$output_processor@DV?$stream_output_adapter@D@__crt_stdio_output@@V?$positional_parameter_base@DV?$stream_output_adapter@D@__crt_stdio_output@@@2@@__crt_stdio_output@@AAE_NXZ 1002f682 f i libucrt:output.obj
 0001:0002e68c       ?type_case_c@?$output_processor@DV?$stream_output_adapter@D@__crt_stdio_output@@V?$standard_base@DV?$stream_output_adapter@D@__crt_stdio_output@@@2@@__crt_stdio_output@@AAE_NXZ 1002f68c f i libucrt:output.obj
 0001:0002e696       ?type_case_c@?$output_processor@DV?$string_output_adapter@D@__crt_stdio_output@@V?$format_validation_base@DV?$string_output_adapter@D@__crt_stdio_output@@@2@@__crt_stdio_output@@AAE_NXZ 1002f696 f i libucrt:output.obj
 0001:0002e6a0       ?type_case_c@?$output_processor@DV?$string_output_adapter@D@__crt_stdio_output@@V?$positional_parameter_base@DV?$string_output_adapter@D@__crt_stdio_output@@@2@@__crt_stdio_output@@AAE_NXZ 1002f6a0 f i libucrt:output.obj
 0001:0002e6aa       ?type_case_c@?$output_processor@DV?$string_output_adapter@D@__crt_stdio_output@@V?$standard_base@DV?$string_output_adapter@D@__crt_stdio_output@@@2@@__crt_stdio_output@@AAE_NXZ 1002f6aa f i libucrt:output.obj
 0001:0002e6b4       ?type_case_c@?$output_processor@_WV?$stream_output_adapter@_W@__crt_stdio_output@@V?$format_validation_base@_WV?$stream_output_adapter@_W@__crt_stdio_output@@@2@@__crt_stdio_output@@AAE_NXZ 1002f6b4 f i libucrt:output.obj
 0001:0002e6be       ?type_case_c@?$output_processor@_WV?$stream_output_adapter@_W@__crt_stdio_output@@V?$positional_parameter_base@_WV?$stream_output_adapter@_W@__crt_stdio_output@@@2@@__crt_stdio_output@@AAE_NXZ 1002f6be f i libucrt:output.obj
 0001:0002e6c8       ?type_case_c@?$output_processor@_WV?$stream_output_adapter@_W@__crt_stdio_output@@V?$standard_base@_WV?$stream_output_adapter@_W@__crt_stdio_output@@@2@@__crt_stdio_output@@AAE_NXZ 1002f6c8 f i libucrt:output.obj
 0001:0002e6d2       ?type_case_c@?$output_processor@_WV?$string_output_adapter@_W@__crt_stdio_output@@V?$format_validation_base@_WV?$string_output_adapter@_W@__crt_stdio_output@@@2@@__crt_stdio_output@@AAE_NXZ 1002f6d2 f i libucrt:output.obj
 0001:0002e6dc       ?type_case_c@?$output_processor@_WV?$string_output_adapter@_W@__crt_stdio_output@@V?$positional_parameter_base@_WV?$string_output_adapter@_W@__crt_stdio_output@@@2@@__crt_stdio_output@@AAE_NXZ 1002f6dc f i libucrt:output.obj
 0001:0002e6e6       ?type_case_c@?$output_processor@_WV?$string_output_adapter@_W@__crt_stdio_output@@V?$standard_base@_WV?$string_output_adapter@_W@__crt_stdio_output@@@2@@__crt_stdio_output@@AAE_NXZ 1002f6e6 f i libucrt:output.obj
 0001:0002e6f0       ?type_case_c_tchar@?$output_processor@DV?$stream_output_adapter@D@__crt_stdio_output@@V?$format_validation_base@DV?$stream_output_adapter@D@__crt_stdio_output@@@2@@__crt_stdio_output@@AAE_ND@Z 1002f6f0 f i libucrt:output.obj
 0001:0002e7a4       ?type_case_c_tchar@?$output_processor@DV?$stream_output_adapter@D@__crt_stdio_output@@V?$positional_parameter_base@DV?$stream_output_adapter@D@__crt_stdio_output@@@2@@__crt_stdio_output@@AAE_ND@Z 1002f7a4 f i libucrt:output.obj
 0001:0002e894       ?type_case_c_tchar@?$output_processor@DV?$stream_output_adapter@D@__crt_stdio_output@@V?$standard_base@DV?$stream_output_adapter@D@__crt_stdio_output@@@2@@__crt_stdio_output@@AAE_ND@Z 1002f894 f i libucrt:output.obj
 0001:0002e948       ?type_case_c_tchar@?$output_processor@DV?$string_output_adapter@D@__crt_stdio_output@@V?$format_validation_base@DV?$string_output_adapter@D@__crt_stdio_output@@@2@@__crt_stdio_output@@AAE_ND@Z 1002f948 f i libucrt:output.obj
 0001:0002e9fc       ?type_case_c_tchar@?$output_processor@DV?$string_output_adapter@D@__crt_stdio_output@@V?$positional_parameter_base@DV?$string_output_adapter@D@__crt_stdio_output@@@2@@__crt_stdio_output@@AAE_ND@Z 1002f9fc f i libucrt:output.obj
 0001:0002eaec       ?type_case_c_tchar@?$output_processor@DV?$string_output_adapter@D@__crt_stdio_output@@V?$standard_base@DV?$string_output_adapter@D@__crt_stdio_output@@@2@@__crt_stdio_output@@AAE_ND@Z 1002faec f i libucrt:output.obj
 0001:0002eba0       ?type_case_c_tchar@?$output_processor@_WV?$stream_output_adapter@_W@__crt_stdio_output@@V?$format_validation_base@_WV?$stream_output_adapter@_W@__crt_stdio_output@@@2@@__crt_stdio_output@@AAE_N_W@Z 1002fba0 f i libucrt:output.obj
 0001:0002ec5e       ?type_case_c_tchar@?$output_processor@_WV?$stream_output_adapter@_W@__crt_stdio_output@@V?$positional_parameter_base@_WV?$stream_output_adapter@_W@__crt_stdio_output@@@2@@__crt_stdio_output@@AAE_N_W@Z 1002fc5e f i libucrt:output.obj
 0001:0002ed38       ?type_case_c_tchar@?$output_processor@_WV?$stream_output_adapter@_W@__crt_stdio_output@@V?$standard_base@_WV?$stream_output_adapter@_W@__crt_stdio_output@@@2@@__crt_stdio_output@@AAE_N_W@Z 1002fd38 f i libucrt:output.obj
 0001:0002edf6       ?type_case_c_tchar@?$output_processor@_WV?$string_output_adapter@_W@__crt_stdio_output@@V?$format_validation_base@_WV?$string_output_adapter@_W@__crt_stdio_output@@@2@@__crt_stdio_output@@AAE_N_W@Z 1002fdf6 f i libucrt:output.obj
 0001:0002eeb4       ?type_case_c_tchar@?$output_processor@_WV?$string_output_adapter@_W@__crt_stdio_output@@V?$positional_parameter_base@_WV?$string_output_adapter@_W@__crt_stdio_output@@@2@@__crt_stdio_output@@AAE_N_W@Z 1002feb4 f i libucrt:output.obj
 0001:0002ef8e       ?type_case_c_tchar@?$output_processor@_WV?$string_output_adapter@_W@__crt_stdio_output@@V?$standard_base@_WV?$string_output_adapter@_W@__crt_stdio_output@@@2@@__crt_stdio_output@@AAE_N_W@Z 1002ff8e f i libucrt:output.obj
 0001:0002f04c       ?type_case_d@?$output_processor@DV?$stream_output_adapter@D@__crt_stdio_output@@V?$format_validation_base@DV?$stream_output_adapter@D@__crt_stdio_output@@@2@@__crt_stdio_output@@AAE_NXZ 1003004c f i libucrt:output.obj
 0001:0002f05d       ?type_case_d@?$output_processor@DV?$stream_output_adapter@D@__crt_stdio_output@@V?$positional_parameter_base@DV?$stream_output_adapter@D@__crt_stdio_output@@@2@@__crt_stdio_output@@AAE_NXZ 1003005d f i libucrt:output.obj
 0001:0002f06e       ?type_case_d@?$output_processor@DV?$stream_output_adapter@D@__crt_stdio_output@@V?$standard_base@DV?$stream_output_adapter@D@__crt_stdio_output@@@2@@__crt_stdio_output@@AAE_NXZ 1003006e f i libucrt:output.obj
 0001:0002f07f       ?type_case_d@?$output_processor@DV?$string_output_adapter@D@__crt_stdio_output@@V?$format_validation_base@DV?$string_output_adapter@D@__crt_stdio_output@@@2@@__crt_stdio_output@@AAE_NXZ 1003007f f i libucrt:output.obj
 0001:0002f090       ?type_case_d@?$output_processor@DV?$string_output_adapter@D@__crt_stdio_output@@V?$positional_parameter_base@DV?$string_output_adapter@D@__crt_stdio_output@@@2@@__crt_stdio_output@@AAE_NXZ 10030090 f i libucrt:output.obj
 0001:0002f0a1       ?type_case_d@?$output_processor@DV?$string_output_adapter@D@__crt_stdio_output@@V?$standard_base@DV?$string_output_adapter@D@__crt_stdio_output@@@2@@__crt_stdio_output@@AAE_NXZ 100300a1 f i libucrt:output.obj
 0001:0002f0b2       ?type_case_d@?$output_processor@_WV?$stream_output_adapter@_W@__crt_stdio_output@@V?$format_validation_base@_WV?$stream_output_adapter@_W@__crt_stdio_output@@@2@@__crt_stdio_output@@AAE_NXZ 100300b2 f i libucrt:output.obj
 0001:0002f0c3       ?type_case_d@?$output_processor@_WV?$stream_output_adapter@_W@__crt_stdio_output@@V?$positional_parameter_base@_WV?$stream_output_adapter@_W@__crt_stdio_output@@@2@@__crt_stdio_output@@AAE_NXZ 100300c3 f i libucrt:output.obj
 0001:0002f0d4       ?type_case_d@?$output_processor@_WV?$stream_output_adapter@_W@__crt_stdio_output@@V?$standard_base@_WV?$stream_output_adapter@_W@__crt_stdio_output@@@2@@__crt_stdio_output@@AAE_NXZ 100300d4 f i libucrt:output.obj
 0001:0002f0e5       ?type_case_d@?$output_processor@_WV?$string_output_adapter@_W@__crt_stdio_output@@V?$format_validation_base@_WV?$string_output_adapter@_W@__crt_stdio_output@@@2@@__crt_stdio_output@@AAE_NXZ 100300e5 f i libucrt:output.obj
 0001:0002f0f6       ?type_case_d@?$output_processor@_WV?$string_output_adapter@_W@__crt_stdio_output@@V?$positional_parameter_base@_WV?$string_output_adapter@_W@__crt_stdio_output@@@2@@__crt_stdio_output@@AAE_NXZ 100300f6 f i libucrt:output.obj
 0001:0002f107       ?type_case_d@?$output_processor@_WV?$string_output_adapter@_W@__crt_stdio_output@@V?$standard_base@_WV?$string_output_adapter@_W@__crt_stdio_output@@@2@@__crt_stdio_output@@AAE_NXZ 10030107 f i libucrt:output.obj
 0001:0002f118       ?type_case_integer@?$output_processor@DV?$stream_output_adapter@D@__crt_stdio_output@@V?$format_validation_base@DV?$stream_output_adapter@D@__crt_stdio_output@@@2@@__crt_stdio_output@@AAE_NI_N@Z 10030118 f i libucrt:output.obj
 0001:0002f2b4       ?type_case_integer@?$output_processor@DV?$stream_output_adapter@D@__crt_stdio_output@@V?$positional_parameter_base@DV?$stream_output_adapter@D@__crt_stdio_output@@@2@@__crt_stdio_output@@AAE_NI_N@Z 100302b4 f i libucrt:output.obj
 0001:0002f491       ?type_case_integer@?$output_processor@DV?$stream_output_adapter@D@__crt_stdio_output@@V?$standard_base@DV?$stream_output_adapter@D@__crt_stdio_output@@@2@@__crt_stdio_output@@AAE_NI_N@Z 10030491 f i libucrt:output.obj
 0001:0002f62d       ?type_case_integer@?$output_processor@DV?$string_output_adapter@D@__crt_stdio_output@@V?$format_validation_base@DV?$string_output_adapter@D@__crt_stdio_output@@@2@@__crt_stdio_output@@AAE_NI_N@Z 1003062d f i libucrt:output.obj
 0001:0002f7c9       ?type_case_integer@?$output_processor@DV?$string_output_adapter@D@__crt_stdio_output@@V?$positional_parameter_base@DV?$string_output_adapter@D@__crt_stdio_output@@@2@@__crt_stdio_output@@AAE_NI_N@Z 100307c9 f i libucrt:output.obj
 0001:0002f9a6       ?type_case_integer@?$output_processor@DV?$string_output_adapter@D@__crt_stdio_output@@V?$standard_base@DV?$string_output_adapter@D@__crt_stdio_output@@@2@@__crt_stdio_output@@AAE_NI_N@Z 100309a6 f i libucrt:output.obj
 0001:0002fb42       ?type_case_integer@?$output_processor@_WV?$stream_output_adapter@_W@__crt_stdio_output@@V?$format_validation_base@_WV?$stream_output_adapter@_W@__crt_stdio_output@@@2@@__crt_stdio_output@@AAE_NI_N@Z 10030b42 f i libucrt:output.obj
 0001:0002fcde       ?type_case_integer@?$output_processor@_WV?$stream_output_adapter@_W@__crt_stdio_output@@V?$positional_parameter_base@_WV?$stream_output_adapter@_W@__crt_stdio_output@@@2@@__crt_stdio_output@@AAE_NI_N@Z 10030cde f i libucrt:output.obj
 0001:0002febb       ?type_case_integer@?$output_processor@_WV?$stream_output_adapter@_W@__crt_stdio_output@@V?$standard_base@_WV?$stream_output_adapter@_W@__crt_stdio_output@@@2@@__crt_stdio_output@@AAE_NI_N@Z 10030ebb f i libucrt:output.obj
 0001:00030057       ?type_case_integer@?$output_processor@_WV?$string_output_adapter@_W@__crt_stdio_output@@V?$format_validation_base@_WV?$string_output_adapter@_W@__crt_stdio_output@@@2@@__crt_stdio_output@@AAE_NI_N@Z 10031057 f i libucrt:output.obj
 0001:000301f3       ?type_case_integer@?$output_processor@_WV?$string_output_adapter@_W@__crt_stdio_output@@V?$positional_parameter_base@_WV?$string_output_adapter@_W@__crt_stdio_output@@@2@@__crt_stdio_output@@AAE_NI_N@Z 100311f3 f i libucrt:output.obj
 0001:000303d0       ?type_case_integer@?$output_processor@_WV?$string_output_adapter@_W@__crt_stdio_output@@V?$standard_base@_WV?$string_output_adapter@_W@__crt_stdio_output@@@2@@__crt_stdio_output@@AAE_NI_N@Z 100313d0 f i libucrt:output.obj
 0001:0003056c       ?type_case_n@?$output_processor@DV?$stream_output_adapter@D@__crt_stdio_output@@V?$format_validation_base@DV?$stream_output_adapter@D@__crt_stdio_output@@@2@@__crt_stdio_output@@AAE_NXZ 1003156c f i libucrt:output.obj
 0001:000305fd       ?type_case_n@?$output_processor@DV?$stream_output_adapter@D@__crt_stdio_output@@V?$positional_parameter_base@DV?$stream_output_adapter@D@__crt_stdio_output@@@2@@__crt_stdio_output@@AAE_NXZ 100315fd f i libucrt:output.obj
 0001:000306bc       ?type_case_n@?$output_processor@DV?$stream_output_adapter@D@__crt_stdio_output@@V?$standard_base@DV?$stream_output_adapter@D@__crt_stdio_output@@@2@@__crt_stdio_output@@AAE_NXZ 100316bc f i libucrt:output.obj
 0001:0003074d       ?type_case_n@?$output_processor@DV?$string_output_adapter@D@__crt_stdio_output@@V?$format_validation_base@DV?$string_output_adapter@D@__crt_stdio_output@@@2@@__crt_stdio_output@@AAE_NXZ 1003174d f i libucrt:output.obj
 0001:000307de       ?type_case_n@?$output_processor@DV?$string_output_adapter@D@__crt_stdio_output@@V?$positional_parameter_base@DV?$string_output_adapter@D@__crt_stdio_output@@@2@@__crt_stdio_output@@AAE_NXZ 100317de f i libucrt:output.obj
 0001:0003089d       ?type_case_n@?$output_processor@DV?$string_output_adapter@D@__crt_stdio_output@@V?$standard_base@DV?$string_output_adapter@D@__crt_stdio_output@@@2@@__crt_stdio_output@@AAE_NXZ 1003189d f i libucrt:output.obj
 0001:0003092e       ?type_case_n@?$output_processor@_WV?$stream_output_adapter@_W@__crt_stdio_output@@V?$format_validation_base@_WV?$stream_output_adapter@_W@__crt_stdio_output@@@2@@__crt_stdio_output@@AAE_NXZ 1003192e f i libucrt:output.obj
 0001:000309bf       ?type_case_n@?$output_processor@_WV?$stream_output_adapter@_W@__crt_stdio_output@@V?$positional_parameter_base@_WV?$stream_output_adapter@_W@__crt_stdio_output@@@2@@__crt_stdio_output@@AAE_NXZ 100319bf f i libucrt:output.obj
 0001:00030a7e       ?type_case_n@?$output_processor@_WV?$stream_output_adapter@_W@__crt_stdio_output@@V?$standard_base@_WV?$stream_output_adapter@_W@__crt_stdio_output@@@2@@__crt_stdio_output@@AAE_NXZ 10031a7e f i libucrt:output.obj
 0001:00030b0f       ?type_case_n@?$output_processor@_WV?$string_output_adapter@_W@__crt_stdio_output@@V?$format_validation_base@_WV?$string_output_adapter@_W@__crt_stdio_output@@@2@@__crt_stdio_output@@AAE_NXZ 10031b0f f i libucrt:output.obj
 0001:00030ba0       ?type_case_n@?$output_processor@_WV?$string_output_adapter@_W@__crt_stdio_output@@V?$positional_parameter_base@_WV?$string_output_adapter@_W@__crt_stdio_output@@@2@@__crt_stdio_output@@AAE_NXZ 10031ba0 f i libucrt:output.obj
 0001:00030c5f       ?type_case_n@?$output_processor@_WV?$string_output_adapter@_W@__crt_stdio_output@@V?$standard_base@_WV?$string_output_adapter@_W@__crt_stdio_output@@@2@@__crt_stdio_output@@AAE_NXZ 10031c5f f i libucrt:output.obj
 0001:00030cf0       ?type_case_o@?$output_processor@DV?$stream_output_adapter@D@__crt_stdio_output@@V?$format_validation_base@DV?$stream_output_adapter@D@__crt_stdio_output@@@2@@__crt_stdio_output@@AAE_NXZ 10031cf0 f i libucrt:output.obj
 0001:00030d16       ?type_case_o@?$output_processor@DV?$stream_output_adapter@D@__crt_stdio_output@@V?$positional_parameter_base@DV?$stream_output_adapter@D@__crt_stdio_output@@@2@@__crt_stdio_output@@AAE_NXZ 10031d16 f i libucrt:output.obj
 0001:00030d3c       ?type_case_o@?$output_processor@DV?$stream_output_adapter@D@__crt_stdio_output@@V?$standard_base@DV?$stream_output_adapter@D@__crt_stdio_output@@@2@@__crt_stdio_output@@AAE_NXZ 10031d3c f i libucrt:output.obj
 0001:00030d62       ?type_case_o@?$output_processor@DV?$string_output_adapter@D@__crt_stdio_output@@V?$format_validation_base@DV?$string_output_adapter@D@__crt_stdio_output@@@2@@__crt_stdio_output@@AAE_NXZ 10031d62 f i libucrt:output.obj
 0001:00030d88       ?type_case_o@?$output_processor@DV?$string_output_adapter@D@__crt_stdio_output@@V?$positional_parameter_base@DV?$string_output_adapter@D@__crt_stdio_output@@@2@@__crt_stdio_output@@AAE_NXZ 10031d88 f i libucrt:output.obj
 0001:00030dae       ?type_case_o@?$output_processor@DV?$string_output_adapter@D@__crt_stdio_output@@V?$standard_base@DV?$string_output_adapter@D@__crt_stdio_output@@@2@@__crt_stdio_output@@AAE_NXZ 10031dae f i libucrt:output.obj
 0001:00030dd4       ?type_case_o@?$output_processor@_WV?$stream_output_adapter@_W@__crt_stdio_output@@V?$format_validation_base@_WV?$stream_output_adapter@_W@__crt_stdio_output@@@2@@__crt_stdio_output@@AAE_NXZ 10031dd4 f i libucrt:output.obj
 0001:00030dfa       ?type_case_o@?$output_processor@_WV?$stream_output_adapter@_W@__crt_stdio_output@@V?$positional_parameter_base@_WV?$stream_output_adapter@_W@__crt_stdio_output@@@2@@__crt_stdio_output@@AAE_NXZ 10031dfa f i libucrt:output.obj
 0001:00030e20       ?type_case_o@?$output_processor@_WV?$stream_output_adapter@_W@__crt_stdio_output@@V?$standard_base@_WV?$stream_output_adapter@_W@__crt_stdio_output@@@2@@__crt_stdio_output@@AAE_NXZ 10031e20 f i libucrt:output.obj
 0001:00030e46       ?type_case_o@?$output_processor@_WV?$string_output_adapter@_W@__crt_stdio_output@@V?$format_validation_base@_WV?$string_output_adapter@_W@__crt_stdio_output@@@2@@__crt_stdio_output@@AAE_NXZ 10031e46 f i libucrt:output.obj
 0001:00030e6c       ?type_case_o@?$output_processor@_WV?$string_output_adapter@_W@__crt_stdio_output@@V?$positional_parameter_base@_WV?$string_output_adapter@_W@__crt_stdio_output@@@2@@__crt_stdio_output@@AAE_NXZ 10031e6c f i libucrt:output.obj
 0001:00030e92       ?type_case_o@?$output_processor@_WV?$string_output_adapter@_W@__crt_stdio_output@@V?$standard_base@_WV?$string_output_adapter@_W@__crt_stdio_output@@@2@@__crt_stdio_output@@AAE_NXZ 10031e92 f i libucrt:output.obj
 0001:00030eb8       ?type_case_p@?$output_processor@DV?$stream_output_adapter@D@__crt_stdio_output@@V?$format_validation_base@DV?$stream_output_adapter@D@__crt_stdio_output@@@2@@__crt_stdio_output@@AAE_NXZ 10031eb8 f i libucrt:output.obj
 0001:00030ed6       ?type_case_p@?$output_processor@DV?$stream_output_adapter@D@__crt_stdio_output@@V?$positional_parameter_base@DV?$stream_output_adapter@D@__crt_stdio_output@@@2@@__crt_stdio_output@@AAE_NXZ 10031ed6 f i libucrt:output.obj
 0001:00030ef4       ?type_case_p@?$output_processor@DV?$stream_output_adapter@D@__crt_stdio_output@@V?$standard_base@DV?$stream_output_adapter@D@__crt_stdio_output@@@2@@__crt_stdio_output@@AAE_NXZ 10031ef4 f i libucrt:output.obj
 0001:00030f12       ?type_case_p@?$output_processor@DV?$string_output_adapter@D@__crt_stdio_output@@V?$format_validation_base@DV?$string_output_adapter@D@__crt_stdio_output@@@2@@__crt_stdio_output@@AAE_NXZ 10031f12 f i libucrt:output.obj
 0001:00030f30       ?type_case_p@?$output_processor@DV?$string_output_adapter@D@__crt_stdio_output@@V?$positional_parameter_base@DV?$string_output_adapter@D@__crt_stdio_output@@@2@@__crt_stdio_output@@AAE_NXZ 10031f30 f i libucrt:output.obj
 0001:00030f4e       ?type_case_p@?$output_processor@DV?$string_output_adapter@D@__crt_stdio_output@@V?$standard_base@DV?$string_output_adapter@D@__crt_stdio_output@@@2@@__crt_stdio_output@@AAE_NXZ 10031f4e f i libucrt:output.obj
 0001:00030f6c       ?type_case_p@?$output_processor@_WV?$stream_output_adapter@_W@__crt_stdio_output@@V?$format_validation_base@_WV?$stream_output_adapter@_W@__crt_stdio_output@@@2@@__crt_stdio_output@@AAE_NXZ 10031f6c f i libucrt:output.obj
 0001:00030f8a       ?type_case_p@?$output_processor@_WV?$stream_output_adapter@_W@__crt_stdio_output@@V?$positional_parameter_base@_WV?$stream_output_adapter@_W@__crt_stdio_output@@@2@@__crt_stdio_output@@AAE_NXZ 10031f8a f i libucrt:output.obj
 0001:00030fa8       ?type_case_p@?$output_processor@_WV?$stream_output_adapter@_W@__crt_stdio_output@@V?$standard_base@_WV?$stream_output_adapter@_W@__crt_stdio_output@@@2@@__crt_stdio_output@@AAE_NXZ 10031fa8 f i libucrt:output.obj
 0001:00030fc6       ?type_case_p@?$output_processor@_WV?$string_output_adapter@_W@__crt_stdio_output@@V?$format_validation_base@_WV?$string_output_adapter@_W@__crt_stdio_output@@@2@@__crt_stdio_output@@AAE_NXZ 10031fc6 f i libucrt:output.obj
 0001:00030fe4       ?type_case_p@?$output_processor@_WV?$string_output_adapter@_W@__crt_stdio_output@@V?$positional_parameter_base@_WV?$string_output_adapter@_W@__crt_stdio_output@@@2@@__crt_stdio_output@@AAE_NXZ 10031fe4 f i libucrt:output.obj
 0001:00031002       ?type_case_p@?$output_processor@_WV?$string_output_adapter@_W@__crt_stdio_output@@V?$standard_base@_WV?$string_output_adapter@_W@__crt_stdio_output@@@2@@__crt_stdio_output@@AAE_NXZ 10032002 f i libucrt:output.obj
 0001:00031020       ?type_case_s@?$output_processor@DV?$stream_output_adapter@D@__crt_stdio_output@@V?$format_validation_base@DV?$stream_output_adapter@D@__crt_stdio_output@@@2@@__crt_stdio_output@@AAE_NXZ 10032020 f i libucrt:output.obj
 0001:000310af       ?type_case_s@?$output_processor@DV?$stream_output_adapter@D@__crt_stdio_output@@V?$positional_parameter_base@DV?$stream_output_adapter@D@__crt_stdio_output@@@2@@__crt_stdio_output@@AAE_NXZ 100320af f i libucrt:output.obj
 0001:0003114a       ?type_case_s@?$output_processor@DV?$stream_output_adapter@D@__crt_stdio_output@@V?$standard_base@DV?$stream_output_adapter@D@__crt_stdio_output@@@2@@__crt_stdio_output@@AAE_NXZ 1003214a f i libucrt:output.obj
 0001:000311d9       ?type_case_s@?$output_processor@DV?$string_output_adapter@D@__crt_stdio_output@@V?$format_validation_base@DV?$string_output_adapter@D@__crt_stdio_output@@@2@@__crt_stdio_output@@AAE_NXZ 100321d9 f i libucrt:output.obj
 0001:00031268       ?type_case_s@?$output_processor@DV?$string_output_adapter@D@__crt_stdio_output@@V?$positional_parameter_base@DV?$string_output_adapter@D@__crt_stdio_output@@@2@@__crt_stdio_output@@AAE_NXZ 10032268 f i libucrt:output.obj
 0001:00031303       ?type_case_s@?$output_processor@DV?$string_output_adapter@D@__crt_stdio_output@@V?$standard_base@DV?$string_output_adapter@D@__crt_stdio_output@@@2@@__crt_stdio_output@@AAE_NXZ 10032303 f i libucrt:output.obj
 0001:00031392       ?type_case_s@?$output_processor@_WV?$stream_output_adapter@_W@__crt_stdio_output@@V?$format_validation_base@_WV?$stream_output_adapter@_W@__crt_stdio_output@@@2@@__crt_stdio_output@@AAE_NXZ 10032392 f i libucrt:output.obj
 0001:00031423       ?type_case_s@?$output_processor@_WV?$stream_output_adapter@_W@__crt_stdio_output@@V?$positional_parameter_base@_WV?$stream_output_adapter@_W@__crt_stdio_output@@@2@@__crt_stdio_output@@AAE_NXZ 10032423 f i libucrt:output.obj
 0001:000314c0       ?type_case_s@?$output_processor@_WV?$stream_output_adapter@_W@__crt_stdio_output@@V?$standard_base@_WV?$stream_output_adapter@_W@__crt_stdio_output@@@2@@__crt_stdio_output@@AAE_NXZ 100324c0 f i libucrt:output.obj
 0001:00031551       ?type_case_s@?$output_processor@_WV?$string_output_adapter@_W@__crt_stdio_output@@V?$format_validation_base@_WV?$string_output_adapter@_W@__crt_stdio_output@@@2@@__crt_stdio_output@@AAE_NXZ 10032551 f i libucrt:output.obj
 0001:000315e2       ?type_case_s@?$output_processor@_WV?$string_output_adapter@_W@__crt_stdio_output@@V?$positional_parameter_base@_WV?$string_output_adapter@_W@__crt_stdio_output@@@2@@__crt_stdio_output@@AAE_NXZ 100325e2 f i libucrt:output.obj
 0001:0003167f       ?type_case_s@?$output_processor@_WV?$string_output_adapter@_W@__crt_stdio_output@@V?$standard_base@_WV?$string_output_adapter@_W@__crt_stdio_output@@@2@@__crt_stdio_output@@AAE_NXZ 1003267f f i libucrt:output.obj
 0001:00031710       ?type_case_s_compute_narrow_string_length@?$output_processor@DV?$stream_output_adapter@D@__crt_stdio_output@@V?$format_validation_base@DV?$stream_output_adapter@D@__crt_stdio_output@@@2@@__crt_stdio_output@@ABEHHD@Z 10032710 f i libucrt:output.obj
 0001:0003172b       ?type_case_s_compute_narrow_string_length@?$output_processor@DV?$stream_output_adapter@D@__crt_stdio_output@@V?$positional_parameter_base@DV?$stream_output_adapter@D@__crt_stdio_output@@@2@@__crt_stdio_output@@ABEHHD@Z 1003272b f i libucrt:output.obj
 0001:00031746       ?type_case_s_compute_narrow_string_length@?$output_processor@DV?$stream_output_adapter@D@__crt_stdio_output@@V?$standard_base@DV?$stream_output_adapter@D@__crt_stdio_output@@@2@@__crt_stdio_output@@ABEHHD@Z 10032746 f i libucrt:output.obj
 0001:00031761       ?type_case_s_compute_narrow_string_length@?$output_processor@DV?$string_output_adapter@D@__crt_stdio_output@@V?$format_validation_base@DV?$string_output_adapter@D@__crt_stdio_output@@@2@@__crt_stdio_output@@ABEHHD@Z 10032761 f i libucrt:output.obj
 0001:0003177c       ?type_case_s_compute_narrow_string_length@?$output_processor@DV?$string_output_adapter@D@__crt_stdio_output@@V?$positional_parameter_base@DV?$string_output_adapter@D@__crt_stdio_output@@@2@@__crt_stdio_output@@ABEHHD@Z 1003277c f i libucrt:output.obj
 0001:00031797       ?type_case_s_compute_narrow_string_length@?$output_processor@DV?$string_output_adapter@D@__crt_stdio_output@@V?$standard_base@DV?$string_output_adapter@D@__crt_stdio_output@@@2@@__crt_stdio_output@@ABEHHD@Z 10032797 f i libucrt:output.obj
 0001:000317b2       ?type_case_s_compute_narrow_string_length@?$output_processor@_WV?$stream_output_adapter@_W@__crt_stdio_output@@V?$format_validation_base@_WV?$stream_output_adapter@_W@__crt_stdio_output@@@2@@__crt_stdio_output@@ABEHH_W@Z 100327b2 f i libucrt:output.obj
 0001:00031802       ?type_case_s_compute_narrow_string_length@?$output_processor@_WV?$stream_output_adapter@_W@__crt_stdio_output@@V?$positional_parameter_base@_WV?$stream_output_adapter@_W@__crt_stdio_output@@@2@@__crt_stdio_output@@ABEHH_W@Z 10032802 f i libucrt:output.obj
 0001:00031852       ?type_case_s_compute_narrow_string_length@?$output_processor@_WV?$stream_output_adapter@_W@__crt_stdio_output@@V?$standard_base@_WV?$stream_output_adapter@_W@__crt_stdio_output@@@2@@__crt_stdio_output@@ABEHH_W@Z 10032852 f i libucrt:output.obj
 0001:000318a2       ?type_case_s_compute_narrow_string_length@?$output_processor@_WV?$string_output_adapter@_W@__crt_stdio_output@@V?$format_validation_base@_WV?$string_output_adapter@_W@__crt_stdio_output@@@2@@__crt_stdio_output@@ABEHH_W@Z 100328a2 f i libucrt:output.obj
 0001:000318f2       ?type_case_s_compute_narrow_string_length@?$output_processor@_WV?$string_output_adapter@_W@__crt_stdio_output@@V?$positional_parameter_base@_WV?$string_output_adapter@_W@__crt_stdio_output@@@2@@__crt_stdio_output@@ABEHH_W@Z 100328f2 f i libucrt:output.obj
 0001:00031942       ?type_case_s_compute_narrow_string_length@?$output_processor@_WV?$string_output_adapter@_W@__crt_stdio_output@@V?$standard_base@_WV?$string_output_adapter@_W@__crt_stdio_output@@@2@@__crt_stdio_output@@ABEHH_W@Z 10032942 f i libucrt:output.obj
 0001:00031992       ?type_case_u@?$output_processor@DV?$stream_output_adapter@D@__crt_stdio_output@@V?$format_validation_base@DV?$stream_output_adapter@D@__crt_stdio_output@@@2@@__crt_stdio_output@@AAE_NXZ 10032992 f i libucrt:output.obj
 0001:0003199e       ?type_case_u@?$output_processor@DV?$stream_output_adapter@D@__crt_stdio_output@@V?$positional_parameter_base@DV?$stream_output_adapter@D@__crt_stdio_output@@@2@@__crt_stdio_output@@AAE_NXZ 1003299e f i libucrt:output.obj
 0001:000319aa       ?type_case_u@?$output_processor@DV?$stream_output_adapter@D@__crt_stdio_output@@V?$standard_base@DV?$stream_output_adapter@D@__crt_stdio_output@@@2@@__crt_stdio_output@@AAE_NXZ 100329aa f i libucrt:output.obj
 0001:000319b6       ?type_case_u@?$output_processor@DV?$string_output_adapter@D@__crt_stdio_output@@V?$format_validation_base@DV?$string_output_adapter@D@__crt_stdio_output@@@2@@__crt_stdio_output@@AAE_NXZ 100329b6 f i libucrt:output.obj
 0001:000319c2       ?type_case_u@?$output_processor@DV?$string_output_adapter@D@__crt_stdio_output@@V?$positional_parameter_base@DV?$string_output_adapter@D@__crt_stdio_output@@@2@@__crt_stdio_output@@AAE_NXZ 100329c2 f i libucrt:output.obj
 0001:000319ce       ?type_case_u@?$output_processor@DV?$string_output_adapter@D@__crt_stdio_output@@V?$standard_base@DV?$string_output_adapter@D@__crt_stdio_output@@@2@@__crt_stdio_output@@AAE_NXZ 100329ce f i libucrt:output.obj
 0001:000319da       ?type_case_u@?$output_processor@_WV?$stream_output_adapter@_W@__crt_stdio_output@@V?$format_validation_base@_WV?$stream_output_adapter@_W@__crt_stdio_output@@@2@@__crt_stdio_output@@AAE_NXZ 100329da f i libucrt:output.obj
 0001:000319e6       ?type_case_u@?$output_processor@_WV?$stream_output_adapter@_W@__crt_stdio_output@@V?$positional_parameter_base@_WV?$stream_output_adapter@_W@__crt_stdio_output@@@2@@__crt_stdio_output@@AAE_NXZ 100329e6 f i libucrt:output.obj
 0001:000319f2       ?type_case_u@?$output_processor@_WV?$stream_output_adapter@_W@__crt_stdio_output@@V?$standard_base@_WV?$stream_output_adapter@_W@__crt_stdio_output@@@2@@__crt_stdio_output@@AAE_NXZ 100329f2 f i libucrt:output.obj
 0001:000319fe       ?type_case_u@?$output_processor@_WV?$string_output_adapter@_W@__crt_stdio_output@@V?$format_validation_base@_WV?$string_output_adapter@_W@__crt_stdio_output@@@2@@__crt_stdio_output@@AAE_NXZ 100329fe f i libucrt:output.obj
 0001:00031a0a       ?type_case_u@?$output_processor@_WV?$string_output_adapter@_W@__crt_stdio_output@@V?$positional_parameter_base@_WV?$string_output_adapter@_W@__crt_stdio_output@@@2@@__crt_stdio_output@@AAE_NXZ 10032a0a f i libucrt:output.obj
 0001:00031a16       ?type_case_u@?$output_processor@_WV?$string_output_adapter@_W@__crt_stdio_output@@V?$standard_base@_WV?$string_output_adapter@_W@__crt_stdio_output@@@2@@__crt_stdio_output@@AAE_NXZ 10032a16 f i libucrt:output.obj
 0001:00031a22       ?type_case_x@?$output_processor@DV?$stream_output_adapter@D@__crt_stdio_output@@V?$format_validation_base@DV?$stream_output_adapter@D@__crt_stdio_output@@@2@@__crt_stdio_output@@AAE_NXZ 10032a22 f i libucrt:output.obj
 0001:00031a2e       ?type_case_x@?$output_processor@DV?$stream_output_adapter@D@__crt_stdio_output@@V?$positional_parameter_base@DV?$stream_output_adapter@D@__crt_stdio_output@@@2@@__crt_stdio_output@@AAE_NXZ 10032a2e f i libucrt:output.obj
 0001:00031a3a       ?type_case_x@?$output_processor@DV?$stream_output_adapter@D@__crt_stdio_output@@V?$standard_base@DV?$stream_output_adapter@D@__crt_stdio_output@@@2@@__crt_stdio_output@@AAE_NXZ 10032a3a f i libucrt:output.obj
 0001:00031a46       ?type_case_x@?$output_processor@DV?$string_output_adapter@D@__crt_stdio_output@@V?$format_validation_base@DV?$string_output_adapter@D@__crt_stdio_output@@@2@@__crt_stdio_output@@AAE_NXZ 10032a46 f i libucrt:output.obj
 0001:00031a52       ?type_case_x@?$output_processor@DV?$string_output_adapter@D@__crt_stdio_output@@V?$positional_parameter_base@DV?$string_output_adapter@D@__crt_stdio_output@@@2@@__crt_stdio_output@@AAE_NXZ 10032a52 f i libucrt:output.obj
 0001:00031a5e       ?type_case_x@?$output_processor@DV?$string_output_adapter@D@__crt_stdio_output@@V?$standard_base@DV?$string_output_adapter@D@__crt_stdio_output@@@2@@__crt_stdio_output@@AAE_NXZ 10032a5e f i libucrt:output.obj
 0001:00031a6a       ?type_case_x@?$output_processor@_WV?$stream_output_adapter@_W@__crt_stdio_output@@V?$format_validation_base@_WV?$stream_output_adapter@_W@__crt_stdio_output@@@2@@__crt_stdio_output@@AAE_NXZ 10032a6a f i libucrt:output.obj
 0001:00031a76       ?type_case_x@?$output_processor@_WV?$stream_output_adapter@_W@__crt_stdio_output@@V?$positional_parameter_base@_WV?$stream_output_adapter@_W@__crt_stdio_output@@@2@@__crt_stdio_output@@AAE_NXZ 10032a76 f i libucrt:output.obj
 0001:00031a82       ?type_case_x@?$output_processor@_WV?$stream_output_adapter@_W@__crt_stdio_output@@V?$standard_base@_WV?$stream_output_adapter@_W@__crt_stdio_output@@@2@@__crt_stdio_output@@AAE_NXZ 10032a82 f i libucrt:output.obj
 0001:00031a8e       ?type_case_x@?$output_processor@_WV?$string_output_adapter@_W@__crt_stdio_output@@V?$format_validation_base@_WV?$string_output_adapter@_W@__crt_stdio_output@@@2@@__crt_stdio_output@@AAE_NXZ 10032a8e f i libucrt:output.obj
 0001:00031a9a       ?type_case_x@?$output_processor@_WV?$string_output_adapter@_W@__crt_stdio_output@@V?$positional_parameter_base@_WV?$string_output_adapter@_W@__crt_stdio_output@@@2@@__crt_stdio_output@@AAE_NXZ 10032a9a f i libucrt:output.obj
 0001:00031aa6       ?type_case_x@?$output_processor@_WV?$string_output_adapter@_W@__crt_stdio_output@@V?$standard_base@_WV?$string_output_adapter@_W@__crt_stdio_output@@@2@@__crt_stdio_output@@AAE_NXZ 10032aa6 f i libucrt:output.obj
 0001:00031ab2       ?unset_flag@?$output_processor@DV?$stream_output_adapter@D@__crt_stdio_output@@V?$format_validation_base@DV?$stream_output_adapter@D@__crt_stdio_output@@@2@@__crt_stdio_output@@AAEXI@Z 10032ab2 f i libucrt:output.obj
 0001:00031ac7       ?unset_flag@?$output_processor@DV?$stream_output_adapter@D@__crt_stdio_output@@V?$positional_parameter_base@DV?$stream_output_adapter@D@__crt_stdio_output@@@2@@__crt_stdio_output@@AAEXI@Z 10032ac7 f i libucrt:output.obj
 0001:00031adc       ?unset_flag@?$output_processor@DV?$stream_output_adapter@D@__crt_stdio_output@@V?$standard_base@DV?$stream_output_adapter@D@__crt_stdio_output@@@2@@__crt_stdio_output@@AAEXI@Z 10032adc f i libucrt:output.obj
 0001:00031af1       ?unset_flag@?$output_processor@DV?$string_output_adapter@D@__crt_stdio_output@@V?$format_validation_base@DV?$string_output_adapter@D@__crt_stdio_output@@@2@@__crt_stdio_output@@AAEXI@Z 10032af1 f i libucrt:output.obj
 0001:00031b06       ?unset_flag@?$output_processor@DV?$string_output_adapter@D@__crt_stdio_output@@V?$positional_parameter_base@DV?$string_output_adapter@D@__crt_stdio_output@@@2@@__crt_stdio_output@@AAEXI@Z 10032b06 f i libucrt:output.obj
 0001:00031b1b       ?unset_flag@?$output_processor@DV?$string_output_adapter@D@__crt_stdio_output@@V?$standard_base@DV?$string_output_adapter@D@__crt_stdio_output@@@2@@__crt_stdio_output@@AAEXI@Z 10032b1b f i libucrt:output.obj
 0001:00031b30       ?unset_flag@?$output_processor@_WV?$stream_output_adapter@_W@__crt_stdio_output@@V?$format_validation_base@_WV?$stream_output_adapter@_W@__crt_stdio_output@@@2@@__crt_stdio_output@@AAEXI@Z 10032b30 f i libucrt:output.obj
 0001:00031b45       ?unset_flag@?$output_processor@_WV?$stream_output_adapter@_W@__crt_stdio_output@@V?$positional_parameter_base@_WV?$stream_output_adapter@_W@__crt_stdio_output@@@2@@__crt_stdio_output@@AAEXI@Z 10032b45 f i libucrt:output.obj
 0001:00031b5a       ?unset_flag@?$output_processor@_WV?$stream_output_adapter@_W@__crt_stdio_output@@V?$standard_base@_WV?$stream_output_adapter@_W@__crt_stdio_output@@@2@@__crt_stdio_output@@AAEXI@Z 10032b5a f i libucrt:output.obj
 0001:00031b6f       ?unset_flag@?$output_processor@_WV?$string_output_adapter@_W@__crt_stdio_output@@V?$format_validation_base@_WV?$string_output_adapter@_W@__crt_stdio_output@@@2@@__crt_stdio_output@@AAEXI@Z 10032b6f f i libucrt:output.obj
 0001:00031b84       ?unset_flag@?$output_processor@_WV?$string_output_adapter@_W@__crt_stdio_output@@V?$positional_parameter_base@_WV?$string_output_adapter@_W@__crt_stdio_output@@@2@@__crt_stdio_output@@AAEXI@Z 10032b84 f i libucrt:output.obj
 0001:00031b99       ?unset_flag@?$output_processor@_WV?$string_output_adapter@_W@__crt_stdio_output@@V?$standard_base@_WV?$string_output_adapter@_W@__crt_stdio_output@@@2@@__crt_stdio_output@@AAEXI@Z 10032b99 f i libucrt:output.obj
 0001:00031bae       ?update_field_width@?$positional_parameter_base@DV?$stream_output_adapter@D@__crt_stdio_output@@@__crt_stdio_output@@IAE_NXZ 10032bae f i libucrt:output.obj
 0001:00031c91       ?update_field_width@?$positional_parameter_base@DV?$string_output_adapter@D@__crt_stdio_output@@@__crt_stdio_output@@IAE_NXZ 10032c91 f i libucrt:output.obj
 0001:00031d74       ?update_field_width@?$positional_parameter_base@_WV?$stream_output_adapter@_W@__crt_stdio_output@@@__crt_stdio_output@@IAE_NXZ 10032d74 f i libucrt:output.obj
 0001:00031e58       ?update_field_width@?$positional_parameter_base@_WV?$string_output_adapter@_W@__crt_stdio_output@@@__crt_stdio_output@@IAE_NXZ 10032e58 f i libucrt:output.obj
 0001:00031f3c       ?update_field_width@?$standard_base@DV?$stream_output_adapter@D@__crt_stdio_output@@@__crt_stdio_output@@IAE_NXZ 10032f3c f i libucrt:output.obj
 0001:00031f50       ?update_field_width@?$standard_base@DV?$string_output_adapter@D@__crt_stdio_output@@@__crt_stdio_output@@IAE_NXZ 10032f50 f i libucrt:output.obj
 0001:00031f64       ?update_field_width@?$standard_base@_WV?$stream_output_adapter@_W@__crt_stdio_output@@@__crt_stdio_output@@IAE_NXZ 10032f64 f i libucrt:output.obj
 0001:00031f78       ?update_field_width@?$standard_base@_WV?$string_output_adapter@_W@__crt_stdio_output@@@__crt_stdio_output@@IAE_NXZ 10032f78 f i libucrt:output.obj
 0001:00031f8c       ?update_precision@?$positional_parameter_base@DV?$stream_output_adapter@D@__crt_stdio_output@@@__crt_stdio_output@@IAE_NXZ 10032f8c f i libucrt:output.obj
 0001:0003206f       ?update_precision@?$positional_parameter_base@DV?$string_output_adapter@D@__crt_stdio_output@@@__crt_stdio_output@@IAE_NXZ 1003306f f i libucrt:output.obj
 0001:00032152       ?update_precision@?$positional_parameter_base@_WV?$stream_output_adapter@_W@__crt_stdio_output@@@__crt_stdio_output@@IAE_NXZ 10033152 f i libucrt:output.obj
 0001:00032236       ?update_precision@?$positional_parameter_base@_WV?$string_output_adapter@_W@__crt_stdio_output@@@__crt_stdio_output@@IAE_NXZ 10033236 f i libucrt:output.obj
 0001:0003231a       ?update_precision@?$standard_base@DV?$stream_output_adapter@D@__crt_stdio_output@@@__crt_stdio_output@@IAE_NXZ 1003331a f i libucrt:output.obj
 0001:0003232e       ?update_precision@?$standard_base@DV?$string_output_adapter@D@__crt_stdio_output@@@__crt_stdio_output@@IAE_NXZ 1003332e f i libucrt:output.obj
 0001:00032342       ?update_precision@?$standard_base@_WV?$stream_output_adapter@_W@__crt_stdio_output@@@__crt_stdio_output@@IAE_NXZ 10033342 f i libucrt:output.obj
 0001:00032356       ?update_precision@?$standard_base@_WV?$string_output_adapter@_W@__crt_stdio_output@@@__crt_stdio_output@@IAE_NXZ 10033356 f i libucrt:output.obj
 0001:0003236a       ?valid@__crt_stdio_stream@@QBE_NXZ 1003336a f i libucrt:output.obj
 0001:00032374       ?validate@?$stream_output_adapter@D@__crt_stdio_output@@QBE_NXZ 10033374 f i libucrt:output.obj
 0001:0003239d       ?validate@?$stream_output_adapter@_W@__crt_stdio_output@@QBE_NXZ 1003339d f i libucrt:output.obj
 0001:000323be       ?validate@?$string_output_adapter@D@__crt_stdio_output@@QBE_NXZ 100333be f i libucrt:output.obj
 0001:000323df       ?validate@?$string_output_adapter@_W@__crt_stdio_output@@QBE_NXZ 100333df f i libucrt:output.obj
 0001:00032400       ?validate_and_store_parameter_data@?$positional_parameter_base@DV?$stream_output_adapter@D@__crt_stdio_output@@@__crt_stdio_output@@AAE_NAAUparameter_data@12@W4parameter_type@12@DW4length_modifier@2@@Z 10033400 f i libucrt:output.obj
 0001:0003245d       ?validate_and_store_parameter_data@?$positional_parameter_base@DV?$string_output_adapter@D@__crt_stdio_output@@@__crt_stdio_output@@AAE_NAAUparameter_data@12@W4parameter_type@12@DW4length_modifier@2@@Z 1003345d f i libucrt:output.obj
 0001:000324ba       ?validate_and_store_parameter_data@?$positional_parameter_base@_WV?$stream_output_adapter@_W@__crt_stdio_output@@@__crt_stdio_output@@AAE_NAAUparameter_data@12@W4parameter_type@12@_WW4length_modifier@2@@Z 100334ba f i libucrt:output.obj
 0001:0003251a       ?validate_and_store_parameter_data@?$positional_parameter_base@_WV?$string_output_adapter@_W@__crt_stdio_output@@@__crt_stdio_output@@AAE_NAAUparameter_data@12@W4parameter_type@12@_WW4length_modifier@2@@Z 1003351a f i libucrt:output.obj
 0001:0003257a       ?validate_and_update_state_at_beginning_of_format_character@?$positional_parameter_base@DV?$stream_output_adapter@D@__crt_stdio_output@@@__crt_stdio_output@@IAE_NXZ 1003357a f i libucrt:output.obj
 0001:000326b0       ?validate_and_update_state_at_beginning_of_format_character@?$positional_parameter_base@DV?$string_output_adapter@D@__crt_stdio_output@@@__crt_stdio_output@@IAE_NXZ 100336b0 f i libucrt:output.obj
 0001:000327e6       ?validate_and_update_state_at_beginning_of_format_character@?$positional_parameter_base@_WV?$stream_output_adapter@_W@__crt_stdio_output@@@__crt_stdio_output@@IAE_NXZ 100337e6 f i libucrt:output.obj
 0001:00032928       ?validate_and_update_state_at_beginning_of_format_character@?$positional_parameter_base@_WV?$string_output_adapter@_W@__crt_stdio_output@@@__crt_stdio_output@@IAE_NXZ 10033928 f i libucrt:output.obj
 0001:00032a6a       ?validate_and_update_state_at_beginning_of_format_character@?$standard_base@DV?$stream_output_adapter@D@__crt_stdio_output@@@__crt_stdio_output@@IAE_NXZ 10033a6a f i libucrt:output.obj
 0001:00032a6d       ?validate_and_update_state_at_beginning_of_format_character@?$standard_base@DV?$string_output_adapter@D@__crt_stdio_output@@@__crt_stdio_output@@IAE_NXZ 10033a6d f i libucrt:output.obj
 0001:00032a70       ?validate_and_update_state_at_beginning_of_format_character@?$standard_base@_WV?$stream_output_adapter@_W@__crt_stdio_output@@@__crt_stdio_output@@IAE_NXZ 10033a70 f i libucrt:output.obj
 0001:00032a73       ?validate_and_update_state_at_beginning_of_format_character@?$standard_base@_WV?$string_output_adapter@_W@__crt_stdio_output@@@__crt_stdio_output@@IAE_NXZ 10033a73 f i libucrt:output.obj
 0001:00032a76       ?validate_and_update_state_at_end_of_format_string@?$format_validation_base@DV?$stream_output_adapter@D@__crt_stdio_output@@@__crt_stdio_output@@IBE_NXZ 10033a76 f i libucrt:output.obj
 0001:00032aa0       ?validate_and_update_state_at_end_of_format_string@?$format_validation_base@DV?$string_output_adapter@D@__crt_stdio_output@@@__crt_stdio_output@@IBE_NXZ 10033aa0 f i libucrt:output.obj
 0001:00032aca       ?validate_and_update_state_at_end_of_format_string@?$format_validation_base@_WV?$stream_output_adapter@_W@__crt_stdio_output@@@__crt_stdio_output@@IBE_NXZ 10033aca f i libucrt:output.obj
 0001:00032af4       ?validate_and_update_state_at_end_of_format_string@?$format_validation_base@_WV?$string_output_adapter@_W@__crt_stdio_output@@@__crt_stdio_output@@IBE_NXZ 10033af4 f i libucrt:output.obj
 0001:00032b1e       ?validate_and_update_state_at_end_of_format_string@?$positional_parameter_base@DV?$stream_output_adapter@D@__crt_stdio_output@@@__crt_stdio_output@@IAE_NXZ 10033b1e f i libucrt:output.obj
 0001:00032bbe       ?validate_and_update_state_at_end_of_format_string@?$positional_parameter_base@DV?$string_output_adapter@D@__crt_stdio_output@@@__crt_stdio_output@@IAE_NXZ 10033bbe f i libucrt:output.obj
 0001:00032c5e       ?validate_and_update_state_at_end_of_format_string@?$positional_parameter_base@_WV?$stream_output_adapter@_W@__crt_stdio_output@@@__crt_stdio_output@@IAE_NXZ 10033c5e f i libucrt:output.obj
 0001:00032cfe       ?validate_and_update_state_at_end_of_format_string@?$positional_parameter_base@_WV?$string_output_adapter@_W@__crt_stdio_output@@@__crt_stdio_output@@IAE_NXZ 10033cfe f i libucrt:output.obj
 0001:00032d9e       ?validate_and_update_state_at_end_of_format_string@?$standard_base@DV?$stream_output_adapter@D@__crt_stdio_output@@@__crt_stdio_output@@IBE_NXZ 10033d9e f i libucrt:output.obj
 0001:00032da1       ?validate_and_update_state_at_end_of_format_string@?$standard_base@DV?$string_output_adapter@D@__crt_stdio_output@@@__crt_stdio_output@@IBE_NXZ 10033da1 f i libucrt:output.obj
 0001:00032da4       ?validate_and_update_state_at_end_of_format_string@?$standard_base@_WV?$stream_output_adapter@_W@__crt_stdio_output@@@__crt_stdio_output@@IBE_NXZ 10033da4 f i libucrt:output.obj
 0001:00032da7       ?validate_and_update_state_at_end_of_format_string@?$standard_base@_WV?$string_output_adapter@_W@__crt_stdio_output@@@__crt_stdio_output@@IBE_NXZ 10033da7 f i libucrt:output.obj
 0001:00032daa       ?validate_state_for_type_case_a@?$positional_parameter_base@DV?$stream_output_adapter@D@__crt_stdio_output@@@__crt_stdio_output@@IAE_NXZ 10033daa f i libucrt:output.obj
 0001:00032e11       ?validate_state_for_type_case_a@?$positional_parameter_base@DV?$string_output_adapter@D@__crt_stdio_output@@@__crt_stdio_output@@IAE_NXZ 10033e11 f i libucrt:output.obj
 0001:00032e78       ?validate_state_for_type_case_a@?$positional_parameter_base@_WV?$stream_output_adapter@_W@__crt_stdio_output@@@__crt_stdio_output@@IAE_NXZ 10033e78 f i libucrt:output.obj
 0001:00032edf       ?validate_state_for_type_case_a@?$positional_parameter_base@_WV?$string_output_adapter@_W@__crt_stdio_output@@@__crt_stdio_output@@IAE_NXZ 10033edf f i libucrt:output.obj
 0001:00032f46       ?validate_state_for_type_case_a@?$standard_base@DV?$stream_output_adapter@D@__crt_stdio_output@@@__crt_stdio_output@@IBE_NXZ 10033f46 f i libucrt:output.obj
 0001:00032f49       ?validate_state_for_type_case_a@?$standard_base@DV?$string_output_adapter@D@__crt_stdio_output@@@__crt_stdio_output@@IBE_NXZ 10033f49 f i libucrt:output.obj
 0001:00032f4c       ?validate_state_for_type_case_a@?$standard_base@_WV?$stream_output_adapter@_W@__crt_stdio_output@@@__crt_stdio_output@@IBE_NXZ 10033f4c f i libucrt:output.obj
 0001:00032f4f       ?validate_state_for_type_case_a@?$standard_base@_WV?$string_output_adapter@_W@__crt_stdio_output@@@__crt_stdio_output@@IBE_NXZ 10033f4f f i libucrt:output.obj
 0001:00032f52       ?validate_stream_is_ansi_if_required@?$__acrt_stdio_char_traits@D@@SA_NQAU_iobuf@@@Z 10033f52 f i libucrt:output.obj
 0001:00032ff4       ?validate_stream_is_ansi_if_required@?$__acrt_stdio_char_traits@_W@@SA_NQAU_iobuf@@@Z 10033ff4 f i libucrt:output.obj
 0001:00032ff7       ?wide_null_string@?$output_processor@DV?$stream_output_adapter@D@__crt_stdio_output@@V?$format_validation_base@DV?$stream_output_adapter@D@__crt_stdio_output@@@2@@__crt_stdio_output@@CAPA_WXZ 10033ff7 f i libucrt:output.obj
 0001:00032ffd       ?wide_null_string@?$output_processor@DV?$stream_output_adapter@D@__crt_stdio_output@@V?$positional_parameter_base@DV?$stream_output_adapter@D@__crt_stdio_output@@@2@@__crt_stdio_output@@CAPA_WXZ 10033ffd f i libucrt:output.obj
 0001:00033003       ?wide_null_string@?$output_processor@DV?$stream_output_adapter@D@__crt_stdio_output@@V?$standard_base@DV?$stream_output_adapter@D@__crt_stdio_output@@@2@@__crt_stdio_output@@CAPA_WXZ 10034003 f i libucrt:output.obj
 0001:00033009       ?wide_null_string@?$output_processor@DV?$string_output_adapter@D@__crt_stdio_output@@V?$format_validation_base@DV?$string_output_adapter@D@__crt_stdio_output@@@2@@__crt_stdio_output@@CAPA_WXZ 10034009 f i libucrt:output.obj
 0001:0003300f       ?wide_null_string@?$output_processor@DV?$string_output_adapter@D@__crt_stdio_output@@V?$positional_parameter_base@DV?$string_output_adapter@D@__crt_stdio_output@@@2@@__crt_stdio_output@@CAPA_WXZ 1003400f f i libucrt:output.obj
 0001:00033015       ?wide_null_string@?$output_processor@DV?$string_output_adapter@D@__crt_stdio_output@@V?$standard_base@DV?$string_output_adapter@D@__crt_stdio_output@@@2@@__crt_stdio_output@@CAPA_WXZ 10034015 f i libucrt:output.obj
 0001:0003301b       ?wide_null_string@?$output_processor@_WV?$stream_output_adapter@_W@__crt_stdio_output@@V?$format_validation_base@_WV?$stream_output_adapter@_W@__crt_stdio_output@@@2@@__crt_stdio_output@@CAPA_WXZ 1003401b f i libucrt:output.obj
 0001:00033021       ?wide_null_string@?$output_processor@_WV?$stream_output_adapter@_W@__crt_stdio_output@@V?$positional_parameter_base@_WV?$stream_output_adapter@_W@__crt_stdio_output@@@2@@__crt_stdio_output@@CAPA_WXZ 10034021 f i libucrt:output.obj
 0001:00033027       ?wide_null_string@?$output_processor@_WV?$stream_output_adapter@_W@__crt_stdio_output@@V?$standard_base@_WV?$stream_output_adapter@_W@__crt_stdio_output@@@2@@__crt_stdio_output@@CAPA_WXZ 10034027 f i libucrt:output.obj
 0001:0003302d       ?wide_null_string@?$output_processor@_WV?$string_output_adapter@_W@__crt_stdio_output@@V?$format_validation_base@_WV?$string_output_adapter@_W@__crt_stdio_output@@@2@@__crt_stdio_output@@CAPA_WXZ 1003402d f i libucrt:output.obj
 0001:00033033       ?wide_null_string@?$output_processor@_WV?$string_output_adapter@_W@__crt_stdio_output@@V?$positional_parameter_base@_WV?$string_output_adapter@_W@__crt_stdio_output@@@2@@__crt_stdio_output@@CAPA_WXZ 10034033 f i libucrt:output.obj
 0001:00033039       ?wide_null_string@?$output_processor@_WV?$string_output_adapter@_W@__crt_stdio_output@@V?$standard_base@_WV?$string_output_adapter@_W@__crt_stdio_output@@@2@@__crt_stdio_output@@CAPA_WXZ 10034039 f i libucrt:output.obj
 0001:0003303f       ?write_character@?$stream_output_adapter@D@__crt_stdio_output@@QBEXDQAH@Z 1003403f f i libucrt:output.obj
 0001:0003308b       ?write_character@?$stream_output_adapter@_W@__crt_stdio_output@@QBEX_WQAH@Z 1003408b f i libucrt:output.obj
 0001:000330db       ?write_character@?$string_output_adapter@D@__crt_stdio_output@@QBE_NDQAH@Z 100340db f i libucrt:output.obj
 0001:0003312d       ?write_character@?$string_output_adapter@_W@__crt_stdio_output@@QBE_N_WQAH@Z 1003412d f i libucrt:output.obj
 0001:00033183       ?write_stored_string_tchar@?$output_processor@DV?$stream_output_adapter@D@__crt_stdio_output@@V?$format_validation_base@DV?$stream_output_adapter@D@__crt_stdio_output@@@2@@__crt_stdio_output@@AAE_ND@Z 10034183 f i libucrt:output.obj
 0001:00033253       ?write_stored_string_tchar@?$output_processor@DV?$stream_output_adapter@D@__crt_stdio_output@@V?$positional_parameter_base@DV?$stream_output_adapter@D@__crt_stdio_output@@@2@@__crt_stdio_output@@AAE_ND@Z 10034253 f i libucrt:output.obj
 0001:00033323       ?write_stored_string_tchar@?$output_processor@DV?$stream_output_adapter@D@__crt_stdio_output@@V?$standard_base@DV?$stream_output_adapter@D@__crt_stdio_output@@@2@@__crt_stdio_output@@AAE_ND@Z 10034323 f i libucrt:output.obj
 0001:000333f3       ?write_stored_string_tchar@?$output_processor@DV?$string_output_adapter@D@__crt_stdio_output@@V?$format_validation_base@DV?$string_output_adapter@D@__crt_stdio_output@@@2@@__crt_stdio_output@@AAE_ND@Z 100343f3 f i libucrt:output.obj
 0001:000334c3       ?write_stored_string_tchar@?$output_processor@DV?$string_output_adapter@D@__crt_stdio_output@@V?$positional_parameter_base@DV?$string_output_adapter@D@__crt_stdio_output@@@2@@__crt_stdio_output@@AAE_ND@Z 100344c3 f i libucrt:output.obj
 0001:00033593       ?write_stored_string_tchar@?$output_processor@DV?$string_output_adapter@D@__crt_stdio_output@@V?$standard_base@DV?$string_output_adapter@D@__crt_stdio_output@@@2@@__crt_stdio_output@@AAE_ND@Z 10034593 f i libucrt:output.obj
 0001:00033663       ?write_stored_string_tchar@?$output_processor@_WV?$stream_output_adapter@_W@__crt_stdio_output@@V?$format_validation_base@_WV?$stream_output_adapter@_W@__crt_stdio_output@@@2@@__crt_stdio_output@@AAE_N_W@Z 10034663 f i libucrt:output.obj
 0001:00033710       ?write_stored_string_tchar@?$output_processor@_WV?$stream_output_adapter@_W@__crt_stdio_output@@V?$positional_parameter_base@_WV?$stream_output_adapter@_W@__crt_stdio_output@@@2@@__crt_stdio_output@@AAE_N_W@Z 10034710 f i libucrt:output.obj
 0001:000337bd       ?write_stored_string_tchar@?$output_processor@_WV?$stream_output_adapter@_W@__crt_stdio_output@@V?$standard_base@_WV?$stream_output_adapter@_W@__crt_stdio_output@@@2@@__crt_stdio_output@@AAE_N_W@Z 100347bd f i libucrt:output.obj
 0001:0003386a       ?write_stored_string_tchar@?$output_processor@_WV?$string_output_adapter@_W@__crt_stdio_output@@V?$format_validation_base@_WV?$string_output_adapter@_W@__crt_stdio_output@@@2@@__crt_stdio_output@@AAE_N_W@Z 1003486a f i libucrt:output.obj
 0001:00033917       ?write_stored_string_tchar@?$output_processor@_WV?$string_output_adapter@_W@__crt_stdio_output@@V?$positional_parameter_base@_WV?$string_output_adapter@_W@__crt_stdio_output@@@2@@__crt_stdio_output@@AAE_N_W@Z 10034917 f i libucrt:output.obj
 0001:000339c4       ?write_stored_string_tchar@?$output_processor@_WV?$string_output_adapter@_W@__crt_stdio_output@@V?$standard_base@_WV?$string_output_adapter@_W@__crt_stdio_output@@@2@@__crt_stdio_output@@AAE_N_W@Z 100349c4 f i libucrt:output.obj
 0001:00033a71       ?write_string@?$stream_output_adapter@D@__crt_stdio_output@@QBEXQBDHQAH1@Z 10034a71 f i libucrt:output.obj
 0001:00033b1d       ?write_string@?$stream_output_adapter@_W@__crt_stdio_output@@QBEXQB_WHQAH1@Z 10034b1d f i libucrt:output.obj
 0001:00033bcd       ?write_string@?$string_output_adapter@D@__crt_stdio_output@@QBEXQBDHQAH1@Z 10034bcd f i libucrt:output.obj
 0001:00033c84       ?write_string@?$string_output_adapter@_W@__crt_stdio_output@@QBEXQB_WHQAH1@Z 10034c84 f i libucrt:output.obj
 0001:00033d44       ___acrt_isleadbyte_l_noupdate 10034d44 f i libucrt:output.obj
 0001:00033d65       ___acrt_locale_changed     10034d65 f i libucrt:output.obj
 0001:00033d76       ___stdio_common_vfprintf   10034d76 f   libucrt:output.obj
 0001:00033e0a       ___stdio_common_vfprintf_p 10034e0a f   libucrt:output.obj
 0001:00033e9e       ___stdio_common_vfprintf_s 10034e9e f   libucrt:output.obj
 0001:00033f32       ___stdio_common_vfwprintf  10034f32 f   libucrt:output.obj
 0001:00033fc6       ___stdio_common_vfwprintf_p 10034fc6 f   libucrt:output.obj
 0001:0003405a       ___stdio_common_vfwprintf_s 1003505a f   libucrt:output.obj
 0001:000340ee       ___stdio_common_vsnprintf_s 100350ee f   libucrt:output.obj
 0001:0003411e       ___stdio_common_vsnwprintf_s 1003511e f   libucrt:output.obj
 0001:0003414e       ___stdio_common_vsprintf   1003514e f   libucrt:output.obj
 0001:0003417b       ___stdio_common_vsprintf_p 1003517b f   libucrt:output.obj
 0001:000341a8       ___stdio_common_vsprintf_s 100351a8 f   libucrt:output.obj
 0001:000341d5       ___stdio_common_vswprintf  100351d5 f   libucrt:output.obj
 0001:00034202       ___stdio_common_vswprintf_p 10035202 f   libucrt:output.obj
 0001:0003422f       ___stdio_common_vswprintf_s 1003522f f   libucrt:output.obj
 0001:0003425c       _calloc                    1003525c f   libucrt:calloc.obj
 0001:00034269       _free                      10035269 f   libucrt:free.obj
 0001:0003426e       ??$__vcrt_va_start_verify_argument_type@QB_W@@YAXXZ 1003526e f i libucrt:assert.obj
 0001:0003520b       ??$ftprintf@PAU_iobuf@@PBDABQBDABQBDABI@?$__crt_char_traits@D@@SAH$$QAPAU_iobuf@@$$QAPBDABQBD2ABI@Z 1003620b f i libucrt:assert.obj
 0001:0003523d       ??$ftprintf@PAU_iobuf@@PB_WABQB_WABQB_WABI@?$__crt_char_traits@_W@@SAH$$QAPAU_iobuf@@$$QAPB_WABQB_W2ABI@Z 1003623d f i libucrt:assert.obj
 0001:0003526f       ??$get_module_file_name@AAPAUHINSTANCE__@@AAY0BAF@DK@?$__crt_char_traits@D@@SAKAAPAUHINSTANCE__@@AAY0BAF@D$$QAK@Z 1003626f f i libucrt:assert.obj
 0001:0003528f       ??$get_module_file_name@AAPAUHINSTANCE__@@AAY0BAF@_WK@?$__crt_char_traits@_W@@SAKAAPAUHINSTANCE__@@AAY0BAF@_W$$QAK@Z 1003628f f i libucrt:assert.obj
 0001:000352af       ??$itot_s@ABIQAD$$CBIH@?$__crt_char_traits@D@@SAHABI$$QBQAD$$QBI$$QAH@Z 100362af f i libucrt:assert.obj
 0001:000352da       ??$itot_s@ABIQA_W$$CBIH@?$__crt_char_traits@_W@@SAHABI$$QBQA_W$$QBI$$QAH@Z 100362da f i libucrt:assert.obj
 0001:00035305       ??$show_message_box@AAY0CEA@DPBDJ@?$__crt_char_traits@D@@SAHAAY0CEA@D$$QAPBD$$QAJ@Z 10036305 f i libucrt:assert.obj
 0001:00035328       ??$show_message_box@AAY0CEA@_WPB_WJ@?$__crt_char_traits@_W@@SAHAAY0CEA@_W$$QAPB_W$$QAJ@Z 10036328 f i libucrt:assert.obj
 0001:0003534b       ??$tcscat_s@ABQADABIAAPAD@?$__crt_char_traits@D@@SAHABQADABIAAPAD@Z 1003634b f i libucrt:assert.obj
 0001:00035370       ??$tcscat_s@ABQADABIABQBD@?$__crt_char_traits@D@@SAHABQADABIABQBD@Z 10036370 f i libucrt:assert.obj
 0001:00035395       ??$tcscat_s@ABQADABIPBD@?$__crt_char_traits@D@@SAHABQADABI$$QAPBD@Z 10036395 f i libucrt:assert.obj
 0001:000353ba       ??$tcscat_s@ABQA_WABIAAPA_W@?$__crt_char_traits@_W@@SAHABQA_WABIAAPA_W@Z 100363ba f i libucrt:assert.obj
 0001:000353df       ??$tcscat_s@ABQA_WABIABQB_W@?$__crt_char_traits@_W@@SAHABQA_WABIABQB_W@Z 100363df f i libucrt:assert.obj
 0001:00035404       ??$tcscat_s@ABQA_WABIPB_W@?$__crt_char_traits@_W@@SAHABQA_WABI$$QAPB_W@Z 10036404 f i libucrt:assert.obj
 0001:00035429       ??$tcscpy_s@AAY0BAF@DIPBD@?$__crt_char_traits@D@@SAHAAY0BAF@D$$QAI$$QAPBD@Z 10036429 f i libucrt:assert.obj
 0001:0003544c       ??$tcscpy_s@AAY0BAF@_WIPB_W@?$__crt_char_traits@_W@@SAHAAY0BAF@_W$$QAI$$QAPB_W@Z 1003644c f i libucrt:assert.obj
 0001:0003546f       ??$tcscpy_s@ABQADABIPBD@?$__crt_char_traits@D@@SAHABQADABI$$QAPBD@Z 1003646f f i libucrt:assert.obj
 0001:00035494       ??$tcscpy_s@ABQA_WABIPB_W@?$__crt_char_traits@_W@@SAHABQA_WABI$$QAPB_W@Z 10036494 f i libucrt:assert.obj
 0001:000354b9       ??$tcslen@AAY0BAF@D@?$__crt_char_traits@D@@SAIAAY0BAF@D@Z 100364b9 f i libucrt:assert.obj
 0001:000354d4       ??$tcslen@AAY0BAF@_W@?$__crt_char_traits@_W@@SAIAAY0BAF@_W@Z 100364d4 f i libucrt:assert.obj
 0001:000354f7       ??$tcslen@ABQAD@?$__crt_char_traits@D@@SAIABQAD@Z 100364f7 f i libucrt:assert.obj
 0001:00035515       ??$tcslen@ABQA_W@?$__crt_char_traits@_W@@SAIABQA_W@Z 10036515 f i libucrt:assert.obj
 0001:0003553a       ??$tcslen@ABQBD@?$__crt_char_traits@D@@SAIABQBD@Z 1003653a f i libucrt:assert.obj
 0001:00035558       ??$tcslen@ABQB_W@?$__crt_char_traits@_W@@SAIABQB_W@Z 10036558 f i libucrt:assert.obj
 0001:0003557d       ??$tcsncat_s@ABQADABIAAPBD$$CBI@?$__crt_char_traits@D@@SAHABQADABIAAPBD$$QBI@Z 1003657d f i libucrt:assert.obj
 0001:000355a8       ??$tcsncat_s@ABQADABIABQBDABI@?$__crt_char_traits@D@@SAHABQADABIABQBD1@Z 100365a8 f i libucrt:assert.obj
 0001:000355d3       ??$tcsncat_s@ABQADABIPBD$$CBI@?$__crt_char_traits@D@@SAHABQADABI$$QAPBD$$QBI@Z 100365d3 f i libucrt:assert.obj
 0001:000355fe       ??$tcsncat_s@ABQA_WABIAAPB_W$$CBI@?$__crt_char_traits@_W@@SAHABQA_WABIAAPB_W$$QBI@Z 100365fe f i libucrt:assert.obj
 0001:00035629       ??$tcsncat_s@ABQA_WABIABQB_WABI@?$__crt_char_traits@_W@@SAHABQA_WABIABQB_W1@Z 10036629 f i libucrt:assert.obj
 0001:00035654       ??$tcsncat_s@ABQA_WABIPB_W$$CBI@?$__crt_char_traits@_W@@SAHABQA_WABI$$QAPB_W$$QBI@Z 10036654 f i libucrt:assert.obj
 0001:000357f9       ?has_any_buffer@__crt_stdio_stream@@QBE_NXZ 100367f9 f i libucrt:assert.obj
 0001:0003580e       ?has_any_of@__crt_stdio_stream@@QBE_NJ@Z 1003680e f i libucrt:assert.obj
 0001:0003582a       __assert                   1003682a f   libucrt:assert.obj
 0001:00035884       __invoke_watson_if_error   10036884 f i libucrt:assert.obj
 0001:000358ae       __vfwprintf_l              100368ae f i libucrt:assert.obj
 0001:000358dc       __vswprintf_c_l            100368dc f i libucrt:assert.obj
 0001:00035916       __wassert                  10036916 f   libucrt:assert.obj
 0001:00035970       _fwprintf                  10036970 f i libucrt:assert.obj
 0001:00035a32       _swprintf                  10036a32 f i libucrt:assert.obj
 0001:00035a57       _realloc                   10036a57 f   libucrt:realloc.obj
 0001:00035a64       ??$?B$$A6GXPAXK0@Z@__crt_fast_encoded_nullptr_t@@QBEP6GXPAXK0@ZXZ 10036a64 f i libucrt:exit.obj
 0001:00035a82       ??$__crt_fast_decode_pointer@P6GXPAXK0@Z@@YAP6GXPAXK0@ZQ6GX0K0@Z@Z 10036a82 f i libucrt:exit.obj
 0001:00035a9d       ??$__crt_fast_encode_pointer@P6GXPAXK0@Z@@YAP6GXPAXK0@ZQ6GX0K0@Z@Z 10036a9d f i libucrt:exit.obj
 0001:00035ac3       ??$__crt_get_proc_address@P6GXI@Z@@YAP6GXI@ZQAUHINSTANCE__@@QBD@Z 10036ac3 f i libucrt:exit.obj
 0001:00035ada       ??0?$__crt_unique_handle_t@U__crt_hmodule_traits@@@@QAE@QAUHINSTANCE__@@@Z 10036ada f i libucrt:exit.obj
 0001:00035aee       ??1?$__crt_unique_handle_t@U__crt_hmodule_traits@@@@QAE@XZ 10036aee f i libucrt:exit.obj
 0001:00035b21       ?close@?$__crt_unique_handle_t@U__crt_hmodule_traits@@@@QAEXXZ 10036b21 f i libucrt:exit.obj
 0001:00035b3d       ?close@__crt_hmodule_traits@@SA_NPAUHINSTANCE__@@@Z 10036b3d f i libucrt:exit.obj
 0001:00035d08       ?get@?$__crt_unique_handle_t@U__crt_hmodule_traits@@@@QBEPAUHINSTANCE__@@XZ 10036d08 f i libucrt:exit.obj
 0001:00035d0b       ?get_address_of@?$__crt_unique_handle_t@U__crt_hmodule_traits@@@@QAEPAPAUHINSTANCE__@@XZ 10036d0b f i libucrt:exit.obj
 0001:00035d0e       ?get_invalid_value@__crt_hmodule_traits@@SAPAUHINSTANCE__@@XZ 10036d0e f i libucrt:exit.obj
 0001:00035e0b       __Exit                     10036e0b f   libucrt:exit.obj
 0001:00035e26       ___acrt_initialize_thread_local_exit_callback 10036e26 f   libucrt:exit.obj
 0001:00035e38       __c_exit                   10036e38 f   libucrt:exit.obj
 0001:00035e4a       __cexit                    10036e4a f   libucrt:exit.obj
 0001:00035e5c       __exit                     10036e5c f   libucrt:exit.obj
 0001:00035e77       __is_c_termination_complete 10036e77 f   libucrt:exit.obj
 0001:00035e7d       __register_thread_local_exe_atexit_callback 10036e7d f   libucrt:exit.obj
 0001:00035ec3       _exit                      10036ec3 f   libucrt:exit.obj
 0001:00035ede       _quick_exit                10036ede f   libucrt:exit.obj
 0001:00035f00       _strncat                   10036f00 f   libucrt:strncat.obj
 0001:00036090       _strncpy                   10037090 f   libucrt:strncpy.obj
 0001:000361fd       ?is_in_use@__crt_stdio_stream@@QBE_NXZ 100371fd f i libucrt:fclose.obj
 0001:0003620c       __fclose_nolock            1003720c f   libucrt:fclose.obj
 0001:0003629f       _fclose                    1003729f f   libucrt:fclose.obj
 0001:000365d1       ??$open_file@ABQBDABQBDABHPAU_iobuf@@@?$__crt_char_traits@D@@SAPAU_iobuf@@ABQBD0ABH$$QAPAU1@@Z 100375d1 f i libucrt:fopen.obj
 0001:000365fc       ??$open_file@ABQB_WABQB_WABHPAU_iobuf@@@?$__crt_char_traits@_W@@SAPAU_iobuf@@ABQB_W0ABH$$QAPAU1@@Z 100375fc f i libucrt:fopen.obj
 0001:00036627       ?unlock@__crt_stdio_stream@@QBEXXZ 10037627 f i libucrt:fopen.obj
 0001:00036632       __fsopen                   10037632 f   libucrt:fopen.obj
 0001:0003663f       __wfopen                   1003763f f   libucrt:fopen.obj
 0001:0003665b       __wfopen_s                 1003765b f   libucrt:fopen.obj
 0001:000366b3       __wfsopen                  100376b3 f   libucrt:fopen.obj
 0001:000366c0       _fopen                     100376c0 f   libucrt:fopen.obj
 0001:000366dc       _fopen_s                   100376dc f   libucrt:fopen.obj
 0001:00036734       ?set_flags@__crt_stdio_stream@@QBE_NJ@Z 10037734 f i libucrt:fread.obj
 0001:00036764       __fread_nolock             10037764 f   libucrt:fread.obj
 0001:00036788       __fread_nolock_s           10037788 f   libucrt:fread.obj
 0001:000369c7       _fread                     100379c7 f   libucrt:fread.obj
 0001:000369eb       _fread_s                   100379eb f   libucrt:fread.obj
 0001:00036b43       ??$?RV<lambda_11b4f7b0d3157825a5656a18eba1ae27>@@AAV<lambda_b51c0495177f500e782686251704ae76>@@V<lambda_cf89b47920b5017557bfe891e78aca36>@@@?$__crt_seh_guarded_call@I@@QAEI$$QAV<lambda_11b4f7b0d3157825a5656a18eba1ae27>@@AAV<lambda_b51c0495177f500e782686251704ae76>@@$$QAV<lambda_cf89b47920b5017557bfe891e78aca36>@@@Z 10037b43 f i libucrt:fwrite.obj
 0001:00036ba8       ??$__acrt_lock_stream_and_call@V<lambda_b51c0495177f500e782686251704ae76>@@@@YAIQAU_iobuf@@$$QAV<lambda_b51c0495177f500e782686251704ae76>@@@Z 10037ba8 f i libucrt:fwrite.obj
 0001:00036c9d       ?has_big_buffer@__crt_stdio_stream@@QBE_NXZ 10037c9d f i libucrt:fwrite.obj
 0001:00036cae       __fwrite_nolock            10037cae f   libucrt:fwrite.obj
 0001:00036e85       _fwrite                    10037e85 f   libucrt:fwrite.obj
 0001:00036ef3       ??$?R_W@__crt_internal_free_policy@@QBEXQB_W@Z 10037ef3 f i libucrt:unlink.obj
 0001:00036f09       ??0?$__crt_unique_heap_ptr@_WU__crt_internal_free_policy@@@@QAE@QA_W@Z 10037f09 f i libucrt:unlink.obj
 0001:00036f1d       ??1?$__crt_unique_heap_ptr@_WU__crt_internal_free_policy@@@@QAE@XZ 10037f1d f i libucrt:unlink.obj
 0001:00036f33       ?get@?$__crt_unique_heap_ptr@_WU__crt_internal_free_policy@@@@QBEPA_WXZ 10037f33 f i libucrt:unlink.obj
 0001:00036f36       ?get_address_of@?$__crt_unique_heap_ptr@_WU__crt_internal_free_policy@@@@QAEPAPA_WXZ 10037f36 f i libucrt:unlink.obj
 0001:00036f39       ?release@?$__crt_unique_heap_ptr@_WU__crt_internal_free_policy@@@@QAEXXZ 10037f39 f i libucrt:unlink.obj
 0001:00036f4f       __unlink                   10037f4f f   libucrt:unlink.obj
 0001:00036f5c       _remove                    10037f5c f   libucrt:unlink.obj
 0001:00036fbc       ?__acrt_stdio_reset_buffer@@YAXV__crt_stdio_stream@@@Z 10037fbc f i libucrt:rewind.obj
 0001:00036fd7       ?has_all_of@__crt_stdio_stream@@QBE_NJ@Z 10037fd7 f i libucrt:rewind.obj
 0001:00036ff6       ?unset_flags@__crt_stdio_stream@@QBE_NJ@Z 10037ff6 f i libucrt:rewind.obj
 0001:0003702a       _rewind                    1003802a f   libucrt:rewind.obj
 0001:0003712b       _ldexp                     1003812b f   libucrt:ldexp.obj
 0001:0003738b       __errcode                  1003838b f   libucrt:fpexcept.obj
 0001:000373cc       __except1                  100383cc f   libucrt:fpexcept.obj
 0001:000374cd       __except2                  100384cd f   libucrt:fpexcept.obj
 0001:00037616       __handle_exc               10038616 f   libucrt:fpexcept.obj
 0001:0003786e       __handle_qnan2             1003886e f   libucrt:fpexcept.obj
 0001:0003787e       __raise_exc                1003887e f   libucrt:fpexcept.obj
 0001:000378a9       __raise_exc_ex             100388a9 f   libucrt:fpexcept.obj
 0001:00037c56       __raise_excf               10038c56 f   libucrt:fpexcept.obj
 0001:00037c81       __set_errno_from_matherr   10038c81 f   libucrt:fpexcept.obj
 0001:00037cbb       __umatherr                 10038cbb f   libucrt:fpexcept.obj
 0001:00037d85       __initterm                 10038d85 f   libucrt:initterm.obj
 0001:00037df8       __initterm_e               10038df8 f   libucrt:initterm.obj
 0001:00037e7b       __seh_filter_dll           10038e7b f   libucrt:exception_filter.obj
 0001:00037ea3       __seh_filter_exe           10038ea3 f   libucrt:exception_filter.obj
 0001:00038072       ??$?RE@__crt_internal_free_policy@@QBEXQBE@Z 10039072 f i libucrt:argv_parsing.obj
 0001:00038088       ??$?RPAD@__crt_internal_free_policy@@QBEXQBQAD@Z 10039088 f i libucrt:argv_parsing.obj
 0001:0003809e       ??$?RPA_W@__crt_internal_free_policy@@QBEXQBQA_W@Z 1003909e f i libucrt:argv_parsing.obj
 0001:00038387       ??$get_module_file_name@$$TAAY0BAF@DH@?$__crt_char_traits@D@@SAK$$QA$$TAAY0BAF@D$$QAH@Z 10039387 f i libucrt:argv_parsing.obj
 0001:000383a7       ??$get_module_file_name@$$TAAY0BAF@_WH@?$__crt_char_traits@_W@@SAK$$QA$$TAAY0BAF@_W$$QAH@Z 100393a7 f i libucrt:argv_parsing.obj
 0001:00038780       ??$set_program_name@PAD@?$__crt_char_traits@D@@SAX$$QAPAD@Z 10039780 f i libucrt:argv_parsing.obj
 0001:00038795       ??$set_program_name@PA_W@?$__crt_char_traits@_W@@SAX$$QAPA_W@Z 10039795 f i libucrt:argv_parsing.obj
 0001:000387d2       ??0?$__crt_unique_heap_ptr@EU__crt_internal_free_policy@@@@QAE@QAE@Z 100397d2 f i libucrt:argv_parsing.obj
 0001:000387e6       ??0?$__crt_unique_heap_ptr@PADU__crt_internal_free_policy@@@@QAE@QAPAD@Z 100397e6 f i libucrt:argv_parsing.obj
 0001:000387fa       ??0?$__crt_unique_heap_ptr@PA_WU__crt_internal_free_policy@@@@QAE@QAPA_W@Z 100397fa f i libucrt:argv_parsing.obj
 0001:0003880e       ??1?$__crt_unique_heap_ptr@EU__crt_internal_free_policy@@@@QAE@XZ 1003980e f i libucrt:argv_parsing.obj
 0001:00038824       ??1?$__crt_unique_heap_ptr@PADU__crt_internal_free_policy@@@@QAE@XZ 10039824 f i libucrt:argv_parsing.obj
 0001:0003883a       ??1?$__crt_unique_heap_ptr@PA_WU__crt_internal_free_policy@@@@QAE@XZ 1003983a f i libucrt:argv_parsing.obj
 0001:00038850       ??B?$__crt_unique_heap_ptr@EU__crt_internal_free_policy@@@@QBE_NXZ 10039850 f i libucrt:argv_parsing.obj
 0001:00038890       ?detach@?$__crt_unique_heap_ptr@EU__crt_internal_free_policy@@@@QAEPAEXZ 10039890 f i libucrt:argv_parsing.obj
 0001:00038896       ?detach@?$__crt_unique_heap_ptr@PADU__crt_internal_free_policy@@@@QAEPAPADXZ 10039896 f i libucrt:argv_parsing.obj
 0001:0003889c       ?detach@?$__crt_unique_heap_ptr@PA_WU__crt_internal_free_policy@@@@QAEPAPA_WXZ 1003989c f i libucrt:argv_parsing.obj
 0001:000388c2       ?get@?$__crt_unique_heap_ptr@EU__crt_internal_free_policy@@@@QBEPAEXZ 100398c2 f i libucrt:argv_parsing.obj
 0001:000388c5       ?get@?$__crt_unique_heap_ptr@PADU__crt_internal_free_policy@@@@QBEPAPADXZ 100398c5 f i libucrt:argv_parsing.obj
 0001:000388c8       ?get@?$__crt_unique_heap_ptr@PA_WU__crt_internal_free_policy@@@@QBEPAPA_WXZ 100398c8 f i libucrt:argv_parsing.obj
 0001:000388cb       ?get_address_of@?$__crt_unique_heap_ptr@PADU__crt_internal_free_policy@@@@QAEPAPAPADXZ 100398cb f i libucrt:argv_parsing.obj
 0001:000388ce       ?get_address_of@?$__crt_unique_heap_ptr@PA_WU__crt_internal_free_policy@@@@QAEPAPAPA_WXZ 100398ce f i libucrt:argv_parsing.obj
 0001:000388e9       ?is_valid@?$__crt_unique_heap_ptr@EU__crt_internal_free_policy@@@@QBE_NXZ 100398e9 f i libucrt:argv_parsing.obj
 0001:000388f3       ?release@?$__crt_unique_heap_ptr@EU__crt_internal_free_policy@@@@QAEXXZ 100398f3 f i libucrt:argv_parsing.obj
 0001:00038909       ?release@?$__crt_unique_heap_ptr@PADU__crt_internal_free_policy@@@@QAEXXZ 10039909 f i libucrt:argv_parsing.obj
 0001:0003891f       ?release@?$__crt_unique_heap_ptr@PA_WU__crt_internal_free_policy@@@@QAEXXZ 1003991f f i libucrt:argv_parsing.obj
 0001:00038956       ___acrt_allocate_buffer_for_argv 10039956 f   libucrt:argv_parsing.obj
 0001:000389c0       __configure_narrow_argv    100399c0 f   libucrt:argv_parsing.obj
 0001:000389cd       __configure_wide_argv      100399cd f   libucrt:argv_parsing.obj
 0001:000389da       __set_pgmptr               100399da f i libucrt:argv_parsing.obj
 0001:000389ec       __set_wpgmptr              100399ec f i libucrt:argv_parsing.obj
 0001:00038ec6       ??$get_environment_from_os@$$$V@?$__crt_char_traits@D@@SAPADXZ 10039ec6 f i libucrt:environment_initialization.obj
 0001:00038ecb       ??$get_environment_from_os@$$$V@?$__crt_char_traits@_W@@SAPA_WXZ 10039ecb f i libucrt:environment_initialization.obj
 0001:00039005       ??$set_variable_in_environment_nolock@PADH@?$__crt_char_traits@D@@SAH$$QAPAD$$QAH@Z 1003a005 f i libucrt:environment_initialization.obj
 0001:00039023       ??$set_variable_in_environment_nolock@PA_WH@?$__crt_char_traits@_W@@SAH$$QAPA_W$$QAH@Z 1003a023 f i libucrt:environment_initialization.obj
 0001:00039041       ??$tcscpy_s@PADABIAAPAD@?$__crt_char_traits@D@@SAH$$QAPADABIAAPAD@Z 1003a041 f i libucrt:environment_initialization.obj
 0001:00039066       ??$tcscpy_s@PA_WABIAAPA_W@?$__crt_char_traits@_W@@SAH$$QAPA_WABIAAPA_W@Z 1003a066 f i libucrt:environment_initialization.obj
 0001:0003908b       ??$tcslen@AAPAD@?$__crt_char_traits@D@@SAIAAPAD@Z 1003a08b f i libucrt:environment_initialization.obj
 0001:000390a9       ??$tcslen@AAPA_W@?$__crt_char_traits@_W@@SAIAAPA_W@Z 1003a0a9 f i libucrt:environment_initialization.obj
 0001:000390ce       ??$uninitialize@A6AXAAPAPAD@Z@?$dual_state_global@PAPAD@__crt_state_management@@QAEXA6AXAAPAPAD@Z@Z 1003a0ce f i libucrt:environment_initialization.obj
 0001:0003911e       ??$uninitialize@A6AXAAPAPA_W@Z@?$dual_state_global@PAPA_W@__crt_state_management@@QAEXA6AXAAPAPA_W@Z@Z 1003a11e f i libucrt:environment_initialization.obj
 0001:000391b0       ??B?$__crt_unique_heap_ptr@PADU__crt_internal_free_policy@@@@QBE_NXZ 1003a1b0 f i libucrt:environment_initialization.obj
 0001:000391ba       ??B?$__crt_unique_heap_ptr@PA_WU__crt_internal_free_policy@@@@QBE_NXZ 1003a1ba f i libucrt:environment_initialization.obj
 0001:000391c4       ??B?$__crt_unique_heap_ptr@_WU__crt_internal_free_policy@@@@QBE_NXZ 1003a1c4 f i libucrt:environment_initialization.obj
 0001:000391ce       ?__crt_compute_required_transform_buffer_count@@YAIIQBD@Z 1003a1ce f i libucrt:environment_initialization.obj
 0001:000391ee       ?__crt_compute_required_transform_buffer_count@@YAIIQB_W@Z 1003a1ee f i libucrt:environment_initialization.obj
 0001:00039211       ?__crt_transform_string@@YAIIQBDQA_WI@Z 1003a211 f i libucrt:environment_initialization.obj
 0001:00039235       ?__crt_transform_string@@YAIIQB_WQADI@Z 1003a235 f i libucrt:environment_initialization.obj
 0001:0003925d       ?detach@?$__crt_unique_heap_ptr@DU__crt_internal_free_policy@@@@QAEPADXZ 1003a25d f i libucrt:environment_initialization.obj
 0001:00039263       ?detach@?$__crt_unique_heap_ptr@_WU__crt_internal_free_policy@@@@QAEPA_WXZ 1003a263 f i libucrt:environment_initialization.obj
 0001:00039269       ?get_current_state_index@__crt_state_management@@YAIXZ 1003a269 f i libucrt:environment_initialization.obj
 0001:00039290       ?initialize@?$dual_state_global@PAPAD@__crt_state_management@@QAEXQAPAD@Z 1003a290 f i libucrt:environment_initialization.obj
 0001:000392cd       ?initialize@?$dual_state_global@PAPA_W@__crt_state_management@@QAEXQAPA_W@Z 1003a2cd f i libucrt:environment_initialization.obj
 0001:0003930a       ?is_valid@?$__crt_unique_heap_ptr@PADU__crt_internal_free_policy@@@@QBE_NXZ 1003a30a f i libucrt:environment_initialization.obj
 0001:00039314       ?is_valid@?$__crt_unique_heap_ptr@PA_WU__crt_internal_free_policy@@@@QBE_NXZ 1003a314 f i libucrt:environment_initialization.obj
 0001:0003931e       ?is_valid@?$__crt_unique_heap_ptr@_WU__crt_internal_free_policy@@@@QBE_NXZ 1003a31e f i libucrt:environment_initialization.obj
 0001:0003932e       ?value@?$dual_state_global@PAPAD@__crt_state_management@@QAEAAPAPADXZ 1003a32e f i libucrt:environment_initialization.obj
 0001:00039331       ?value@?$dual_state_global@PAPA_W@__crt_state_management@@QAEAAPAPA_WXZ 1003a331 f i libucrt:environment_initialization.obj
 0001:00039334       ___dcrt_get_or_create_narrow_environment_nolock 1003a334 f   libucrt:environment_initialization.obj
 0001:00039339       ___dcrt_get_or_create_wide_environment_nolock 1003a339 f   libucrt:environment_initialization.obj
 0001:0003933e       ___dcrt_uninitialize_environments_nolock 1003a33e f   libucrt:environment_initialization.obj
 0001:00039382       ___p__environ              1003a382 f   libucrt:environment_initialization.obj
 0001:00039388       ___p__wenviron             1003a388 f   libucrt:environment_initialization.obj
 0001:0003938e       __get_initial_narrow_environment 1003a38e f   libucrt:environment_initialization.obj
 0001:000393a7       __get_initial_wide_environment 1003a3a7 f   libucrt:environment_initialization.obj
 0001:000393c0       __initialize_narrow_environment 1003a3c0 f   libucrt:environment_initialization.obj
 0001:000393c5       __initialize_wide_environment 1003a3c5 f   libucrt:environment_initialization.obj
 0001:000393ca       ??$?BP6AXXZ@__crt_fast_encoded_nullptr_t@@QBEPAP6AXXZXZ 1003a3ca f i libucrt:onexit.obj
 0001:000393e8       ??$?RP6AXXZ@__crt_internal_free_policy@@QBEXQBQ6AXXZ@Z 1003a3e8 f i libucrt:onexit.obj
 0001:000393fe       ??$?RV<lambda_800076c951b434888f4765a74a194fcc>@@AAV<lambda_4e60a939b0d047cfe11ddc22648dfba9>@@V<lambda_6dbb1268764f43b569ce7b67e331d33a>@@@?$__crt_seh_guarded_call@H@@QAEH$$QAV<lambda_800076c951b434888f4765a74a194fcc>@@AAV<lambda_4e60a939b0d047cfe11ddc22648dfba9>@@$$QAV<lambda_6dbb1268764f43b569ce7b67e331d33a>@@@Z 1003a3fe f i libucrt:onexit.obj
 0001:00039463       ??$?RV<lambda_995298e7d72eb4c2aab26c0585b3abe5>@@AAV<lambda_275893d493268fdec8709772e3fcec0e>@@V<lambda_293819299cbf9a7022e18b56a874bb5c>@@@?$__crt_seh_guarded_call@H@@QAEH$$QAV<lambda_995298e7d72eb4c2aab26c0585b3abe5>@@AAV<lambda_275893d493268fdec8709772e3fcec0e>@@$$QAV<lambda_293819299cbf9a7022e18b56a874bb5c>@@@Z 1003a463 f i libucrt:onexit.obj
 0001:000394c8       ??$__acrt_lock_and_call@V<lambda_275893d493268fdec8709772e3fcec0e>@@@@YAHW4__acrt_lock_id@@$$QAV<lambda_275893d493268fdec8709772e3fcec0e>@@@Z 1003a4c8 f i libucrt:onexit.obj
 0001:000394fa       ??$__acrt_lock_and_call@V<lambda_4e60a939b0d047cfe11ddc22648dfba9>@@@@YAHW4__acrt_lock_id@@$$QAV<lambda_4e60a939b0d047cfe11ddc22648dfba9>@@@Z 1003a4fa f i libucrt:onexit.obj
 0001:0003952c       ??$__crt_fast_encode_pointer@P6AHXZ@@YAP6AHXZQ6AHXZ@Z 1003a52c f i libucrt:onexit.obj
 0001:000395d9       ??0?$__crt_unique_heap_ptr@P6AXXZU__crt_internal_free_policy@@@@QAE@QAP6AXXZ@Z 1003a5d9 f i libucrt:onexit.obj
 0001:000395ed       ??1?$__crt_unique_heap_ptr@P6AXXZU__crt_internal_free_policy@@@@QAE@XZ 1003a5ed f i libucrt:onexit.obj
 0001:00039928       ?detach@?$__crt_unique_heap_ptr@P6AXXZU__crt_internal_free_policy@@@@QAEPAP6AXXZXZ 1003a928 f i libucrt:onexit.obj
 0001:0003992e       ?release@?$__crt_unique_heap_ptr@P6AXXZU__crt_internal_free_policy@@@@QAEXXZ 1003a92e f i libucrt:onexit.obj
 0001:00039944       __crt_at_quick_exit        1003a944 f   libucrt:onexit.obj
 0001:0003995f       __crt_atexit               1003a95f f   libucrt:onexit.obj
 0001:0003997a       __execute_onexit_table     1003a97a f   libucrt:onexit.obj
 0001:0003999e       __initialize_onexit_table  1003a99e f   libucrt:onexit.obj
 0001:000399ea       __register_onexit_function 1003a9ea f   libucrt:onexit.obj
 0001:00039b51       ?initialize@?$dual_state_global@PAU__crt_locale_data@@@__crt_state_management@@QAEXQAU__crt_locale_data@@@Z 1003ab51 f i libucrt:initialization.obj
 0001:00039b8e       ___acrt_initialize         1003ab8e f   libucrt:initialization.obj
 0001:00039ba4       ___acrt_thread_attach      1003aba4 f   libucrt:initialization.obj
 0001:00039bb1       ___acrt_thread_detach      1003abb1 f   libucrt:initialization.obj
 0001:00039bbb       ___acrt_uninitialize       1003abbb f   libucrt:initialization.obj
 0001:00039bd1       ___acrt_uninitialize_critical 1003abd1 f   libucrt:initialization.obj
 0001:00039c02       __get_terminate            1003ac02 f   libucrt:terminate.obj
 0001:00039c18       _set_terminate             1003ac18 f   libucrt:terminate.obj
 0001:00039c40       _terminate                 1003ac40 f   libucrt:terminate.obj
 0001:00039c8b       ??$__crt_interlocked_exchange_pointer@X$$T@@YAPAXPDSAX$$T@Z 1003ac8b f i libucrt:free_base.obj
 0001:00039ca3       ___acrt_get_msvcrt_heap_handle 1003aca3 f   libucrt:free_base.obj
 0001:00039d34       __free_base                1003ad34 f   libucrt:free_base.obj
 0001:00039d7c       __malloc_base              1003ad7c f   libucrt:malloc_base.obj
 0001:00039e4d       _strcpy_s                  1003ae4d f   libucrt:strcpy_s.obj
 0001:00039ebd       __set_abort_behavior       1003aebd f   libucrt:abort.obj
 0001:00039ee6       _abort                     1003aee6 f   libucrt:abort.obj
 0001:00039f39       __calloc_base              1003af39 f   libucrt:calloc_base.obj
 0001:00039fad       ??$is_overflow_condition@K@__crt_strtox@@YA_NIK@Z 1003afad f i libucrt:atox.obj
 0001:00039fec       ??$is_overflow_condition@_K@__crt_strtox@@YA_NI_K@Z 1003afec f i libucrt:atox.obj
 0001:0003a03f       ??$make_c_string_character_source@D$$T@__crt_strtox@@YA?AV?$c_string_character_source@D@0@QBD$$T@Z 1003b03f f i libucrt:atox.obj
 0001:0003a060       ??$make_c_string_character_source@_W$$T@__crt_strtox@@YA?AV?$c_string_character_source@_W@0@QB_W$$T@Z 1003b060 f i libucrt:atox.obj
 0001:0003a081       ??$parse_integer@KV?$c_string_character_source@D@__crt_strtox@@@__crt_strtox@@YAKQAU__crt_locale_pointers@@V?$c_string_character_source@D@0@H_N@Z 1003b081 f i libucrt:atox.obj
 0001:0003a333       ??$parse_integer@KV?$c_string_character_source@_W@__crt_strtox@@@__crt_strtox@@YAKQAU__crt_locale_pointers@@V?$c_string_character_source@_W@0@H_N@Z 1003b333 f i libucrt:atox.obj
 0001:0003abd1       ??$parse_integer@_KV?$c_string_character_source@D@__crt_strtox@@@__crt_strtox@@YA_KQAU__crt_locale_pointers@@V?$c_string_character_source@D@0@H_N@Z 1003bbd1 f i libucrt:atox.obj
 0001:0003af20       ??$parse_integer@_KV?$c_string_character_source@_W@__crt_strtox@@@__crt_strtox@@YA_KQAU__crt_locale_pointers@@V?$c_string_character_source@_W@0@H_N@Z 1003bf20 f i libucrt:atox.obj
 0001:0003b692       ??$parse_integer_from_string@JD$$T@__crt_strtox@@YAJQBD$$THQAU__crt_locale_pointers@@@Z 1003c692 f i libucrt:atox.obj
 0001:0003b6ca       ??$parse_integer_from_string@J_W$$T@__crt_strtox@@YAJQB_W$$THQAU__crt_locale_pointers@@@Z 1003c6ca f i libucrt:atox.obj
 0001:0003b702       ??$parse_integer_from_string@_JD$$T@__crt_strtox@@YA_JQBD$$THQAU__crt_locale_pointers@@@Z 1003c702 f i libucrt:atox.obj
 0001:0003b73a       ??$parse_integer_from_string@_J_W$$T@__crt_strtox@@YA_JQB_W$$THQAU__crt_locale_pointers@@@Z 1003c73a f i libucrt:atox.obj
 0001:0003b772       ??0?$c_string_character_source@D@__crt_strtox@@QAE@QBDQAPBD@Z 1003c772 f i libucrt:atox.obj
 0001:0003b795       ??0?$c_string_character_source@_W@__crt_strtox@@QAE@QB_WQAPB_W@Z 1003c795 f i libucrt:atox.obj
 0001:0003b7b8       ??1?$c_string_character_source@D@__crt_strtox@@QAE@XZ 1003c7b8 f i libucrt:atox.obj
 0001:0003b7c7       ??1?$c_string_character_source@_W@__crt_strtox@@QAE@XZ 1003c7c7 f i libucrt:atox.obj
 0001:0003b7d6       ?get@?$c_string_character_source@D@__crt_strtox@@QAEDXZ 1003c7d6 f i libucrt:atox.obj
 0001:0003b7e0       ?get@?$c_string_character_source@_W@__crt_strtox@@QAE_WXZ 1003c7e0 f i libucrt:atox.obj
 0001:0003b7ed       ?is_space@__crt_strtox@@YA_NDQAU__crt_locale_pointers@@@Z 1003c7ed f i libucrt:atox.obj
 0001:0003b813       ?is_space@__crt_strtox@@YA_N_WPAU__crt_locale_pointers@@@Z 1003c813 f i libucrt:atox.obj
 0001:0003b832       ?maximum_signed_value@__crt_strtox@@YAJK@Z 1003c832 f i libucrt:atox.obj
 0001:0003b838       ?maximum_signed_value@__crt_strtox@@YA_J_K@Z 1003c838 f i libucrt:atox.obj
 0001:0003b843       ?minimum_signed_value@__crt_strtox@@YAJK@Z 1003c843 f i libucrt:atox.obj
 0001:0003b849       ?minimum_signed_value@__crt_strtox@@YA_J_K@Z 1003c849 f i libucrt:atox.obj
 0001:0003b853       ?parse_digit@__crt_strtox@@YAID@Z 1003c853 f i libucrt:atox.obj
 0001:0003b89b       ?parse_digit@__crt_strtox@@YAI_W@Z 1003c89b f i libucrt:atox.obj
 0001:0003baf8       ?restore_state@?$c_string_character_source@D@__crt_strtox@@QAE_NQBD@Z 1003caf8 f i libucrt:atox.obj
 0001:0003bb0c       ?restore_state@?$c_string_character_source@_W@__crt_strtox@@QAE_NQB_W@Z 1003cb0c f i libucrt:atox.obj
 0001:0003bb20       ?save_state@?$c_string_character_source@D@__crt_strtox@@QBEPBDXZ 1003cb20 f i libucrt:atox.obj
 0001:0003bb23       ?save_state@?$c_string_character_source@_W@__crt_strtox@@QBEPB_WXZ 1003cb23 f i libucrt:atox.obj
 0001:0003bb26       ?unget@?$c_string_character_source@D@__crt_strtox@@QAEXD@Z 1003cb26 f i libucrt:atox.obj
 0001:0003bb58       ?unget@?$c_string_character_source@_W@__crt_strtox@@QAEX_W@Z 1003cb58 f i libucrt:atox.obj
 0001:0003bb8f       ?validate@?$c_string_character_source@D@__crt_strtox@@QBE_NXZ 1003cb8f f i libucrt:atox.obj
 0001:0003bbb0       ?validate@?$c_string_character_source@_W@__crt_strtox@@QBE_NXZ 1003cbb0 f i libucrt:atox.obj
 0001:0003bbd1       ?wide_character_to_digit@__crt_strtox@@YAH_W@Z 1003cbd1 f i libucrt:atox.obj
 0001:0003bdda       ___acrt_get_locale_data_prefix 1003cdda f i libucrt:atox.obj
 0001:0003bde9       __atoi64                   1003cde9 f   libucrt:atox.obj
 0001:0003be1d       __atoi64_l                 1003ce1d f   libucrt:atox.obj
 0001:0003be52       __atoi_l                   1003ce52 f   libucrt:atox.obj
 0001:0003be87       __atol_l                   1003ce87 f   libucrt:atox.obj
 0001:0003bebc       __atoll_l                  1003cebc f   libucrt:atox.obj
 0001:0003bef1       __chvalidchk_l             1003cef1 f i libucrt:atox.obj
 0001:0003bf25       __ischartype_l             1003cf25 f i libucrt:atox.obj
 0001:0003bf64       __wtoi                     1003cf64 f   libucrt:atox.obj
 0001:0003bf98       __wtoi64                   1003cf98 f   libucrt:atox.obj
 0001:0003bfcc       __wtoi64_l                 1003cfcc f   libucrt:atox.obj
 0001:0003c001       __wtoi_l                   1003d001 f   libucrt:atox.obj
 0001:0003c036       __wtol                     1003d036 f   libucrt:atox.obj
 0001:0003c06a       __wtol_l                   1003d06a f   libucrt:atox.obj
 0001:0003c09f       __wtoll                    1003d09f f   libucrt:atox.obj
 0001:0003c0d3       __wtoll_l                  1003d0d3 f   libucrt:atox.obj
 0001:0003c108       _atoi                      1003d108 f   libucrt:atox.obj
 0001:0003c13c       _atol                      1003d13c f   libucrt:atox.obj
 0001:0003c170       _atoll                     1003d170 f   libucrt:atox.obj
 0001:0003c1a4       ??$__crt_fast_decode_pointer@P6AXPB_W00II@Z@@YAP6AXPB_W00II@ZQ6AX000II@Z@Z 1003d1a4 f i libucrt:invalid_parameter.obj
 0001:0003c1bf       ??$__crt_fast_encode_pointer@P6AXPB_W00II@Z@@YAP6AXPB_W00II@ZQ6AX000II@Z@Z 1003d1bf f i libucrt:invalid_parameter.obj
 0001:0003c1e5       ?initialize@?$dual_state_global@P6AXPB_W00II@Z@__crt_state_management@@QAEXQ6AXPB_W00II@Z@Z 1003d1e5 f i libucrt:invalid_parameter.obj
 0001:0003c222       ?value@?$dual_state_global@P6AXPB_W00II@Z@__crt_state_management@@QAEAAP6AXPB_W00II@ZXZ 1003d222 f i libucrt:invalid_parameter.obj
 0001:0003c225       ___acrt_call_reportfault   1003d225 f   libucrt:invalid_parameter.obj
 0001:0003c3ae       ___acrt_initialize_invalid_parameter_handler 1003d3ae f   libucrt:invalid_parameter.obj
 0001:0003c3c7       __get_invalid_parameter_handler 1003d3c7 f   libucrt:invalid_parameter.obj
 0001:0003c3de       __get_thread_local_invalid_parameter_handler 1003d3de f   libucrt:invalid_parameter.obj
 0001:0003c3f3       __invalid_parameter        1003d3f3 f   libucrt:invalid_parameter.obj
 0001:0003c48c       __invalid_parameter_noinfo 1003d48c f   libucrt:invalid_parameter.obj
 0001:0003c4a0       __invalid_parameter_noinfo_noreturn 1003d4a0 f   libucrt:invalid_parameter.obj
 0001:0003c4c4       __invoke_watson            1003d4c4 f   libucrt:invalid_parameter.obj
 0001:0003c503       __set_invalid_parameter_handler 1003d503 f   libucrt:invalid_parameter.obj
 0001:0003c53f       __set_thread_local_invalid_parameter_handler 1003d53f f   libucrt:invalid_parameter.obj
 0001:0003c563       ___acrt_errno_from_os_error 1003d563 f   libucrt:errno.obj
 0001:0003c5b6       ___acrt_errno_map_os_error 1003d5b6 f   libucrt:errno.obj
 0001:0003c5e1       ___doserrno                1003d5e1 f   libucrt:errno.obj
 0001:0003c5f8       __errno                    1003d5f8 f   libucrt:errno.obj
 0001:0003c60f       __get_doserrno             1003d60f f   libucrt:errno.obj
 0001:0003c63d       __get_errno                1003d63d f   libucrt:errno.obj
 0001:0003c66b       __set_doserrno             1003d66b f   libucrt:errno.obj
 0001:0003c694       __set_errno                1003d694 f   libucrt:errno.obj
 0001:0003c714       ??$?B$$A6GHPA_WKJ@Z@__crt_fast_encoded_nullptr_t@@QBEP6GHPA_WKJ@ZXZ 1003d714 f i libucrt:winapi_thunks.obj
 0001:0003c732       ??$?RV<lambda_9227be29367c048ad7fd93a717dcb1a1>@@AAV<lambda_a463b7b0560cfcaf9b17f27c6ef46564>@@V<lambda_ccea11b5727ccf69be64f5f5d9a08d9f>@@@?$__crt_seh_guarded_call@H@@QAEH$$QAV<lambda_9227be29367c048ad7fd93a717dcb1a1>@@AAV<lambda_a463b7b0560cfcaf9b17f27c6ef46564>@@$$QAV<lambda_ccea11b5727ccf69be64f5f5d9a08d9f>@@@Z 1003d732 f i libucrt:winapi_thunks.obj
 0001:0003c7d7       ??$__acrt_lock_and_call@V<lambda_a463b7b0560cfcaf9b17f27c6ef46564>@@@@YAHW4__acrt_lock_id@@$$QAV<lambda_a463b7b0560cfcaf9b17f27c6ef46564>@@@Z 1003d7d7 f i libucrt:winapi_thunks.obj
 0001:0003c809       ??$__crt_fast_decode_pointer@P6GHPA_WKJ@Z@@YAP6GHPA_WKJ@ZQ6GH0KJ@Z@Z 1003d809 f i libucrt:winapi_thunks.obj
 0001:0003c824       ??$__crt_fast_encode_pointer@P6GHPA_WKJ@Z@@YAP6GHPA_WKJ@ZQ6GH0KJ@Z@Z 1003d824 f i libucrt:winapi_thunks.obj
 0001:0003cf51       ___acrt_AreFileApisANSI@0  1003df51 f   libucrt:winapi_thunks.obj
 0001:0003cfb2       ___acrt_CompareStringEx@36 1003dfb2 f   libucrt:winapi_thunks.obj
 0001:0003d043       ___acrt_EnumSystemLocalesEx@16 1003e043 f   libucrt:winapi_thunks.obj
 0001:0003d0cb       ___acrt_FlsAlloc@4         1003e0cb f   libucrt:winapi_thunks.obj
 0001:0003d136       ___acrt_FlsFree@4          1003e136 f   libucrt:winapi_thunks.obj
 0001:0003d1a1       ___acrt_FlsGetValue@4      1003e1a1 f   libucrt:winapi_thunks.obj
 0001:0003d20c       ___acrt_FlsSetValue@8      1003e20c f   libucrt:winapi_thunks.obj
 0001:0003d27b       ___acrt_GetDateFormatEx@28 1003e27b f   libucrt:winapi_thunks.obj
 0001:0003d31d       ___acrt_GetEnabledXStateFeatures@0 1003e31d f   libucrt:winapi_thunks.obj
 0001:0003d37f       ___acrt_GetFileInformationByHandleEx@16 1003e37f f   libucrt:winapi_thunks.obj
 0001:0003d3fa       ___acrt_GetLocaleInfoEx@16 1003e3fa f   libucrt:winapi_thunks.obj
 0001:0003d47e       ___acrt_GetSystemTimePreciseAsFileTime@4 1003e47e f   libucrt:winapi_thunks.obj
 0001:0003d4e9       ___acrt_GetTimeFormatEx@24 1003e4e9 f   libucrt:winapi_thunks.obj
 0001:0003d575       ___acrt_GetUserDefaultLocaleName@8 1003e575 f   libucrt:winapi_thunks.obj
 0001:0003d5f5       ___acrt_GetXStateFeaturesMask@8 1003e5f5 f   libucrt:winapi_thunks.obj
 0001:0003d661       ___acrt_InitializeCriticalSectionEx@12 1003e661 f   libucrt:winapi_thunks.obj
 0001:0003d6db       ___acrt_IsValidLocaleName@4 1003e6db f   libucrt:winapi_thunks.obj
 0001:0003d756       ___acrt_LCIDToLocaleName@16 1003e756 f   libucrt:winapi_thunks.obj
 0001:0003d7da       ___acrt_LCMapStringEx@36   1003e7da f   libucrt:winapi_thunks.obj
 0001:0003d884       ___acrt_LocaleNameToLCID@8 1003e884 f   libucrt:winapi_thunks.obj
 0001:0003d8f7       ___acrt_LocateXStateFeature@12 1003e8f7 f   libucrt:winapi_thunks.obj
 0001:0003d94e       ___acrt_MessageBoxA@16     1003e94e f   libucrt:winapi_thunks.obj
 0001:0003d9a9       ___acrt_MessageBoxW@16     1003e9a9 f   libucrt:winapi_thunks.obj
 0001:0003da04       ___acrt_RoInitialize@4     1003ea04 f   libucrt:winapi_thunks.obj
 0001:0003da6a       ___acrt_RoUninitialize@0   1003ea6a f   libucrt:winapi_thunks.obj
 0001:0003dac5       ___acrt_RtlGenRandom@8     1003eac5 f   libucrt:winapi_thunks.obj
 0001:0003db31       ___acrt_SetThreadStackGuarantee@4 1003eb31 f   libucrt:winapi_thunks.obj
 0001:0003db97       ___acrt_can_show_message_box 1003eb97 f   libucrt:winapi_thunks.obj
 0001:0003dbb6       ___acrt_can_use_vista_locale_apis 1003ebb6 f   libucrt:winapi_thunks.obj
 0001:0003dbc5       ___acrt_can_use_xstate_apis 1003ebc5 f   libucrt:winapi_thunks.obj
 0001:0003dbd4       ___acrt_get_parent_window  1003ebd4 f   libucrt:winapi_thunks.obj
 0001:0003dc72       ___acrt_initialize_winapi_thunks 1003ec72 f   libucrt:winapi_thunks.obj
 0001:0003dca1       ___acrt_is_interactive     1003eca1 f   libucrt:winapi_thunks.obj
 0001:0003dd70       ___acrt_is_packaged_app    1003ed70 f   libucrt:winapi_thunks.obj
 0001:0003de18       ___acrt_uninitialize_winapi_thunks 1003ee18 f   libucrt:winapi_thunks.obj
 0001:0003de5b       ??0__crt_stdio_stream@@QAE@QAU__crt_stdio_stream_data@@@Z 1003ee5b f i libucrt:closeall.obj
 0001:0003de6f       __fcloseall                1003ee6f f   libucrt:closeall.obj
 0001:0003df37       ___acrt_stdio_flush_nolock 1003ef37 f   libucrt:fflush.obj
 0001:0003dfb6       __fflush_nolock            1003efb6 f   libucrt:fflush.obj
 0001:0003e00e       __flushall                 1003f00e f   libucrt:fflush.obj
 0001:0003e127       _fflush                    1003f127 f   libucrt:fflush.obj
 0001:0003e196       ?has_crt_buffer@__crt_stdio_stream@@QBE_NXZ 1003f196 f i libucrt:_freebuf.obj
 0001:0003e1a5       ___acrt_stdio_free_buffer_nolock 1003f1a5 f   libucrt:_freebuf.obj
 0001:0003e3e2       ___acrt_initialize_lowio   1003f3e2 f   libucrt:ioinit.obj
 0001:0003e44d       ___acrt_uninitialize_lowio 1003f44d f   libucrt:ioinit.obj
 0001:0003e49f       ___isascii                 1003f49f f i libucrt:_ctype.obj
 0001:0003e4b5       ___iscsym                  1003f4b5 f i libucrt:_ctype.obj
 0001:0003e4df       ___iscsymf                 1003f4df f i libucrt:_ctype.obj
 0001:0003e505       ___toascii                 1003f505 f i libucrt:_ctype.obj
 0001:0003e515       __isalnum_l                1003f515 f i libucrt:_ctype.obj
 0001:0003e55e       __isalpha_l                1003f55e f i libucrt:_ctype.obj
 0001:0003e5a7       __isblank_l                1003f5a7 f i libucrt:_ctype.obj
 0001:0003e5fa       __iscntrl_l                1003f5fa f i libucrt:_ctype.obj
 0001:0003e640       __iscsym_l                 1003f640 f i libucrt:_ctype.obj
 0001:0003e66b       __iscsymf_l                1003f66b f i libucrt:_ctype.obj
 0001:0003e696       __isdigit_l                1003f696 f i libucrt:_ctype.obj
 0001:0003e6dc       __isgraph_l                1003f6dc f i libucrt:_ctype.obj
 0001:0003e725       __islower_l                1003f725 f i libucrt:_ctype.obj
 0001:0003e76b       __isprint_l                1003f76b f i libucrt:_ctype.obj
 0001:0003e7b4       __ispunct_l                1003f7b4 f i libucrt:_ctype.obj
 0001:0003e7fa       __isspace_l                1003f7fa f i libucrt:_ctype.obj
 0001:0003e840       __isupper_l                1003f840 f i libucrt:_ctype.obj
 0001:0003e886       __isxdigit_l               1003f886 f i libucrt:_ctype.obj
 0001:0003e8cf       _isalnum                   1003f8cf f i libucrt:_ctype.obj
 0001:0003e909       _isalpha                   1003f909 f i libucrt:_ctype.obj
 0001:0003e943       _isblank                   1003f943 f i libucrt:_ctype.obj
 0001:0003e987       _iscntrl                   1003f987 f i libucrt:_ctype.obj
 0001:0003e9bf       _isdigit                   1003f9bf f i libucrt:_ctype.obj
 0001:0003e9f7       _isgraph                   1003f9f7 f i libucrt:_ctype.obj
 0001:0003ea31       _islower                   1003fa31 f i libucrt:_ctype.obj
 0001:0003ea69       _isprint                   1003fa69 f i libucrt:_ctype.obj
 0001:0003eaa3       _ispunct                   1003faa3 f i libucrt:_ctype.obj
 0001:0003eadb       _isspace                   1003fadb f i libucrt:_ctype.obj
 0001:0003eb13       _isupper                   1003fb13 f i libucrt:_ctype.obj
 0001:0003eb4b       _isxdigit                  1003fb4b f i libucrt:_ctype.obj
 0001:0003ef43       __tolower                  1003ff43 f   libucrt:tolower_toupper.obj
 0001:0003ef53       __tolower_l                1003ff53 f   libucrt:tolower_toupper.obj
 0001:0003ef73       __toupper                  1003ff73 f   libucrt:tolower_toupper.obj
 0001:0003ef83       __toupper_l                1003ff83 f   libucrt:tolower_toupper.obj
 0001:0003efa3       _tolower                   1003ffa3 f   libucrt:tolower_toupper.obj
 0001:0003efdf       _toupper                   1003ffdf f   libucrt:tolower_toupper.obj
 0001:0003f01b       ??$make_c_string_character_source@DPAPAD@__crt_strtox@@YA?AV?$c_string_character_source@D@0@QBDQAPAD@Z 1004001b f i libucrt:strtox.obj
 0001:0003f03c       ??$make_c_string_character_source@_WPAPA_W@__crt_strtox@@YA?AV?$c_string_character_source@_W@0@QB_WQAPA_W@Z 1004003c f i libucrt:strtox.obj
 0001:0003f05d       ??$parse_integer_from_string@JDPAPAD@__crt_strtox@@YAJQBDQAPADHQAU__crt_locale_pointers@@@Z 1004005d f i libucrt:strtox.obj
 0001:0003f095       ??$parse_integer_from_string@J_WPAPA_W@__crt_strtox@@YAJQB_WQAPA_WHQAU__crt_locale_pointers@@@Z 10040095 f i libucrt:strtox.obj
 0001:0003f0cd       ??$parse_integer_from_string@KDPAPAD@__crt_strtox@@YAKQBDQAPADHQAU__crt_locale_pointers@@@Z 100400cd f i libucrt:strtox.obj
 0001:0003f105       ??$parse_integer_from_string@K_WPAPA_W@__crt_strtox@@YAKQB_WQAPA_WHQAU__crt_locale_pointers@@@Z 10040105 f i libucrt:strtox.obj
 0001:0003f13d       ??$parse_integer_from_string@_JDPAPAD@__crt_strtox@@YA_JQBDQAPADHQAU__crt_locale_pointers@@@Z 1004013d f i libucrt:strtox.obj
 0001:0003f175       ??$parse_integer_from_string@_J_WPAPA_W@__crt_strtox@@YA_JQB_WQAPA_WHQAU__crt_locale_pointers@@@Z 10040175 f i libucrt:strtox.obj
 0001:0003f1ad       ??$parse_integer_from_string@_KDPAPAD@__crt_strtox@@YA_KQBDQAPADHQAU__crt_locale_pointers@@@Z 100401ad f i libucrt:strtox.obj
 0001:0003f1e5       ??$parse_integer_from_string@_K_WPAPA_W@__crt_strtox@@YA_KQB_WQAPA_WHQAU__crt_locale_pointers@@@Z 100401e5 f i libucrt:strtox.obj
 0001:0003f21d       __strtoi64                 1004021d f   libucrt:strtox.obj
 0001:0003f254       __strtoi64_l               10040254 f   libucrt:strtox.obj
 0001:0003f28c       __strtoimax_l              1004028c f   libucrt:strtox.obj
 0001:0003f2c4       __strtol_l                 100402c4 f   libucrt:strtox.obj
 0001:0003f2fc       __strtoll_l                100402fc f   libucrt:strtox.obj
 0001:0003f334       __strtoui64                10040334 f   libucrt:strtox.obj
 0001:0003f36b       __strtoui64_l              1004036b f   libucrt:strtox.obj
 0001:0003f3a3       __strtoul_l                100403a3 f   libucrt:strtox.obj
 0001:0003f3db       __strtoull_l               100403db f   libucrt:strtox.obj
 0001:0003f413       __strtoumax_l              10040413 f   libucrt:strtox.obj
 0001:0003f44b       __wcstoi64                 1004044b f   libucrt:strtox.obj
 0001:0003f482       __wcstoi64_l               10040482 f   libucrt:strtox.obj
 0001:0003f4ba       __wcstoimax_l              100404ba f   libucrt:strtox.obj
 0001:0003f4f2       __wcstol_l                 100404f2 f   libucrt:strtox.obj
 0001:0003f52a       __wcstoll_l                1004052a f   libucrt:strtox.obj
 0001:0003f562       __wcstoui64                10040562 f   libucrt:strtox.obj
 0001:0003f599       __wcstoui64_l              10040599 f   libucrt:strtox.obj
 0001:0003f5d1       __wcstoul_l                100405d1 f   libucrt:strtox.obj
 0001:0003f609       __wcstoull_l               10040609 f   libucrt:strtox.obj
 0001:0003f641       __wcstoumax_l              10040641 f   libucrt:strtox.obj
 0001:0003f679       _strtoimax                 10040679 f   libucrt:strtox.obj
 0001:0003f6b0       _strtol                    100406b0 f   libucrt:strtox.obj
 0001:0003f6e7       _strtoll                   100406e7 f   libucrt:strtox.obj
 0001:0003f71e       _strtoul                   1004071e f   libucrt:strtox.obj
 0001:0003f755       _strtoull                  10040755 f   libucrt:strtox.obj
 0001:0003f78c       _strtoumax                 1004078c f   libucrt:strtox.obj
 0001:0003f7c3       _wcstoimax                 100407c3 f   libucrt:strtox.obj
 0001:0003f7fa       _wcstol                    100407fa f   libucrt:strtox.obj
 0001:0003f831       _wcstoll                   10040831 f   libucrt:strtox.obj
 0001:0003f868       _wcstoul                   10040868 f   libucrt:strtox.obj
 0001:0003f89f       _wcstoull                  1004089f f   libucrt:strtox.obj
 0001:0003f8d6       _wcstoumax                 100408d6 f   libucrt:strtox.obj
 0001:0003f90d       __mbtowc_l                 1004090d f   libucrt:mbtowc.obj
 0001:0003fa45       _mbtowc                    10040a45 f   libucrt:mbtowc.obj
 0001:0003fa65       __wctomb_l                 10040a65 f   libucrt:wctomb.obj
 0001:0003facc       __wctomb_s_l               10040acc f   libucrt:wctomb.obj
 0001:0003fc35       _wctomb                    10040c35 f   libucrt:wctomb.obj
 0001:0003fc76       _wctomb_s                  10040c76 f   libucrt:wctomb.obj
 0001:0004038e       ??1?$__crt_simd_cleanup_guard@$00@@QAE@XZ 1004138e f i libucrt:strnlen.obj
 0001:00040392       ??1?$__crt_simd_cleanup_guard@$0A@@@QAE@XZ 10041392 f i libucrt:strnlen.obj
 0001:00040393       ?compare_equals@?$__crt_simd_traits@$00E@@SA?AT__m256i@@T2@0@Z 10041393 f i libucrt:strnlen.obj
 0001:00040398       ?compare_equals@?$__crt_simd_traits@$00G@@SA?AT__m256i@@T2@0@Z 10041398 f i libucrt:strnlen.obj
 0001:0004039d       ?compare_equals@?$__crt_simd_traits@$0A@E@@SA?AT__m128i@@T2@0@Z 1004139d f i libucrt:strnlen.obj
 0001:000403a2       ?compare_equals@?$__crt_simd_traits@$0A@G@@SA?AT__m128i@@T2@0@Z 100413a2 f i libucrt:strnlen.obj
 0001:000403a7       ?compute_byte_mask@?$__crt_simd_pack_traits@$00@@SAHT__m256i@@@Z 100413a7 f i libucrt:strnlen.obj
 0001:000403ac       ?compute_byte_mask@?$__crt_simd_pack_traits@$0A@@@SAHT__m128i@@@Z 100413ac f i libucrt:strnlen.obj
 0001:000403b1       ?get_zero_pack@?$__crt_simd_pack_traits@$00@@SA?AT__m256i@@XZ 100413b1 f i libucrt:strnlen.obj
 0001:000403b6       ?get_zero_pack@?$__crt_simd_pack_traits@$0A@@@SA?AT__m128i@@XZ 100413b6 f i libucrt:strnlen.obj
 0001:000403bb       _strnlen                   100413bb f   libucrt:strnlen.obj
 0001:0004052b       _wcsnlen                   1004152b f   libucrt:strnlen.obj
 0001:0004074f       ??$?RU__acrt_ptd@@@__crt_internal_free_policy@@QBEXQBU__acrt_ptd@@@Z 1004174f f i libucrt:per_thread_data.obj
 0001:00040765       ??$?RV<lambda_3518db117f0e7cdb002338c5d3c47b6c>@@AAV<lambda_b2ea41f6bbb362cd97d94c6828d90b61>@@V<lambda_abdedf541bb04549bc734292b4a045d4>@@@?$__crt_seh_guarded_call@X@@QAEX$$QAV<lambda_3518db117f0e7cdb002338c5d3c47b6c>@@AAV<lambda_b2ea41f6bbb362cd97d94c6828d90b61>@@$$QAV<lambda_abdedf541bb04549bc734292b4a045d4>@@@Z 10041765 f i libucrt:per_thread_data.obj
 0001:000407c9       ??$?RV<lambda_51b6e8b1eb166f2a3faf91f424b38130>@@AAV<lambda_6250bd4b2a391816dd638c3bf72b0bcb>@@V<lambda_0b5a4a3e68152e1d9b943535f5f47bed>@@@?$__crt_seh_guarded_call@X@@QAEX$$QAV<lambda_51b6e8b1eb166f2a3faf91f424b38130>@@AAV<lambda_6250bd4b2a391816dd638c3bf72b0bcb>@@$$QAV<lambda_0b5a4a3e68152e1d9b943535f5f47bed>@@@Z 100417c9 f i libucrt:per_thread_data.obj
 0001:00040842       ??$?RV<lambda_5b71d36f03204c0beab531769a5b5694>@@AAV<lambda_be2b3da3f62db62e9dad5dc70221a656>@@V<lambda_8f9ce462984622f9bf76b59e2aaaf805>@@@?$__crt_seh_guarded_call@X@@QAEX$$QAV<lambda_5b71d36f03204c0beab531769a5b5694>@@AAV<lambda_be2b3da3f62db62e9dad5dc70221a656>@@$$QAV<lambda_8f9ce462984622f9bf76b59e2aaaf805>@@@Z 10041842 f i libucrt:per_thread_data.obj
 0001:0004089f       ??$?RV<lambda_9df27f884b057bc3edfc946cb5b7cf47>@@AAV<lambda_e69574bed617af4e071282c136b37893>@@V<lambda_cc0d902bcbbeb830f749456577db4721>@@@?$__crt_seh_guarded_call@X@@QAEX$$QAV<lambda_9df27f884b057bc3edfc946cb5b7cf47>@@AAV<lambda_e69574bed617af4e071282c136b37893>@@$$QAV<lambda_cc0d902bcbbeb830f749456577db4721>@@@Z 1004189f f i libucrt:per_thread_data.obj
 0001:000408f9       ??$__acrt_lock_and_call@V<lambda_6250bd4b2a391816dd638c3bf72b0bcb>@@@@YAXW4__acrt_lock_id@@$$QAV<lambda_6250bd4b2a391816dd638c3bf72b0bcb>@@@Z 100418f9 f i libucrt:per_thread_data.obj
 0001:0004092b       ??$__acrt_lock_and_call@V<lambda_b2ea41f6bbb362cd97d94c6828d90b61>@@@@YAXW4__acrt_lock_id@@$$QAV<lambda_b2ea41f6bbb362cd97d94c6828d90b61>@@@Z 1004192b f i libucrt:per_thread_data.obj
 0001:0004095d       ??$__acrt_lock_and_call@V<lambda_be2b3da3f62db62e9dad5dc70221a656>@@@@YAXW4__acrt_lock_id@@$$QAV<lambda_be2b3da3f62db62e9dad5dc70221a656>@@@Z 1004195d f i libucrt:per_thread_data.obj
 0001:0004098f       ??$__acrt_lock_and_call@V<lambda_e69574bed617af4e071282c136b37893>@@@@YAXW4__acrt_lock_id@@$$QAV<lambda_e69574bed617af4e071282c136b37893>@@@Z 1004198f f i libucrt:per_thread_data.obj
 0001:00040ac8       ??0?$__crt_unique_heap_ptr@U__acrt_ptd@@U__crt_internal_free_policy@@@@QAE@QAU__acrt_ptd@@@Z 10041ac8 f i libucrt:per_thread_data.obj
 0001:00040adc       ??0__crt_scoped_get_last_error_reset@@QAE@XZ 10041adc f i libucrt:per_thread_data.obj
 0001:00040af1       ??1?$__crt_unique_heap_ptr@U__acrt_ptd@@U__crt_internal_free_policy@@@@QAE@XZ 10041af1 f i libucrt:per_thread_data.obj
 0001:00040b07       ??1__crt_scoped_get_last_error_reset@@QAE@XZ 10041b07 f i libucrt:per_thread_data.obj
 0001:00040b12       ??B?$__crt_unique_heap_ptr@U__acrt_ptd@@U__crt_internal_free_policy@@@@QBE_NXZ 10041b12 f i libucrt:per_thread_data.obj
 0001:00040c88       ?dangerous_get_state_array@?$dual_state_global@PAU__crt_locale_data@@@__crt_state_management@@QAEPAPAU__crt_locale_data@@XZ 10041c88 f i libucrt:per_thread_data.obj
 0001:00040d8c       ?detach@?$__crt_unique_heap_ptr@U__acrt_ptd@@U__crt_internal_free_policy@@@@QAEPAU__acrt_ptd@@XZ 10041d8c f i libucrt:per_thread_data.obj
 0001:00040d92       ?get@?$__crt_unique_heap_ptr@U__acrt_ptd@@U__crt_internal_free_policy@@@@QBEPAU__acrt_ptd@@XZ 10041d92 f i libucrt:per_thread_data.obj
 0001:00040ea1       ?is_valid@?$__crt_unique_heap_ptr@U__acrt_ptd@@U__crt_internal_free_policy@@@@QBE_NXZ 10041ea1 f i libucrt:per_thread_data.obj
 0001:00040eab       ?release@?$__crt_unique_heap_ptr@U__acrt_ptd@@U__crt_internal_free_policy@@@@QAEXXZ 10041eab f i libucrt:per_thread_data.obj
 0001:00040f37       ?value@?$dual_state_global@PAU__crt_locale_data@@@__crt_state_management@@QAEAAPAU__crt_locale_data@@XZ 10041f37 f i libucrt:per_thread_data.obj
 0001:00040f3a       ___acrt_freeptd            10041f3a f   libucrt:per_thread_data.obj
 0001:00040f71       ___acrt_getptd             10041f71 f   libucrt:per_thread_data.obj
 0001:00041016       ___acrt_getptd_noexit      10042016 f   libucrt:per_thread_data.obj
 0001:000410bc       ___acrt_initialize_ptd     100420bc f   libucrt:per_thread_data.obj
 0001:000410f3       ___acrt_uninitialize_ptd   100420f3 f   libucrt:per_thread_data.obj
 0001:00041113       ___threadhandle            10042113 f   libucrt:per_thread_data.obj
 0001:00041119       ___threadid                10042119 f   libucrt:per_thread_data.obj
 0001:0004111f       ___acrt_update_locale_info 1004211f f   libucrt:locale_update.obj
 0001:00041157       ___acrt_update_multibyte_info 10042157 f   libucrt:locale_update.obj
 0001:0004118f       ?__acrt_fp_classify@@YA?AW4__acrt_fp_class@@ABN@Z 1004218f f i libucrt:cvt.obj
 0001:00041216       ?__acrt_fp_is_negative@@YA_NABN@Z 10042216 f i libucrt:cvt.obj
 0001:00041c89       ?strrchr@@YAPADQADH@Z      10042c89 f i libucrt:cvt.obj
 0001:00041c96       ___acrt_fp_format          10042c96 f   libucrt:cvt.obj
 0001:00041e70       __fputwc_nolock            10042e70 f   libucrt:fputwc.obj
 0001:00041fdf       __fputwchar                10042fdf f   libucrt:fputwc.obj
 0001:00041fff       __putwc_nolock             10042fff f   libucrt:fputwc.obj
 0001:0004200c       _fputwc                    1004300c f   libucrt:fputwc.obj
 0001:000420a5       _putwc                     100430a5 f   libucrt:fputwc.obj
 0001:000420b2       _putwchar                  100430b2 f   libucrt:fputwc.obj
 0001:000420bf       ?lowio_handle@__crt_stdio_stream@@QBEHXZ 100430bf f i libucrt:fileno.obj
 0001:000420c5       __fileno                   100430c5 f   libucrt:fileno.obj
 0001:000420f4       __fputc_nolock             100430f4 f   libucrt:fputc.obj
 0001:00042127       __fputchar                 10043127 f   libucrt:fputc.obj
 0001:00042147       __putc_nolock              10043147 f   libucrt:fputc.obj
 0001:00042154       _fputc                     10043154 f   libucrt:fputc.obj
 0001:00042299       _putc                      10043299 f   libucrt:fputc.obj
 0001:000422a6       _putchar                   100432a6 f   libucrt:fputc.obj
 0001:000422b3       __get_printf_count_output  100432b3 f   libucrt:printf_count_output.obj
 0001:000422cd       __set_printf_count_output  100432cd f   libucrt:printf_count_output.obj
 0001:00042301       ?has_temporary_buffer@__crt_stdio_stream@@QBE_NXZ 10043301 f i libucrt:_sftbuf.obj
 0001:00042310       ___acrt_stdio_begin_temporary_buffering_nolock 10043310 f   libucrt:_sftbuf.obj
 0001:000423f2       ___acrt_stdio_end_temporary_buffering_nolock 100433f2 f   libucrt:_sftbuf.obj
 0001:0004243c       ??$?RU__crt_locale_data@@@__crt_internal_free_policy@@QBEXQBU__crt_locale_data@@@Z 1004343c f i libucrt:wsetlocale.obj
 0001:00042452       ??$?RU__crt_locale_pointers@@@__crt_internal_free_policy@@QBEXQBU__crt_locale_pointers@@@Z 10043452 f i libucrt:wsetlocale.obj
 0001:00042468       ??$?RU__crt_multibyte_data@@@__crt_internal_free_policy@@QBEXQBU__crt_multibyte_data@@@Z 10043468 f i libucrt:wsetlocale.obj
 0001:0004247e       ??$?RV<lambda_70818de7b02deff9841e8b0962a60ed9>@@AAV<lambda_2af78c5f5901b1372d98f9ab3177dfa6>@@AAV<lambda_f51fe5fd7c79a33db34fc9310f277369>@@@?$__crt_seh_guarded_call@X@@QAEX$$QAV<lambda_70818de7b02deff9841e8b0962a60ed9>@@AAV<lambda_2af78c5f5901b1372d98f9ab3177dfa6>@@AAV<lambda_f51fe5fd7c79a33db34fc9310f277369>@@@Z 1004347e f i libucrt:wsetlocale.obj
 0001:000424c7       ??$?RV<lambda_76aaead6e312921abc834cb00a638bdd>@@AAV<lambda_176e34f99554166dd2fac165c457248c>@@V<lambda_998ee1c9f4290b119b936bcd6215875a>@@@?$__crt_seh_guarded_call@X@@QAEX$$QAV<lambda_76aaead6e312921abc834cb00a638bdd>@@AAV<lambda_176e34f99554166dd2fac165c457248c>@@$$QAV<lambda_998ee1c9f4290b119b936bcd6215875a>@@@Z 100434c7 f i libucrt:wsetlocale.obj
 0001:00042523       ??$?RV<lambda_c76fdea48760d5f9368b465f31df4405>@@AAV<lambda_e378711a6f6581bf7f0efd7cdf97f5d9>@@V<lambda_e927a58b2a85c081d733e8c6192ae2d2>@@@?$__crt_seh_guarded_call@X@@QAEX$$QAV<lambda_c76fdea48760d5f9368b465f31df4405>@@AAV<lambda_e378711a6f6581bf7f0efd7cdf97f5d9>@@$$QAV<lambda_e927a58b2a85c081d733e8c6192ae2d2>@@@Z 10043523 f i libucrt:wsetlocale.obj
 0001:00042576       ??$?RV<lambda_c9469061b39d205f0f236529d4a41659>@@AAV<lambda_b7fb1a997d3ebc0cc0186c5835178808>@@V<lambda_14b92c79d699846b5cc916cd4cf280e4>@@@?$__crt_seh_guarded_call@X@@QAEX$$QAV<lambda_c9469061b39d205f0f236529d4a41659>@@AAV<lambda_b7fb1a997d3ebc0cc0186c5835178808>@@$$QAV<lambda_14b92c79d699846b5cc916cd4cf280e4>@@@Z 10043576 f i libucrt:wsetlocale.obj
 0001:000425d0       ??$__acrt_lock_and_call@V<lambda_176e34f99554166dd2fac165c457248c>@@@@YAXW4__acrt_lock_id@@$$QAV<lambda_176e34f99554166dd2fac165c457248c>@@@Z 100435d0 f i libucrt:wsetlocale.obj
 0001:00042602       ??$__acrt_lock_and_call@V<lambda_b7fb1a997d3ebc0cc0186c5835178808>@@@@YAXW4__acrt_lock_id@@$$QAV<lambda_b7fb1a997d3ebc0cc0186c5835178808>@@@Z 10043602 f i libucrt:wsetlocale.obj
 0001:00042634       ??$__acrt_lock_and_call@V<lambda_e378711a6f6581bf7f0efd7cdf97f5d9>@@@@YAXW4__acrt_lock_id@@$$QAV<lambda_e378711a6f6581bf7f0efd7cdf97f5d9>@@@Z 10043634 f i libucrt:wsetlocale.obj
 0001:00042666       ??$__crt_call_and_cleanup@V<lambda_2af78c5f5901b1372d98f9ab3177dfa6>@@V<lambda_f51fe5fd7c79a33db34fc9310f277369>@@@@YAX$$QAV<lambda_2af78c5f5901b1372d98f9ab3177dfa6>@@$$QAV<lambda_f51fe5fd7c79a33db34fc9310f277369>@@@Z 10043666 f i libucrt:wsetlocale.obj
 0001:00042689       ??$__vcrt_va_start_verify_argument_type@H@@YAXXZ 10043689 f i libucrt:wsetlocale.obj
 0001:000427ae       ??0?$__crt_unique_heap_ptr@U__crt_locale_data@@U__crt_internal_free_policy@@@@QAE@QAU__crt_locale_data@@@Z 100437ae f i libucrt:wsetlocale.obj
 0001:000427c2       ??0?$__crt_unique_heap_ptr@U__crt_locale_pointers@@U__crt_internal_free_policy@@@@QAE@QAU__crt_locale_pointers@@@Z 100437c2 f i libucrt:wsetlocale.obj
 0001:000427d6       ??0?$__crt_unique_heap_ptr@U__crt_multibyte_data@@U__crt_internal_free_policy@@@@QAE@QAU__crt_multibyte_data@@@Z 100437d6 f i libucrt:wsetlocale.obj
 0001:000427ea       ??1?$__crt_unique_heap_ptr@U__crt_locale_data@@U__crt_internal_free_policy@@@@QAE@XZ 100437ea f i libucrt:wsetlocale.obj
 0001:00042800       ??1?$__crt_unique_heap_ptr@U__crt_locale_pointers@@U__crt_internal_free_policy@@@@QAE@XZ 10043800 f i libucrt:wsetlocale.obj
 0001:00042816       ??1?$__crt_unique_heap_ptr@U__crt_multibyte_data@@U__crt_internal_free_policy@@@@QAE@XZ 10043816 f i libucrt:wsetlocale.obj
 0001:0004282c       ??B?$__crt_unique_heap_ptr@U__crt_locale_data@@U__crt_internal_free_policy@@@@QBE_NXZ 1004382c f i libucrt:wsetlocale.obj
 0001:00042836       ??B?$__crt_unique_heap_ptr@U__crt_locale_pointers@@U__crt_internal_free_policy@@@@QBE_NXZ 10043836 f i libucrt:wsetlocale.obj
 0001:00042840       ??B?$__crt_unique_heap_ptr@U__crt_multibyte_data@@U__crt_internal_free_policy@@@@QBE_NXZ 10043840 f i libucrt:wsetlocale.obj
 0001:00042a69       ?detach@?$__crt_unique_heap_ptr@U__crt_locale_data@@U__crt_internal_free_policy@@@@QAEPAU__crt_locale_data@@XZ 10043a69 f i libucrt:wsetlocale.obj
 0001:00042a6f       ?detach@?$__crt_unique_heap_ptr@U__crt_locale_pointers@@U__crt_internal_free_policy@@@@QAEPAU__crt_locale_pointers@@XZ 10043a6f f i libucrt:wsetlocale.obj
 0001:00042a75       ?detach@?$__crt_unique_heap_ptr@U__crt_multibyte_data@@U__crt_internal_free_policy@@@@QAEPAU__crt_multibyte_data@@XZ 10043a75 f i libucrt:wsetlocale.obj
 0001:00042a7b       ?get@?$__crt_unique_heap_ptr@U__crt_locale_data@@U__crt_internal_free_policy@@@@QBEPAU__crt_locale_data@@XZ 10043a7b f i libucrt:wsetlocale.obj
 0001:00042a7e       ?get@?$__crt_unique_heap_ptr@U__crt_locale_pointers@@U__crt_internal_free_policy@@@@QBEPAU__crt_locale_pointers@@XZ 10043a7e f i libucrt:wsetlocale.obj
 0001:00042a81       ?get@?$__crt_unique_heap_ptr@U__crt_multibyte_data@@U__crt_internal_free_policy@@@@QBEPAU__crt_multibyte_data@@XZ 10043a81 f i libucrt:wsetlocale.obj
 0001:00042a84       ?is_valid@?$__crt_unique_heap_ptr@U__crt_locale_data@@U__crt_internal_free_policy@@@@QBE_NXZ 10043a84 f i libucrt:wsetlocale.obj
 0001:00042a8e       ?is_valid@?$__crt_unique_heap_ptr@U__crt_locale_pointers@@U__crt_internal_free_policy@@@@QBE_NXZ 10043a8e f i libucrt:wsetlocale.obj
 0001:00042a98       ?is_valid@?$__crt_unique_heap_ptr@U__crt_multibyte_data@@U__crt_internal_free_policy@@@@QBE_NXZ 10043a98 f i libucrt:wsetlocale.obj
 0001:00042aa2       ?release@?$__crt_unique_heap_ptr@U__crt_locale_data@@U__crt_internal_free_policy@@@@QAEXXZ 10043aa2 f i libucrt:wsetlocale.obj
 0001:00042ab8       ?release@?$__crt_unique_heap_ptr@U__crt_locale_pointers@@U__crt_internal_free_policy@@@@QAEXXZ 10043ab8 f i libucrt:wsetlocale.obj
 0001:00042ace       ?release@?$__crt_unique_heap_ptr@U__crt_multibyte_data@@U__crt_internal_free_policy@@@@QAEXXZ 10043ace f i libucrt:wsetlocale.obj
 0001:00042ae4       ___acrt_copy_locale_name   10043ae4 f   libucrt:wsetlocale.obj
 0001:00042b63       ___acrt_set_locale_changed 10043b63 f   libucrt:wsetlocale.obj
 0001:00042b70       ___acrt_uninitialize_locale 10043b70 f   libucrt:wsetlocale.obj
 0001:00042bd6       ___lc_lctowcs              10043bd6 f   libucrt:wsetlocale.obj
 0001:00042c62       ___lc_wcstolc              10043c62 f   libucrt:wsetlocale.obj
 0001:00042ddc       __configthreadlocale       10043ddc f   libucrt:wsetlocale.obj
 0001:00042e90       __create_locale            10043e90 f   libucrt:wsetlocale.obj
 0001:00042f0d       __expandlocale             10043f0d f   libucrt:wsetlocale.obj
 0001:00043361       __free_locale              10044361 f   libucrt:wsetlocale.obj
 0001:00043447       __get_current_locale       10044447 f   libucrt:wsetlocale.obj
 0001:000434e0       __wcreate_locale           100444e0 f   libucrt:wsetlocale.obj
 0001:0004362b       __wcscats                  1004462b f   libucrt:wsetlocale.obj
 0001:0004367c       __wsetlocale               1004467c f   libucrt:wsetlocale.obj
 0001:000441a2       ___p___mb_cur_max          100451a2 f   libucrt:nlsdata.obj
 0001:00044299       ___acrt_report_runtime_error 10045299 f   libucrt:report_runtime_error.obj
 0001:000443ff       __query_app_type           100453ff f   libucrt:report_runtime_error.obj
 0001:00044405       __set_app_type             10045405 f   libucrt:report_runtime_error.obj
 0001:000448f1       __i64toa                   100458f1 f   libucrt:xtoa.obj
 0001:00044944       __i64toa_s                 10045944 f   libucrt:xtoa.obj
 0001:00044995       __i64tow                   10045995 f   libucrt:xtoa.obj
 0001:000449e8       __i64tow_s                 100459e8 f   libucrt:xtoa.obj
 0001:00044a39       __itoa                     10045a39 f   libucrt:xtoa.obj
 0001:00044a7d       __itoa_s                   10045a7d f   libucrt:xtoa.obj
 0001:00044abf       __itow                     10045abf f   libucrt:xtoa.obj
 0001:00044b03       __itow_s                   10045b03 f   libucrt:xtoa.obj
 0001:00044b45       __ltoa                     10045b45 f   libucrt:xtoa.obj
 0001:00044b89       __ltoa_s                   10045b89 f   libucrt:xtoa.obj
 0001:00044bcb       __ltow                     10045bcb f   libucrt:xtoa.obj
 0001:00044c0f       __ltow_s                   10045c0f f   libucrt:xtoa.obj
 0001:00044c51       __ui64toa                  10045c51 f   libucrt:xtoa.obj
 0001:00044c7b       __ui64toa_s                10045c7b f   libucrt:xtoa.obj
 0001:00044ca3       __ui64tow                  10045ca3 f   libucrt:xtoa.obj
 0001:00044ccd       __ui64tow_s                10045ccd f   libucrt:xtoa.obj
 0001:00044cf5       __ultoa                    10045cf5 f   libucrt:xtoa.obj
 0001:00044d1b       __ultoa_s                  10045d1b f   libucrt:xtoa.obj
 0001:00044d3f       __ultow                    10045d3f f   libucrt:xtoa.obj
 0001:00044d65       __ultow_s                  10045d65 f   libucrt:xtoa.obj
 0001:00044d89       __set_error_mode           10045d89 f   libucrt:set_error_mode.obj
 0001:00044e65       _wcscat_s                  10045e65 f   libucrt:wcscat_s.obj
 0001:00044f6f       _wcscpy_s                  10045f6f f   libucrt:wcscpy_s.obj
 0001:0004510f       _wcsncat_s                 1004610f f   libucrt:wcsncat_s.obj
 0001:0004519f       _strcat_s                  1004619f f   libucrt:strcat_s.obj
 0001:00045326       _strncat_s                 10046326 f   libucrt:strncat_s.obj
 0001:00045551       ??$message_box@$$TAAPBDAAPBDAAI@?$__crt_char_traits@D@@SAH$$QA$$TAAPBD1AAI@Z 10046551 f i libucrt:crtmbox.obj
 0001:00045579       ??$message_box@$$TAAPB_WAAPB_WAAI@?$__crt_char_traits@_W@@SAH$$QA$$TAAPB_W1AAI@Z 10046579 f i libucrt:crtmbox.obj
 0001:000455a1       ??$message_box@$$TABQBDABQBDK@?$__crt_char_traits@D@@SAH$$QA$$TABQBD1$$QAK@Z 100465a1 f i libucrt:crtmbox.obj
 0001:000455c9       ??$message_box@$$TABQB_WABQB_WK@?$__crt_char_traits@_W@@SAH$$QA$$TABQB_W1$$QAK@Z 100465c9 f i libucrt:crtmbox.obj
 0001:000455f1       ??$message_box@PAUHWND__@@ABQBDABQBDABI@?$__crt_char_traits@D@@SAH$$QAPAUHWND__@@ABQBD1ABI@Z 100465f1 f i libucrt:crtmbox.obj
 0001:00045619       ??$message_box@PAUHWND__@@ABQB_WABQB_WABI@?$__crt_char_traits@_W@@SAH$$QAPAUHWND__@@ABQB_W1ABI@Z 10046619 f i libucrt:crtmbox.obj
 0001:00045695       ??$output_debug_string@ABQBD@?$__crt_char_traits@D@@SAXABQBD@Z 10046695 f i libucrt:crtmbox.obj
 0001:000456ab       ??$output_debug_string@ABQB_W@?$__crt_char_traits@_W@@SAXABQB_W@Z 100466ab f i libucrt:crtmbox.obj
 0001:000456c1       ??0?$__crt_unique_handle_t@U__crt_handle_traits@@@@QAE@QAX@Z 100466c1 f i libucrt:crtmbox.obj
 0001:000456d5       ??1?$__crt_unique_handle_t@U__crt_handle_traits@@@@QAE@XZ 100466d5 f i libucrt:crtmbox.obj
 0001:000456f1       ??B?$__crt_unique_handle_t@U__crt_handle_traits@@@@QBE_NXZ 100466f1 f i libucrt:crtmbox.obj
 0001:000456fc       ?close@?$__crt_unique_handle_t@U__crt_handle_traits@@@@QAEXXZ 100466fc f i libucrt:crtmbox.obj
 0001:00045718       ?close@__crt_handle_traits@@SA_NPAX@Z 10046718 f i libucrt:crtmbox.obj
 0001:00045733       ?get@?$__crt_unique_handle_t@U__crt_handle_traits@@@@QBEPAXXZ 10046733 f i libucrt:crtmbox.obj
 0001:00045736       ?get_invalid_value@__crt_handle_traits@@SAPAXXZ 10046736 f i libucrt:crtmbox.obj
 0001:0004573a       ?is_valid@?$__crt_unique_handle_t@U__crt_handle_traits@@@@QBE_NXZ 1004673a f i libucrt:crtmbox.obj
 0001:00045745       ___acrt_show_narrow_message_box 10046745 f   libucrt:crtmbox.obj
 0001:00045752       ___acrt_show_wide_message_box 10046752 f   libucrt:crtmbox.obj
 0001:0004575f       ??$?RV<lambda_d92cfe8357b99225085016881b624cb0>@@AAV<lambda_b721fa326cdb32351d23dfa67958c160>@@V<lambda_42d75b0848218ec137fa420c8ba9fdf9>@@@?$__crt_seh_guarded_call@H@@QAEH$$QAV<lambda_d92cfe8357b99225085016881b624cb0>@@AAV<lambda_b721fa326cdb32351d23dfa67958c160>@@$$QAV<lambda_42d75b0848218ec137fa420c8ba9fdf9>@@@Z 1004675f f i libucrt:setvbuf.obj
 0001:000457c4       ??$__acrt_lock_stream_and_call@V<lambda_b721fa326cdb32351d23dfa67958c160>@@@@YAHQAU_iobuf@@$$QAV<lambda_b721fa326cdb32351d23dfa67958c160>@@@Z 100467c4 f i libucrt:setvbuf.obj
 0001:00045961       _setvbuf                   10046961 f   libucrt:setvbuf.obj
 0001:000459f4       ??$?B$$A6AXH@Z@__crt_fast_encoded_nullptr_t@@QBEP6AXH@ZXZ 100469f4 f i libucrt:signal.obj
 0001:00045a12       ??$?RV<lambda_a048d3beccc847880fc8490e18b82769>@@AAV<lambda_ec61778202f4f5fc7e7711acc23c3bca>@@V<lambda_f7496a158712204296dd6628a163878e>@@@?$__crt_seh_guarded_call@P6AXH@Z@@QAEP6AXH@Z$$QAV<lambda_a048d3beccc847880fc8490e18b82769>@@AAV<lambda_ec61778202f4f5fc7e7711acc23c3bca>@@$$QAV<lambda_f7496a158712204296dd6628a163878e>@@@Z 10046a12 f i libucrt:signal.obj
 0001:00045a82       ??$__acrt_lock_and_call@V<lambda_ec61778202f4f5fc7e7711acc23c3bca>@@@@YAP6AXH@ZW4__acrt_lock_id@@$$QAV<lambda_ec61778202f4f5fc7e7711acc23c3bca>@@@Z 10046a82 f i libucrt:signal.obj
 0001:00045ab4       ??$__crt_fast_decode_pointer@P6AXH@Z@@YAP6AXH@ZQ6AXH@Z@Z 10046ab4 f i libucrt:signal.obj
 0001:00045acf       ??$__crt_fast_encode_pointer@P6AXH@Z@@YAP6AXH@ZQ6AXH@Z@Z 10046acf f i libucrt:signal.obj
 0001:00045c79       ?initialize@?$dual_state_global@P6AXH@Z@__crt_state_management@@QAEXQ6AXH@Z@Z 10046c79 f i libucrt:signal.obj
 0001:00045d25       ?value@?$dual_state_global@P6AXH@Z@__crt_state_management@@QAEAAP6AXH@ZXZ 10046d25 f i libucrt:signal.obj
 0001:00045d28       ___acrt_get_sigabrt_handler 10046d28 f   libucrt:signal.obj
 0001:00045d44       ___acrt_initialize_signal_handlers 10046d44 f   libucrt:signal.obj
 0001:00045d8d       ___fpecode                 10046d8d f   libucrt:signal.obj
 0001:00045d98       ___pxcptinfoptrs           10046d98 f   libucrt:signal.obj
 0001:00045da3       _raise                     10046da3 f   libucrt:signal.obj
 0001:0004602d       _signal                    1004702d f   libucrt:signal.obj
 0001:0004624b       __realloc_base             1004724b f   libucrt:realloc_base.obj
 0001:000462ce       ___acrt_initialize_locks   100472ce f   libucrt:locks.obj
 0001:0004631f       ___acrt_lock               1004731f f   libucrt:locks.obj
 0001:0004633b       ___acrt_uninitialize_locks 1004733b f   libucrt:locks.obj
 0001:00046378       ___acrt_unlock             10047378 f   libucrt:locks.obj
 0001:00046394       __lock_locales             10047394 f   libucrt:locks.obj
 0001:0004639f       __unlock_locales           1004739f f   libucrt:locks.obj
 0001:000463aa       ??$?RV<lambda_123407a5e2ac06da108355a851863b7a>@@AAV<lambda_2fe9b910cf3cbf4a0ab98a02ba45b3ec>@@V<lambda_ae55bdf541ad94d75914d381c370e64d>@@@?$__crt_seh_guarded_call@H@@QAEH$$QAV<lambda_123407a5e2ac06da108355a851863b7a>@@AAV<lambda_2fe9b910cf3cbf4a0ab98a02ba45b3ec>@@$$QAV<lambda_ae55bdf541ad94d75914d381c370e64d>@@@Z 100473aa f i libucrt:close.obj
 0001:0004644c       ??$__acrt_lowio_lock_fh_and_call@V<lambda_2fe9b910cf3cbf4a0ab98a02ba45b3ec>@@@@YAHH$$QAV<lambda_2fe9b910cf3cbf4a0ab98a02ba45b3ec>@@@Z 1004744c f i libucrt:close.obj
 0001:0004659f       __close                    1004759f f   libucrt:close.obj
 0001:0004663d       __close_nolock             1004763d f   libucrt:close.obj
 0001:00046700       ??$?RU__crt_stdio_stream_data@@@__crt_internal_free_policy@@QBEXQBU__crt_stdio_stream_data@@@Z 10047700 f i libucrt:stream.obj
 0001:00046716       ??0?$__crt_unique_heap_ptr@U__crt_stdio_stream_data@@U__crt_internal_free_policy@@@@QAE@QAU__crt_stdio_stream_data@@@Z 10047716 f i libucrt:stream.obj
 0001:0004672a       ??0__crt_stdio_stream@@QAE@XZ 1004772a f i libucrt:stream.obj
 0001:00046730       ??1?$__crt_unique_heap_ptr@U__crt_stdio_stream_data@@U__crt_internal_free_policy@@@@QAE@XZ 10047730 f i libucrt:stream.obj
 0001:00046746       ?__acrt_stdio_allocate_stream@@YA?AV__crt_stdio_stream@@XZ 10047746 f   libucrt:stream.obj
 0001:000467bc       ?__acrt_stdio_free_stream@@YAXV__crt_stdio_stream@@@Z 100477bc f   libucrt:stream.obj
 0001:00046805       ?deallocate@__crt_stdio_stream@@QAEXXZ 10047805 f i libucrt:stream.obj
 0001:00046811       ?detach@?$__crt_unique_heap_ptr@U__crt_stdio_stream_data@@U__crt_internal_free_policy@@@@QAEPAU__crt_stdio_stream_data@@XZ 10047811 f i libucrt:stream.obj
 0001:0004690a       ?lock@__crt_stdio_stream@@QBEXXZ 1004790a f i libucrt:stream.obj
 0001:00046915       ?release@?$__crt_unique_heap_ptr@U__crt_stdio_stream_data@@U__crt_internal_free_policy@@@@QAEXXZ 10047915 f i libucrt:stream.obj
 0001:0004692b       ?try_allocate@__crt_stdio_stream@@QAE_NXZ 1004792b f i libucrt:stream.obj
 0001:00046954       ??$__acrt_stdio_parse_mode@D@@YA?AU__acrt_stdio_stream_mode@@QBD@Z 10047954 f i libucrt:openfile.obj
 0001:00046c12       ??$__acrt_stdio_parse_mode@_W@@YA?AU__acrt_stdio_stream_mode@@QB_W@Z 10047c12 f i libucrt:openfile.obj
 0001:00047033       ??$tcsncmp@AAPBDAAY02$$CBDI@?$__crt_char_traits@D@@SAHAAPBDAAY02$$CBD$$QAI@Z 10048033 f i libucrt:openfile.obj
 0001:00047056       ??$tcsncmp@AAPB_WAAY02$$CB_WI@?$__crt_char_traits@_W@@SAHAAPB_WAAY02$$CB_W$$QAI@Z 10048056 f i libucrt:openfile.obj
 0001:00047079       ??$tcsnicmp@AAPBDAAY04$$CBDI@?$__crt_char_traits@D@@SAHAAPBDAAY04$$CBD$$QAI@Z 10048079 f i libucrt:openfile.obj
 0001:0004709c       ??$tcsnicmp@AAPBDAAY06$$CBDI@?$__crt_char_traits@D@@SAHAAPBDAAY06$$CBD$$QAI@Z 1004809c f i libucrt:openfile.obj
 0001:000470bf       ??$tcsnicmp@AAPBDAAY07$$CBDI@?$__crt_char_traits@D@@SAHAAPBDAAY07$$CBD$$QAI@Z 100480bf f i libucrt:openfile.obj
 0001:000470e2       ??$tcsnicmp@AAPB_WAAY04$$CB_WI@?$__crt_char_traits@_W@@SAHAAPB_WAAY04$$CB_W$$QAI@Z 100480e2 f i libucrt:openfile.obj
 0001:00047105       ??$tcsnicmp@AAPB_WAAY06$$CB_WI@?$__crt_char_traits@_W@@SAHAAPB_WAAY06$$CB_W$$QAI@Z 10048105 f i libucrt:openfile.obj
 0001:00047128       ??$tcsnicmp@AAPB_WAAY07$$CB_WI@?$__crt_char_traits@_W@@SAHAAPB_WAAY07$$CB_W$$QAI@Z 10048128 f i libucrt:openfile.obj
 0001:0004714b       ??$tsopen_s@PAHABQBDABHABHH@?$__crt_char_traits@D@@SAH$$QAPAHABQBDABH2$$QAH@Z 1004814b f i libucrt:openfile.obj
 0001:0004717d       ??$tsopen_s@PAHABQB_WABHABHH@?$__crt_char_traits@_W@@SAH$$QAPAHABQB_WABH2$$QAH@Z 1004817d f i libucrt:openfile.obj
 0001:000471af       ?__acrt_stdio_parse_mode_D@@YA_NAAU__acrt_stdio_stream_mode@@@Z 100481af f i libucrt:openfile.obj
 0001:000471d0       ?__acrt_stdio_parse_mode_N@@YA_NAAU__acrt_stdio_stream_mode@@@Z 100481d0 f i libucrt:openfile.obj
 0001:000471e6       ?__acrt_stdio_parse_mode_R@@YA_NAAU__acrt_stdio_stream_mode@@AA_N@Z 100481e6 f i libucrt:openfile.obj
 0001:0004720b       ?__acrt_stdio_parse_mode_S@@YA_NAAU__acrt_stdio_stream_mode@@AA_N@Z 1004820b f i libucrt:openfile.obj
 0001:00047230       ?__acrt_stdio_parse_mode_T@@YA_NAAU__acrt_stdio_stream_mode@@@Z 10048230 f i libucrt:openfile.obj
 0001:00047256       ?__acrt_stdio_parse_mode_b@@YA_NAAU__acrt_stdio_stream_mode@@@Z 10048256 f i libucrt:openfile.obj
 0001:0004727e       ?__acrt_stdio_parse_mode_c@@YA_NAAU__acrt_stdio_stream_mode@@AA_N@Z 1004827e f i libucrt:openfile.obj
 0001:000472a8       ?__acrt_stdio_parse_mode_n@@YA_NAAU__acrt_stdio_stream_mode@@AA_N@Z 100482a8 f i libucrt:openfile.obj
 0001:000472d2       ?__acrt_stdio_parse_mode_plus@@YA_NAAU__acrt_stdio_stream_mode@@AA_N@Z 100482d2 f i libucrt:openfile.obj
 0001:00047314       ?__acrt_stdio_parse_mode_t@@YA_NAAU__acrt_stdio_stream_mode@@@Z 10048314 f i libucrt:openfile.obj
 0001:0004733c       __openfile                 1004833c f   libucrt:openfile.obj
 0001:00047349       __wopenfile                10048349 f   libucrt:openfile.obj
 0001:000479ee       __read                     100489ee f   libucrt:read.obj
 0001:00047b45       __read_nolock              10048b45 f   libucrt:read.obj
 0001:000484dd       ___acrt_stdio_refill_and_read_narrow_nolock 100494dd f   libucrt:_filbuf.obj
 0001:000484ea       ___acrt_stdio_refill_and_read_wide_nolock 100494ea f   libucrt:_filbuf.obj
 0001:00048c49       __write                    10049c49 f   libucrt:write.obj
 0001:00048d6e       __write_nolock             10049d6e f   libucrt:write.obj
 0001:000494b4       ___acrt_stdio_flush_and_write_narrow_nolock 1004a4b4 f   libucrt:_flsbuf.obj
 0001:000494c1       ___acrt_stdio_flush_and_write_wide_nolock 1004a4c1 f   libucrt:_flsbuf.obj
 0001:000494ce       ___acrt_copy_path_to_wide_string 1004a4ce f   libucrt:string_utilities.obj
 0001:000495c6       ___acrt_copy_to_char       1004a5c6 f   libucrt:string_utilities.obj
 0001:000496b1       __wremove                  1004a6b1 f   libucrt:wunlink.obj
 0001:000496e3       __wunlink                  1004a6e3 f   libucrt:wunlink.obj
 0001:00049b57       __lseek                    1004ab57 f   libucrt:lseek.obj
 0001:00049b64       __lseek_nolock             1004ab64 f   libucrt:lseek.obj
 0001:00049b71       __lseeki64                 1004ab71 f   libucrt:lseek.obj
 0001:00049b92       __lseeki64_nolock          1004ab92 f   libucrt:lseek.obj
 0001:00049bb3       __chgsign                  1004abb3 f   libucrt:ieeemisc.obj
 0001:00049bed       __chgsignf                 1004abed f   libucrt:ieeemisc.obj
 0001:00049c18       __copysign                 1004ac18 f   libucrt:ieeemisc.obj
 0001:00049c4c       __copysignf                1004ac4c f   libucrt:ieeemisc.obj
 0001:00049c71       __finite                   1004ac71 f   libucrt:ieeemisc.obj
 0001:00049c91       __fpclass                  1004ac91 f   libucrt:ieeemisc.obj
 0001:00049d5e       __isnan                    1004ad5e f   libucrt:ieeemisc.obj
 0001:00049da1       __logb                     1004ada1 f   libucrt:ieeemisc.obj
 0001:00049ea6       __nextafter                1004aea6 f   libucrt:ieeemisc.obj
 0001:00049ecc       __scalb                    1004aecc f   libucrt:ieeemisc.obj
 0001:00049eec       __add_exp                  1004aeec f   libucrt:util.obj
 0001:00049f26       __decomp                   1004af26 f   libucrt:util.obj
 0001:0004a02f       __get_exp                  1004b02f f   libucrt:util.obj
 0001:0004a04e       __set_bexp                 1004b04e f   libucrt:util.obj
 0001:0004a081       __set_exp                  1004b081 f   libucrt:util.obj
 0001:0004a0bb       __sptype                   1004b0bb f   libucrt:util.obj
 0001:0004a130       ___clrfp_sse2              1004b130 f   libucrt:fpctrl.obj
 0001:0004a159       ___ctrlfp_sse2             1004b159 f   libucrt:fpctrl.obj
 0001:0004a1a2       ___fclrf_sse2              1004b1a2 f   libucrt:fpctrl.obj
 0001:0004a1c8       ___get_fpsr_sse2           1004b1c8 f   libucrt:fpctrl.obj
 0001:0004a1ed       ___set_fpsr_sse2           1004b1ed f   libucrt:fpctrl.obj
 0001:0004a280       ___set_statfp_sse2         1004b280 f   libucrt:fpctrl.obj
 0001:0004a2a1       ___statfp_sse2             1004b2a1 f   libucrt:fpctrl.obj
 0001:0004a2bb       __clrfp                    1004b2bb f   libucrt:fpctrl.obj
 0001:0004a2d2       __ctrlfp                   1004b2d2 f   libucrt:fpctrl.obj
 0001:0004a309       __set_statfp               1004b309 f   libucrt:fpctrl.obj
 0001:0004a37a       __statfp                   1004b37a f   libucrt:fpctrl.obj
 0001:0004a390       ??$__crt_fast_decode_pointer@P6AHPAU_exception@@@Z@@YAP6AHPAU_exception@@@ZQ6AH0@Z@Z 1004b390 f i libucrt:matherr.obj
 0001:0004a3ab       ??$__crt_fast_encode_pointer@P6AHPAU_exception@@@Z@@YAP6AHPAU_exception@@@ZQ6AH0@Z@Z 1004b3ab f i libucrt:matherr.obj
 0001:0004a3d1       ?initialize@?$dual_state_global@P6AHPAU_exception@@@Z@__crt_state_management@@QAEXQ6AHPAU_exception@@@Z@Z 1004b3d1 f i libucrt:matherr.obj
 0001:0004a40e       ?value@?$dual_state_global@P6AHPAU_exception@@@Z@__crt_state_management@@QAEAAP6AHPAU_exception@@@ZXZ 1004b40e f i libucrt:matherr.obj
 0001:0004a411       ___acrt_has_user_matherr   1004b411 f   libucrt:matherr.obj
 0001:0004a430       ___acrt_initialize_user_matherr 1004b430 f   libucrt:matherr.obj
 0001:0004a449       ___acrt_invoke_user_matherr 1004b449 f   libucrt:matherr.obj
 0001:0004a4a4       ___setusermatherr          1004b4a4 f   libucrt:matherr.obj
 0001:0004aeb6       ??$find_first_file_ex@ABQADW4_FINDEX_INFO_LEVELS@@PAU_WIN32_FIND_DATAA@@W4_FINDEX_SEARCH_OPS@@$$TH@?$__crt_char_traits@D@@SAPAXABQAD$$QAW4_FINDEX_INFO_LEVELS@@$$QAPAU_WIN32_FIND_DATAA@@$$QAW4_FINDEX_SEARCH_OPS@@$$QA$$T$$QAH@Z 1004beb6 f i libucrt:argv_wildcards.obj
 0001:0004aeeb       ??$find_first_file_ex@ABQA_WW4_FINDEX_INFO_LEVELS@@PAU_WIN32_FIND_DATAW@@W4_FINDEX_SEARCH_OPS@@$$TH@?$__crt_char_traits@_W@@SAPAXABQA_W$$QAW4_FINDEX_INFO_LEVELS@@$$QAPAU_WIN32_FIND_DATAW@@$$QAW4_FINDEX_SEARCH_OPS@@$$QA$$T$$QAH@Z 1004beeb f i libucrt:argv_wildcards.obj
 0001:0004af20       ??$find_next_file@PAXPAU_WIN32_FIND_DATAA@@@?$__crt_char_traits@D@@SAH$$QAPAX$$QAPAU_WIN32_FIND_DATAA@@@Z 1004bf20 f i libucrt:argv_wildcards.obj
 0001:0004af3c       ??$find_next_file@PAXPAU_WIN32_FIND_DATAW@@@?$__crt_char_traits@_W@@SAH$$QAPAX$$QAPAU_WIN32_FIND_DATAW@@@Z 1004bf3c f i libucrt:argv_wildcards.obj
 0001:0004af58       ??$tcsncpy_s@AAPADIAAPADABI@?$__crt_char_traits@D@@SAHAAPAD$$QAI0ABI@Z 1004bf58 f i libucrt:argv_wildcards.obj
 0001:0004af83       ??$tcsncpy_s@AAPA_WIAAPA_WABI@?$__crt_char_traits@_W@@SAHAAPA_W$$QAI0ABI@Z 1004bf83 f i libucrt:argv_wildcards.obj
 0001:0004afae       ??$tcsncpy_s@PAD$$CBIABQBDABI@?$__crt_char_traits@D@@SAH$$QAPAD$$QBIABQBDABI@Z 1004bfae f i libucrt:argv_wildcards.obj
 0001:0004afd9       ??$tcsncpy_s@PADABIABQBDABI@?$__crt_char_traits@D@@SAH$$QAPADABIABQBD1@Z 1004bfd9 f i libucrt:argv_wildcards.obj
 0001:0004b004       ??$tcsncpy_s@PA_W$$CBIABQB_WABI@?$__crt_char_traits@_W@@SAH$$QAPA_W$$QBIABQB_WABI@Z 1004c004 f i libucrt:argv_wildcards.obj
 0001:0004b02f       ??$tcsncpy_s@PA_WABIABQB_WABI@?$__crt_char_traits@_W@@SAH$$QAPA_WABIABQB_W1@Z 1004c02f f i libucrt:argv_wildcards.obj
 0001:0004b05a       ??$tcspbrk@AAPADAAY02$$CBD@?$__crt_char_traits@D@@SAPADAAPADAAY02$$CBD@Z 1004c05a f i libucrt:argv_wildcards.obj
 0001:0004b075       ??$tcspbrk@AAPA_WAAY02$$CB_W@?$__crt_char_traits@_W@@SAPA_WAAPA_WAAY02$$CB_W@Z 1004c075 f i libucrt:argv_wildcards.obj
 0001:0004b090       ??0?$__crt_unique_handle_t@U__crt_findfile_traits@@@@QAE@QAX@Z 1004c090 f i libucrt:argv_wildcards.obj
 0001:0004b0a4       ??0?$argument_list@D@?A0xb0e4b824@@QAE@XZ 1004c0a4 f i libucrt:argv_wildcards.obj
 0001:0004b0b4       ??0?$argument_list@_W@?A0xb0e4b824@@QAE@XZ 1004c0b4 f i libucrt:argv_wildcards.obj
 0001:0004b0c4       ??1?$__crt_unique_handle_t@U__crt_findfile_traits@@@@QAE@XZ 1004c0c4 f i libucrt:argv_wildcards.obj
 0001:0004b0e0       ??1?$argument_list@D@?A0xb0e4b824@@QAE@XZ 1004c0e0 f i libucrt:argv_wildcards.obj
 0001:0004b10e       ??1?$argument_list@_W@?A0xb0e4b824@@QAE@XZ 1004c10e f i libucrt:argv_wildcards.obj
 0001:0004b19c       ?append@?$argument_list@D@?A0xb0e4b824@@QAEHQAD@Z 1004c19c f i libucrt:argv_wildcards.obj
 0001:0004b1de       ?append@?$argument_list@_W@?A0xb0e4b824@@QAEHQA_W@Z 1004c1de f i libucrt:argv_wildcards.obj
 0001:0004b220       ?begin@?$argument_list@D@?A0xb0e4b824@@QBEPAPADXZ 1004c220 f i libucrt:argv_wildcards.obj
 0001:0004b223       ?begin@?$argument_list@_W@?A0xb0e4b824@@QBEPAPA_WXZ 1004c223 f i libucrt:argv_wildcards.obj
 0001:0004b226       ?close@?$__crt_unique_handle_t@U__crt_findfile_traits@@@@QAEXXZ 1004c226 f i libucrt:argv_wildcards.obj
 0001:0004b242       ?close@__crt_findfile_traits@@SA_NPAX@Z 1004c242 f i libucrt:argv_wildcards.obj
 0001:0004b25d       ?end@?$argument_list@D@?A0xb0e4b824@@QBEPAPADXZ 1004c25d f i libucrt:argv_wildcards.obj
 0001:0004b261       ?end@?$argument_list@_W@?A0xb0e4b824@@QBEPAPA_WXZ 1004c261 f i libucrt:argv_wildcards.obj
 0001:0004b265       ?expand_if_necessary@?$argument_list@D@?A0xb0e4b824@@AAEHXZ 1004c265 f i libucrt:argv_wildcards.obj
 0001:0004b30d       ?expand_if_necessary@?$argument_list@_W@?A0xb0e4b824@@AAEHXZ 1004c30d f i libucrt:argv_wildcards.obj
 0001:0004b3b5       ?get@?$__crt_unique_handle_t@U__crt_findfile_traits@@@@QBEPAXXZ 1004c3b5 f i libucrt:argv_wildcards.obj
 0001:0004b3b8       ?get_invalid_value@__crt_findfile_traits@@SAPAXXZ 1004c3b8 f i libucrt:argv_wildcards.obj
 0001:0004b3d9       ?size@?$argument_list@D@?A0xb0e4b824@@QBEIXZ 1004c3d9 f i libucrt:argv_wildcards.obj
 0001:0004b3e4       ?size@?$argument_list@_W@?A0xb0e4b824@@QBEIXZ 1004c3e4 f i libucrt:argv_wildcards.obj
 0001:0004b3ef       ?strpbrk@@YAPADQADQBD@Z    1004c3ef f i libucrt:argv_wildcards.obj
 0001:0004b3fc       ?wcspbrk@@YAPA_WPA_WPB_W@Z 1004c3fc f i libucrt:argv_wildcards.obj
 0001:0004b409       ___acrt_expand_narrow_argv_wildcards 1004c409 f   libucrt:argv_wildcards.obj
 0001:0004b416       ___acrt_expand_wide_argv_wildcards 1004c416 f   libucrt:argv_wildcards.obj
 0001:0004b423       ??$?RV<lambda_978dc153c237d78434369da87b74ff60>@@AAV<lambda_ad1ced32f4ac17aa236e5ef05d6b3b7c>@@V<lambda_4a8533e2866a575feecb8298ce776b0d>@@@?$__crt_seh_guarded_call@X@@QAEX$$QAV<lambda_978dc153c237d78434369da87b74ff60>@@AAV<lambda_ad1ced32f4ac17aa236e5ef05d6b3b7c>@@$$QAV<lambda_4a8533e2866a575feecb8298ce776b0d>@@@Z 1004c423 f i libucrt:mbctype.obj
 0001:0004b476       ??$__acrt_lock_and_call@V<lambda_ad1ced32f4ac17aa236e5ef05d6b3b7c>@@@@YAXW4__acrt_lock_id@@$$QAV<lambda_ad1ced32f4ac17aa236e5ef05d6b3b7c>@@@Z 1004c476 f i libucrt:mbctype.obj
 0001:0004ba87       ___acrt_initialize_multibyte 1004ca87 f   libucrt:mbctype.obj
 0001:0004baac       ___acrt_update_thread_multibyte_data 1004caac f   libucrt:mbctype.obj
 0001:0004bb76       ___p__mbcasemap            1004cb76 f   libucrt:mbctype.obj
 0001:0004bb7c       ___p__mbctype              1004cb7c f   libucrt:mbctype.obj
 0001:0004bb82       __getmbcp                  1004cb82 f   libucrt:mbctype.obj
 0001:0004bbc5       __setmbcp                  1004cbc5 f   libucrt:mbctype.obj
 0001:0004bbdc       __setmbcp_nolock           1004cbdc f   libucrt:mbctype.obj
 0001:0004bf59       __ismbbalnum               1004cf59 f   libucrt:ismbbyte.obj
 0001:0004bf7a       __ismbbalnum_l             1004cf7a f   libucrt:ismbbyte.obj
 0001:0004bf9d       __ismbbalpha               1004cf9d f   libucrt:ismbbyte.obj
 0001:0004bfbe       __ismbbalpha_l             1004cfbe f   libucrt:ismbbyte.obj
 0001:0004bfe1       __ismbbblank               1004cfe1 f   libucrt:ismbbyte.obj
 0001:0004c00c       __ismbbblank_l             1004d00c f   libucrt:ismbbyte.obj
 0001:0004c039       __ismbbgraph               1004d039 f   libucrt:ismbbyte.obj
 0001:0004c05a       __ismbbgraph_l             1004d05a f   libucrt:ismbbyte.obj
 0001:0004c07d       __ismbbkalnum              1004d07d f   libucrt:ismbbyte.obj
 0001:0004c09b       __ismbbkalnum_l            1004d09b f   libucrt:ismbbyte.obj
 0001:0004c0ba       __ismbbkana                1004d0ba f   libucrt:ismbbyte.obj
 0001:0004c0d1       __ismbbkana_l              1004d0d1 f   libucrt:ismbbyte.obj
 0001:0004c136       __ismbbkprint              1004d136 f   libucrt:ismbbyte.obj
 0001:0004c154       __ismbbkprint_l            1004d154 f   libucrt:ismbbyte.obj
 0001:0004c173       __ismbbkpunct              1004d173 f   libucrt:ismbbyte.obj
 0001:0004c191       __ismbbkpunct_l            1004d191 f   libucrt:ismbbyte.obj
 0001:0004c1b0       __ismbblead                1004d1b0 f   libucrt:ismbbyte.obj
 0001:0004c1ce       __ismbblead_l              1004d1ce f   libucrt:ismbbyte.obj
 0001:0004c1ed       __ismbbprint               1004d1ed f   libucrt:ismbbyte.obj
 0001:0004c20e       __ismbbprint_l             1004d20e f   libucrt:ismbbyte.obj
 0001:0004c231       __ismbbpunct               1004d231 f   libucrt:ismbbyte.obj
 0001:0004c24f       __ismbbpunct_l             1004d24f f   libucrt:ismbbyte.obj
 0001:0004c26e       __ismbbtrail               1004d26e f   libucrt:ismbbyte.obj
 0001:0004c28c       __ismbbtrail_l             1004d28c f   libucrt:ismbbyte.obj
 0001:0004c2ab       ___acrt_initialize_command_line 1004d2ab f   libucrt:argv_data.obj
 0001:0004c2ca       ___acrt_uninitialize_command_line 1004d2ca f   libucrt:argv_data.obj
 0001:0004c2cd       ___p___argc                1004d2cd f   libucrt:argv_data.obj
 0001:0004c2d3       ___p___argv                1004d2d3 f   libucrt:argv_data.obj
 0001:0004c2d9       ___p___wargv               1004d2d9 f   libucrt:argv_data.obj
 0001:0004c2df       ___p__acmdln               1004d2df f   libucrt:argv_data.obj
 0001:0004c2e5       ___p__pgmptr               1004d2e5 f   libucrt:argv_data.obj
 0001:0004c2eb       ___p__wcmdln               1004d2eb f   libucrt:argv_data.obj
 0001:0004c2f1       ___p__wpgmptr              1004d2f1 f   libucrt:argv_data.obj
 0001:0004c2f7       __get_pgmptr               1004d2f7 f   libucrt:argv_data.obj
 0001:0004c334       __get_wpgmptr              1004d334 f   libucrt:argv_data.obj
 0001:0004c371       ??0?$__crt_unique_handle_t@Uenvironment_strings_traits@?A0x588e5281@@@@QAE@QA_W@Z 1004d371 f i libucrt:get_environment_from_os.obj
 0001:0004c385       ??1?$__crt_unique_handle_t@Uenvironment_strings_traits@?A0x588e5281@@@@QAE@XZ 1004d385 f i libucrt:get_environment_from_os.obj
 0001:0004c3a1       ??B?$__crt_unique_handle_t@Uenvironment_strings_traits@?A0x588e5281@@@@QBE_NXZ 1004d3a1 f i libucrt:get_environment_from_os.obj
 0001:0004c3ab       ?close@?$__crt_unique_handle_t@Uenvironment_strings_traits@?A0x588e5281@@@@QAEXXZ 1004d3ab f i libucrt:get_environment_from_os.obj
 0001:0004c3c7       ?close@environment_strings_traits@?A0x588e5281@@SA_NPA_W@Z 1004d3c7 f i libucrt:get_environment_from_os.obj
 0001:0004c421       ?get@?$__crt_unique_handle_t@Uenvironment_strings_traits@?A0x588e5281@@@@QBEPA_WXZ 1004d421 f i libucrt:get_environment_from_os.obj
 0001:0004c424       ?get_invalid_value@environment_strings_traits@?A0x588e5281@@SAPA_WXZ 1004d424 f i libucrt:get_environment_from_os.obj
 0001:0004c427       ?is_valid@?$__crt_unique_handle_t@Uenvironment_strings_traits@?A0x588e5281@@@@QBE_NXZ 1004d427 f i libucrt:get_environment_from_os.obj
 0001:0004c431       ___dcrt_get_narrow_environment_from_os 1004d431 f   libucrt:get_environment_from_os.obj
 0001:0004c4d4       ___dcrt_get_wide_environment_from_os 1004d4d4 f   libucrt:get_environment_from_os.obj
 0001:0004cd6c       ??$get_or_create_environment_nolock@$$$V@?$__crt_char_traits@D@@SAPAPADXZ 1004dd6c f i libucrt:setenv.obj
 0001:0004cd71       ??$get_or_create_environment_nolock@$$$V@?$__crt_char_traits@_W@@SAPAPA_WXZ 1004dd71 f i libucrt:setenv.obj
 0001:0004cd76       ??$set_environment_variable@ABQADQAD@?$__crt_char_traits@D@@SAHABQAD$$QBQAD@Z 1004dd76 f i libucrt:setenv.obj
 0001:0004cd92       ??$set_environment_variable@ABQA_WQA_W@?$__crt_char_traits@_W@@SAHABQA_W$$QBQA_W@Z 1004dd92 f i libucrt:setenv.obj
 0001:0004cdae       ??$tcschr@ABQADD@?$__crt_char_traits@D@@SAPADABQAD$$QAD@Z 1004ddae f i libucrt:setenv.obj
 0001:0004cdce       ??$tcschr@ABQA_WD@?$__crt_char_traits@_W@@SAPA_WABQA_W$$QAD@Z 1004ddce f i libucrt:setenv.obj
 0001:0004cdf3       ??$tcscpy_s@AAPADABIAAPAD@?$__crt_char_traits@D@@SAHAAPADABI0@Z 1004ddf3 f i libucrt:setenv.obj
 0001:0004ce18       ??$tcscpy_s@AAPA_WABIAAPA_W@?$__crt_char_traits@_W@@SAHAAPA_WABI0@Z 1004de18 f i libucrt:setenv.obj
 0001:0004ce3d       ??$tcscpy_s@ABQADABIABQAD@?$__crt_char_traits@D@@SAHABQADABI0@Z 1004de3d f i libucrt:setenv.obj
 0001:0004ce62       ??$tcscpy_s@ABQA_WABIABQA_W@?$__crt_char_traits@_W@@SAHABQA_WABI0@Z 1004de62 f i libucrt:setenv.obj
 0001:0004ce87       ??$tcsnicoll@ABQBDAAPADABI@?$__crt_char_traits@D@@SAHABQBDAAPADABI@Z 1004de87 f i libucrt:setenv.obj
 0001:0004ceac       ??$tcsnicoll@ABQB_WAAPA_WABI@?$__crt_char_traits@_W@@SAHABQB_WAAPA_WABI@Z 1004deac f i libucrt:setenv.obj
 0001:0004cef5       ?strchr@@YAPADQADH@Z       1004def5 f i libucrt:setenv.obj
 0001:0004cf02       ?wcschr@@YAPA_WPA_W_W@Z    1004df02 f i libucrt:setenv.obj
 0001:0004cf0f       ___dcrt_set_variable_in_narrow_environment_nolock 1004df0f f   libucrt:setenv.obj
 0001:0004cf1c       ___dcrt_set_variable_in_wide_environment_nolock 1004df1c f   libucrt:setenv.obj
 0001:0004cf29       __recalloc                 1004df29 f   libucrt:recalloc.obj
 0001:0004cf36       __recalloc_base            1004df36 f   libucrt:recalloc.obj
 0001:0004cfbe       ___acrt_getheap            1004dfbe f   libucrt:heap_handle.obj
 0001:0004cfc4       ___acrt_initialize_heap    1004dfc4 f   libucrt:heap_handle.obj
 0001:0004cfd9       ___acrt_uninitialize_heap  1004dfd9 f   libucrt:heap_handle.obj
 0001:0004cfe5       __get_heap_handle          1004dfe5 f   libucrt:heap_handle.obj
 0001:0004cfeb       ___acrt_execute_initializers 1004dfeb f   libucrt:shared_initialization.obj
 0001:0004d08e       ___acrt_execute_uninitializers 1004e08e f   libucrt:shared_initialization.obj
 0001:0004d0ee       ??$?B$$A6AHI@Z@__crt_fast_encoded_nullptr_t@@QBEP6AHI@ZXZ 1004e0ee f i libucrt:new_handler.obj
 0001:0004d10c       ??$__crt_fast_decode_pointer@P6AHI@Z@@YAP6AHI@ZQ6AHI@Z@Z 1004e10c f i libucrt:new_handler.obj
 0001:0004d127       ??$__crt_fast_encode_pointer@P6AHI@Z@@YAP6AHI@ZQ6AHI@Z@Z 1004e127 f i libucrt:new_handler.obj
 0001:0004d14d       ?_set_new_handler@@YAP6AHI@ZH@Z 1004e14d f   libucrt:new_handler.obj
 0001:0004d173       ?initialize@?$dual_state_global@P6AHI@Z@__crt_state_management@@QAEXQ6AHI@Z@Z 1004e173 f i libucrt:new_handler.obj
 0001:0004d1b0       ?value@?$dual_state_global@P6AHI@Z@__crt_state_management@@QAEAAP6AHI@ZXZ 1004e1b0 f i libucrt:new_handler.obj
 0001:0004d1b3       ___acrt_initialize_new_handler 1004e1b3 f   libucrt:new_handler.obj
 0001:0004d1cc       __callnewh                 1004e1cc f   libucrt:new_handler.obj
 0001:0004d221       __query_new_handler        1004e221 f   libucrt:new_handler.obj
 0001:0004d287       __set_new_handler          1004e287 f   libucrt:new_handler.obj
 0001:0004d2ff       ?value@?$dual_state_global@J@__crt_state_management@@QAEAAJXZ 1004e2ff f i libucrt:new_mode.obj
 0001:0004d302       __query_new_mode           1004e302 f   libucrt:new_mode.obj
 0001:0004d308       __set_new_mode             1004e308 f   libucrt:new_mode.obj
 0001:0004d342       ___pctype_func             1004e342 f   libucrt:ctype.obj
 0001:0004d371       ___pwctype_func            1004e371 f   libucrt:ctype.obj
 0001:0004d377       __iswctype_l               1004e377 f   libucrt:iswctype.obj
 0001:0004d390       _iswctype                  1004e390 f   libucrt:iswctype.obj
 0001:0004d406       __isctype                  1004e406 f   libucrt:isctype.obj
 0001:0004d443       __isctype_l                1004e443 f   libucrt:isctype.obj
 0001:0004d70a       ___acrt_DownlevelLCIDToLocaleName 1004e70a f   libucrt:lcidtoname_downlevel.obj
 0001:0004d7de       ___acrt_DownlevelLocaleNameToLCID 1004e7de f   libucrt:lcidtoname_downlevel.obj
 0001:0004d815       ??$?RV<lambda_61cee617f5178ae960314fd4d05640a0>@@AAV<lambda_6978c1fb23f02e42e1d9e99668cc68aa>@@V<lambda_9cd88cf8ad10232537feb2133f08c833>@@@?$__crt_seh_guarded_call@H@@QAEH$$QAV<lambda_61cee617f5178ae960314fd4d05640a0>@@AAV<lambda_6978c1fb23f02e42e1d9e99668cc68aa>@@$$QAV<lambda_9cd88cf8ad10232537feb2133f08c833>@@@Z 1004e815 f i libucrt:commit.obj
 0001:0004d8d3       ??$__acrt_lowio_lock_fh_and_call@V<lambda_6978c1fb23f02e42e1d9e99668cc68aa>@@@@YAHH$$QAV<lambda_6978c1fb23f02e42e1d9e99668cc68aa>@@@Z 1004e8d3 f i libucrt:commit.obj
 0001:0004d9c5       __commit                   1004e9c5 f   libucrt:commit.obj
 0001:0004da4f       ??$?RU__crt_lowio_handle_data@@@__crt_internal_free_policy@@QBEXQBU__crt_lowio_handle_data@@@Z 1004ea4f f i libucrt:osfinfo.obj
 0001:0004da65       ??0?$__crt_unique_heap_ptr@U__crt_lowio_handle_data@@U__crt_internal_free_policy@@@@QAE@QAU__crt_lowio_handle_data@@@Z 1004ea65 f i libucrt:osfinfo.obj
 0001:0004da79       ??1?$__crt_unique_heap_ptr@U__crt_lowio_handle_data@@U__crt_internal_free_policy@@@@QAE@XZ 1004ea79 f i libucrt:osfinfo.obj
 0001:0004da8f       ??B?$__crt_unique_heap_ptr@U__crt_lowio_handle_data@@U__crt_internal_free_policy@@@@QBE_NXZ 1004ea8f f i libucrt:osfinfo.obj
 0001:0004da99       ?detach@?$__crt_unique_heap_ptr@U__crt_lowio_handle_data@@U__crt_internal_free_policy@@@@QAEPAU__crt_lowio_handle_data@@XZ 1004ea99 f i libucrt:osfinfo.obj
 0001:0004da9f       ?get@?$__crt_unique_heap_ptr@U__crt_lowio_handle_data@@U__crt_internal_free_policy@@@@QBEPAU__crt_lowio_handle_data@@XZ 1004ea9f f i libucrt:osfinfo.obj
 0001:0004daa2       ?is_valid@?$__crt_unique_heap_ptr@U__crt_lowio_handle_data@@U__crt_internal_free_policy@@@@QBE_NXZ 1004eaa2 f i libucrt:osfinfo.obj
 0001:0004daac       ?release@?$__crt_unique_heap_ptr@U__crt_lowio_handle_data@@U__crt_internal_free_policy@@@@QAEXXZ 1004eaac f i libucrt:osfinfo.obj
 0001:0004dac2       ___acrt_lowio_create_handle_array 1004eac2 f   libucrt:osfinfo.obj
 0001:0004db5a       ___acrt_lowio_destroy_handle_array 1004eb5a f   libucrt:osfinfo.obj
 0001:0004db9c       ___acrt_lowio_ensure_fh_exists 1004eb9c f   libucrt:osfinfo.obj
 0001:0004dc5a       ___acrt_lowio_lock_fh      1004ec5a f   libucrt:osfinfo.obj
 0001:0004dc85       ___acrt_lowio_set_os_handle 1004ec85 f   libucrt:osfinfo.obj
 0001:0004dd3e       ___acrt_lowio_unlock_fh    1004ed3e f   libucrt:osfinfo.obj
 0001:0004dd69       __alloc_osfhnd             1004ed69 f   libucrt:osfinfo.obj
 0001:0004debf       __free_osfhnd              1004eebf f   libucrt:osfinfo.obj
 0001:0004df74       __get_osfhandle            1004ef74 f   libucrt:osfinfo.obj
 0001:0004dff8       __open_osfhandle           1004eff8 f   libucrt:osfinfo.obj
 0001:0004e149       ___iswcsym                 1004f149 f i libucrt:_wctype.obj
 0001:0004e178       ___iswcsymf                1004f178 f i libucrt:_wctype.obj
 0001:0004e1a7       __isleadbyte_l             1004f1a7 f i libucrt:_wctype.obj
 0001:0004e1ee       __iswalnum_l               1004f1ee f i libucrt:_wctype.obj
 0001:0004e209       __iswalpha_l               1004f209 f i libucrt:_wctype.obj
 0001:0004e224       __iswblank_l               1004f224 f i libucrt:_wctype.obj
 0001:0004e248       __iswcntrl_l               1004f248 f i libucrt:_wctype.obj
 0001:0004e25f       __iswcsym_l                1004f25f f i libucrt:_wctype.obj
 0001:0004e28e       __iswcsymf_l               1004f28e f i libucrt:_wctype.obj
 0001:0004e2bd       __iswdigit_l               1004f2bd f i libucrt:_wctype.obj
 0001:0004e2d4       __iswgraph_l               1004f2d4 f i libucrt:_wctype.obj
 0001:0004e2ef       __iswlower_l               1004f2ef f i libucrt:_wctype.obj
 0001:0004e306       __iswprint_l               1004f306 f i libucrt:_wctype.obj
 0001:0004e321       __iswpunct_l               1004f321 f i libucrt:_wctype.obj
 0001:0004e338       __iswspace_l               1004f338 f i libucrt:_wctype.obj
 0001:0004e34f       __iswupper_l               1004f34f f i libucrt:_wctype.obj
 0001:0004e366       __iswxdigit_l              1004f366 f i libucrt:_wctype.obj
 0001:0004e381       _isleadbyte                1004f381 f i libucrt:_wctype.obj
 0001:0004e398       _iswalnum                  1004f398 f i libucrt:_wctype.obj
 0001:0004e3b3       _iswalpha                  1004f3b3 f i libucrt:_wctype.obj
 0001:0004e3ce       _iswascii                  1004f3ce f i libucrt:_wctype.obj
 0001:0004e3e7       _iswblank                  1004f3e7 f i libucrt:_wctype.obj
 0001:0004e40b       _iswcntrl                  1004f40b f i libucrt:_wctype.obj
 0001:0004e422       _iswdigit                  1004f422 f i libucrt:_wctype.obj
 0001:0004e439       _iswgraph                  1004f439 f i libucrt:_wctype.obj
 0001:0004e454       _iswlower                  1004f454 f i libucrt:_wctype.obj
 0001:0004e46b       _iswprint                  1004f46b f i libucrt:_wctype.obj
 0001:0004e486       _iswpunct                  1004f486 f i libucrt:_wctype.obj
 0001:0004e49d       _iswspace                  1004f49d f i libucrt:_wctype.obj
 0001:0004e4b4       _iswupper                  1004f4b4 f i libucrt:_wctype.obj
 0001:0004e4cb       _iswxdigit                 1004f4cb f i libucrt:_wctype.obj
 0001:0004e4e6       ??0?$__crt_scoped_stack_ptr@_W@@QAE@U?$__crt_scoped_stack_ptr_tag@_W@@@Z 1004f4e6 f i libucrt:lcmapstringa.obj
 0001:0004e4fa       ??0?$__crt_scoped_stack_ptr_tag@_W@@QAE@QA_W@Z 1004f4fa f i libucrt:lcmapstringa.obj
 0001:0004e50e       ??1?$__crt_scoped_stack_ptr@_W@@QAE@XZ 1004f50e f i libucrt:lcmapstringa.obj
 0001:0004e519       ??B?$__crt_scoped_stack_ptr@_W@@QBE_NXZ 1004f519 f i libucrt:lcmapstringa.obj
 0001:0004e7c7       ?get@?$__crt_scoped_stack_ptr@_W@@QBEPA_WXZ 1004f7c7 f i libucrt:lcmapstringa.obj
 0001:0004e7ca       __MallocaComputeSize       1004f7ca f i libucrt:lcmapstringa.obj
 0001:0004e7e1       __MarkAllocaS              1004f7e1 f i libucrt:lcmapstringa.obj
 0001:0004e7fc       ___acrt_LCMapStringA       1004f7fc f   libucrt:lcmapstringa.obj
 0001:0004e859       __freea_crt                1004f859 f i libucrt:lcmapstringa.obj
 0001:0004e881       ??$?RG@__crt_internal_free_policy@@QBEXQBG@Z 1004f881 f i libucrt:initctype.obj
 0001:0004e897       ??$?RJ@__crt_internal_free_policy@@QBEXQBJ@Z 1004f897 f i libucrt:initctype.obj
 0001:0004e8ad       ??0?$__crt_unique_heap_ptr@GU__crt_internal_free_policy@@@@QAE@QAG@Z 1004f8ad f i libucrt:initctype.obj
 0001:0004e8c1       ??0?$__crt_unique_heap_ptr@JU__crt_internal_free_policy@@@@QAE@QAJ@Z 1004f8c1 f i libucrt:initctype.obj
 0001:0004e8d5       ??1?$__crt_unique_heap_ptr@GU__crt_internal_free_policy@@@@QAE@XZ 1004f8d5 f i libucrt:initctype.obj
 0001:0004e8eb       ??1?$__crt_unique_heap_ptr@JU__crt_internal_free_policy@@@@QAE@XZ 1004f8eb f i libucrt:initctype.obj
 0001:0004e901       ?detach@?$__crt_unique_heap_ptr@GU__crt_internal_free_policy@@@@QAEPAGXZ 1004f901 f i libucrt:initctype.obj
 0001:0004e907       ?detach@?$__crt_unique_heap_ptr@JU__crt_internal_free_policy@@@@QAEPAJXZ 1004f907 f i libucrt:initctype.obj
 0001:0004e90d       ?release@?$__crt_unique_heap_ptr@GU__crt_internal_free_policy@@@@QAEXXZ 1004f90d f i libucrt:initctype.obj
 0001:0004e923       ?release@?$__crt_unique_heap_ptr@JU__crt_internal_free_policy@@@@QAEXXZ 1004f923 f i libucrt:initctype.obj
 0001:0004e939       ____lc_codepage_func       1004f939 f   libucrt:initctype.obj
 0001:0004e969       ____lc_collate_cp_func     1004f969 f   libucrt:initctype.obj
 0001:0004e999       ____lc_locale_name_func    1004f999 f   libucrt:initctype.obj
 0001:0004e9cc       ____mb_cur_max_func        1004f9cc f   libucrt:initctype.obj
 0001:0004e9fc       ____mb_cur_max_l_func      1004f9fc f   libucrt:initctype.obj
 0001:0004ea1b       ___acrt_locale_initialize_ctype 1004fa1b f   libucrt:initctype.obj
 0001:0004eea0       ___acrt_add_locale_ref     1004fea0 f   libucrt:locale_refcounting.obj
 0001:0004ef3c       ___acrt_free_locale        1004ff3c f   libucrt:locale_refcounting.obj
 0001:0004f0d8       ___acrt_locale_add_lc_time_reference 100500d8 f   libucrt:locale_refcounting.obj
 0001:0004f10b       ___acrt_locale_free_lc_time_if_unreferenced 1005010b f   libucrt:locale_refcounting.obj
 0001:0004f147       ___acrt_locale_release_lc_time_reference 10050147 f   libucrt:locale_refcounting.obj
 0001:0004f17a       ___acrt_release_locale_ref 1005017a f   libucrt:locale_refcounting.obj
 0001:0004f21b       ___acrt_update_thread_locale_data 1005021b f   libucrt:locale_refcounting.obj
 0001:0004f2af       __updatetlocinfoEx_nolock  100502af f   libucrt:locale_refcounting.obj
 0001:0004f313       ___acrt_fp_strflt_to_string 10050313 f   libucrt:_fptostr.obj
 0001:00050b40       ??0big_integer@__crt_strtox@@QAE@ABU01@@Z 10051b40 f i libucrt:cfout.obj
 0001:00050b80       ??0big_integer@__crt_strtox@@QAE@XZ 10051b80 f i libucrt:cfout.obj
 0001:00050b8b       ??0scoped_fp_state_reset@?A0x48fbfdd4@@QAE@XZ 10051b8b f i libucrt:cfout.obj
 0001:00050bbf       ??1scoped_fp_state_reset@?A0x48fbfdd4@@QAE@XZ 10051bbf f i libucrt:cfout.obj
 0001:00050bd0       ??4big_integer@__crt_strtox@@QAEAAU01@ABU01@@Z 10051bd0 f i libucrt:cfout.obj
 0001:00050c10       ??8__crt_strtox@@YA_NABUbig_integer@0@0@Z 10051c10 f i libucrt:cfout.obj
 0001:00050c60       ??9__crt_strtox@@YA_NABUbig_integer@0@0@Z 10051c60 f i libucrt:cfout.obj
 0001:00050cc0       ?add_carry@__crt_strtox@@YAIAAIII@Z 10051cc0 f i libucrt:cfout.obj
 0001:00050cf0       ?add_multiply_carry@__crt_strtox@@YAIAAIIII@Z 10051cf0 f i libucrt:cfout.obj
 0001:00050d20       ?bit_scan_reverse@__crt_strtox@@YAII@Z 10051d20 f i libucrt:cfout.obj
 0001:00050d50       ?count_sequential_high_zeroes@__crt_strtox@@YAII@Z 10051d50 f i libucrt:cfout.obj
 0001:00050d80       ?divide@__crt_strtox@@YA_KAAUbig_integer@1@ABU21@@Z 10051d80 f i libucrt:cfout.obj
 0001:00051360       ?is_zero@__crt_strtox@@YA_NABUbig_integer@1@@Z 10052360 f i libucrt:cfout.obj
 0001:00051380       ?make_big_integer@__crt_strtox@@YA?AUbig_integer@1@_K@Z 10052380 f i libucrt:cfout.obj
 0001:000513b0       ?make_big_integer_power_of_two@__crt_strtox@@YA?AUbig_integer@1@I@Z 100523b0 f i libucrt:cfout.obj
 0001:00051410       ?multiply@__crt_strtox@@YA_NAAUbig_integer@1@ABU21@@Z 10052410 f i libucrt:cfout.obj
 0001:000518c0       ?multiply@__crt_strtox@@YA_NAAUbig_integer@1@I@Z 100528c0 f i libucrt:cfout.obj
 0001:000519c0       ?multiply_64_32@__crt_strtox@@YA_K_KI@Z 100529c0 f i libucrt:cfout.obj
 0001:000519e0       ?multiply_by_power_of_ten@__crt_strtox@@YA_NAAUbig_integer@1@I@Z 100529e0 f i libucrt:cfout.obj
 0001:000520e0       ?multiply_core@__crt_strtox@@YAIQAIII@Z 100530e0 f i libucrt:cfout.obj
 0001:00052130       ?shift_left@__crt_strtox@@YA_NAAUbig_integer@1@I@Z 10053130 f i libucrt:cfout.obj
 0001:000522d2       ___acrt_fltout             100532d2 f   libucrt:cfout.obj
 0001:00053bf6       __isatty                   10054bf6 f   libucrt:isatty.obj
 0001:00053c61       ??$?RUlconv@@@__crt_internal_free_policy@@QBEXQBUlconv@@@Z 10054c61 f i libucrt:initmon.obj
 0001:00053c77       ??0?$__crt_unique_heap_ptr@Ulconv@@U__crt_internal_free_policy@@@@QAE@QAUlconv@@@Z 10054c77 f i libucrt:initmon.obj
 0001:00053c8b       ??1?$__crt_unique_heap_ptr@Ulconv@@U__crt_internal_free_policy@@@@QAE@XZ 10054c8b f i libucrt:initmon.obj
 0001:00053ca1       ?detach@?$__crt_unique_heap_ptr@Ulconv@@U__crt_internal_free_policy@@@@QAEPAUlconv@@XZ 10054ca1 f i libucrt:initmon.obj
 0001:00053ca7       ?release@?$__crt_unique_heap_ptr@Ulconv@@U__crt_internal_free_policy@@@@QAEXXZ 10054ca7 f i libucrt:initmon.obj
 0001:00053cbd       ___acrt_locale_free_monetary 10054cbd f   libucrt:initmon.obj
 0001:00053dfa       ___acrt_locale_initialize_monetary 10054dfa f   libucrt:initmon.obj
 0001:000542ed       ___acrt_locale_free_numeric 100552ed f   libucrt:initnum.obj
 0001:00054370       ___acrt_locale_initialize_numeric 10055370 f   libucrt:initnum.obj
 0001:0005465b       ??$?RU__crt_lc_time_data@@@__crt_internal_free_policy@@QBEXQBU__crt_lc_time_data@@@Z 1005565b f i libucrt:inittime.obj
 0001:000546fb       ??0?$__crt_unique_heap_ptr@U__crt_lc_time_data@@U__crt_internal_free_policy@@@@QAE@QAU__crt_lc_time_data@@@Z 100556fb f i libucrt:inittime.obj
 0001:0005470f       ??1?$__crt_unique_heap_ptr@U__crt_lc_time_data@@U__crt_internal_free_policy@@@@QAE@XZ 1005570f f i libucrt:inittime.obj
 0001:00054725       ??B?$__crt_unique_heap_ptr@U__crt_lc_time_data@@U__crt_internal_free_policy@@@@QBE_NXZ 10055725 f i libucrt:inittime.obj
 0001:0005472f       ?detach@?$__crt_unique_heap_ptr@U__crt_lc_time_data@@U__crt_internal_free_policy@@@@QAEPAU__crt_lc_time_data@@XZ 1005572f f i libucrt:inittime.obj
 0001:00054780       ?get@?$__crt_unique_heap_ptr@U__crt_lc_time_data@@U__crt_internal_free_policy@@@@QBEPAU__crt_lc_time_data@@XZ 10055780 f i libucrt:inittime.obj
 0001:00054b18       ?is_valid@?$__crt_unique_heap_ptr@U__crt_lc_time_data@@U__crt_internal_free_policy@@@@QBE_NXZ 10055b18 f i libucrt:inittime.obj
 0001:00054b22       ?release@?$__crt_unique_heap_ptr@U__crt_lc_time_data@@U__crt_internal_free_policy@@@@QAEXXZ 10055b22 f i libucrt:inittime.obj
 0001:00054b38       ___acrt_locale_free_time   10055b38 f   libucrt:inittime.obj
 0001:00054c55       ___acrt_locale_initialize_time 10055c55 f   libucrt:inittime.obj
 0001:00054df3       _wcsncpy_s                 10055df3 f   libucrt:wcsncpy_s.obj
 0001:00054e00       _wcscspn                   10055e00 f   libucrt:wcscspn.obj
 0001:00054e64       _wcsncmp                   10055e64 f   libucrt:wcsncmp.obj
 0001:00054eac       _wcspbrk                   10055eac f   libucrt:wcspbrk.obj
 0001:00054f02       ___acrt_GetStringTypeA     10055f02 f   libucrt:getstringtypea.obj
 0001:00055976       ___acrt_get_qualified_locale 10056976 f   libucrt:get_qualified_locale.obj
 0001:0005651d       ___acrt_get_qualified_locale_downlevel 1005751d f   libucrt:getqloc_downlevel.obj
 0001:000567a5       _localeconv                100577a5 f   libucrt:localeconv.obj
 0001:000567d9       __wcsnicmp                 100577d9 f   libucrt:wcsnicmp.obj
 0001:000568bf       __wcsnicmp_l               100578bf f   libucrt:wcsnicmp.obj
 0001:00056a00       _strncmp                   10057a00 f   libucrt:strncmp.obj
 0001:00056a96       __strnicmp                 10057a96 f   libucrt:strnicmp.obj
 0001:00056b1d       __strnicmp_l               10057b1d f   libucrt:strnicmp.obj
 0001:00056c01       ??$__vcrt_va_start_verify_argument_type@$$CBH@@YAXXZ 10057c01 f i libucrt:open.obj
 0001:00056fb8       ??$tsopen_nolock@PAHABQAHABQBDABHABHABHABH@?$__crt_char_traits@D@@SAH$$QAPAHABQAHABQBDABH333@Z 10057fb8 f i libucrt:open.obj
 0001:00056ff6       ??$tsopen_nolock@PAHABQAHABQB_WABHABHABHABH@?$__crt_char_traits@_W@@SAH$$QAPAHABQAHABQB_WABH333@Z 10057ff6 f i libucrt:open.obj
 0001:00057034       ??$tsopen_nolock@PAHPAHABQBDABHHABHH@?$__crt_char_traits@D@@SAH$$QAPAH0ABQBDABH$$QAH23@Z 10058034 f i libucrt:open.obj
 0001:00057072       ??$tsopen_nolock@PAHPAHABQB_WABHHABHH@?$__crt_char_traits@_W@@SAH$$QAPAH0ABQB_WABH$$QAH23@Z 10058072 f i libucrt:open.obj
 0001:00057840       __open                     10058840 f   libucrt:open.obj
 0001:0005785e       __sopen                    1005885e f   libucrt:open.obj
 0001:000578a0       __sopen_dispatch           100588a0 f   libucrt:open.obj
 0001:000578ad       __sopen_nolock             100588ad f   libucrt:open.obj
 0001:00057912       __sopen_s                  10058912 f   libucrt:open.obj
 0001:0005793a       __wopen                    1005893a f   libucrt:open.obj
 0001:00057958       __wsopen                   10058958 f   libucrt:open.obj
 0001:0005799a       __wsopen_dispatch          1005899a f   libucrt:open.obj
 0001:000579a7       __wsopen_nolock            100589a7 f   libucrt:open.obj
 0001:00057d9a       __wsopen_s                 10058d9a f   libucrt:open.obj
 0001:00057dc2       ___p__commode              10058dc2 f   libucrt:ncommode.obj
 0001:00057dc8       ___acrt_stdio_allocate_buffer_nolock 10058dc8 f   libucrt:_getbuf.obj
 0001:00057e3c       ??$?RV<lambda_4980db0136e49a56f91ef52c46ca659a>@@AAV<lambda_6e3e78bb6855d1e4040e022c1b427e22>@@V<lambda_9c074eaf62197b4fd0274ed9e7824161>@@@?$__crt_seh_guarded_call@G@@QAEG$$QAV<lambda_4980db0136e49a56f91ef52c46ca659a>@@AAV<lambda_6e3e78bb6855d1e4040e022c1b427e22>@@$$QAV<lambda_9c074eaf62197b4fd0274ed9e7824161>@@@Z 10058e3c f i libucrt:putwch.obj
 0001:00057eb1       ??$__acrt_lock_and_call@V<lambda_6e3e78bb6855d1e4040e022c1b427e22>@@@@YAGW4__acrt_lock_id@@$$QAV<lambda_6e3e78bb6855d1e4040e022c1b427e22>@@@Z 10058eb1 f i libucrt:putwch.obj
 0001:00057f49       __putwch                   10058f49 f   libucrt:putwch.obj
 0001:00057f6d       __putwch_nolock            10058f6d f   libucrt:putwch.obj
 0001:00057fc3       _nextafter                 10058fc3 f   libucrt:nextafter.obj
 0001:00057fe9       ??1scoped_global_state_reset@__crt_state_management@@QAE@XZ 10058fe9 f i libucrt:qsort.obj
 0001:00058100       _qsort                     10059100 f   libucrt:qsort.obj
 0001:0005865d       _strncpy_s                 1005965d f   libucrt:strncpy_s.obj
 0001:00058670       _strpbrk                   10059670 f   libucrt:strpbrk.obj
 0001:000586c0       __mbsdec                   100596c0 f   libucrt:mbsdec.obj
 0001:000586dc       __mbsdec_l                 100596dc f   libucrt:mbsdec.obj
 0001:0005879e       __wcsnicoll                1005979e f   libucrt:wcsnicol.obj
 0001:000588a2       __wcsnicoll_l              100598a2 f   libucrt:wcsnicol.obj
 0001:00058a1a       __strnicoll                10059a1a f   libucrt:strnicol.obj
 0001:00058a4d       __strnicoll_l              10059a4d f   libucrt:strnicol.obj
 0001:00058b88       __msize                    10059b88 f   libucrt:msize.obj
 0001:00058bc7       ___strncnt                 10059bc7 f   libucrt:strncnt.obj
 0001:00058d23       ___acrt_GetLocaleInfoA     10059d23 f   libucrt:getlocaleinfoa.obj
 0001:00058f41       _fegetenv                  10059f41 f   libucrt:fegetenv.obj
 0001:00058f65       _fesetenv                  10059f65 f   libucrt:fesetenv.obj
 0001:00058fc0       _feholdexcept              10059fc0 f   libucrt:feholdexcept.obj
 0001:00059030       _log10                     1005a030 f   libucrt:log10.obj
 0001:00059070       __CIlog10                  1005a070 f   libucrt:log10.obj
 0001:000590ab       __CIlog10_default          1005a0ab f   libucrt:log10.obj
 0001:000590bf       __log10_default            1005a0bf     libucrt:log10.obj
 0001:000591e0       _ceil                      1005a1e0 f   libucrt:ceil_pentium4.obj
 0001:00059220       __ceil_pentium4            1005a220 f   libucrt:ceil_pentium4.obj
 0001:00059344       __wcsicmp                  1005a344 f   libucrt:wcsicmp.obj
 0001:000593fe       __wcsicmp_l                1005a3fe f   libucrt:wcsicmp.obj
 0001:00059516       __towlower_l               1005a516 f   libucrt:towlower.obj
 0001:00059611       _towlower                  1005a611 f   libucrt:towlower.obj
 0001:00059630       ___ascii_strnicmp          1005a630 f   libucrt:_strnicm.obj
 0001:000596a9       ??$__crt_interlocked_read@H@@YAHPDH@Z 1005a6a9 f i libucrt:setmode.obj
 0001:000596b8       __get_fmode                1005a6b8 f   libucrt:setmode.obj
 0001:000596ef       __set_fmode                1005a6ef f   libucrt:setmode.obj
 0001:0005973b       __setmode                  1005a73b f   libucrt:setmode.obj
 0001:0005988c       __setmode_nolock           1005a88c f   libucrt:setmode.obj
 0001:00059991       ??$?RV<lambda_4cfda81533ccf5a03113a1ca40a30445>@@AAV<lambda_1cffa78e445b1da5fba1a2e0e533226f>@@V<lambda_68c952aa1b860373b2109ef12d0bba9d>@@@?$__crt_seh_guarded_call@H@@QAEH$$QAV<lambda_4cfda81533ccf5a03113a1ca40a30445>@@AAV<lambda_1cffa78e445b1da5fba1a2e0e533226f>@@$$QAV<lambda_68c952aa1b860373b2109ef12d0bba9d>@@@Z 1005a991 f i libucrt:chsize.obj
 0001:00059a3b       ??$__acrt_lowio_lock_fh_and_call@V<lambda_1cffa78e445b1da5fba1a2e0e533226f>@@@@YAHH$$QAV<lambda_1cffa78e445b1da5fba1a2e0e533226f>@@@Z 1005aa3b f i libucrt:chsize.obj
 0001:00059b1d       __chsize                   1005ab1d f   libucrt:chsize.obj
 0001:00059b40       __chsize_nolock            1005ab40 f   libucrt:chsize.obj
 0001:00059d35       __chsize_s                 1005ad35 f   libucrt:chsize.obj
 0001:00059df6       __umask                    1005adf6 f   libucrt:umask.obj
 0001:00059e24       __umask_s                  1005ae24 f   libucrt:umask.obj
 0001:00059e6d       ___dcrt_lowio_initialize_console_output 1005ae6d f   libucrt:initcon.obj
 0001:00059e93       ___dcrt_terminate_console_output 1005ae93 f   libucrt:initcon.obj
 0001:00059eaf       _nexttoward                1005aeaf f   libucrt:nexttoward.obj
 0001:0005a060       ___acrt_CompareStringW     1005b060 f   libucrt:comparestringw.obj
 0001:0005a434       ___acrt_CompareStringA     1005b434 f   libucrt:comparestringa.obj
 0001:0005a48e       ___acrt_fenv_get_fp_status_word_from_exception_mask 1005b48e f   libucrt:_fenvutils.obj
 0001:0005a8d1       __getfpcontrolword         1005b8d1 f   libucrt:_fenvutils.obj
 0001:0005a924       __getfpstatusword          1005b924 f   libucrt:_fenvutils.obj
 0001:0005a9f6       __setfpcontrolword         1005b9f6 f   libucrt:_fenvutils.obj
 0001:0005aa96       __setfpstatusword          1005ba96 f   libucrt:_fenvutils.obj
 0001:0005accc       ___control87_2             1005bccc f   libucrt:ieee87.obj
 0001:0005b2a0       ___fpreset_sse2            1005c2a0 f   libucrt:ieee87.obj
 0001:0005b4f3       __clearfp                  1005c4f3 f   libucrt:ieee87.obj
 0001:0005b608       __control87                1005c608 f   libucrt:ieee87.obj
 0001:0005b9ca       __controlfp                1005c9ca f   libucrt:ieee87.obj
 0001:0005b9ea       __fpreset                  1005c9ea f   libucrt:ieee87.obj
 0001:0005bae7       __set_controlfp            1005cae7 f   libucrt:ieee87.obj
 0001:0005bb7d       __statusfp                 1005cb7d f   libucrt:ieee87.obj
 0001:0005bc40       __statusfp2                1005cc40 f   libucrt:ieee87.obj
 0001:0005bcbd       ___acrt_initialize_sse2    1005ccbd f   libucrt:mathfcns.obj
 0001:0005bccf       __set_SSE2_enable          1005cccf f   libucrt:mathfcns.obj
 0001:0005bd00       __CIlog10_pentium4         1005cd00 f   libucrt:log10_pentium4.obj
 0001:0005bd18       __log10_pentium4           1005cd18     libucrt:log10_pentium4.obj
 0001:0005c051       __fFEXP                    1005d051     libucrt:87tran.obj
 0001:0005c0a8       __rtinfpopse               1005d0a8     libucrt:87tran.obj
 0001:0005c0aa       __rtinfnpopse              1005d0aa     libucrt:87tran.obj
 0001:0005c0ba       __fFLN                     1005d0ba     libucrt:87tran.obj
 0001:0005c16f       __rtinfpop                 1005d16f     libucrt:87tran.obj
 0001:0005c171       __rtinfnpop                1005d171     libucrt:87tran.obj
 0001:0005c18e       __ffexpm1                  1005d18e     libucrt:87tran.obj
 0001:0005c2c0       __trandisp1                1005d2c0 f   libucrt:87disp.obj
 0001:0005c327       __trandisp2                1005d327 f   libucrt:87disp.obj
 0001:0005c3b3       __rttospopde               1005d3b3     libucrt:87disp.obj
 0001:0005c3b8       __rttospop                 1005d3b8     libucrt:87disp.obj
 0001:0005c3ba       __rtnospop                 1005d3ba     libucrt:87disp.obj
 0001:0005c3bc       __rttosnpop                1005d3bc     libucrt:87disp.obj
 0001:0005c3bd       __rtnospopde               1005d3bd     libucrt:87disp.obj
 0001:0005c3c4       __rtzeropop                1005d3c4     libucrt:87disp.obj
 0001:0005c3c6       __rtzeronpop               1005d3c6     libucrt:87disp.obj
 0001:0005c3cb       __rtzerospop               1005d3cb     libucrt:87disp.obj
 0001:0005c3d8       __rtonepop                 1005d3d8     libucrt:87disp.obj
 0001:0005c3da       __rtonenpop                1005d3da     libucrt:87disp.obj
 0001:0005c3df       __tosnan1                  1005d3df     libucrt:87disp.obj
 0001:0005c40a       __nosnan2                  1005d40a     libucrt:87disp.obj
 0001:0005c40c       __tosnan2                  1005d40c     libucrt:87disp.obj
 0001:0005c434       __nan2                     1005d434     libucrt:87disp.obj
 0001:0005c473       __rtindfpop                1005d473     libucrt:87disp.obj
 0001:0005c475       __rtindfnpop               1005d475     libucrt:87disp.obj
 0001:0005c486       __rttosnpopde              1005d486     libucrt:87disp.obj
 0001:0005c490       __rtatan2inf               1005d490     libucrt:87disp.obj
 0001:0005c4ad       __rtchsifneg               1005d4ad     libucrt:87disp.obj
 0001:0005c531       ___setfflag                1005d531 f   libucrt:fp_flags.obj
 0001:0005c550       __twoToTOS                 1005d550 f   libucrt:common.obj
 0001:0005c565       __load_CW                  1005d565 f   libucrt:common.obj
 0001:0005c57c       __convertTOStoQNaN         1005d57c f   libucrt:common.obj
 0001:0005c595       __fload_withFB             1005d595 f   libucrt:common.obj
 0001:0005c5d8       __checkTOS_withFB          1005d5d8 f   libucrt:common.obj
 0001:0005c5ee       __fast_exit                1005d5ee f   libucrt:common.obj
 0001:0005c5fb       __math_exit                1005d5fb f   libucrt:common.obj
 0001:0005c625       __check_overflow_exit      1005d625 f   libucrt:common.obj
 0001:0005c639       __check_range_exit         1005d639 f   libucrt:common.obj
 0001:0005c740       __startTwoArgErrorHandling 1005d740 f   libucrt:genexcep.obj
 0001:0005c757       __startOneArgErrorHandling 1005d757 f   libucrt:genexcep.obj
 0001:0005c7a7       ___libm_error_support      1005d7a7 f   libucrt:libm_error.obj
 0001:0005ca45       ___libm_setusermatherr     1005da45 f   libucrt:libm_error.obj
 0001:0005ca7e       __ceil_default             1005da7e f   libucrt:ceil.obj
 0001:0005cb65       ___acrt_LCMapStringW       1005db65 f   libucrt:lcmapstringw.obj
 0001:0005cbb2       ___p__fmode                1005dbb2 f   libucrt:txtmode.obj
 0001:0005cbb8       __d_int                    1005dbb8 f   libucrt:_test.obj
 0001:0005cd00       __dtest                    1005dd00 f   libucrt:_test.obj
 0001:0005cd7d       __fd_int                   1005dd7d f   libucrt:_test.obj
 0001:0005ce7f       __fdtest                   1005de7f f   libucrt:_test.obj
 0001:0005cee0       __fperrraise               1005dee0 f   libucrt:_test.obj
 0001:0005cf0b       __ld_int                   1005df0b f   libucrt:_test.obj
 0001:0005cf18       __ldtest                   1005df18 f   libucrt:_test.obj
 0001:0005cfbd       __controlfp_s              1005dfbd f   libucrt:contrlfp.obj
 0001:0005d033       __d_inttype                1005e033 f   libucrt:powhlp.obj
 0001:0005d0b7       __powhlp                   1005e0b7 f   libucrt:powhlp.obj
 0001:0005d22c       __87except                 1005e22c f   libucrt:87except.obj
 0001:0005d379       __frnd                     1005e379 f   libucrt:frnd.obj
 0001:0005d394       _fegetexceptflag           1005e394 f   libucrt:fegetexceptflag.obj
 0001:0005d3d1       _fesetexceptflag           1005e3d1 f   libucrt:fesetexceptflag.obj
 0001:0005d432       _fetestexcept              1005e432 f   libucrt:fetestexcept.obj
 0001:0005d460       __FindPESection            1005e460 f   LIBCMT:pesect.obj
 0001:0005d4c0       __IsNonwritableInCurrentImage 1005e4c0 f   LIBCMT:pesect.obj
 0001:0005d5b0       __ValidateImageBase        1005e5b0 f   LIBCMT:pesect.obj
 0001:0005d5f0       __aulldvrm                 1005e5f0 f   LIBCMT:ulldvrm.obj
 0001:0005d6aa       ??1type_info@@UAE@XZ       1005e6aa f   LIBCMT:std_type_info_static.obj
 0001:0005d6b1       ??_Etype_info@@UAEPAXI@Z   1005e6b1 f i LIBCMT:std_type_info_static.obj
 0001:0005d6b1       ??_Gtype_info@@UAEPAXI@Z   1005e6b1 f i LIBCMT:std_type_info_static.obj
 0001:0005d6e0       __SEH_prolog4_GS           1005e6e0 f   LIBCMT:_sehprolg4gs_.obj
 0001:0005d729       __SEH_epilog4_GS           1005e729 f   LIBCMT:_sehprolg4gs_.obj
 0001:0005d750       __allmul                   1005e750 f   LIBCMT:llmul.obj
 0001:0005d7a0       __alldvrm                  1005e7a0 f   LIBCMT:lldvrm.obj
 0001:0005d8c0       __aullshr                  1005e8c0 f   LIBCMT:ullshr.obj
 0001:0005d8f0       __alloca_probe             1005e8f0 f   LIBCMT:chkstk.obj
 0001:0005d8f0       __chkstk                   1005e8f0 f   LIBCMT:chkstk.obj
 0001:0005d930       __alloca_probe_16          1005e930 f   LIBCMT:alloca16.obj
 0001:0005d946       __alloca_probe_8           1005e946     LIBCMT:alloca16.obj
 0001:0005d970       __allshl                   1005e970 f   LIBCMT:llshl.obj
 0001:0005d9a0       __ftol2_sse                1005e9a0 f   LIBCMT:_ftol2_.obj
 0001:0005d9a9       __ftol2_pentium4           1005e9a9 f   LIBCMT:_ftol2_.obj
 0001:0005d9bc       __ftol2_sse_excpt          1005e9bc f   LIBCMT:_ftol2_.obj
 0001:0005d9e0       __ftol2                    1005e9e0 f   LIBCMT:_ftol2_.obj
 0001:0005da82       __initialize_default_precision 1005ea82 f   LIBCMT:default_precision.obj
 0001:0005daab       ??3@YAXPAXI@Z              1005eaab f   LIBCMT:delete_scalar_size.obj
 0001:0005dabc       ??3@YAXPAX@Z               1005eabc f   LIBCMT:delete_scalar.obj
 0001:0005dac2       _InterlockedPushEntrySList@8 1005eac2 f   kernel32:KERNEL32.dll
 0001:0005dac8       _InterlockedFlushSList@4   1005eac8 f   kernel32:KERNEL32.dll
 0001:0005dace       _RtlUnwind@16              1005eace f   kernel32:KERNEL32.dll
 0001:0005dad4       _GetLastError@0            1005ead4 f   kernel32:KERNEL32.dll
 0001:0005dada       _SetLastError@4            1005eada f   kernel32:KERNEL32.dll
 0001:0005dae0       _EnterCriticalSection@4    1005eae0 f   kernel32:KERNEL32.dll
 0001:0005dae6       _LeaveCriticalSection@4    1005eae6 f   kernel32:KERNEL32.dll
 0001:0005daec       _DeleteCriticalSection@4   1005eaec f   kernel32:KERNEL32.dll
 0001:0005daf2       _InitializeCriticalSectionAndSpinCount@8 1005eaf2 f   kernel32:KERNEL32.dll
 0001:0005daf8       _TlsAlloc@0                1005eaf8 f   kernel32:KERNEL32.dll
 0001:0005dafe       _TlsGetValue@4             1005eafe f   kernel32:KERNEL32.dll
 0001:0005db04       _TlsSetValue@8             1005eb04 f   kernel32:KERNEL32.dll
 0001:0005db0a       _TlsFree@4                 1005eb0a f   kernel32:KERNEL32.dll
 0001:0005db10       _FreeLibrary@4             1005eb10 f   kernel32:KERNEL32.dll
 0001:0005db16       _LoadLibraryExW@12         1005eb16 f   kernel32:KERNEL32.dll
 0001:0005db1c       _GetStdHandle@4            1005eb1c f   kernel32:KERNEL32.dll
 0001:0005db22       _GetFileType@4             1005eb22 f   kernel32:KERNEL32.dll
 0001:0005db28       _GetModuleFileNameA@12     1005eb28 f   kernel32:KERNEL32.dll
 0001:0005db2e       _GetModuleFileNameW@12     1005eb2e f   kernel32:KERNEL32.dll
 0001:0005db34       _GetModuleHandleExW@12     1005eb34 f   kernel32:KERNEL32.dll
 0001:0005db3a       _WriteConsoleW@20          1005eb3a f   kernel32:KERNEL32.dll
 0001:0005db40       _ExitProcess@4             1005eb40 f   kernel32:KERNEL32.dll
 0001:0005db46       _RaiseException@16         1005eb46 f   kernel32:KERNEL32.dll
 0001:0005db4c       _MultiByteToWideChar@24    1005eb4c f   kernel32:KERNEL32.dll
 0001:0005db52       _WideCharToMultiByte@32    1005eb52 f   kernel32:KERNEL32.dll
 0001:0005db58       _HeapFree@12               1005eb58 f   kernel32:KERNEL32.dll
 0001:0005db5e       _HeapAlloc@12              1005eb5e f   kernel32:KERNEL32.dll
 0001:0005db64       _GetDateFormatW@24         1005eb64 f   kernel32:KERNEL32.dll
 0001:0005db6a       _GetTimeFormatW@24         1005eb6a f   kernel32:KERNEL32.dll
 0001:0005db70       _CompareStringW@24         1005eb70 f   kernel32:KERNEL32.dll
 0001:0005db76       _LCMapStringW@24           1005eb76 f   kernel32:KERNEL32.dll
 0001:0005db7c       _GetLocaleInfoW@16         1005eb7c f   kernel32:KERNEL32.dll
 0001:0005db82       _IsValidLocale@8           1005eb82 f   kernel32:KERNEL32.dll
 0001:0005db88       _GetUserDefaultLCID@0      1005eb88 f   kernel32:KERNEL32.dll
 0001:0005db8e       _EnumSystemLocalesW@8      1005eb8e f   kernel32:KERNEL32.dll
 0001:0005db94       _GetCurrentThread@0        1005eb94 f   kernel32:KERNEL32.dll
 0001:0005db9a       _GetACP@0                  1005eb9a f   kernel32:KERNEL32.dll
 0001:0005dba0       _WriteFile@20              1005eba0 f   kernel32:KERNEL32.dll
 0001:0005dba6       _OutputDebugStringA@4      1005eba6 f   kernel32:KERNEL32.dll
 0001:0005dbac       _OutputDebugStringW@4      1005ebac f   kernel32:KERNEL32.dll
 0001:0005dbb2       _CloseHandle@4             1005ebb2 f   kernel32:KERNEL32.dll
 0001:0005dbb8       _WaitForSingleObjectEx@12  1005ebb8 f   kernel32:KERNEL32.dll
 0001:0005dbbe       _CreateThread@24           1005ebbe f   kernel32:KERNEL32.dll
 0001:0005dbc4       _SetConsoleCtrlHandler@8   1005ebc4 f   kernel32:KERNEL32.dll
 0001:0005dbca       _HeapReAlloc@16            1005ebca f   kernel32:KERNEL32.dll
 0001:0005dbd0       _ReadFile@20               1005ebd0 f   kernel32:KERNEL32.dll
 0001:0005dbd6       _GetConsoleMode@8          1005ebd6 f   kernel32:KERNEL32.dll
 0001:0005dbdc       _ReadConsoleW@20           1005ebdc f   kernel32:KERNEL32.dll
 0001:0005dbe2       _GetConsoleCP@0            1005ebe2 f   kernel32:KERNEL32.dll
 0001:0005dbe8       _DeleteFileW@4             1005ebe8 f   kernel32:KERNEL32.dll
 0001:0005dbee       _SetFilePointerEx@20       1005ebee f   kernel32:KERNEL32.dll
 0001:0005dbf4       _FindClose@4               1005ebf4 f   kernel32:KERNEL32.dll
 0001:0005dbfa       _FindFirstFileExA@24       1005ebfa f   kernel32:KERNEL32.dll
 0001:0005dc00       _FindFirstFileExW@24       1005ec00 f   kernel32:KERNEL32.dll
 0001:0005dc06       _FindNextFileA@8           1005ec06 f   kernel32:KERNEL32.dll
 0001:0005dc0c       _FindNextFileW@8           1005ec0c f   kernel32:KERNEL32.dll
 0001:0005dc12       _IsValidCodePage@4         1005ec12 f   kernel32:KERNEL32.dll
 0001:0005dc18       _GetOEMCP@0                1005ec18 f   kernel32:KERNEL32.dll
 0001:0005dc1e       _GetCPInfo@8               1005ec1e f   kernel32:KERNEL32.dll
 0001:0005dc24       _GetCommandLineA@0         1005ec24 f   kernel32:KERNEL32.dll
 0001:0005dc2a       _GetCommandLineW@0         1005ec2a f   kernel32:KERNEL32.dll
 0001:0005dc30       _GetEnvironmentStringsW@0  1005ec30 f   kernel32:KERNEL32.dll
 0001:0005dc36       _FreeEnvironmentStringsW@4 1005ec36 f   kernel32:KERNEL32.dll
 0001:0005dc3c       _SetEnvironmentVariableA@8 1005ec3c f   kernel32:KERNEL32.dll
 0001:0005dc42       _SetEnvironmentVariableW@8 1005ec42 f   kernel32:KERNEL32.dll
 0001:0005dc48       _GetProcessHeap@0          1005ec48 f   kernel32:KERNEL32.dll
 0001:0005dc4e       _GetStringTypeW@16         1005ec4e f   kernel32:KERNEL32.dll
 0001:0005dc54       _FlushFileBuffers@4        1005ec54 f   kernel32:KERNEL32.dll
 0001:0005dc5a       _SetStdHandle@8            1005ec5a f   kernel32:KERNEL32.dll
 0001:0005dc60       _CreateFileW@28            1005ec60 f   kernel32:KERNEL32.dll
 0001:0005dc66       _HeapSize@12               1005ec66 f   kernel32:KERNEL32.dll
 0001:0005dc6c       _SetEndOfFile@4            1005ec6c f   kernel32:KERNEL32.dll
 0001:0005dc72       _EncodePointer@4           1005ec72 f   kernel32:KERNEL32.dll
 0001:0005dc78       _DecodePointer@4           1005ec78 f   kernel32:KERNEL32.dll
 0001:0005dc80       _strrchr                   1005ec80 f   libvcruntime:strrchr.obj
 0001:0005df67       _memcmp                    1005ef67 f   libvcruntime:_memcmp_.obj
 0001:00061a4f       _wcschr                    10062a4f f   libvcruntime:wcschr.obj
 0002:00000000       ___xc_a                    10063000     LIBCMT:initializers.obj
 0002:00000104       ___xc_z                    10063104     LIBCMT:initializers.obj
 0002:00000208       ___xi_a                    10063208     LIBCMT:initializers.obj
 0002:0000030c       ___acrt_stdio_initializer  1006330c     libucrt:stdio_initializer.obj
 0002:00000310       ___acrt_multibyte_initializer 10063310     libucrt:multibyte_initializer.obj
 0002:00000314       ___acrt_tran_sse2_initializer 10063314     libucrt:sse2_initializer.obj
 0002:0000041c       ___xi_z                    1006341c     LIBCMT:initializers.obj
 0002:00000520       ___xp_a                    10063520     LIBCMT:initializers.obj
 0002:00000624       ___acrt_locale_terminator  10063624     libucrt:locale_initializer.obj
 0002:00000628       ___dcrt_console_output_terminator 10063628     libucrt:console_output_initializer.obj
 0002:00000730       ___acrt_stdio_terminator   10063730     libucrt:stdio_initializer.obj
 0002:00000834       ___xp_z                    10063834     LIBCMT:initializers.obj
 0002:00000938       ___xt_a                    10063938     LIBCMT:initializers.obj
 0002:00000a3c       ___xt_z                    10063a3c     LIBCMT:initializers.obj
 0002:00000b40       _electromagnetAndLoadCell_M 10063b40     electromagnetAndLoadCell.obj
 0002:00000b44       ??_C@_0BI@PFNCELAG@Error?5creating?5scope?52?6?$AA@ 10063b44     electromagnetAndLoadCell.obj
 0002:00000b60       ??_C@_08IOCEGBJF@DC?5Input?$AA@ 10063b60     electromagnetAndLoadCell.obj
 0002:00000b6c       ??_C@_0BI@PEBACBDB@Error?5creating?5scope?53?6?$AA@ 10063b6c     electromagnetAndLoadCell.obj
 0002:00000b88       ??_C@_05JIDBFJIA@Q4?5AD?$AA@ 10063b88     electromagnetAndLoadCell.obj
 0002:00000b90       ??_C@_0BC@OJJPBDHH@FixedStepDiscrete?$AA@ 10063b90     electromagnetAndLoadCell.obj
 0002:00000ba8       ??_C@_04EPKDLPPB@tout?$AA@ 10063ba8     electromagnetAndLoadCell.obj
 0002:00000bae       ??_C@_00CNPNBAHC@?$AA@     10063bae     electromagnetAndLoadCell.obj
 0002:00000bb0       ??_C@_03HBFGMJOD@rt_?$AA@  10063bb0     electromagnetAndLoadCell.obj
 0002:00000bb4       ??_C@_06EJLBKEAC@Q4?5DA?5?$AA@ 10063bb4     electromagnetAndLoadCell.obj
 0002:00000bbc       ??_C@_0CA@MOLKPOOE@electromagnetAndLoadCell?1Q4?5DA?5?$AA@ 10063bbc     electromagnetAndLoadCell.obj
 0002:00000be4       ??_C@_0BP@JLMIGNBB@electromagnetAndLoadCell?1Q4?5AD?$AA@ 10063be4     electromagnetAndLoadCell.obj
 0002:00000c10       __real@3f50624dd2f1a9fc    10063c10     electromagnetAndLoadCell.obj
 0002:00000c20       __real@3ff0000000000000    10063c20     electromagnetAndLoadCell.obj
 0002:00000c30       __real@4008000000000000    10063c30     electromagnetAndLoadCell.obj
 0002:00000c40       __real@406f400000000000    10063c40     electromagnetAndLoadCell.obj
 0002:00000c50       __real@41f0000000000000    10063c50     electromagnetAndLoadCell.obj
 0002:00000c60       __real@bff0000000000000    10063c60     electromagnetAndLoadCell.obj
 0002:00000c70       __xmm@00000000000000003f50624dd2f1a9fc 10063c70     electromagnetAndLoadCell.obj
 0002:00000c90       __xmm@00000030000000020000000500000001 10063c90     electromagnetAndLoadCell.obj
 0002:00000cb0       __xmm@41f00000000000000000000000000000 10063cb0     electromagnetAndLoadCell.obj
 0002:00000cc8       __real@3cb0000000000000    10063cc8     rt_matrx.obj
 0002:00000cd8       __real@3fe0000000000000    10063cd8     rt_matrx.obj
 0002:00000f74       ??_C@_05LPIJGKJ@Value?$AA@ 10063f74     electromagnetAndLoadCell_capi.obj
 0002:00000f7c       ??_C@_02KKFPAPOP@P1?$AA@   10063f7c     electromagnetAndLoadCell_capi.obj
 0002:00000f80       ??_C@_02IBHCFMCM@P2?$AA@   10063f80     electromagnetAndLoadCell_capi.obj
 0002:00000f84       ??_C@_02JIGJGNGN@P3?$AA@   10063f84     electromagnetAndLoadCell_capi.obj
 0002:00000f88       ??_C@_02MODDMKOL@P5?$AA@   10063f88     electromagnetAndLoadCell_capi.obj
 0002:00000f8c       ??_C@_02OFBOJJCI@P6?$AA@   10063f8c     electromagnetAndLoadCell_capi.obj
 0002:00000f90       ??_C@_02PMAFKIGJ@P7?$AA@   10063f90     electromagnetAndLoadCell_capi.obj
 0002:00000f94       ??_C@_02NHCIPLKK@P4?$AA@   10063f94     electromagnetAndLoadCell_capi.obj
 0002:00000f98       ??_C@_02HLJNLEKG@P8?$AA@   10063f98     electromagnetAndLoadCell_capi.obj
 0002:00000f9c       ??_C@_02GCIGIFOH@P9?$AA@   10063f9c     electromagnetAndLoadCell_capi.obj
 0002:00000fa0       ??_C@_06BNJCAIGJ@double?$AA@ 10063fa0     electromagnetAndLoadCell_capi.obj
 0002:00000fa8       ??_C@_06CNMIJIPB@real_T?$AA@ 10063fa8     electromagnetAndLoadCell_capi.obj
 0002:00000fb0       ??_C@_05KNFBNCOH@float?$AA@ 10063fb0     electromagnetAndLoadCell_capi.obj
 0002:00000fb8       _serialfifoground          10063fb8     xpc_datatype_ground.obj
 0002:00000fc4       _bcmsg1553ground           10063fc4     xpc_datatype_ground.obj
 0002:00000fd4       _bcstatground              10063fd4     xpc_datatype_ground.obj
 0002:00000fec       _bmmsg1553ground           10063fec     xpc_datatype_ground.obj
 0002:00001028       ??_C@_0BI@INNPNFJN@Memory?5Allocation?5Error?$AA@ 10064028     rtw_modelmap_utils.obj
 0002:00001048       ??_C@_1HC@IFMGIDHA@?$AAC?$AA?3?$AA?2?$AAP?$AAR?$AAO?$AAG?$AAR?$AAA?$AA?$HO?$AA1?$AA?2?$AAM?$AAA?$AAT?$AAL?$AAA?$AAB?$AA?2?$AAR?$AA2?$AA0?$AA1?$AA7?$AAa?$AA?2?$AAr?$AAt?$AAw?$AA?2?$AAc?$AA?2@ 10064048     rtw_modelmap_utils.obj
 0002:000010d0       ??_C@_1CI@OEAJCJND@?$AAj?$AA?5?$AA?$DN?$AA?$DN?$AA?5?$AAe?$AAn?$AAc?$AAo?$AAd?$AAe?$AAd?$AAP?$AAa?$AAt?$AAh?$AAL?$AAe?$AAn?$AA?$AA@ 100640d0     rtw_modelmap_utils.obj
 0002:00001100       ??_C@_1DC@NFAOIFKB@?$AAe?$AAn?$AAc?$AAo?$AAd?$AAe?$AAd?$AAP?$AAa?$AAt?$AAh?$AA?$FL?$AAj?$AA?9?$AA1?$AA?$FN?$AA?5?$AA?$DN?$AA?$DN?$AA?5?$AA?8?$AA?2?$AA0?$AA?8?$AA?$AA@ 10064100     rtw_modelmap_utils.obj
 0002:0000113c       ??_C@_1DI@FLNJGPEE@?$AAs?$AAi?$AAg?$AAC?$AAo?$AAm?$AAp?$AAl?$AAe?$AAx?$AAi?$AAt?$AAy?$AA?$FL?$AA?$CK?$AAs?$AAi?$AAg?$AAI?$AAd?$AAx?$AA?$FN?$AA?5?$AA?$CB?$AA?$DN?$AA?5?$AA1?$AA?$AA@ 1006413c     rtw_modelmap_utils.obj
 0002:00001180       ??_C@_1KI@OFELMGBG@?$AA?$CI?$AA?$CI?$AA?$CI?$AAd?$AAa?$AAt?$AAa?$AAT?$AAy?$AAp?$AAe?$AAM?$AAa?$AAp?$AA?$CJ?$AA?$FL?$AA?$CI?$AA?$CI?$AA?$CI?$AAs?$AAt?$AAa?$AAt?$AAe?$AAs?$AA?$CJ?$AA?$FL?$AA?$CI?$AAi?$AA?$CJ?$AA?$FN?$AA?4@ 10064180     rtw_modelmap_utils.obj
 0002:0000124c       ??_C@_1DA@ILCMPHNE@?$AAf?$AAu?$AAl?$AAl?$AAP?$AAa?$AAt?$AAh?$AA?5?$AA?$CB?$AA?$DN?$AA?5?$AA?$CI?$AA?$CI?$AAv?$AAo?$AAi?$AAd?$AA?5?$AA?$CK?$AA?$CJ?$AA0?$AA?$CJ?$AA?$AA@ 1006424c     rtw_modelmap_utils.obj
 0002:00001288       ??_C@_1CI@OEPPFCCA@?$AAp?$AAa?$AAt?$AAh?$AA?5?$AA?$CB?$AA?$DN?$AA?5?$AA?$CI?$AA?$CI?$AAv?$AAo?$AAi?$AAd?$AA?5?$AA?$CK?$AA?$CJ?$AA0?$AA?$CJ?$AA?$AA@ 10064288     rtw_modelmap_utils.obj
 0002:000012b8       ??_C@_1FK@GLJIMFHB@?$AA?$CI?$AA?$CI?$AAm?$AAm?$AAi?$AA?$CJ?$AA?9?$AA?$DO?$AAI?$AAn?$AAs?$AAt?$AAa?$AAn?$AAc?$AAe?$AAM?$AAa?$AAp?$AA?4?$AAf?$AAu?$AAl?$AAl?$AAP?$AAa?$AAt?$AAh?$AA?$CJ?$AA?5?$AA?$DN?$AA?$DN@ 100642b8     rtw_modelmap_utils.obj
 0002:00001324       ??_C@_1DG@HPCJGNCE@?$AAm?$AAm?$AAi?$AAP?$AAa?$AAt?$AAh?$AA?$FL?$AAp?$AAa?$AAt?$AAh?$AAL?$AAe?$AAn?$AA?9?$AA1?$AA?$FN?$AA?5?$AA?$DN?$AA?$DN?$AA?5?$AA?8?$AA?2?$AA0?$AA?8?$AA?$AA@ 10064324     rtw_modelmap_utils.obj
 0002:00001364       ??_C@_1DM@DBAOGGOO@?$AAm?$AAm?$AAi?$AAP?$AAa?$AAt?$AAh?$AA?$FL?$AAm?$AAm?$AAi?$AAP?$AAa?$AAt?$AAh?$AAL?$AAe?$AAn?$AA?9?$AA1?$AA?$FN?$AA?5?$AA?$DN?$AA?$DN?$AA?5?$AA?8?$AA?2?$AA0?$AA?8?$AA?$AA@ 10064364     rtw_modelmap_utils.obj
 0002:000013ac       ??_C@_1DC@LHIAKAFE@?$AAb?$AAl?$AAo?$AAc?$AAk?$AAP?$AAa?$AAt?$AAh?$AA?5?$AA?$CB?$AA?$DN?$AA?5?$AA?$CI?$AA?$CI?$AAv?$AAo?$AAi?$AAd?$AA?5?$AA?$CK?$AA?$CJ?$AA0?$AA?$CJ?$AA?$AA@ 100643ac     rtw_modelmap_utils.obj
 0002:000013e8       ??_C@_1GI@KIEJKPGC@?$AAf?$AAu?$AAl?$AAl?$AAS?$AAt?$AAa?$AAt?$AAe?$AAB?$AAl?$AAo?$AAc?$AAk?$AAP?$AAa?$AAt?$AAh?$AA?$FL?$AAf?$AAu?$AAl?$AAl?$AAS?$AAt?$AAa?$AAt?$AAe?$AAB?$AAl?$AAo?$AAc@ 100643e8     rtw_modelmap_utils.obj
 0002:00001468       ??_C@_1EE@DNPIBJHC@?$AA?$CI?$AA?$CI?$AAd?$AAi?$AAm?$AAM?$AAa?$AAp?$AA?$CJ?$AA?$FL?$AA?$CI?$AAm?$AAa?$AAp?$AAI?$AAd?$AAx?$AA?$CJ?$AA?$FN?$AA?4?$AAn?$AAu?$AAm?$AAD?$AAi?$AAm?$AAs?$AA?$CJ?$AA?5?$AA?$DN?$AA?$DN?$AA?5@ 10064468     rtw_modelmap_utils.obj
 0002:000014bc       ??_C@_06JFOKFOED@CSTATE?$AA@ 100644bc     rtw_modelmap_utils.obj
 0002:000014c4       ??_C@_06FAENGAMN@DSTATE?$AA@ 100644c4     rtw_modelmap_utils.obj
 0002:000014cc       ??_C@_1BI@LEBJNOGG@?$AAc?$AAs?$AAv?$AAI?$AAd?$AAx?$AA?5?$AA?$DO?$AA?$DN?$AA?5?$AA0?$AA?$AA@ 100644cc     rtw_modelmap_utils.obj
 0002:000014e8       ??_C@_1BA@KDMGHCHP@?$AAT?$AAI?$AAD?$AA?$DN?$AA?$DN?$AA?9?$AA1?$AA?$AA@ 100644e8     rtw_modelmap_utils.obj
 0002:000014fc       ??_C@_1DM@DHGKBPCE@?$AAs?$AAi?$AAg?$AAP?$AAa?$AAt?$AAh?$AA?$FL?$AAs?$AAi?$AAg?$AAP?$AAa?$AAt?$AAh?$AAL?$AAe?$AAn?$AA?9?$AA1?$AA?$FN?$AA?5?$AA?$DN?$AA?$DN?$AA?5?$AA?8?$AA?2?$AA0?$AA?8?$AA?$AA@ 100644fc     rtw_modelmap_utils.obj
 0002:00001da8       ??_C@_0DJ@FHKINPLE@Unexpected?5itemKind?5?$DN?5DATA_ITEM?5@ 10064da8     rt_logging.obj
 0002:00001dec       ??_C@_0DA@IEHFPFCJ@Unexpected?5itemKind?$DN?$CFd?5in?5rt_Pro@ 10064dec     rt_logging.obj
 0002:00001e28       ??_C@_0DA@IFLHJPBO@Unexpected?5itemKind?$DN?$CFd?5in?5rt_Pro@ 10064e28     rt_logging.obj
 0002:00001e64       ??_C@_0DA@IAPIIJJL@Unexpected?5itemKind?$DN?$CFd?5in?5rt_Pro@ 10064e64     rt_logging.obj
 0002:00001ea0       ??_C@_0BE@LCIGPJIG@MATLAB?55?40?5MAT?9file?$AA@ 10064ea0     rt_logging.obj
 0002:00001eb8       ??_C@_0FB@PCJEAJIB@?$CK?$CK?$CK?5Log?5variable?5?$CFs?5has?5wrapped?5@ 10064eb8     rt_logging.obj
 0002:00001f20       ??_C@_0MG@NKMLMOGF@?$CK?$CK?$CK?5To?5avoid?5wrapping?0?5explicitl@ 10064f20     rt_logging.obj
 0002:00002010       ??_C@_0N@IPAEOLLP@_rtw_tmw?4tmw?$AA@ 10065010     rt_logging.obj
 0002:00002020       ??_C@_04HDOCAJNK@?$CFs?$CFs?$AA@ 10065020     rt_logging.obj
 0002:00002028       ??_C@_03ELIABIOC@w?$CLb?$AA@ 10065028     rt_logging.obj
 0002:0000202c       ??_C@_0BF@JPILDDFA@?$CK?$CK?$CK?5Error?5opening?5?$CFs?$AA@ 1006502c     rt_logging.obj
 0002:00002048       ??_C@_0BK@EEMDELA@unable?5to?5open?5data?5file?6?$AA@ 10065048     rt_logging.obj
 0002:00002068       ??_C@_04CGFJFPFD@none?$AA@ 10065068     rt_logging.obj
 0002:00002070       ??_C@_0EE@LCGFPNON@?$CK?$CK?$CK?5Error?5creating?5signals?5struc@ 10065070     rt_logging.obj
 0002:000020c4       ??_C@_0CE@NHECEDMK@?$CK?$CK?$CK?5Error?5creating?5log?5variable?5@ 100650c4     rt_logging.obj
 0002:000020f0       ??_C@_0DB@IOCGKAGH@?$CK?$CK?$CK?5Errors?5occurred?5when?5startin@ 100650f0     rt_logging.obj
 0002:0000212c       ??_C@_0BO@BBLOGEBK@?$CK?$CK?$CK?5Memory?5allocation?5error?4?6?$AA@ 1006512c     rt_logging.obj
 0002:00002150       ??_C@_0N@LGFBAGEL@?5?$CIreal?5part?$CJ?$AA@ 10065150     rt_logging.obj
 0002:00002160       ??_C@_0KH@CGNMHNFE@?5?5?5?5varName?5?5?5?5?5?5?5?5?5?5?$DN?5?$CFs?$CFs?6?5?5?5?5@ 10065160     rt_logging.obj
 0002:00002228       ??_C@_0LE@OALKKEFM@?5?5?5?5varName?5?5?5?5?5?5?5?5?5?5?$DN?5?$CFs?5?$CIcompl@ 10065228     rt_logging.obj
 0002:00002300       ??_C@_0KF@JDDLEOKO@?5?5?5?5varName?5?5?5?5?5?5?5?5?5?5?$DN?5?$CFs?6?5?5?5?5nR@ 10065300     rt_logging.obj
 0002:000023c8       ??_C@_0DP@HPDMIOFM@?$CK?$CK?$CK?5Using?5a?5default?5buffer?5of?5si@ 100653c8     rt_logging.obj
 0002:00002418       ??_C@_0KE@JEFOLKNF@?6?$CK?$CK?$CK?5Memory?5required?5to?5log?5vari@ 10065418     rt_logging.obj
 0002:000024e0       ??_C@_0JP@DKLMHCBI@?$CK?$CK?$CK?5Details?3?6?5?5?5?5?5?5?5varName?5?5?5?5?5@ 100654e0     rt_logging.obj
 0002:000025a0       ??_C@_0CM@CAMILBED@?$CK?$CK?$CK?5Error?5allocating?5memory?5for?5@ 100655a0     rt_logging.obj
 0002:000025d4       ??_C@_0DF@BBCNMOPM@?$CK?$CK?$CK?5Error?5allocating?5memory?5for?5@ 100655d4     rt_logging.obj
 0002:00002618       ??_C@_0JP@DBCLPCCI@?$CK?$CK?$CK?5Details?3?6?5?5?5?5?5?5?5varName?5?5?5?5?5@ 10065618     rt_logging.obj
 0002:000026d8       ??_C@_0FK@DPGAOBGA@?$CK?$CK?$CK?5Error?5allocating?5memory?5for?5@ 100656d8     rt_logging.obj
 0002:00002744       ??_C@_0BI@GGDNPHLJ@?$CK?$CK?$CK?5Error?5writing?5to?5?$CFs?$AA@ 10065744     rt_logging.obj
 0002:00002760       ??_C@_0CB@IBGJGELG@?$CK?$CK?$CK?5Error?5writing?5?$CFs?5due?5to?3?5?$CFs?6@ 10065760     rt_logging.obj
 0002:00002788       ??_C@_0CN@FLMCHCPB@?$CK?$CK?$CK?5Error?5writing?5log?5variable?5?$CF@ 10065788     rt_logging.obj
 0002:000027c0       ??_C@_0DH@GAJCNOJP@?$CK?$CK?$CK?5Error?5writing?5structure?5log?5@ 100657c0     rt_logging.obj
 0002:00002804       ??_C@_0BD@POEALECL@?$CK?$CK?5created?5?$CFs?5?$CK?$CK?6?6?$AA@ 10065804     rt_logging.obj
 0002:00002820       __real@0000000000000000    10065820     rt_logging.obj
 0002:00002830       __real@4020000000000000    10065830     rt_logging.obj
 0002:00002840       __real@41dfffffffc00000    10065840     rt_logging.obj
 0002:00002850       __real@41efffffffe00000    10065850     rt_logging.obj
 0002:00002860       __real@4330000000000000    10065860     rt_logging.obj
 0002:00002870       __real@8000000000000000    10065870     rt_logging.obj
 0002:00002880       __real@bfbf9add3afd2773    10065880     rt_logging.obj
 0002:00002890       __real@c000000000000000    10065890     rt_logging.obj
 0002:000028a0       __xmm@20202020202020202020202020202020 100658a0     rt_logging.obj
 0002:000028b4       ??_C@_0BJ@EMOMJICM@electromagnetAndLoadCell?$AA@ 100658b4     xpctarget.obj
 0002:000028d4       _ptsetfilename             100658d4     xpctarget.obj
 0002:000028d8       _xmlfile                   100658d8     xpctarget.obj
 0002:000028e0       ??_C@_0L@CHBJKKFC@xpceSetVar?$AA@ 100658e0     xpctarget.obj
 0002:000028f0       ??_C@_03LADEHNAB@6?46?$AA@ 100658f0     xpctarget.obj
 0002:000028f8       __real@3fb999999999999a    100658f8     xpctarget.obj
 0002:00002908       __real@408f400000000000    10065908     xpctarget.obj
 0002:00002918       _electromagnetAndLoadCell_BIOMAP 10065918     appmappingData.obj
 0002:0000293c       _electromagnetAndLoadCell_LBLMAP 1006593c     appmappingData.obj
 0002:00002960       _electromagnetAndLoadCell_SIDMAP 10065960     appmappingData.obj
 0002:00002984       _electromagnetAndLoadCell_SBIO 10065984     appmappingData.obj
 0002:00002990       _electromagnetAndLoadCell_SLBL 10065990     appmappingData.obj
 0002:0000299c       _electromagnetAndLoadCell_dtmap 1006599c     appmappingData.obj
 0002:000029a8       _electromagnetAndLoadCell_PTIDSMAP 100659a8     appmappingData.obj
 0002:00002a30       _electromagnetAndLoadCell_PTNAMESMAP 10065a30     appmappingData.obj
 0002:00002ab8       _electromagnetAndLoadCell_SPTMAP 10065ab8     appmappingData.obj
 0002:00002b00       _appInfo                   10065b00     appmappingData.obj
 0002:00002bbc       ??_C@_0CC@FIFFDAB@?$CFd?5input?5args?5expected?0?5?$CFd?5passe@ 10065bbc     adquanserq8.obj
 0002:00002be4       ??_C@_0L@GPCJJFPH@Quanser?5Q8?$AA@ 10065be4     adquanserq8.obj
 0002:00002bf4       ??_C@_0L@MDJMNKPL@Quanser?5Q4?$AA@ 10065bf4     adquanserq8.obj
 0002:00002c04       ??_C@_0BI@IHCNPKCM@No?5?$CFs?5at?5bus?5?$CFd?5slot?5?$CFd?$AA@ 10065c04     adquanserq8.obj
 0002:00002c20       ??_C@_0BN@HPKICLI@?$CFs?5A?1D?5driver?5internal?5error?$AA@ 10065c20     adquanserq8.obj
 0002:00002c48       __real@3f54000000000000    10065c48     adquanserq8.obj
 0002:00002c54       ??_C@_0BK@DJPPGIA@Bad?5channel?5in?5?$CFs?5D?1A?3?5?$CFn?$AA@ 10065c54     daquanserq8.obj
 0002:00002c74       ??_C@_0BI@OLGKMIEO@Bad?5range?5in?5?$CFs?5D?1A?3?5?$CFd?$AA@ 10065c74     daquanserq8.obj
 0002:00002c90       __real@4014000000000000    10065c90     daquanserq8.obj
 0002:00002ca0       __real@4024000000000000    10065ca0     daquanserq8.obj
 0002:00002cb0       __real@406999999999999a    10065cb0     daquanserq8.obj
 0002:00002cc0       __real@407999999999999a    10065cc0     daquanserq8.obj
 0002:00002ccc       ??_C@_0CC@DMFKNLL@VendorId?5?$DN?50x?$CFx?0?5DeviceId?5?$DN?50x?$CFx@ 10065ccc     xpcruntime:xpcimports.obj
 0002:00002cf4       ??_C@_0DH@OHCBLNMG@Subsystem?5Device?5ID?5?$DN?50x?$CFx?6Subsy@ 10065cf4     xpcruntime:xpcimports.obj
 0002:00002d38       ??_C@_0BD@MMMMEFCM@Class?5Code?5?$DN?50x?$CFx?6?$AA@ 10065d38     xpcruntime:xpcimports.obj
 0002:00002d50       ??_C@_0BE@OLDDDNHM@InterruptLine?5?$DN?5?$CFd?6?$AA@ 10065d50     xpcruntime:xpcimports.obj
 0002:00002d68       ??_C@_0BF@OLKLEKBD@bus?5?$DN?5?$CFd?0?5slot?5?$DN?5?$CFd?6?$AA@ 10065d68     xpcruntime:xpcimports.obj
 0002:00002d84       ??_C@_0CE@DGLLGDFH@?5?5?5?5Phys?5?5?5Virtual?5?5?5Length?5IO?1M@ 10065d84     xpcruntime:xpcimports.obj
 0002:00002db0       ??_C@_0BI@FEOPLEMG@?$CF08x?5?$CF08x?5?$CF08x?5?5?5?5?5?5?$CFc?6?$AA@ 10065db0     xpcruntime:xpcimports.obj
 0002:00002dcc       ??_C@_0BB@BNNCEDPC@rl32eScopeExists?$AA@ 10065dcc     xpcruntime:xpcimports.obj
 0002:00002de0       ??_C@_0BM@FJBFEGFG@rl32eScopeExists?5not?5found?6?$AA@ 10065de0     xpcruntime:xpcimports.obj
 0002:00002e04       ??_C@_0O@BNNGKJEA@rl32eDefScope?$AA@ 10065e04     xpcruntime:xpcimports.obj
 0002:00002e14       ??_C@_0BJ@CDNOENKA@rl32eDefScope?5not?5found?6?$AA@ 10065e14     xpcruntime:xpcimports.obj
 0002:00002e34       ??_C@_0P@CKNKILDP@rl32eAddSignal?$AA@ 10065e34     xpcruntime:xpcimports.obj
 0002:00002e48       ??_C@_0BK@GMJAJBAI@rl32eAddSignal?5not?5found?6?$AA@ 10065e48     xpcruntime:xpcimports.obj
 0002:00002e68       ??_C@_0BB@LDMIHGCE@rl32eGetSignalNo?$AA@ 10065e68     xpcruntime:xpcimports.obj
 0002:00002e7c       ??_C@_0BM@LGAMBAID@rl32eGetSignalNo?5not?5found?6?$AA@ 10065e7c     xpcruntime:xpcimports.obj
 0002:00002ea0       ??_C@_0O@CFDGALBP@rl32eSetScope?$AA@ 10065ea0     xpcruntime:xpcimports.obj
 0002:00002eb0       ??_C@_0BJ@JCLHHIN@rl32eSetScope?5not?5found?6?$AA@ 10065eb0     xpcruntime:xpcimports.obj
 0002:00002ed0       ??_C@_0P@IKMCBMHH@xpceFSScopeSet?$AA@ 10065ed0     xpcruntime:xpcimports.obj
 0002:00002ee4       ??_C@_0BK@JODJPNNH@xpceFSScopeSet?5not?5found?6?$AA@ 10065ee4     xpcruntime:xpcimports.obj
 0002:00002f04       ??_C@_0BE@DLACEEJM@rl32eSetTargetScope?$AA@ 10065f04     xpcruntime:xpcimports.obj
 0002:00002f1c       ??_C@_0BP@JCHFMKPJ@rl32eSetTargetScope?5not?5found?6?$AA@ 10065f1c     xpcruntime:xpcimports.obj
 0002:00002f44       ??_C@_0BJ@LIDLNDHC@rl32eSetTargetScopeSigFt?$AA@ 10065f44     xpcruntime:xpcimports.obj
 0002:00002f64       ??_C@_0CE@JLGHCFHI@rl32eSetTargetScopeSigFt?5not?5fou@ 10065f64     xpcruntime:xpcimports.obj
 0002:00002f90       ??_C@_0BI@JAPOIDNG@rl32eRestartAcquisition?$AA@ 10065f90     xpcruntime:xpcimports.obj
 0002:00002fac       ??_C@_0CD@LLBEFFBO@rl32eRestartAcquisition?5not?5foun@ 10065fac     xpcruntime:xpcimports.obj
 0002:00002fd8       ??_C@_0P@IEIIADJB@xpceScopeAcqOK?$AA@ 10065fd8     xpcruntime:xpcimports.obj
 0002:00002fec       ??_C@_0BK@NJCKNFPN@xpceScopeAcqOK?5not?5found?6?$AA@ 10065fec     xpcruntime:xpcimports.obj
 0002:0000300c       ??_C@_0BA@IJINKAHF@xpceRegisterISR?$AA@ 1006600c     xpcruntime:xpcimports.obj
 0002:00003020       ??_C@_0BL@NNDLOEJE@xpceRegisterISR?5not?5found?6?$AA@ 10066020     xpcruntime:xpcimports.obj
 0002:00003040       ??_C@_0BC@NLBADGKF@xpceDeRegisterISR?$AA@ 10066040     xpcruntime:xpcimports.obj
 0002:00003058       ??_C@_0BN@DCAIKFFD@xpceDeRegisterISR?5not?5found?6?$AA@ 10066058     xpcruntime:xpcimports.obj
 0002:0000307c       ??_C@_07JPMEPILD@xpcInpB?$AA@ 1006607c     xpcruntime:xpcimports.obj
 0002:00003088       ??_C@_0BD@PGABEJOL@xpcInpB?5not?5found?6?$AA@ 10066088     xpcruntime:xpcimports.obj
 0002:000030a0       ??_C@_07KIHBBOKH@xpcInpW?$AA@ 100660a0     xpcruntime:xpcimports.obj
 0002:000030ac       ??_C@_0BD@FPCJFMCC@xpcInpW?5not?5found?6?$AA@ 100660ac     xpcruntime:xpcimports.obj
 0002:000030c4       ??_C@_08KDIAJBOP@xpcInpDW?$AA@ 100660c4     xpcruntime:xpcimports.obj
 0002:000030d0       ??_C@_0BE@PIELDNIL@xpcInpDW?5not?5found?6?$AA@ 100660d0     xpcruntime:xpcimports.obj
 0002:000030e8       ??_C@_08PJFMOIGO@xpcOutpB?$AA@ 100660e8     xpcruntime:xpcimports.obj
 0002:000030f4       ??_C@_0BE@HCKNCEKF@xpcOutpB?5not?5found?6?$AA@ 100660f4     xpcruntime:xpcimports.obj
 0002:0000310c       ??_C@_08MOOJAOHK@xpcOutpW?$AA@ 1006610c     xpcruntime:xpcimports.obj
 0002:00003118       ??_C@_0BE@NLIFDBGM@xpcOutpW?5not?5found?6?$AA@ 10066118     xpcruntime:xpcimports.obj
 0002:00003130       ??_C@_09FLIEKHJG@xpcOutpDW?$AA@ 10066130     xpcruntime:xpcimports.obj
 0002:0000313c       ??_C@_0BF@GJKLPNHB@xpcOutpDW?5not?5found?6?$AA@ 1006613c     xpcruntime:xpcimports.obj
 0002:00003158       ??_C@_0BH@EHOLELHH@xpcReserveMemoryRegion?$AA@ 10066158     xpcruntime:xpcimports.obj
 0002:00003174       ??_C@_0CC@KAAAGPI@xpcReserveMemoryRegion?5not?5found@ 10066174     xpcruntime:xpcimports.obj
 0002:0000319c       ??_C@_0BA@JGPMHGAF@rl32eShowPCIDev?$AA@ 1006619c     xpcruntime:xpcimports.obj
 0002:000031b0       ??_C@_0BL@DDFFLNHI@rl32eShowPCIDev?5not?5found?6?$AA@ 100661b0     xpcruntime:xpcimports.obj
 0002:000031d0       ??_C@_0BB@KBCOJPFB@rl32eShowPCIInfo?$AA@ 100661d0     xpcruntime:xpcimports.obj
 0002:000031e4       ??_C@_0BM@IFDMAGLO@rl32eShowPCIInfo?5not?5found?6?$AA@ 100661e4     xpcruntime:xpcimports.obj
 0002:00003208       ??_C@_0BA@BGPAADB@rl32eGetPCIInfo?$AA@ 10066208     xpcruntime:xpcimports.obj
 0002:0000321c       ??_C@_0BL@IGOMLDCK@rl32eGetPCIInfo?5not?5found?6?$AA@ 1006621c     xpcruntime:xpcimports.obj
 0002:0000323c       ??_C@_0BG@NJPFKFDP@rl32eGetPCIInfoAtSlot?$AA@ 1006623c     xpcruntime:xpcimports.obj
 0002:00003258       ??_C@_0CB@BBKIPMLA@rl32eGetPCIInfoAtSlot?5not?5found?6@ 10066258     xpcruntime:xpcimports.obj
 0002:00003280       ??_C@_0BH@OKBOPNFG@xpceAssignPCIInterrupt?$AA@ 10066280     xpcruntime:xpcimports.obj
 0002:0000329c       ??_C@_0CC@CDNDNJBJ@xpceAssignPCIInterrupt?5not?5found@ 1006629c     xpcruntime:xpcimports.obj
 0002:000032c4       ??_C@_0BD@PCKOKHO@xpceGetSignalValue?$AA@ 100662c4     xpcruntime:xpcimports.obj
 0002:000032dc       ??_C@_0BO@GCBDJHMB@xpceGetSignalValue?5not?5found?6?$AA@ 100662dc     xpcruntime:xpcimports.obj
 0002:00003300       ??_C@_0BB@BJONJAGA@xpceSetParameter?$AA@ 10066300     xpcruntime:xpcimports.obj
 0002:00003314       ??_C@_0BM@BJIKDLHA@xpceSetParameter?5not?5found?6?$AA@ 10066314     xpcruntime:xpcimports.obj
 0002:00003338       ??_C@_0BB@GNFDFMCM@xpceGetParameter?$AA@ 10066338     xpcruntime:xpcimports.obj
 0002:0000334c       ??_C@_0BM@POHNKBC@xpceGetParameter?5not?5found?6?$AA@ 1006634c     xpcruntime:xpcimports.obj
 0002:00003370       ??_C@_0BB@CEIJLFCD@xpceGetParamDims?$AA@ 10066370     xpcruntime:xpcimports.obj
 0002:00003384       ??_C@_0BM@OABDBKAO@xpceGetParamDims?5not?5found?6?$AA@ 10066384     xpcruntime:xpcimports.obj
 0002:000033a8       ??_C@_0L@OCBLLHBM@xpceGetTET?$AA@ 100663a8     xpcruntime:xpcimports.obj
 0002:000033b8       ??_C@_0BG@HNOFBOB@xpceGetTET?5not?5found?6?$AA@ 100663b8     xpcruntime:xpcimports.obj
 0002:000033d4       ??_C@_0P@OKGNGAGH@xpcIsModelInit?$AA@ 100663d4     xpcruntime:xpcimports.obj
 0002:000033e8       ??_C@_0BK@DHEMLBIM@xpcIsModelInit?5not?5found?6?$AA@ 100663e8     xpcruntime:xpcimports.obj
 0002:00003408       ??_C@_0BH@KJJLCAOJ@xpcAllocPhysicalMemory?$AA@ 10066408     xpcruntime:xpcimports.obj
 0002:00003424       ??_C@_0CC@MOJPNHKL@xpcAllocPhysicalMemory?5not?5found@ 10066424     xpcruntime:xpcimports.obj
 0002:0000344c       ??_C@_0BG@CBNPGAEL@xpcFreePhysicalMemory?$AA@ 1006644c     xpcruntime:xpcimports.obj
 0002:00003468       ??_C@_0CB@PKJEBPOG@xpcFreePhysicalMemory?5not?5found?6@ 10066468     xpcruntime:xpcimports.obj
 0002:00003490       ??_C@_0BC@JGKNLICL@xpcGetElapsedTime?$AA@ 10066490     xpcruntime:xpcimports.obj
 0002:000034a8       ??_C@_0BN@OEOAHCIO@xpcGetElapsedTime?5not?5found?6?$AA@ 100664a8     xpcruntime:xpcimports.obj
 0002:000034cc       ??_C@_0M@ICBLMODA@xpcBusyWait?$AA@ 100664cc     xpcruntime:xpcimports.obj
 0002:000034dc       ??_C@_0BH@FBOPECBI@xpcBusyWait?5not?5found?6?$AA@ 100664dc     xpcruntime:xpcimports.obj
 0002:000034f8       ??_C@_0N@LKKJEKKA@TBCreateSpin?$AA@ 100664f8     xpcruntime:xpcimports.obj
 0002:00003508       ??_C@_0BI@FHKMLKOE@TBCreateSpin?5not?5found?6?$AA@ 10066508     xpcruntime:xpcimports.obj
 0002:00003524       ??_C@_0N@HOAJHNBD@TBDeleteSpin?$AA@ 10066524     xpcruntime:xpcimports.obj
 0002:00003534       ??_C@_0BI@BKCPAAG@TBDeleteSpin?5not?5found?6?$AA@ 10066534     xpcruntime:xpcimports.obj
 0002:00003550       ??_C@_0P@DAHDDBJG@TBTakeSpinFast?$AA@ 10066550     xpcruntime:xpcimports.obj
 0002:00003564       ??_C@_0BK@NKAIBHGB@TBTakeSpinFast?5not?5found?6?$AA@ 10066564     xpcruntime:xpcimports.obj
 0002:00003584       ??_C@_0P@FKNAAELA@TBGiveSpinFast?$AA@ 10066584     xpcruntime:xpcimports.obj
 0002:00003598       ??_C@_0BK@KGPJBJND@TBGiveSpinFast?5not?5found?6?$AA@ 10066598     xpcruntime:xpcimports.obj
 0002:000035b8       ??_C@_0BE@IIGBFDHK@xpceCreateSemaphore?$AA@ 100665b8     xpcruntime:xpcimports.obj
 0002:000035d0       ??_C@_0BP@KFBAFFKJ@xpceCreateSemaphore?5not?5found?6?$AA@ 100665d0     xpcruntime:xpcimports.obj
 0002:000035f8       ??_C@_0BC@IFNIONKJ@xpceWaitSemaphore?$AA@ 100665f8     xpcruntime:xpcimports.obj
 0002:00003610       ??_C@_0BN@NMFAADIO@xpceWaitSemaphore?5not?5found?6?$AA@ 10066610     xpcruntime:xpcimports.obj
 0002:00003634       ??_C@_0BE@NNDIOBKE@xpceSignalSemaphore?$AA@ 10066634     xpcruntime:xpcimports.obj
 0002:0000364c       ??_C@_0BP@LBANMHJP@xpceSignalSemaphore?5not?5found?6?$AA@ 1006664c     xpcruntime:xpcimports.obj
 0002:00003674       ??_C@_0BE@MEBEKOIM@xpceDeleteSemaphore?$AA@ 10066674     xpcruntime:xpcimports.obj
 0002:0000368c       ??_C@_0BP@OFNCKOJH@xpceDeleteSemaphore?5not?5found?6?$AA@ 1006668c     xpcruntime:xpcimports.obj
 0002:000036b4       ??_C@_0BD@MFNDMBOF@FindUsbVideoDevice?$AA@ 100666b4     xpcruntime:xpcimports.obj
 0002:000036cc       ??_C@_0BO@POKLDHMI@FindUsbVideoDevice?5not?5found?6?$AA@ 100666cc     xpcruntime:xpcimports.obj
 0002:000036f0       ??_C@_0BA@PLPAPNAB@GetVideoConfigs?$AA@ 100666f0     xpcruntime:xpcimports.obj
 0002:00003704       ??_C@_0BL@DALDHKHC@GetVideoConfigs?5not?5found?6?$AA@ 10066704     xpcruntime:xpcimports.obj
 0002:00003724       ??_C@_0L@GBAEMHMH@StartVideo?$AA@ 10066724     xpcruntime:xpcimports.obj
 0002:00003734       ??_C@_0BG@HDCELEBP@StartVideo?5not?5found?6?$AA@ 10066734     xpcruntime:xpcimports.obj
 0002:00003750       ??_C@_0BA@FDNPOCLN@ReadFrameBuffer?$AA@ 10066750     xpcruntime:xpcimports.obj
 0002:00003764       ??_C@_0BL@JHGHPNBI@ReadFrameBuffer?5not?5found?6?$AA@ 10066764     xpcruntime:xpcimports.obj
 0002:00003784       ??_C@_09FAHCLKAG@StopVideo?$AA@ 10066784     xpcruntime:xpcimports.obj
 0002:00003790       ??_C@_0BF@NKGKKADL@StopVideo?5not?5found?6?$AA@ 10066790     xpcruntime:xpcimports.obj
 0002:000037ac       ??_C@_0O@MCPKDLLL@ConvertUImage?$AA@ 100667ac     xpcruntime:xpcimports.obj
 0002:000037bc       ??_C@_0BJ@PHJKOAFL@ConvertUImage?5not?5found?6?$AA@ 100667bc     xpcruntime:xpcimports.obj
 0002:000037dc       ??_C@_0BD@NKCBPBJJ@CreateVideoDisplay?$AA@ 100667dc     xpcruntime:xpcimports.obj
 0002:000037f4       ??_C@_0BO@HPPLLNFP@CreateVideoDisplay?5not?5found?6?$AA@ 100667f4     xpcruntime:xpcimports.obj
 0002:00003818       ??_C@_0BE@KJCKGPHA@DestroyVideoDisplay?$AA@ 10066818     xpcruntime:xpcimports.obj
 0002:00003830       ??_C@_0BP@FMGLJAIJ@DestroyVideoDisplay?5not?5found?6?$AA@ 10066830     xpcruntime:xpcimports.obj
 0002:00003858       ??_C@_0BC@HCMIMIDN@StartVideoDisplay?$AA@ 10066858     xpcruntime:xpcimports.obj
 0002:00003870       ??_C@_0BN@EFIEBGOO@StartVideoDisplay?5not?5found?6?$AA@ 10066870     xpcruntime:xpcimports.obj
 0002:00003894       ??_C@_0BB@JBBLMILG@StopVideoDisplay?$AA@ 10066894     xpcruntime:xpcimports.obj
 0002:000038a8       ??_C@_0BM@DBJBPLEL@StopVideoDisplay?5not?5found?6?$AA@ 100668a8     xpcruntime:xpcimports.obj
 0002:000038cc       ??_C@_0M@MFJEGMHC@StreamVideo?$AA@ 100668cc     xpcruntime:xpcimports.obj
 0002:000038dc       ??_C@_0BH@OINCDMLA@StreamVideo?5not?5found?6?$AA@ 100668dc     xpcruntime:xpcimports.obj
 0002:000038f8       ??_C@_0N@IGGLCIGE@xpceaddEvent?$AA@ 100668f8     xpcruntime:xpcimports.obj
 0002:00003908       ??_C@_0BI@NHJNFMKH@xpceaddEvent?5not?5found?6?$AA@ 10066908     xpcruntime:xpcimports.obj
 0002:00003924       ??_C@_0BB@HDPOIJAB@xpceDAQPostEvent?$AA@ 10066924     xpcruntime:xpcimports.obj
 0002:00003938       ??_C@_0BM@IHANBKGN@xpceDAQPostEvent?5not?5found?6?$AA@ 10066938     xpcruntime:xpcimports.obj
 0002:0000395c       ??_C@_0BH@MBACMOD@xpceDAQUpdateTimeStamp?$AA@ 1006695c     xpcruntime:xpcimports.obj
 0002:00003978       ??_C@_0CC@DAKBBINL@xpceDAQUpdateTimeStamp?5not?5found@ 10066978     xpcruntime:xpcimports.obj
 0002:000039a0       ??_C@_0BN@HJOHIFOM@xpceGetIntTimerGranularityNS?$AA@ 100669a0     xpcruntime:xpcimports.obj
 0002:000039c4       ??_C@_0CI@OADDPMKB@xpceGetIntTimerGranularityNS?5not@ 100669c4     xpcruntime:xpcimports.obj
 0002:000039f4       ??_C@_0BG@CCHICKPN@slrteSetStepSizeDelta?$AA@ 100669f4     xpcruntime:xpcimports.obj
 0002:00003a10       ??_C@_0CB@MKHINEIJ@slrteSetStepSizeDelta?5not?5found?6@ 10066a10     xpcruntime:xpcimports.obj
 0002:00003a38       ??_C@_0BI@CLNBLDKJ@slrteGetCurrentStepSize?$AA@ 10066a38     xpcruntime:xpcimports.obj
 0002:00003a54       ??_C@_0CD@GIOJPGJA@slrteGetCurrentStepSize?5not?5foun@ 10066a54     xpcruntime:xpcimports.obj
 0002:00003a80       ??_C@_0BE@FCLCBOC@registerPTPTimeRead?$AA@ 10066a80     xpcruntime:xpcimports.obj
 0002:00003a98       ??_C@_0BP@LHPKAJIP@registerPTPTimeRead?5not?5found?6?$AA@ 10066a98     xpcruntime:xpcimports.obj
 0002:00003ac0       ??_C@_0BG@KIGCDDJI@unRegisterPTPTimeRead?$AA@ 10066ac0     xpcruntime:xpcimports.obj
 0002:00003adc       ??_C@_0CB@MLFFBFCM@unRegisterPTPTimeRead?5not?5found?6@ 10066adc     xpcruntime:xpcimports.obj
 0002:00003b04       ??_C@_0BB@IPMDDBHK@slTestInitialize?$AA@ 10066b04     xpcruntime:xpcimports.obj
 0002:00003b18       ??_C@_0BM@LAJFCCJH@slTestInitialize?5not?5found?6?$AA@ 10066b18     xpcruntime:xpcimports.obj
 0002:00003b3c       ??_C@_0BF@OOMPMEBC@slTestLogAssessments?$AA@ 10066b3c     xpcruntime:xpcimports.obj
 0002:00003b58       ??_C@_0CA@FGJCEBAG@slTestLogAssessments?5not?5found?6?$AA@ 10066b58     xpcruntime:xpcimports.obj
 0002:00003b80       ??_C@_0BB@HJHKONHO@slTestEvalOnFail?$AA@ 10066b80     xpcruntime:xpcimports.obj
 0002:00003b94       ??_C@_0BM@JIKCFFNJ@slTestEvalOnFail?5not?5found?6?$AA@ 10066b94     xpcruntime:xpcimports.obj
 0002:00003bb8       ??_C@_0BA@LBHLABFP@slTestTerminate?$AA@ 10066bb8     xpcruntime:xpcimports.obj
 0002:00003bcc       ??_C@_0BL@EMFGKAPA@slTestTerminate?5not?5found?6?$AA@ 10066bcc     xpcruntime:xpcimports.obj
 0002:00003bec       ??_C@_0BE@JPNPBBEO@slTestRegAssessment?$AA@ 10066bec     xpcruntime:xpcimports.obj
 0002:00003c04       ??_C@_0BP@FBDEJJJH@slTestRegAssessment?5not?5found?6?$AA@ 10066c04     xpcruntime:xpcimports.obj
 0002:00003c2c       ??_C@_0O@NCLGDNIB@slrteSetupMSI?$AA@ 10066c2c     xpcruntime:xpcimports.obj
 0002:00003c3c       ??_C@_0BJ@HEFMECLM@slrteSetupMSI?5not?5found?6?$AA@ 10066c3c     xpcruntime:xpcimports.obj
 0002:00003c5c       ??_C@_0BH@BPOLALHD@slrtGetCRBScratchSpace?$AA@ 10066c5c     xpcruntime:xpcimports.obj
 0002:00003c78       ??_C@_0CC@KCKAJKKJ@slrtGetCRBScratchSpace?5not?5found@ 10066c78     xpcruntime:xpcimports.obj
 0002:00003ca0       ??_C@_0BC@MKFDAKOL@slrtGetSgCRBSpace?$AA@ 10066ca0     xpcruntime:xpcimports.obj
 0002:00003cb8       ??_C@_0BN@JDPHPLHL@slrtGetSgCRBSpace?5not?5found?6?$AA@ 10066cb8     xpcruntime:xpcimports.obj
 0002:00003cdc       ??_C@_0P@EPAPKLIF@slrtfsOpenFile?$AA@ 10066cdc     xpcruntime:xpcimports.obj
 0002:00003cf0       ??_C@_0BK@FIHCBOHG@slrtfsOpenFile?5not?5found?6?$AA@ 10066cf0     xpcruntime:xpcimports.obj
 0002:00003d10       ??_C@_0BA@LILAFDDL@slrtfsCloseFile?$AA@ 10066d10     xpcruntime:xpcimports.obj
 0002:00003d24       ??_C@_0BL@DEGHJFIB@slrtfsCloseFile?5not?5found?6?$AA@ 10066d24     xpcruntime:xpcimports.obj
 0002:00003d44       ??_C@_0BC@OKMJDIEH@slrtfsWriteToFile?$AA@ 10066d44     xpcruntime:xpcimports.obj
 0002:00003d5c       ??_C@_0BN@KCFLCLAH@slrtfsWriteToFile?5not?5found?6?$AA@ 10066d5c     xpcruntime:xpcimports.obj
 0002:00003d80       ??_C@_0BK@GIPNFFFF@slrtfsGetFileErrorMessage?$AA@ 10066d80     xpcruntime:xpcimports.obj
 0002:00003da0       ??_C@_0CF@BCBLMKLE@slrtfsGetFileErrorMessage?5not?5fo@ 10066da0     xpcruntime:xpcimports.obj
 0002:00003dcc       ??_C@_0BD@ICBOKMK@slrtfsGetFileError?$AA@ 10066dcc     xpcruntime:xpcimports.obj
 0002:00003de4       ??_C@_0BO@FNBANAE@slrtfsGetFileError?5not?5found?6?$AA@ 10066de4     xpcruntime:xpcimports.obj
 0002:00003e08       ??_C@_0BE@PPAJMHJP@slrtfsOpenFileAsync?$AA@ 10066e08     xpcruntime:xpcimports.obj
 0002:00003e20       ??_C@_0BP@HKBMMJOK@slrtfsOpenFileAsync?5not?5found?6?$AA@ 10066e20     xpcruntime:xpcimports.obj
 0002:00003e48       ??_C@_0BF@IGNDIBPF@slrtfsCloseFileAsync?$AA@ 10066e48     xpcruntime:xpcimports.obj
 0002:00003e64       ??_C@_0CA@GJPFDBKN@slrtfsCloseFileAsync?5not?5found?6?$AA@ 10066e64     xpcruntime:xpcimports.obj
 0002:00003e8c       ??_C@_0BE@IOLEBNB@slrtfsGetFileStatus?$AA@ 10066e8c     xpcruntime:xpcimports.obj
 0002:00003ea4       ??_C@_0BP@PEFHDGHL@slrtfsGetFileStatus?5not?5found?6?$AA@ 10066ea4     xpcruntime:xpcimports.obj
 0002:00003ecc       ??_C@_0M@HKIJIMG@slrtfsFread?$AA@ 10066ecc     xpcruntime:xpcimports.obj
 0002:00003edc       ??_C@_0BH@OOKBGONO@slrtfsFread?5not?5found?6?$AA@ 10066edc     xpcruntime:xpcimports.obj
 0002:00003ef8       ??_C@_0BE@OGCMPLAP@slrtGetDefaultDrive?$AA@ 10066ef8     xpcruntime:xpcimports.obj
 0002:00003f10       ??_C@_0BP@HKFGLHOE@slrtGetDefaultDrive?5not?5found?6?$AA@ 10066f10     xpcruntime:xpcimports.obj
 0002:00003f38       ??_C@_0N@NAJIKFFI@slrtLogEvent?$AA@ 10066f38     xpcruntime:xpcimports.obj
 0002:00003f48       ??_C@_0BI@NKCEACND@slrtLogEvent?5not?5found?6?$AA@ 10066f48     xpcruntime:xpcimports.obj
 0002:00003f64       ??_C@_0N@IDKFJOHI@getlasterror?$AA@ 10066f64     xpcruntime:xpcimports.obj
 0002:00003f74       ??_C@_0BI@MIHMCHGL@getlasterror?5not?5found?6?$AA@ 10066f74     xpcruntime:xpcimports.obj
 0002:00003f90       ??_C@_0P@OKHGKJKN@geterrorstring?$AA@ 10066f90     xpcruntime:xpcimports.obj
 0002:00003fa4       ??_C@_0BK@NOHFDMLP@geterrorstring?5not?5found?6?$AA@ 10066fa4     xpcruntime:xpcimports.obj
 0002:00003fc4       ??_C@_0BD@HNFFKMGJ@slrtGetCPUTCelsius?$AA@ 10066fc4     xpcruntime:xpcimports.obj
 0002:00003fdc       ??_C@_0BO@LHBFKLIH@slrtGetCPUTCelsius?5not?5found?6?$AA@ 10066fdc     xpcruntime:xpcimports.obj
 0002:00004000       ??_C@_0M@OONCNCLM@slrtWarning?$AA@ 10067000     xpcruntime:xpcimports.obj
 0002:00004010       ??_C@_0BH@ICKGIEMB@slrtWarning?5not?5found?6?$AA@ 10067010     xpcruntime:xpcimports.obj
 0002:0000402c       ??_C@_0N@EAAOMIIE@isUsedByRTIP?$AA@ 1006702c     xpcruntime:xpcimports.obj
 0002:0000403c       ??_C@_0BI@GNHHHICK@isUsedByRTIP?5not?5found?6?$AA@ 1006703c     xpcruntime:xpcimports.obj
 0002:00004058       ??_C@_0BC@HLDKJAG@SetIPTASKPriority?$AA@ 10067058     xpcruntime:xpcimports.obj
 0002:00004070       ??_C@_0BN@OGKMHHAE@SetIPTASKPriority?5not?5found?6?$AA@ 10067070     xpcruntime:xpcimports.obj
 0002:00004094       ??_C@_0O@LHENMBDD@OpenInterface?$AA@ 10067094     xpcruntime:xpcimports.obj
 0002:000040a4       ??_C@_0BJ@PFGDBKHB@OpenInterface?5not?5found?6?$AA@ 100670a4     xpcruntime:xpcimports.obj
 0002:000040c4       ??_C@_0P@IINFELKD@CloseInterface?$AA@ 100670c4     xpcruntime:xpcimports.obj
 0002:000040d8       ??_C@_0BK@PAPDNDBK@CloseInterface?5not?5found?6?$AA@ 100670d8     xpcruntime:xpcimports.obj
 0002:000040f8       ??_C@_05LEFIAAOI@SetIP?$AA@ 100670f8     xpcruntime:xpcimports.obj
 0002:00004100       ??_C@_0BB@CGLIBAMM@SetIP?5not?5found?6?$AA@ 10067100     xpcruntime:xpcimports.obj
 0002:00004114       ??_C@_0BA@HIJJHHMD@AddGatewayRoute?$AA@ 10067114     xpcruntime:xpcimports.obj
 0002:00004128       ??_C@_0BL@BFCFMDMN@AddGatewayRoute?5not?5found?6?$AA@ 10067128     xpcruntime:xpcimports.obj
 0002:00004148       ??_C@_0M@PHMABFPI@DeleteRoute?$AA@ 10067148     xpcruntime:xpcimports.obj
 0002:00004158       ??_C@_0BH@JPJGLLID@DeleteRoute?5not?5found?6?$AA@ 10067158     xpcruntime:xpcimports.obj
 0002:00004174       ??_C@_0BA@FCDIMKIJ@GetHostTarIPAdd?$AA@ 10067174     xpcruntime:xpcimports.obj
 0002:00004188       ??_C@_0BL@MBKDGKBO@GetHostTarIPAdd?5not?5found?6?$AA@ 10067188     xpcruntime:xpcimports.obj
 0002:000041a8       ??_C@_0M@HPMIPIBI@GetDCUUsage?$AA@ 100671a8     xpcruntime:xpcimports.obj
 0002:000041b8       ??_C@_0BH@EBLJKCJC@GetDCUUsage?5not?5found?6?$AA@ 100671b8     xpcruntime:xpcimports.obj
 0002:000041d4       ??_C@_06MPKMECK@accept?$AA@ 100671d4     xpcruntime:xpcimports.obj
 0002:000041dc       ??_C@_0BC@GBGIEMNO@accept?5not?5found?6?$AA@ 100671dc     xpcruntime:xpcimports.obj
 0002:000041f4       ??_C@_04NPNJNMMP@bind?$AA@ 100671f4     xpcruntime:xpcimports.obj
 0002:000041fc       ??_C@_0BA@DAJNENLO@bind?5not?5found?6?$AA@ 100671fc     xpcruntime:xpcimports.obj
 0002:00004210       ??_C@_0L@CKHNIFCM@setsockopt?$AA@ 10067210     xpcruntime:xpcimports.obj
 0002:00004220       ??_C@_0BG@MFIIOMFE@setsockopt?5not?5found?6?$AA@ 10067220     xpcruntime:xpcimports.obj
 0002:0000423c       ??_C@_0M@ODDJDCDK@closesocket?$AA@ 1006723c     xpcruntime:xpcimports.obj
 0002:0000424c       ??_C@_0BH@JHGHMIL@closesocket?5not?5found?6?$AA@ 1006724c     xpcruntime:xpcimports.obj
 0002:00004268       ??_C@_07KAIBNCHO@connect?$AA@ 10067268     xpcruntime:xpcimports.obj
 0002:00004274       ??_C@_0BD@MKLLMBM@connect?5not?5found?6?$AA@ 10067274     xpcruntime:xpcimports.obj
 0002:0000428c       ??_C@_0M@PBPOCKDG@ioctlsocket?$AA@ 1006728c     xpcruntime:xpcimports.obj
 0002:0000429c       ??_C@_0BH@NFCNHHIH@ioctlsocket?5not?5found?6?$AA@ 1006729c     xpcruntime:xpcimports.obj
 0002:000042b8       ??_C@_06OODDLKLE@listen?$AA@ 100672b8     xpcruntime:xpcimports.obj
 0002:000042c0       ??_C@_0BC@NHBILEKI@listen?5not?5found?6?$AA@ 100672c0     xpcruntime:xpcimports.obj
 0002:000042d8       ??_C@_08HMBBGFHE@recvfrom?$AA@ 100672d8     xpcruntime:xpcimports.obj
 0002:000042e4       ??_C@_0BE@BJAJFFLF@recvfrom?5not?5found?6?$AA@ 100672e4     xpcruntime:xpcimports.obj
 0002:000042fc       ??_C@_06MEPBGKEC@sendto?$AA@ 100672fc     xpcruntime:xpcimports.obj
 0002:00004304       ??_C@_0BC@BHPIMDJO@sendto?5not?5found?6?$AA@ 10067304     xpcruntime:xpcimports.obj
 0002:0000431c       ??_C@_09JKBDEEOB@inet_addr?$AA@ 1006731c     xpcruntime:xpcimports.obj
 0002:00004328       ??_C@_0BF@HKJPGECN@inet_addr?5not?5found?6?$AA@ 10067328     xpcruntime:xpcimports.obj
 0002:00004344       ??_C@_06HBELJPBO@socket?$AA@ 10067344     xpcruntime:xpcimports.obj
 0002:0000434c       ??_C@_0BC@NAGFFJGA@socket?5not?5found?6?$AA@ 1006734c     xpcruntime:xpcimports.obj
 0002:00004364       ??_C@_09ICJIFGNC@GetSocket?$AA@ 10067364     xpcruntime:xpcimports.obj
 0002:00004370       ??_C@_0BF@KDBCKMOJ@GetSocket?5not?5found?6?$AA@ 10067370     xpcruntime:xpcimports.obj
 0002:0000438c       ??_C@_0P@KJEGJMJI@GetSocketState?$AA@ 1006738c     xpcruntime:xpcimports.obj
 0002:000043a0       ??_C@_0BK@IALBJHEB@GetSocketState?5not?5found?6?$AA@ 100673a0     xpcruntime:xpcimports.obj
 0002:000043c0       ??_C@_0L@MEAJHNHB@SocketSend?$AA@ 100673c0     xpcruntime:xpcimports.obj
 0002:000043d0       ??_C@_0BG@EOCMBFJA@SocketSend?5not?5found?6?$AA@ 100673d0     xpcruntime:xpcimports.obj
 0002:000043ec       ??_C@_0O@PFPCLEMF@SocketReceive?$AA@ 100673ec     xpcruntime:xpcimports.obj
 0002:000043fc       ??_C@_0BJ@HIBADDFO@SocketReceive?5not?5found?6?$AA@ 100673fc     xpcruntime:xpcimports.obj
 0002:0000441c       ??_C@_0BD@OOGFNAIK@CreateServerSocket?$AA@ 1006741c     xpcruntime:xpcimports.obj
 0002:00004434       ??_C@_0BO@GKIJHIPH@CreateServerSocket?5not?5found?6?$AA@ 10067434     xpcruntime:xpcimports.obj
 0002:00004458       ??_C@_0BB@KGHJGFFO@OpenServerListen?$AA@ 10067458     xpcruntime:xpcimports.obj
 0002:0000446c       ??_C@_0BM@NFMMLIO@OpenServerListen?5not?5found?6?$AA@ 1006746c     xpcruntime:xpcimports.obj
 0002:00004490       ??_C@_0BE@BAJLDJAH@ConnectServerSocket?$AA@ 10067490     xpcruntime:xpcimports.obj
 0002:000044a8       ??_C@_0BP@KJNODIKE@ConnectServerSocket?5not?5found?6?$AA@ 100674a8     xpcruntime:xpcimports.obj
 0002:000044d0       ??_C@_0BC@PLKKJDIM@CloseServerSocket?$AA@ 100674d0     xpcruntime:xpcimports.obj
 0002:000044e8       ??_C@_0BN@KEJEPNMB@CloseServerSocket?5not?5found?6?$AA@ 100674e8     xpcruntime:xpcimports.obj
 0002:0000450c       ??_C@_0BD@MCLPKCPP@CreateClientSocket?$AA@ 1006750c     xpcruntime:xpcimports.obj
 0002:00004524       ??_C@_0BO@DILAGPFN@CreateClientSocket?5not?5found?6?$AA@ 10067524     xpcruntime:xpcimports.obj
 0002:00004548       ??_C@_0BB@DAPKNNLG@BindClientSocket?$AA@ 10067548     xpcruntime:xpcimports.obj
 0002:0000455c       ??_C@_0BM@LLLMMDFN@BindClientSocket?5not?5found?6?$AA@ 1006755c     xpcruntime:xpcimports.obj
 0002:00004580       ??_C@_0BE@DMEBELHC@ConnectClientSocket?$AA@ 10067580     xpcruntime:xpcimports.obj
 0002:00004598       ??_C@_0BP@PLOHCPAO@ConnectClientSocket?5not?5found?6?$AA@ 10067598     xpcruntime:xpcimports.obj
 0002:000045c0       ??_C@_0BC@NHHAOBPJ@CloseClientSocket?$AA@ 100675c0     xpcruntime:xpcimports.obj
 0002:000045d8       ??_C@_0BN@PGKNOKGL@CloseClientSocket?5not?5found?6?$AA@ 100675d8     xpcruntime:xpcimports.obj
 0002:000046a8       __pRawDllMain              100676a8     LIBCMT:dll_dllmain.obj
 0002:000046a8       __pDefaultRawDllMain       100676a8     LIBCMT:dll_dllmain.obj
 0002:000046c0       ??_C@_1BC@DNHGCMLG@?$AAa?$AAd?$AAv?$AAa?$AAp?$AAi?$AA3?$AA2?$AA?$AA@ 100676c0     libvcruntime:winapi_downlevel.obj
 0002:000046d8       ??_C@_1DM@KHCHBNEB@?$AAa?$AAp?$AAi?$AA?9?$AAm?$AAs?$AA?9?$AAw?$AAi?$AAn?$AA?9?$AAc?$AAo?$AAr?$AAe?$AA?9?$AAf?$AAi?$AAb?$AAe?$AAr?$AAs?$AA?9?$AAl?$AA1?$AA?9?$AA1?$AA?9?$AA1?$AA?$AA@ 100676d8     libvcruntime:winapi_downlevel.obj
 0002:00004720       ??_C@_1DK@LPPGFMPP@?$AAa?$AAp?$AAi?$AA?9?$AAm?$AAs?$AA?9?$AAw?$AAi?$AAn?$AA?9?$AAc?$AAo?$AAr?$AAe?$AA?9?$AAs?$AAy?$AAn?$AAc?$AAh?$AA?9?$AAl?$AA1?$AA?9?$AA2?$AA?9?$AA0?$AA?$AA@ 10067720     libvcruntime:winapi_downlevel.obj
 0002:00004768       ??_C@_1BC@GDMECMAK@?$AAk?$AAe?$AAr?$AAn?$AAe?$AAl?$AA3?$AA2?$AA?$AA@ 10067768     libvcruntime:winapi_downlevel.obj
 0002:00004784       ??_C@_0O@BAMBGLIE@EventRegister?$AA@ 10067784     libvcruntime:winapi_downlevel.obj
 0002:00004798       ??_C@_0BE@BJEEGHGK@EventSetInformation?$AA@ 10067798     libvcruntime:winapi_downlevel.obj
 0002:000047b4       ??_C@_0BA@FAKLIPIC@EventUnregister?$AA@ 100677b4     libvcruntime:winapi_downlevel.obj
 0002:000047cc       ??_C@_0BD@PKLHJPHD@EventWriteTransfer?$AA@ 100677cc     libvcruntime:winapi_downlevel.obj
 0002:000047f0       ??_C@_08KNHFBNJ@FlsAlloc?$AA@ 100677f0     libvcruntime:winapi_downlevel.obj
 0002:00004808       ??_C@_07PEJMOBNF@FlsFree?$AA@ 10067808     libvcruntime:winapi_downlevel.obj
 0002:00004820       ??_C@_0M@GDNOONDI@FlsGetValue?$AA@ 10067820     libvcruntime:winapi_downlevel.obj
 0002:0000483c       ??_C@_0M@JCPCPOEF@FlsSetValue?$AA@ 1006783c     libvcruntime:winapi_downlevel.obj
 0002:00004858       ??_C@_0BM@HCFOFFN@InitializeCriticalSectionEx?$AA@ 10067858     libvcruntime:winapi_downlevel.obj
 0002:00004a60       ??_C@_08EHJDFFNH@__based?$CI?$AA@ 10067a60     libvcruntime:undname.obj
 0002:00004a6c       ??_C@_07KOLFKCDI@__cdecl?$AA@ 10067a6c     libvcruntime:undname.obj
 0002:00004a78       ??_C@_08GHMPAG@__pascal?$AA@ 10067a78     libvcruntime:undname.obj
 0002:00004a84       ??_C@_09IFJBGAPI@__stdcall?$AA@ 10067a84     libvcruntime:undname.obj
 0002:00004a90       ??_C@_0L@NPHFGOKO@__thiscall?$AA@ 10067a90     libvcruntime:undname.obj
 0002:00004aa0       ??_C@_0L@JMKHOMEK@__fastcall?$AA@ 10067aa0     libvcruntime:undname.obj
 0002:00004ab0       ??_C@_0N@BCKKPABJ@__vectorcall?$AA@ 10067ab0     libvcruntime:undname.obj
 0002:00004ac0       ??_C@_09HIJEGCPM@__clrcall?$AA@ 10067ac0     libvcruntime:undname.obj
 0002:00004acc       ??_C@_06GHPCKEAG@__eabi?$AA@ 10067acc     libvcruntime:undname.obj
 0002:00004ad4       ??_C@_07JOMMBBKO@__ptr64?$AA@ 10067ad4     libvcruntime:undname.obj
 0002:00004ae0       ??_C@_0L@PILCLIHE@__restrict?$AA@ 10067ae0     libvcruntime:undname.obj
 0002:00004af0       ??_C@_0M@GFIIJFMG@__unaligned?$AA@ 10067af0     libvcruntime:undname.obj
 0002:00004b00       ??_C@_09DHDLOLLB@restrict?$CI?$AA@ 10067b00     libvcruntime:undname.obj
 0002:00004b0c       ??_C@_04NIHEBCM@?5new?$AA@ 10067b0c     libvcruntime:undname.obj
 0002:00004b14       ??_C@_07FPCDHGMM@?5delete?$AA@ 10067b14     libvcruntime:undname.obj
 0002:00004b20       ??_C@_01NEMOKFLO@?$DN?$AA@ 10067b20     libvcruntime:undname.obj
 0002:00004b24       ??_C@_02GPIOPFAK@?$DO?$DO?$AA@ 10067b24     libvcruntime:undname.obj
 0002:00004b28       ??_C@_02FODMEDOG@?$DM?$DM?$AA@ 10067b28     libvcruntime:undname.obj
 0002:00004b2c       ??_C@_01DCLJPIOD@?$CB?$AA@ 10067b2c     libvcruntime:undname.obj
 0002:00004b30       ??_C@_02EGOFBIJA@?$DN?$DN?$AA@ 10067b30     libvcruntime:undname.obj
 0002:00004b34       ??_C@_02FDNJECIE@?$CB?$DN?$AA@ 10067b34     libvcruntime:undname.obj
 0002:00004b38       ??_C@_02GPECMEKF@?$FL?$FN?$AA@ 10067b38     libvcruntime:undname.obj
 0002:00004b3c       ??_C@_08LHJFAFGD@operator?$AA@ 10067b3c     libvcruntime:undname.obj
 0002:00004b48       ??_C@_02HBOOOICD@?9?$DO?$AA@ 10067b48     libvcruntime:undname.obj
 0002:00004b4c       ??_C@_01NBENCBCI@?$CK?$AA@ 10067b4c     libvcruntime:undname.obj
 0002:00004b50       ??_C@_02ECNGHCIF@?$CL?$CL?$AA@ 10067b50     libvcruntime:undname.obj
 0002:00004b54       ??_C@_02BAABKJLB@?9?9?$AA@ 10067b54     libvcruntime:undname.obj
 0002:00004b58       ??_C@_01JOAMLHOP@?9?$AA@   10067b58     libvcruntime:undname.obj
 0002:00004b5c       ??_C@_01MIFGBAGJ@?$CL?$AA@ 10067b5c     libvcruntime:undname.obj
 0002:00004b60       ??_C@_01HNPIGOCE@?$CG?$AA@ 10067b60     libvcruntime:undname.obj
 0002:00004b64       ??_C@_03MNHNFDLC@?9?$DO?$CK?$AA@ 10067b64     libvcruntime:undname.obj
 0002:00004b68       ??_C@_01KMDKNFGN@?1?$AA@   10067b68     libvcruntime:undname.obj
 0002:00004b6c       ??_C@_01FGNFDNOH@?$CF?$AA@ 10067b6c     libvcruntime:undname.obj
 0002:00004b70       ??_C@_01MNNFJEPP@?$DM?$AA@ 10067b70     libvcruntime:undname.obj
 0002:00004b74       ??_C@_02EHCHHCKH@?$DM?$DN?$AA@ 10067b74     libvcruntime:undname.obj
 0002:00004b78       ??_C@_01PPODPGHN@?$DO?$AA@ 10067b78     libvcruntime:undname.obj
 0002:00004b7c       ??_C@_02EEKDKGMJ@?$DO?$DN?$AA@ 10067b7c     libvcruntime:undname.obj
 0002:00004b80       ??_C@_01IHBHIGKO@?0?$AA@   10067b80     libvcruntime:undname.obj
 0002:00004b84       ??_C@_02HCKGKOFO@?$CI?$CJ?$AA@ 10067b84     libvcruntime:undname.obj
 0002:00004b88       ??_C@_01PJKLJHI@?$HO?$AA@  10067b88     libvcruntime:undname.obj
 0002:00004b8c       ??_C@_01JKBOJNNK@?$FO?$AA@ 10067b8c     libvcruntime:undname.obj
 0002:00004b90       ??_C@_01DNKMNLPK@?$HM?$AA@ 10067b90     libvcruntime:undname.obj
 0002:00004b94       ??_C@_02PPKAJPJL@?$CG?$CG?$AA@ 10067b94     libvcruntime:undname.obj
 0002:00004b98       ??_C@_02NONPIBCD@?$HM?$HM?$AA@ 10067b98     libvcruntime:undname.obj
 0002:00004b9c       ??_C@_02FPIMKNGF@?$CK?$DN?$AA@ 10067b9c     libvcruntime:undname.obj
 0002:00004ba0       ??_C@_02FOEOMHFC@?$CL?$DN?$AA@ 10067ba0     libvcruntime:undname.obj
 0002:00004ba4       ??_C@_02FKMDLLOA@?9?$DN?$AA@ 10067ba4     libvcruntime:undname.obj
 0002:00004ba8       ??_C@_02FJEHGPIO@?1?$DN?$AA@ 10067ba8     libvcruntime:undname.obj
 0002:00004bac       ??_C@_02FENAOKFI@?$CF?$DN?$AA@ 10067bac     libvcruntime:undname.obj
 0002:00004bb0       ??_C@_03IKFCCPFF@?$DO?$DO?$DN?$AA@ 10067bb0     libvcruntime:undname.obj
 0002:00004bb4       ??_C@_03CDNPDDLA@?$DM?$DM?$DN?$AA@ 10067bb4     libvcruntime:undname.obj
 0002:00004bb8       ??_C@_02FGJGFEAB@?$CG?$DN?$AA@ 10067bb8     libvcruntime:undname.obj
 0002:00004bbc       ??_C@_02DHLNPPGH@?$HM?$DN?$AA@ 10067bbc     libvcruntime:undname.obj
 0002:00004bc0       ??_C@_02MHEGNOJ@?$FO?$DN?$AA@ 10067bc0     libvcruntime:undname.obj
 0002:00004bc4       ??_C@_09IFPLHPGF@?$GAvftable?8?$AA@ 10067bc4     libvcruntime:undname.obj
 0002:00004bd0       ??_C@_09BLBHBJP@?$GAvbtable?8?$AA@ 10067bd0     libvcruntime:undname.obj
 0002:00004bdc       ??_C@_07FEEIOKP@?$GAvcall?8?$AA@ 10067bdc     libvcruntime:undname.obj
 0002:00004be8       ??_C@_08LLFFHHDJ@?$GAtypeof?8?$AA@ 10067be8     libvcruntime:undname.obj
 0002:00004bf4       ??_C@_0BF@KDPPACIK@?$GAlocal?5static?5guard?8?$AA@ 10067bf4     libvcruntime:undname.obj
 0002:00004c10       ??_C@_08OBABFOLI@?$GAstring?8?$AA@ 10067c10     libvcruntime:undname.obj
 0002:00004c1c       ??_C@_0BD@JDLKDPAB@?$GAvbase?5destructor?8?$AA@ 10067c1c     libvcruntime:undname.obj
 0002:00004c34       ??_C@_0BN@DEGPLNFK@?$GAvector?5deleting?5destructor?8?$AA@ 10067c34     libvcruntime:undname.obj
 0002:00004c58       ??_C@_0BO@OBMKPJIG@?$GAdefault?5constructor?5closure?8?$AA@ 10067c58     libvcruntime:undname.obj
 0002:00004c7c       ??_C@_0BN@IMDCHIKM@?$GAscalar?5deleting?5destructor?8?$AA@ 10067c7c     libvcruntime:undname.obj
 0002:00004ca0       ??_C@_0BO@PFGOCPJJ@?$GAvector?5constructor?5iterator?8?$AA@ 10067ca0     libvcruntime:undname.obj
 0002:00004cc4       ??_C@_0BN@LFPFMEDL@?$GAvector?5destructor?5iterator?8?$AA@ 10067cc4     libvcruntime:undname.obj
 0002:00004ce8       ??_C@_0CE@IKBNEHA@?$GAvector?5vbase?5constructor?5iterat@ 10067ce8     libvcruntime:undname.obj
 0002:00004d14       ??_C@_0BL@NILFHHPC@?$GAvirtual?5displacement?5map?8?$AA@ 10067d14     libvcruntime:undname.obj
 0002:00004d34       ??_C@_0CB@JONCMFFK@?$GAeh?5vector?5constructor?5iterator?8@ 10067d34     libvcruntime:undname.obj
 0002:00004d5c       ??_C@_0CA@GCEOPDGL@?$GAeh?5vector?5destructor?5iterator?8?$AA@ 10067d5c     libvcruntime:undname.obj
 0002:00004d84       ??_C@_0CH@OOJPLCPH@?$GAeh?5vector?5vbase?5constructor?5ite@ 10067d84     libvcruntime:undname.obj
 0002:00004db4       ??_C@_0BL@LLKPOHJI@?$GAcopy?5constructor?5closure?8?$AA@ 10067db4     libvcruntime:undname.obj
 0002:00004dd4       ??_C@_0BA@KBCDOMBN@?$GAudt?5returning?8?$AA@ 10067dd4     libvcruntime:undname.obj
 0002:00004de8       ??_C@_03KLGMFNMG@?$GAEH?$AA@ 10067de8     libvcruntime:undname.obj
 0002:00004dec       ??_C@_05KHLCHHI@?$GARTTI?$AA@ 10067dec     libvcruntime:undname.obj
 0002:00004df4       ??_C@_0BA@KKLDJDLB@?$GAlocal?5vftable?8?$AA@ 10067df4     libvcruntime:undname.obj
 0002:00004e08       ??_C@_0CE@IIHCMGGL@?$GAlocal?5vftable?5constructor?5closu@ 10067e08     libvcruntime:undname.obj
 0002:00004e34       ??_C@_06FHBGPFGH@?5new?$FL?$FN?$AA@ 10067e34     libvcruntime:undname.obj
 0002:00004e3c       ??_C@_09LBNFPBCA@?5delete?$FL?$FN?$AA@ 10067e3c     libvcruntime:undname.obj
 0002:00004e48       ??_C@_0P@HJKNJFNN@?$GAomni?5callsig?8?$AA@ 10067e48     libvcruntime:undname.obj
 0002:00004e5c       ??_C@_0BL@CNOONJFP@?$GAplacement?5delete?5closure?8?$AA@ 10067e5c     libvcruntime:undname.obj
 0002:00004e7c       ??_C@_0BN@CKNJLHMB@?$GAplacement?5delete?$FL?$FN?5closure?8?$AA@ 10067e7c     libvcruntime:undname.obj
 0002:00004ea0       ??_C@_0CG@CFDHKGGD@?$GAmanaged?5vector?5constructor?5iter@ 10067ea0     libvcruntime:undname.obj
 0002:00004ed0       ??_C@_0CF@IMGKMJNO@?$GAmanaged?5vector?5destructor?5itera@ 10067ed0     libvcruntime:undname.obj
 0002:00004efc       ??_C@_0CG@HLDDJMAG@?$GAeh?5vector?5copy?5constructor?5iter@ 10067efc     libvcruntime:undname.obj
 0002:00004f2c       ??_C@_0CM@FCBBDIGB@?$GAeh?5vector?5vbase?5copy?5constructo@ 10067f2c     libvcruntime:undname.obj
 0002:00004f60       ??_C@_0BL@CLIPGLGB@?$GAdynamic?5initializer?5for?5?8?$AA@ 10067f60     libvcruntime:undname.obj
 0002:00004f80       ??_C@_0CB@PDBIFEP@?$GAdynamic?5atexit?5destructor?5for?5?8@ 10067f80     libvcruntime:undname.obj
 0002:00004fa8       ??_C@_0CD@CGAJBKEJ@?$GAvector?5copy?5constructor?5iterato@ 10067fa8     libvcruntime:undname.obj
 0002:00004fd4       ??_C@_0CJ@GJELGAMM@?$GAvector?5vbase?5copy?5constructor?5i@ 10067fd4     libvcruntime:undname.obj
 0002:00005008       ??_C@_0CL@FGIJHLCE@?$GAmanaged?5vector?5copy?5constructor@ 10068008     libvcruntime:undname.obj
 0002:0000503c       ??_C@_0BM@PMGGMLDN@?$GAlocal?5static?5thread?5guard?8?$AA@ 1006803c     libvcruntime:undname.obj
 0002:00005060       ??_C@_0N@BDNMDMOL@operator?5?$CC?$CC?5?$AA@ 10068060     libvcruntime:undname.obj
 0002:00005070       ??_C@_0BC@DAFEJGAK@?5Type?5Descriptor?8?$AA@ 10068070     libvcruntime:undname.obj
 0002:00005088       ??_C@_0BM@LDKODKLH@?5Base?5Class?5Descriptor?5at?5?$CI?$AA@ 10068088     libvcruntime:undname.obj
 0002:000050ac       ??_C@_0BD@LGICGFMM@?5Base?5Class?5Array?8?$AA@ 100680ac     libvcruntime:undname.obj
 0002:000050c4       ??_C@_0BN@MECKDCOJ@?5Class?5Hierarchy?5Descriptor?8?$AA@ 100680c4     libvcruntime:undname.obj
 0002:000050e8       ??_C@_0BK@CFCOFLF@?5Complete?5Object?5Locator?8?$AA@ 100680e8     libvcruntime:undname.obj
 0002:00005108       ??_C@_04HEJADOOB@CV?3?5?$AA@ 10068108     libvcruntime:undname.obj
 0002:00005110       ??_C@_02MOLJINC@?3?3?$AA@  10068110     libvcruntime:undname.obj
 0002:00005114       ??_C@_0BE@JAEOCHPE@template?9parameter?9?$AA@ 10068114     libvcruntime:undname.obj
 0002:0000512c       ??_C@_0O@KHGCOMHP@generic?9type?9?$AA@ 1006812c     libvcruntime:undname.obj
 0002:0000513c       ??_C@_01NLNLIGKH@?$GA?$AA@ 1006813c     libvcruntime:undname.obj
 0002:00005140       ??_C@_01GEODFPGF@?8?$AA@   10068140     libvcruntime:undname.obj
 0002:00005144       ??_C@_0BG@JNJLAMPM@?$GAanonymous?5namespace?8?$AA@ 10068144     libvcruntime:undname.obj
 0002:00005160       ??_C@_02OHHJMEON@?8?8?$AA@ 10068160     libvcruntime:undname.obj
 0002:00005164       ??_C@_0BN@IBLMMFAP@?$GAnon?9type?9template?9parameter?$AA@ 10068164     libvcruntime:undname.obj
 0002:00005188       ??_C@_04GKJNKENE@void?$AA@ 10068188     libvcruntime:undname.obj
 0002:00005190       ??_C@_0BE@EODMJLIF@?$GAtemplate?9parameter?$AA@ 10068190     libvcruntime:undname.obj
 0002:000051a8       ??_C@_03KHICJKCI@?4?4?4?$AA@ 100681a8     libvcruntime:undname.obj
 0002:000051ac       ??_C@_04HIBGFPH@NULL?$AA@  100681ac     libvcruntime:undname.obj
 0002:000051b4       ??_C@_02DPKJAMEF@?$CFd?$AA@ 100681b4     libvcruntime:undname.obj
 0002:000051b8       ??_C@_0BK@IHCCFNEL@?$GAtemplate?9type?9parameter?9?$AA@ 100681b8     libvcruntime:undname.obj
 0002:000051d8       ??_C@_0BK@OFCNNNKO@?$GAgeneric?9class?9parameter?9?$AA@ 100681d8     libvcruntime:undname.obj
 0002:000051f8       ??_C@_0BL@NGJBLFIL@?$GAgeneric?9method?9parameter?9?$AA@ 100681f8     libvcruntime:undname.obj
 0002:00005218       ??_C@_03OPGICMGF@?$HN?8?5?$AA@ 10068218     libvcruntime:undname.obj
 0002:0000521c       ??_C@_02IGFCGPIL@?$HN?8?$AA@ 1006821c     libvcruntime:undname.obj
 0002:00005220       ??_C@_01CLKCMJKC@?5?$AA@   10068220     libvcruntime:undname.obj
 0002:00005224       ??_C@_0N@CBHHHENL@?$GAvtordispex?$HL?$AA@ 10068224     libvcruntime:undname.obj
 0002:00005234       ??_C@_0L@GHPFDFH@?$GAvtordisp?$HL?$AA@ 10068234     libvcruntime:undname.obj
 0002:00005244       ??_C@_0L@HNGCOGAE@?$GAadjustor?$HL?$AA@ 10068244     libvcruntime:undname.obj
 0002:00005254       ??_C@_0CB@KJDOOODE@?$GAlocal?5static?5destructor?5helper?8@ 10068254     libvcruntime:undname.obj
 0002:0000527c       ??_C@_0DB@ILEFOCIJ@?$GAtemplate?5static?5data?5member?5con@ 1006827c     libvcruntime:undname.obj
 0002:000052b8       ??_C@_0DA@HGFJFBBE@?$GAtemplate?5static?5data?5member?5des@ 100682b8     libvcruntime:undname.obj
 0002:000052f4       ??_C@_07PGOEDBHP@static?5?$AA@ 100682f4     libvcruntime:undname.obj
 0002:00005300       ??_C@_08NIEOINHE@virtual?5?$AA@ 10068300     libvcruntime:undname.obj
 0002:0000530c       ??_C@_09LAPHOOG@private?3?5?$AA@ 1006830c     libvcruntime:undname.obj
 0002:00005318       ??_C@_0M@GAIFPFIP@protected?3?5?$AA@ 10068318     libvcruntime:undname.obj
 0002:00005328       ??_C@_08GPDDCMKI@public?3?5?$AA@ 10068328     libvcruntime:undname.obj
 0002:00005334       ??_C@_08KJLFOPNE@?$FLthunk?$FN?3?$AA@ 10068334     libvcruntime:undname.obj
 0002:00005340       ??_C@_0M@DHNBOJMP@extern?5?$CCC?$CC?5?$AA@ 10068340     libvcruntime:undname.obj
 0002:00005350       ??_C@_02KCKGHPCA@?$CJ?5?$AA@ 10068350     libvcruntime:undname.obj
 0002:00005354       ??_C@_05CIHEBHNO@char?5?$AA@ 10068354     libvcruntime:undname.obj
 0002:0000535c       ??_C@_06EHJMALKF@short?5?$AA@ 1006835c     libvcruntime:undname.obj
 0002:00005364       ??_C@_04LAHKHJMA@int?5?$AA@ 10068364     libvcruntime:undname.obj
 0002:0000536c       ??_C@_05CJIMAING@long?5?$AA@ 1006836c     libvcruntime:undname.obj
 0002:00005374       ??_C@_09EBBEKKIH@unsigned?5?$AA@ 10068374     libvcruntime:undname.obj
 0002:00005380       ??_C@_05BEFAKPML@void?5?$AA@ 10068380     libvcruntime:undname.obj
 0002:00005388       ??_C@_08PABEKFH@volatile?$AA@ 10068388     libvcruntime:undname.obj
 0002:00005394       ??_C@_0BA@LKIJLKPP@std?3?3nullptr_t?5?$AA@ 10068394     libvcruntime:undname.obj
 0002:000053a8       ??_C@_0P@GCOCNKDM@std?3?3nullptr_t?$AA@ 100683a8     libvcruntime:undname.obj
 0002:000053bc       ??_C@_0L@EGPHHEKN@?$DMellipsis?$DO?$AA@ 100683bc     libvcruntime:undname.obj
 0002:000053cc       ??_C@_04EENFHACM@?0?4?4?4?$AA@ 100683cc     libvcruntime:undname.obj
 0002:000053d4       ??_C@_0M@ELJOJFFH@?0?$DMellipsis?$DO?$AA@ 100683d4     libvcruntime:undname.obj
 0002:000053e4       ??_C@_07HDJPLPEK@?5throw?$CI?$AA@ 100683e4     libvcruntime:undname.obj
 0002:000053f0       ??_C@_03PBJBJNON@cpu?$AA@  100683f0     libvcruntime:undname.obj
 0002:000053f4       ??_C@_03DCBBJBAA@amp?$AA@  100683f4     libvcruntime:undname.obj
 0002:000053f8       ??_C@_02KEGNLNML@?0?5?$AA@ 100683f8     libvcruntime:undname.obj
 0002:000053fc       ??_C@_04ENMBGAPA@char?$AA@ 100683fc     libvcruntime:undname.obj
 0002:00005404       ??_C@_05BFKKPKCG@short?$AA@ 10068404     libvcruntime:undname.obj
 0002:0000540c       ??_C@_03JBIPMCLC@int?$AA@  1006840c     libvcruntime:undname.obj
 0002:00005410       ??_C@_04GOKPGOLB@long?$AA@ 10068410     libvcruntime:undname.obj
 0002:00005418       ??_C@_04DDKJGDCM@bool?$AA@ 10068418     libvcruntime:undname.obj
 0002:00005420       ??_C@_06EBGKOKIG@__int8?$AA@ 10068420     libvcruntime:undname.obj
 0002:00005428       ??_C@_07ICFHOGAF@__int16?$AA@ 10068428     libvcruntime:undname.obj
 0002:00005434       ??_C@_07OFLPPHGP@__int32?$AA@ 10068434     libvcruntime:undname.obj
 0002:00005440       ??_C@_07LFCOJCAC@__int64?$AA@ 10068440     libvcruntime:undname.obj
 0002:0000544c       ??_C@_08GAHOLHEO@__int128?$AA@ 1006844c     libvcruntime:undname.obj
 0002:00005458       ??_C@_09EEKGDCPH@?$DMunknown?$DO?$AA@ 10068458     libvcruntime:undname.obj
 0002:00005464       ??_C@_08HBIPOFJB@char16_t?$AA@ 10068464     libvcruntime:undname.obj
 0002:00005470       ??_C@_08IECNCBKG@char32_t?$AA@ 10068470     libvcruntime:undname.obj
 0002:0000547c       ??_C@_07CLGGIAMF@wchar_t?$AA@ 1006847c     libvcruntime:undname.obj
 0002:00005488       ??_C@_06GCICPBLB@__w64?5?$AA@ 10068488     libvcruntime:undname.obj
 0002:00005490       ??_C@_07NFANNNEC@UNKNOWN?$AA@ 10068490     libvcruntime:undname.obj
 0002:0000549c       ??_C@_07EDHNAJHC@signed?5?$AA@ 1006849c     libvcruntime:undname.obj
 0002:000054a8       ??_C@_05BNCCCJPP@const?$AA@ 100684a8     libvcruntime:undname.obj
 0002:000054b0       ??_C@_09EFNPDFFP@?5volatile?$AA@ 100684b0     libvcruntime:undname.obj
 0002:000054bc       ??_C@_0P@GCIFDJCJ@?$GAunknown?5ecsu?8?$AA@ 100684bc     libvcruntime:undname.obj
 0002:000054d0       ??_C@_06MOJHIBMG@union?5?$AA@ 100684d0     libvcruntime:undname.obj
 0002:000054d8       ??_C@_07DIBCDNGL@struct?5?$AA@ 100684d8     libvcruntime:undname.obj
 0002:000054e4       ??_C@_06LJBABKPM@class?5?$AA@ 100684e4     libvcruntime:undname.obj
 0002:000054ec       ??_C@_08KOFANOFK@coclass?5?$AA@ 100684ec     libvcruntime:undname.obj
 0002:000054f8       ??_C@_0N@DLIEFKNA@cointerface?5?$AA@ 100684f8     libvcruntime:undname.obj
 0002:00005508       ??_C@_05LJGMCFOG@enum?5?$AA@ 10068508     libvcruntime:undname.obj
 0002:00005510       ??_C@_09GAIEOBLP@volatile?5?$AA@ 10068510     libvcruntime:undname.obj
 0002:0000551c       ??_C@_06LIJLOJAG@const?5?$AA@ 1006851c     libvcruntime:undname.obj
 0002:00005524       ??_C@_02KJPKDIBN@?$CG?5?$AA@ 10068524     libvcruntime:undname.obj
 0002:00005528       ??_C@_03PCKGMOPB@?$CG?$CG?5?$AA@ 10068528     libvcruntime:undname.obj
 0002:0000552c       ??_C@_0M@EALIELKG@cli?3?3array?$DM?$AA@ 1006852c     libvcruntime:undname.obj
 0002:0000553c       ??_C@_0O@GKABPPIF@cli?3?3pin_ptr?$DM?$AA@ 1006853c     libvcruntime:undname.obj
 0002:0000554c       ??_C@_02GOGNNPBN@?$CJ?$FL?$AA@ 1006854c     libvcruntime:undname.obj
 0002:00005550       ??_C@_06EEGAIFAK@?$HLflat?$HN?$AA@ 10068550     libvcruntime:undname.obj
 0002:00005558       ??_C@_05JIBOFOHK@?$HLfor?5?$AA@ 10068558     libvcruntime:undname.obj
 0002:00005560       ??_C@_02MDINNEEG@s?5?$AA@  10068560     libvcruntime:undname.obj
 0002:00005568       ??_7DNameNode@@6B@         10068568     libvcruntime:undname.obj
 0002:0000557c       ??_7charNode@@6B@          1006857c     libvcruntime:undname.obj
 0002:00005590       ??_7pcharNode@@6B@         10068590     libvcruntime:undname.obj
 0002:000055a4       ??_7pDNameNode@@6B@        100685a4     libvcruntime:undname.obj
 0002:000055b8       ??_7DNameStatusNode@@6B@   100685b8     libvcruntime:undname.obj
 0002:000055cc       ??_7pairNode@@6B@          100685cc     libvcruntime:undname.obj
 0002:000055dc       ??_C@_04OKOHEJBO@?5?$DP?$DP?5?$AA@ 100685dc     libvcruntime:undname.obj
 0002:000055e8       _standard_lookup_table     100685e8     libucrt:output.obj
 0002:00005658       _format_validation_lookup_table 10068658     libucrt:output.obj
 0002:000056c8       ??_C@_06OJHGLDPL@?$CInull?$CJ?$AA@ 100686c8     libucrt:output.obj
 0002:000056d0       ??_C@_1O@CEDCILHN@?$AA?$CI?$AAn?$AAu?$AAl?$AAl?$AA?$CJ?$AA?$AA@ 100686d0     libucrt:output.obj
 0002:000056e0       ??_C@_0CF@GOGNBNAK@Microsoft?5Visual?5C?$CL?$CL?5Runtime?5Lib@ 100686e0     libucrt:assert.obj
 0002:00005710       ??_C@_1EK@MBDPDCGA@?$AAM?$AAi?$AAc?$AAr?$AAo?$AAs?$AAo?$AAf?$AAt?$AA?5?$AAV?$AAi?$AAs?$AAu?$AAa?$AAl?$AA?5?$AAC?$AA?$CL?$AA?$CL?$AA?5?$AAR?$AAu?$AAn?$AAt?$AAi?$AAm?$AAe?$AA?5?$AAL?$AAi?$AAb@ 10068710     libucrt:assert.obj
 0002:00005768       ??_C@_0CK@CFPGFGGO@Assertion?5failed?3?5?$CFTs?0?5file?5?$CFTs?0@ 10068768     libucrt:assert.obj
 0002:000057a0       ??_C@_1FE@LHBLIKM@?$AAA?$AAs?$AAs?$AAe?$AAr?$AAt?$AAi?$AAo?$AAn?$AA?5?$AAf?$AAa?$AAi?$AAl?$AAe?$AAd?$AA?3?$AA?5?$AA?$CF?$AAT?$AAs?$AA?0?$AA?5?$AAf?$AAi?$AAl?$AAe?$AA?5?$AA?$CF?$AAT?$AAs?$AA?0@ 100687a0     libucrt:assert.obj
 0002:00005804       ??_C@_0BC@LAIDCHCH@Assertion?5failed?$CB?$AA@ 10068804     libucrt:assert.obj
 0002:0000581c       ??_C@_1CE@OJBNHDMO@?$AAA?$AAs?$AAs?$AAe?$AAr?$AAt?$AAi?$AAo?$AAn?$AA?5?$AAf?$AAa?$AAi?$AAl?$AAe?$AAd?$AA?$CB?$AA?$AA@ 1006881c     libucrt:assert.obj
 0002:00005848       ??_C@_09KLGCKDOD@Program?3?5?$AA@ 10068848     libucrt:assert.obj
 0002:00005854       ??_C@_1BE@PHKBBGE@?$AAP?$AAr?$AAo?$AAg?$AAr?$AAa?$AAm?$AA?3?$AA?5?$AA?$AA@ 10068854     libucrt:assert.obj
 0002:0000586c       ??_C@_06IGPBOHMJ@File?3?5?$AA@ 1006886c     libucrt:assert.obj
 0002:00005874       ??_C@_1O@HEMHKNDC@?$AAF?$AAi?$AAl?$AAe?$AA?3?$AA?5?$AA?$AA@ 10068874     libucrt:assert.obj
 0002:00005884       ??_C@_06FIEBOLOH@Line?3?5?$AA@ 10068884     libucrt:assert.obj
 0002:0000588c       ??_C@_1O@KCAFKHJE@?$AAL?$AAi?$AAn?$AAe?$AA?3?$AA?5?$AA?$AA@ 1006888c     libucrt:assert.obj
 0002:0000589c       ??_C@_0N@MEECIJGN@Expression?3?5?$AA@ 1006889c     libucrt:assert.obj
 0002:000058ac       ??_C@_1BK@PEDCIPMA@?$AAE?$AAx?$AAp?$AAr?$AAe?$AAs?$AAs?$AAi?$AAo?$AAn?$AA?3?$AA?5?$AA?$AA@ 100688ac     libucrt:assert.obj
 0002:000058d0       ??_C@_0HA@OJHAGA@For?5information?5on?5how?5your?5prog@ 100688d0     libucrt:assert.obj
 0002:00005958       ??_C@_1OA@EGMLFBHJ@?$AAF?$AAo?$AAr?$AA?5?$AAi?$AAn?$AAf?$AAo?$AAr?$AAm?$AAa?$AAt?$AAi?$AAo?$AAn?$AA?5?$AAo?$AAn?$AA?5?$AAh?$AAo?$AAw?$AA?5?$AAy?$AAo?$AAu?$AAr?$AA?5?$AAp?$AAr?$AAo?$AAg@ 10068958     libucrt:assert.obj
 0002:00005a64       ??_C@_0DN@EBBNMLME@?$CIPress?5Retry?5to?5debug?5the?5applic@ 10068a64     libucrt:assert.obj
 0002:00005ab0       ??_C@_1HK@POCJMFGK@?$AA?$CI?$AAP?$AAr?$AAe?$AAs?$AAs?$AA?5?$AAR?$AAe?$AAt?$AAr?$AAy?$AA?5?$AAt?$AAo?$AA?5?$AAd?$AAe?$AAb?$AAu?$AAg?$AA?5?$AAt?$AAh?$AAe?$AA?5?$AAa?$AAp?$AAp?$AAl?$AAi?$AAc@ 10068ab0     libucrt:assert.obj
 0002:00005b44       ??_C@_17LGKOMLJ@?$AA?4?$AA?4?$AA?4?$AA?$AA@ 10068b44     libucrt:assert.obj
 0002:00005b50       ??_C@_01EEMJAFIK@?6?$AA@   10068b50     libucrt:assert.obj
 0002:00005b54       ??_C@_13LBAGMAIH@?$AA?6?$AA?$AA@ 10068b54     libucrt:assert.obj
 0002:00005b58       ??_C@_02PHMGELLB@?6?6?$AA@ 10068b58     libucrt:assert.obj
 0002:00005b5c       ??_C@_15IABLJNFO@?$AA?6?$AA?6?$AA?$AA@ 10068b5c     libucrt:assert.obj
 0002:00005b64       ??_C@_0BH@DNAGHKFM@?$DMprogram?5name?5unknown?$DO?$AA@ 10068b64     libucrt:assert.obj
 0002:00005b80       ??_C@_1CO@EAEJAADC@?$AA?$DM?$AAp?$AAr?$AAo?$AAg?$AAr?$AAa?$AAm?$AA?5?$AAn?$AAa?$AAm?$AAe?$AA?5?$AAu?$AAn?$AAk?$AAn?$AAo?$AAw?$AAn?$AA?$DO?$AA?$AA@ 10068b80     libucrt:assert.obj
 0002:00005bb8       _RtlNtPathSeperatorString  10068bb8     libucrt:exit.obj
 0002:00005bc4       ??_C@_13FPGAJAPJ@?$AA?2?$AA?$AA@ 10068bc4     libucrt:exit.obj
 0002:00005bc8       _RtlDosPathSeperatorsString 10068bc8     libucrt:exit.obj
 0002:00005bd4       ??_C@_15MNCACJLI@?$AA?2?$AA?1?$AA?$AA@ 10068bd4     libucrt:exit.obj
 0002:00005bdc       _RtlAlternateDosPathSeperatorString 10068bdc     libucrt:exit.obj
 0002:00005be8       ??_C@_13CGOKJPIL@?$AA?1?$AA?$AA@ 10068be8     libucrt:exit.obj
 0002:00005bec       ??_C@_1BI@BGOHAHKC@?$AAm?$AAs?$AAc?$AAo?$AAr?$AAe?$AAe?$AA?4?$AAd?$AAl?$AAl?$AA?$AA@ 10068bec     libucrt:exit.obj
 0002:00005c08       ??_C@_0P@MIGLKIOC@CorExitProcess?$AA@ 10068c08     libucrt:exit.obj
 0002:00005c1c       ??_C@_04FJHINJAO@tanh?$AA@ 10068c1c     libucrt:fpexcept.obj
 0002:00005c24       ??_C@_04FIHNOPOL@asin?$AA@ 10068c24     libucrt:fpexcept.obj
 0002:00005c2c       ??_C@_04PDIFKINK@acos?$AA@ 10068c2c     libucrt:fpexcept.obj
 0002:00005c34       ??_C@_04MLLJIGOK@atan?$AA@ 10068c34     libucrt:fpexcept.obj
 0002:00005c3c       ??_C@_05KNGEOGJB@atan2?$AA@ 10068c3c     libucrt:fpexcept.obj
 0002:00005c44       ??_C@_04EIAKFFMI@sqrt?$AA@ 10068c44     libucrt:fpexcept.obj
 0002:00005c4c       ??_C@_03BLEJJJBH@sin?$AA@  10068c4c     libucrt:fpexcept.obj
 0002:00005c50       ??_C@_03LALBNOCG@cos?$AA@  10068c50     libucrt:fpexcept.obj
 0002:00005c54       ??_C@_03IIINPABG@tan?$AA@  10068c54     libucrt:fpexcept.obj
 0002:00005c58       ??_C@_04GFPJNGEK@ceil?$AA@ 10068c58     libucrt:fpexcept.obj
 0002:00005c60       ??_C@_05PBJFFIGL@floor?$AA@ 10068c60     libucrt:fpexcept.obj
 0002:00005c68       ??_C@_04ODHECPBC@fabs?$AA@ 10068c68     libucrt:fpexcept.obj
 0002:00005c70       ??_C@_04EHEDPDJG@modf?$AA@ 10068c70     libucrt:fpexcept.obj
 0002:00005c78       ??_C@_05CEJMAHNP@ldexp?$AA@ 10068c78     libucrt:fpexcept.obj
 0002:00005c80       ??_C@_05KBKMEMPO@_cabs?$AA@ 10068c80     libucrt:fpexcept.obj
 0002:00005c88       ??_C@_06MEIMCGCF@_hypot?$AA@ 10068c88     libucrt:fpexcept.obj
 0002:00005c90       ??_C@_04KEPJIHGP@fmod?$AA@ 10068c90     libucrt:fpexcept.obj
 0002:00005c98       ??_C@_05GKKHEGJL@frexp?$AA@ 10068c98     libucrt:fpexcept.obj
 0002:00005ca0       ??_C@_03MJLDFKDL@_y0?$AA@  10068ca0     libucrt:fpexcept.obj
 0002:00005ca4       ??_C@_03NAKIGLHK@_y1?$AA@  10068ca4     libucrt:fpexcept.obj
 0002:00005ca8       ??_C@_03ONILCKOB@_yn?$AA@  10068ca8     libucrt:fpexcept.obj
 0002:00005cac       ??_C@_05JGDBENOH@_logb?$AA@ 10068cac     libucrt:fpexcept.obj
 0002:00005cb4       ??_C@_0L@KDOEJCKC@_nextafter?$AA@ 10068cb4     libucrt:fpexcept.obj
 0002:00005de0       ??_C@_03KHJOGHMM@exp?$AA@  10068de0     libucrt:fpexcept.obj
 0002:00005de4       ??_C@_03JGHBODFD@pow?$AA@  10068de4     libucrt:fpexcept.obj
 0002:00005de8       ??_C@_03MGHMBJCF@log?$AA@  10068de8     libucrt:fpexcept.obj
 0002:00005dec       ??_C@_05HGHHAHAP@log10?$AA@ 10068dec     libucrt:fpexcept.obj
 0002:00005df4       ??_C@_04COOMCNPB@sinh?$AA@ 10068df4     libucrt:fpexcept.obj
 0002:00005dfc       ??_C@_04HPJJNFIM@cosh?$AA@ 10068dfc     libucrt:fpexcept.obj
 0002:00005e08       ___acrt_exception_action_table 10068e08     libucrt:exception_filter.obj
 0002:00005eb4       ___acrt_signal_action_table_count 10068eb4     libucrt:exception_filter.obj
 0002:00005eb8       ___acrt_signal_action_table_size 10068eb8     libucrt:exception_filter.obj
 0002:00005ebc       ___acrt_signal_action_first_fpe_index 10068ebc     libucrt:exception_filter.obj
 0002:00005ec0       ___acrt_signal_action_fpe_count 10068ec0     libucrt:exception_filter.obj
 0002:00005f58       ??_C@_1BG@HHIFPOEK@?$AAm?$AAs?$AAv?$AAc?$AAr?$AAt?$AA?4?$AAd?$AAl?$AAl?$AA?$AA@ 10068f58     libucrt:free_base.obj
 0002:00005f74       __Fenv0                    10068f74     libucrt:atox.obj
 0002:00006190       ??_C@_1EG@CNNIPFIM@?$AAa?$AAp?$AAi?$AA?9?$AAm?$AAs?$AA?9?$AAw?$AAi?$AAn?$AA?9?$AAa?$AAp?$AAp?$AAm?$AAo?$AAd?$AAe?$AAl?$AA?9?$AAr?$AAu?$AAn?$AAt?$AAi?$AAm?$AAe?$AA?9?$AAl?$AA1?$AA?9?$AA1@ 10069190     libucrt:winapi_thunks.obj
 0002:000061e8       ??_C@_1EA@JGEFHKEI@?$AAa?$AAp?$AAi?$AA?9?$AAm?$AAs?$AA?9?$AAw?$AAi?$AAn?$AA?9?$AAc?$AAo?$AAr?$AAe?$AA?9?$AAd?$AAa?$AAt?$AAe?$AAt?$AAi?$AAm?$AAe?$AA?9?$AAl?$AA1?$AA?9?$AA1?$AA?9?$AA1?$AA?$AA@ 100691e8     libucrt:winapi_thunks.obj
 0002:00006234       ??_C@_1DI@GCIAAENM@?$AAa?$AAp?$AAi?$AA?9?$AAm?$AAs?$AA?9?$AAw?$AAi?$AAn?$AA?9?$AAc?$AAo?$AAr?$AAe?$AA?9?$AAf?$AAi?$AAl?$AAe?$AA?9?$AAl?$AA2?$AA?9?$AA1?$AA?9?$AA1?$AA?$AA@ 10069234     libucrt:winapi_thunks.obj
 0002:00006278       ??_C@_1EI@MPIAOHOC@?$AAa?$AAp?$AAi?$AA?9?$AAm?$AAs?$AA?9?$AAw?$AAi?$AAn?$AA?9?$AAc?$AAo?$AAr?$AAe?$AA?9?$AAl?$AAo?$AAc?$AAa?$AAl?$AAi?$AAz?$AAa?$AAt?$AAi?$AAo?$AAn?$AA?9?$AAl?$AA1?$AA?9@ 10069278     libucrt:winapi_thunks.obj
 0002:000062d0       ??_C@_1FK@FPHCKFIE@?$AAa?$AAp?$AAi?$AA?9?$AAm?$AAs?$AA?9?$AAw?$AAi?$AAn?$AA?9?$AAc?$AAo?$AAr?$AAe?$AA?9?$AAl?$AAo?$AAc?$AAa?$AAl?$AAi?$AAz?$AAa?$AAt?$AAi?$AAo?$AAn?$AA?9?$AAo?$AAb?$AAs@ 100692d0     libucrt:winapi_thunks.obj
 0002:00006340       ??_C@_1EM@DILCGIIO@?$AAa?$AAp?$AAi?$AA?9?$AAm?$AAs?$AA?9?$AAw?$AAi?$AAn?$AA?9?$AAc?$AAo?$AAr?$AAe?$AA?9?$AAp?$AAr?$AAo?$AAc?$AAe?$AAs?$AAs?$AAt?$AAh?$AAr?$AAe?$AAa?$AAd?$AAs?$AA?9?$AAl@ 10069340     libucrt:winapi_thunks.obj
 0002:0000639c       ??_C@_1DM@LNCGDDPN@?$AAa?$AAp?$AAi?$AA?9?$AAm?$AAs?$AA?9?$AAw?$AAi?$AAn?$AA?9?$AAc?$AAo?$AAr?$AAe?$AA?9?$AAs?$AAt?$AAr?$AAi?$AAn?$AAg?$AA?9?$AAl?$AA1?$AA?9?$AA1?$AA?9?$AA0?$AA?$AA@ 1006939c     libucrt:winapi_thunks.obj
 0002:000063e4       ??_C@_1DO@FPAPJEMD@?$AAa?$AAp?$AAi?$AA?9?$AAm?$AAs?$AA?9?$AAw?$AAi?$AAn?$AA?9?$AAc?$AAo?$AAr?$AAe?$AA?9?$AAs?$AAy?$AAs?$AAi?$AAn?$AAf?$AAo?$AA?9?$AAl?$AA1?$AA?9?$AA2?$AA?9?$AA1?$AA?$AA@ 100693e4     libucrt:winapi_thunks.obj
 0002:00006430       ??_C@_1DK@NDHNAHIO@?$AAa?$AAp?$AAi?$AA?9?$AAm?$AAs?$AA?9?$AAw?$AAi?$AAn?$AA?9?$AAc?$AAo?$AAr?$AAe?$AA?9?$AAw?$AAi?$AAn?$AAr?$AAt?$AA?9?$AAl?$AA1?$AA?9?$AA1?$AA?9?$AA0?$AA?$AA@ 10069430     libucrt:winapi_thunks.obj
 0002:00006478       ??_C@_1DM@KGHDGBCM@?$AAa?$AAp?$AAi?$AA?9?$AAm?$AAs?$AA?9?$AAw?$AAi?$AAn?$AA?9?$AAc?$AAo?$AAr?$AAe?$AA?9?$AAx?$AAs?$AAt?$AAa?$AAt?$AAe?$AA?9?$AAl?$AA2?$AA?9?$AA1?$AA?9?$AA0?$AA?$AA@ 10069478     libucrt:winapi_thunks.obj
 0002:000064c0       ??_C@_1EO@IJIOEFOH@?$AAa?$AAp?$AAi?$AA?9?$AAm?$AAs?$AA?9?$AAw?$AAi?$AAn?$AA?9?$AAr?$AAt?$AAc?$AAo?$AAr?$AAe?$AA?9?$AAn?$AAt?$AAu?$AAs?$AAe?$AAr?$AA?9?$AAw?$AAi?$AAn?$AAd?$AAo?$AAw?$AA?9@ 100694c0     libucrt:winapi_thunks.obj
 0002:00006520       ??_C@_1FG@HHGEKANL@?$AAa?$AAp?$AAi?$AA?9?$AAm?$AAs?$AA?9?$AAw?$AAi?$AAn?$AA?9?$AAs?$AAe?$AAc?$AAu?$AAr?$AAi?$AAt?$AAy?$AA?9?$AAs?$AAy?$AAs?$AAt?$AAe?$AAm?$AAf?$AAu?$AAn?$AAc?$AAt?$AAi@ 10069520     libucrt:winapi_thunks.obj
 0002:00006588       ??_C@_1FG@NCKKOLKO@?$AAe?$AAx?$AAt?$AA?9?$AAm?$AAs?$AA?9?$AAw?$AAi?$AAn?$AA?9?$AAk?$AAe?$AAr?$AAn?$AAe?$AAl?$AA3?$AA2?$AA?9?$AAp?$AAa?$AAc?$AAk?$AAa?$AAg?$AAe?$AA?9?$AAc?$AAu?$AAr?$AAr@ 10069588     libucrt:winapi_thunks.obj
 0002:000065f0       ??_C@_1EG@DBIOJECG@?$AAe?$AAx?$AAt?$AA?9?$AAm?$AAs?$AA?9?$AAw?$AAi?$AAn?$AA?9?$AAn?$AAt?$AAu?$AAs?$AAe?$AAr?$AA?9?$AAd?$AAi?$AAa?$AAl?$AAo?$AAg?$AAb?$AAo?$AAx?$AA?9?$AAl?$AA1?$AA?9?$AA1@ 100695f0     libucrt:winapi_thunks.obj
 0002:00006648       ??_C@_1EO@FIHMJCLF@?$AAe?$AAx?$AAt?$AA?9?$AAm?$AAs?$AA?9?$AAw?$AAi?$AAn?$AA?9?$AAn?$AAt?$AAu?$AAs?$AAe?$AAr?$AA?9?$AAw?$AAi?$AAn?$AAd?$AAo?$AAw?$AAs?$AAt?$AAa?$AAt?$AAi?$AAo?$AAn?$AA?9@ 10069648     libucrt:winapi_thunks.obj
 0002:000066a8       ??_C@_1O@BCCLBEOE@?$AAu?$AAs?$AAe?$AAr?$AA3?$AA2?$AA?$AA@ 100696a8     libucrt:winapi_thunks.obj
 0002:000066bc       ??_C@_0BA@FHFNEAED@AreFileApisANSI?$AA@ 100696bc     libucrt:winapi_thunks.obj
 0002:000066dc       ??_C@_0BA@IHGNDAEB@CompareStringEx?$AA@ 100696dc     libucrt:winapi_thunks.obj
 0002:000066fc       ??_C@_0BE@LJANKFHF@EnumSystemLocalesEx?$AA@ 100696fc     libucrt:winapi_thunks.obj
 0002:00006750       ??_C@_0BA@HNOPNCHB@GetActiveWindow?$AA@ 10069750     libucrt:winapi_thunks.obj
 0002:00006770       ??_C@_0BE@JOGNEJCI@GetCurrentPackageId?$AA@ 10069770     libucrt:winapi_thunks.obj
 0002:00006794       ??_C@_0BA@EPCJIIPD@GetDateFormatEx?$AA@ 10069794     libucrt:winapi_thunks.obj
 0002:000067b4       ??_C@_0BJ@DIBIJBHA@GetEnabledXStateFeatures?$AA@ 100697b4     libucrt:winapi_thunks.obj
 0002:000067e0       ??_C@_0BN@NEEHBBPO@GetFileInformationByHandleEx?$AA@ 100697e0     libucrt:winapi_thunks.obj
 0002:00006810       ??_C@_0BD@HHGDFDBJ@GetLastActivePopup?$AA@ 10069810     libucrt:winapi_thunks.obj
 0002:00006834       ??_C@_0BA@ONOKGCMP@GetLocaleInfoEx?$AA@ 10069834     libucrt:winapi_thunks.obj
 0002:00006854       ??_C@_0BI@DFKBFLJE@GetProcessWindowStation?$AA@ 10069854     libucrt:winapi_thunks.obj
 0002:00006874       ??_C@_0BP@FPNJPEJC@GetSystemTimePreciseAsFileTime?$AA@ 10069874     libucrt:winapi_thunks.obj
 0002:000068a8       ??_C@_0BA@CIJJKCJJ@GetTimeFormatEx?$AA@ 100698a8     libucrt:winapi_thunks.obj
 0002:000068c8       ??_C@_0BJ@PBCCBIPI@GetUserDefaultLocaleName?$AA@ 100698c8     libucrt:winapi_thunks.obj
 0002:000068f4       ??_C@_0BK@DEKFELLI@GetUserObjectInformationW?$AA@ 100698f4     libucrt:winapi_thunks.obj
 0002:00006920       ??_C@_0BG@IKLDMBLM@GetXStateFeaturesMask?$AA@ 10069920     libucrt:winapi_thunks.obj
 0002:00006954       ??_C@_0BC@CELBKLLA@IsValidLocaleName?$AA@ 10069954     libucrt:winapi_thunks.obj
 0002:00006978       ??_C@_0O@KKBNKAPF@LCMapStringEx?$AA@ 10069978     libucrt:winapi_thunks.obj
 0002:00006994       ??_C@_0BB@CDHDDLLP@LCIDToLocaleName?$AA@ 10069994     libucrt:winapi_thunks.obj
 0002:000069b4       ??_C@_0BB@HBDEELFH@LocaleNameToLCID?$AA@ 100699b4     libucrt:winapi_thunks.obj
 0002:000069d4       ??_C@_0BE@KINNKFDA@LocateXStateFeature?$AA@ 100699d4     libucrt:winapi_thunks.obj
 0002:000069f8       ??_C@_0M@CHKKJDAI@MessageBoxA?$AA@ 100699f8     libucrt:winapi_thunks.obj
 0002:00006a14       ??_C@_0M@DLDCCGNP@MessageBoxW?$AA@ 10069a14     libucrt:winapi_thunks.obj
 0002:00006a28       ??_C@_0N@PPOMPGGK@RoInitialize?$AA@ 10069a28     libucrt:winapi_thunks.obj
 0002:00006a3c       ??_C@_0P@LLFHBIJD@RoUninitialize?$AA@ 10069a3c     libucrt:winapi_thunks.obj
 0002:00006a5c       ??_C@_0BI@BKLFFAPO@SetThreadStackGuarantee?$AA@ 10069a5c     libucrt:winapi_thunks.obj
 0002:00006a84       ??_C@_0BC@JEAENNKH@SystemFunction036?$AA@ 10069a84     libucrt:winapi_thunks.obj
 0002:00006a9c       ??_C@_03OEIAHPBN@INF?$AA@  10069a9c     libucrt:cvt.obj
 0002:00006aa0       ??_C@_03OJHLLCGB@inf?$AA@  10069aa0     libucrt:cvt.obj
 0002:00006aa4       ??_C@_03LKNCIKJB@NAN?$AA@  10069aa4     libucrt:cvt.obj
 0002:00006aa8       ??_C@_03LHCJEHON@nan?$AA@  10069aa8     libucrt:cvt.obj
 0002:00006aac       ??_C@_09OFJJIMPC@NAN?$CISNAN?$CJ?$AA@ 10069aac     libucrt:cvt.obj
 0002:00006ab8       ??_C@_09IPFBKMDL@nan?$CIsnan?$CJ?$AA@ 10069ab8     libucrt:cvt.obj
 0002:00006ac4       ??_C@_08IKHNHAJ@NAN?$CIIND?$CJ?$AA@ 10069ac4     libucrt:cvt.obj
 0002:00006ad0       ??_C@_08OFCDMILK@nan?$CIind?$CJ?$AA@ 10069ad0     libucrt:cvt.obj
 0002:00006adc       ??_C@_05KLBDPFGC@e?$CL000?$AA@ 10069adc     libucrt:cvt.obj
 0002:00006ae8       ___lc_category             10069ae8     libucrt:wsetlocale.obj
 0002:00006b40       ??_C@_1O@GIFLHMA@?$AAL?$AAC?$AA_?$AAA?$AAL?$AAL?$AA?$AA@ 10069b40     libucrt:wsetlocale.obj
 0002:00006b50       ??_C@_1BG@PPOMIBNJ@?$AAL?$AAC?$AA_?$AAC?$AAO?$AAL?$AAL?$AAA?$AAT?$AAE?$AA?$AA@ 10069b50     libucrt:wsetlocale.obj
 0002:00006b6c       ??_C@_1BC@FFJGAPJM@?$AAL?$AAC?$AA_?$AAC?$AAT?$AAY?$AAP?$AAE?$AA?$AA@ 10069b6c     libucrt:wsetlocale.obj
 0002:00006b84       ??_C@_1BI@PCKFNJFB@?$AAL?$AAC?$AA_?$AAM?$AAO?$AAN?$AAE?$AAT?$AAA?$AAR?$AAY?$AA?$AA@ 10069b84     libucrt:wsetlocale.obj
 0002:00006ba0       ??_C@_1BG@ENIEDKID@?$AAL?$AAC?$AA_?$AAN?$AAU?$AAM?$AAE?$AAR?$AAI?$AAC?$AA?$AA@ 10069ba0     libucrt:wsetlocale.obj
 0002:00006bbc       ??_C@_1BA@HAAOMIIG@?$AAL?$AAC?$AA_?$AAT?$AAI?$AAM?$AAE?$AA?$AA@ 10069bbc     libucrt:wsetlocale.obj
 0002:00006c68       ??_C@_15NBPDDFIP@?$AA?$DN?$AA?$DL?$AA?$AA@ 10069c68     libucrt:wsetlocale.obj
 0002:00006c70       ??_C@_13PJJBFPED@?$AA?$DL?$AA?$AA@ 10069c70     libucrt:wsetlocale.obj
 0002:00006c74       ??_C@_13NMPKAAJP@?$AA?$DN?$AA?$AA@ 10069c74     libucrt:wsetlocale.obj
 0002:00006c78       ??_C@_13FHBKNHDA@?$AAC?$AA?$AA@ 10069c78     libucrt:wsetlocale.obj
 0002:00006c7c       ??_C@_17MBJJLFDM@?$AA_?$AA?4?$AA?0?$AA?$AA@ 10069c7c     libucrt:wsetlocale.obj
 0002:00006c88       ??_C@_13ENNFDPBH@?$AA_?$AA?$AA@ 10069c88     libucrt:wsetlocale.obj
 0002:00006c8c       ??_C@_13JOFGPIOO@?$AA?4?$AA?$AA@ 10069c8c     libucrt:wsetlocale.obj
 0002:00006c90       ??_C@_03KOEHGMDN@Sun?$AA@  10069c90     libucrt:nlsdata.obj
 0002:00006c94       ??_C@_03PDAGKDH@Mon?$AA@   10069c94     libucrt:nlsdata.obj
 0002:00006c98       ??_C@_03NAGEINEP@Tue?$AA@  10069c98     libucrt:nlsdata.obj
 0002:00006c9c       ??_C@_03MHOMLAJA@Wed?$AA@  10069c9c     libucrt:nlsdata.obj
 0002:00006ca0       ??_C@_03IOFIKPDN@Thu?$AA@  10069ca0     libucrt:nlsdata.obj
 0002:00006ca4       ??_C@_03IDIOELNC@Fri?$AA@  10069ca4     libucrt:nlsdata.obj
 0002:00006ca8       ??_C@_03FEFJNEK@Sat?$AA@   10069ca8     libucrt:nlsdata.obj
 0002:00006cac       ??_C@_06OOPIFAJ@Sunday?$AA@ 10069cac     libucrt:nlsdata.obj
 0002:00006cb4       ??_C@_06JLEDEDGH@Monday?$AA@ 10069cb4     libucrt:nlsdata.obj
 0002:00006cbc       ??_C@_07BAAGCFCM@Tuesday?$AA@ 10069cbc     libucrt:nlsdata.obj
 0002:00006cc8       ??_C@_09DLIGFAKA@Wednesday?$AA@ 10069cc8     libucrt:nlsdata.obj
 0002:00006cd4       ??_C@_08HACCIKIA@Thursday?$AA@ 10069cd4     libucrt:nlsdata.obj
 0002:00006ce0       ??_C@_06JECMNKMI@Friday?$AA@ 10069ce0     libucrt:nlsdata.obj
 0002:00006ce8       ??_C@_08INBOOONO@Saturday?$AA@ 10069ce8     libucrt:nlsdata.obj
 0002:00006cf4       ??_C@_03JIHJHPIE@Jan?$AA@  10069cf4     libucrt:nlsdata.obj
 0002:00006cf8       ??_C@_03HJBDCHOM@Feb?$AA@  10069cf8     libucrt:nlsdata.obj
 0002:00006cfc       ??_C@_03ODNJBKGA@Mar?$AA@  10069cfc     libucrt:nlsdata.obj
 0002:00006d00       ??_C@_03LEOLGMJP@Apr?$AA@  10069d00     libucrt:nlsdata.obj
 0002:00006d04       ??_C@_03CNMDKL@May?$AA@    10069d04     libucrt:nlsdata.obj
 0002:00006d08       ??_C@_03IDFGHECI@Jun?$AA@  10069d08     libucrt:nlsdata.obj
 0002:00006d0c       ??_C@_03LBGABGKK@Jul?$AA@  10069d0c     libucrt:nlsdata.obj
 0002:00006d10       ??_C@_03IFJFEIGA@Aug?$AA@  10069d10     libucrt:nlsdata.obj
 0002:00006d14       ??_C@_03GGCAPAJC@Sep?$AA@  10069d14     libucrt:nlsdata.obj
 0002:00006d18       ??_C@_03BMAOKBAD@Oct?$AA@  10069d18     libucrt:nlsdata.obj
 0002:00006d1c       ??_C@_03JPJOFNIA@Nov?$AA@  10069d1c     libucrt:nlsdata.obj
 0002:00006d20       ??_C@_03MKABNOCG@Dec?$AA@  10069d20     libucrt:nlsdata.obj
 0002:00006d24       ??_C@_07CGJPFGJA@January?$AA@ 10069d24     libucrt:nlsdata.obj
 0002:00006d30       ??_C@_08GNJGEPFN@February?$AA@ 10069d30     libucrt:nlsdata.obj
 0002:00006d3c       ??_C@_05HPCKOFNC@March?$AA@ 10069d3c     libucrt:nlsdata.obj
 0002:00006d44       ??_C@_05DMJDNLEJ@April?$AA@ 10069d44     libucrt:nlsdata.obj
 0002:00006d4c       ??_C@_04CNLMGBGM@June?$AA@ 10069d4c     libucrt:nlsdata.obj
 0002:00006d54       ??_C@_04MIEPOIFP@July?$AA@ 10069d54     libucrt:nlsdata.obj
 0002:00006d5c       ??_C@_06LBBHFDDG@August?$AA@ 10069d5c     libucrt:nlsdata.obj
 0002:00006d64       ??_C@_09BHHEALKD@September?$AA@ 10069d64     libucrt:nlsdata.obj
 0002:00006d70       ??_C@_07JJNFCEND@October?$AA@ 10069d70     libucrt:nlsdata.obj
 0002:00006d7c       ??_C@_08HCHEGEOA@November?$AA@ 10069d7c     libucrt:nlsdata.obj
 0002:00006d88       ??_C@_08EDHMEBNP@December?$AA@ 10069d88     libucrt:nlsdata.obj
 0002:00006d94       ??_C@_02DEDBPAFC@AM?$AA@   10069d94     libucrt:nlsdata.obj
 0002:00006d98       ??_C@_02CJNFDJBF@PM?$AA@   10069d98     libucrt:nlsdata.obj
 0002:00006d9c       ??_C@_08BPBNCDIB@MM?1dd?1yy?$AA@ 10069d9c     libucrt:nlsdata.obj
 0002:00006da8       ??_C@_0BE@CKGJFCPC@dddd?0?5MMMM?5dd?0?5yyyy?$AA@ 10069da8     libucrt:nlsdata.obj
 0002:00006dc0       ??_C@_08JCCMCCIL@HH?3mm?3ss?$AA@ 10069dc0     libucrt:nlsdata.obj
 0002:00006dcc       ??_C@_17MBGCMIPB@?$AAS?$AAu?$AAn?$AA?$AA@ 10069dcc     libucrt:nlsdata.obj
 0002:00006dd8       ??_C@_17KBOMKBF@?$AAM?$AAo?$AAn?$AA?$AA@ 10069dd8     libucrt:nlsdata.obj
 0002:00006de4       ??_C@_17BMKGEGOJ@?$AAT?$AAu?$AAe?$AA?$AA@ 10069de4     libucrt:nlsdata.obj
 0002:00006df0       ??_C@_17CJEDCEPE@?$AAW?$AAe?$AAd?$AA?$AA@ 10069df0     libucrt:nlsdata.obj
 0002:00006dfc       ??_C@_17PDPHAADD@?$AAT?$AAh?$AAu?$AA?$AA@ 10069dfc     libucrt:nlsdata.obj
 0002:00006e08       ??_C@_17HFOLPPLP@?$AAF?$AAr?$AAi?$AA?$AA@ 10069e08     libucrt:nlsdata.obj
 0002:00006e14       ??_C@_17GGIBDPIH@?$AAS?$AAa?$AAt?$AA?$AA@ 10069e14     libucrt:nlsdata.obj
 0002:00006e20       ??_C@_1O@IHNHDHPB@?$AAS?$AAu?$AAn?$AAd?$AAa?$AAy?$AA?$AA@ 10069e20     libucrt:nlsdata.obj
 0002:00006e30       ??_C@_1O@MMNBFLIA@?$AAM?$AAo?$AAn?$AAd?$AAa?$AAy?$AA?$AA@ 10069e30     libucrt:nlsdata.obj
 0002:00006e40       ??_C@_1BA@ENFBFFEK@?$AAT?$AAu?$AAe?$AAs?$AAd?$AAa?$AAy?$AA?$AA@ 10069e40     libucrt:nlsdata.obj
 0002:00006e54       ??_C@_1BE@EBOGMDOH@?$AAW?$AAe?$AAd?$AAn?$AAe?$AAs?$AAd?$AAa?$AAy?$AA?$AA@ 10069e54     libucrt:nlsdata.obj
 0002:00006e6c       ??_C@_1BC@HHMNLIHE@?$AAT?$AAh?$AAu?$AAr?$AAs?$AAd?$AAa?$AAy?$AA?$AA@ 10069e6c     libucrt:nlsdata.obj
 0002:00006e84       ??_C@_1O@PDICJHAG@?$AAF?$AAr?$AAi?$AAd?$AAa?$AAy?$AA?$AA@ 10069e84     libucrt:nlsdata.obj
 0002:00006e94       ??_C@_1BC@ENMNNPAJ@?$AAS?$AAa?$AAt?$AAu?$AAr?$AAd?$AAa?$AAy?$AA?$AA@ 10069e94     libucrt:nlsdata.obj
 0002:00006eac       ??_C@_17DKNBKCHM@?$AAJ?$AAa?$AAn?$AA?$AA@ 10069eac     libucrt:nlsdata.obj
 0002:00006eb8       ??_C@_17LMDJEKJN@?$AAF?$AAe?$AAb?$AA?$AA@ 10069eb8     libucrt:nlsdata.obj
 0002:00006ec4       ??_C@_17CKNLEDEC@?$AAM?$AAa?$AAr?$AA?$AA@ 10069ec4     libucrt:nlsdata.obj
 0002:00006ed0       ??_C@_17LFPOIHDD@?$AAA?$AAp?$AAr?$AA?$AA@ 10069ed0     libucrt:nlsdata.obj
 0002:00006edc       ??_C@_17PNNKMEED@?$AAM?$AAa?$AAy?$AA?$AA@ 10069edc     libucrt:nlsdata.obj
 0002:00006ee8       ??_C@_17KCJGOCPB@?$AAJ?$AAu?$AAn?$AA?$AA@ 10069ee8     libucrt:nlsdata.obj
 0002:00006ef4       ??_C@_17IJPCKHK@?$AAJ?$AAu?$AAl?$AA?$AA@ 10069ef4     libucrt:nlsdata.obj
 0002:00006f00       ??_C@_17ICPELBCN@?$AAA?$AAu?$AAg?$AA?$AA@ 10069f00     libucrt:nlsdata.obj
 0002:00006f0c       ??_C@_17HCHCOKMG@?$AAS?$AAe?$AAp?$AA?$AA@ 10069f0c     libucrt:nlsdata.obj
 0002:00006f18       ??_C@_17FNLKOI@?$AAO?$AAc?$AAt?$AA?$AA@ 10069f18     libucrt:nlsdata.obj
 0002:00006f24       ??_C@_17BBDMLCIG@?$AAN?$AAo?$AAv?$AA?$AA@ 10069f24     libucrt:nlsdata.obj
 0002:00006f30       ??_C@_17EGKACKIF@?$AAD?$AAe?$AAc?$AA?$AA@ 10069f30     libucrt:nlsdata.obj
 0002:00006f3c       ??_C@_1BA@EFMEIEBA@?$AAJ?$AAa?$AAn?$AAu?$AAa?$AAr?$AAy?$AA?$AA@ 10069f3c     libucrt:nlsdata.obj
 0002:00006f50       ??_C@_1BC@JGDDFFAM@?$AAF?$AAe?$AAb?$AAr?$AAu?$AAa?$AAr?$AAy?$AA?$AA@ 10069f50     libucrt:nlsdata.obj
 0002:00006f68       ??_C@_1M@IKEENEDF@?$AAM?$AAa?$AAr?$AAc?$AAh?$AA?$AA@ 10069f68     libucrt:nlsdata.obj
 0002:00006f78       ??_C@_1M@GJNLMHFD@?$AAA?$AAp?$AAr?$AAi?$AAl?$AA?$AA@ 10069f78     libucrt:nlsdata.obj
 0002:00006f88       ??_C@_19EPFLPGAP@?$AAJ?$AAu?$AAn?$AAe?$AA?$AA@ 10069f88     libucrt:nlsdata.obj
 0002:00006f94       ??_C@_19BIFMLPCD@?$AAJ?$AAu?$AAl?$AAy?$AA?$AA@ 10069f94     libucrt:nlsdata.obj
 0002:00006fa0       ??_C@_1O@PAHLKOAC@?$AAA?$AAu?$AAg?$AAu?$AAs?$AAt?$AA?$AA@ 10069fa0     libucrt:nlsdata.obj
 0002:00006fb0       ??_C@_1BE@DKAAMBJL@?$AAS?$AAe?$AAp?$AAt?$AAe?$AAm?$AAb?$AAe?$AAr?$AA?$AA@ 10069fb0     libucrt:nlsdata.obj
 0002:00006fc8       ??_C@_1BA@EPANDLNG@?$AAO?$AAc?$AAt?$AAo?$AAb?$AAe?$AAr?$AA?$AA@ 10069fc8     libucrt:nlsdata.obj
 0002:00006fdc       ??_C@_1BC@BGLIFPF@?$AAN?$AAo?$AAv?$AAe?$AAm?$AAb?$AAe?$AAr?$AA?$AA@ 10069fdc     libucrt:nlsdata.obj
 0002:00006ff4       ??_C@_1BC@FEMKIFH@?$AAD?$AAe?$AAc?$AAe?$AAm?$AAb?$AAe?$AAr?$AA?$AA@ 10069ff4     libucrt:nlsdata.obj
 0002:0000700c       ??_C@_15ODEHAHHF@?$AAA?$AAM?$AA?$AA@ 1006a00c     libucrt:nlsdata.obj
 0002:00007014       ??_C@_15CLMNNGEL@?$AAP?$AAM?$AA?$AA@ 1006a014     libucrt:nlsdata.obj
 0002:0000701c       ??_C@_1BC@IEBCMHCM@?$AAM?$AAM?$AA?1?$AAd?$AAd?$AA?1?$AAy?$AAy?$AA?$AA@ 1006a01c     libucrt:nlsdata.obj
 0002:00007034       ??_C@_1CI@KNAKOEBC@?$AAd?$AAd?$AAd?$AAd?$AA?0?$AA?5?$AAM?$AAM?$AAM?$AAM?$AA?5?$AAd?$AAd?$AA?0?$AA?5?$AAy?$AAy?$AAy?$AAy?$AA?$AA@ 1006a034     libucrt:nlsdata.obj
 0002:00007064       ??_C@_1BC@GDGBMEMK@?$AAH?$AAH?$AA?3?$AAm?$AAm?$AA?3?$AAs?$AAs?$AA?$AA@ 1006a064     libucrt:nlsdata.obj
 0002:0000707c       ??_C@_1M@BMHNFIME@?$AAe?$AAn?$AA?9?$AAU?$AAS?$AA?$AA@ 1006a07c     libucrt:nlsdata.obj
 0002:00007090       ___lc_time_c               1006a090     libucrt:nlsdata.obj
 0002:0000723c       ??_C@_1DE@JNGNBFGO@?$AAR?$AAu?$AAn?$AAt?$AAi?$AAm?$AAe?$AA?5?$AAE?$AAr?$AAr?$AAo?$AAr?$AA?$CB?$AA?6?$AA?6?$AAP?$AAr?$AAo?$AAg?$AAr?$AAa?$AAm?$AA?3?$AA?5?$AA?$AA@ 1006a23c     libucrt:report_runtime_error.obj
 0002:0000727c       ?ccs@?BL@???$__acrt_stdio_parse_mode@D@@YA?AU__acrt_stdio_stream_mode@@QBD@Z@4QBDB 1006a27c     libucrt:openfile.obj
 0002:00007280       ?utf8_encoding@?BL@???$__acrt_stdio_parse_mode@D@@YA?AU__acrt_stdio_stream_mode@@QBD@Z@4QBDB 1006a280     libucrt:openfile.obj
 0002:00007288       ?utf16_encoding@?BL@???$__acrt_stdio_parse_mode@D@@YA?AU__acrt_stdio_stream_mode@@QBD@Z@4QBDB 1006a288     libucrt:openfile.obj
 0002:00007294       ?unicode_encoding@?BL@???$__acrt_stdio_parse_mode@D@@YA?AU__acrt_stdio_stream_mode@@QBD@Z@4QBDB 1006a294     libucrt:openfile.obj
 0002:0000729c       ?ccs@?BL@???$__acrt_stdio_parse_mode@_W@@YA?AU__acrt_stdio_stream_mode@@QB_W@Z@4QB_WB 1006a29c     libucrt:openfile.obj
 0002:000072a4       ?utf8_encoding@?BL@???$__acrt_stdio_parse_mode@_W@@YA?AU__acrt_stdio_stream_mode@@QB_W@Z@4QB_WB 1006a2a4     libucrt:openfile.obj
 0002:000072b0       ?utf16_encoding@?BL@???$__acrt_stdio_parse_mode@_W@@YA?AU__acrt_stdio_stream_mode@@QB_W@Z@4QB_WB 1006a2b0     libucrt:openfile.obj
 0002:000072c4       ?unicode_encoding@?BL@???$__acrt_stdio_parse_mode@_W@@YA?AU__acrt_stdio_stream_mode@@QB_W@Z@4QB_WB 1006a2c4     libucrt:openfile.obj
 0002:000072d8       __d_inf                    1006a2d8     libucrt:util.obj
 0002:000072e8       __d_ind                    1006a2e8     libucrt:util.obj
 0002:000072f8       __d_max                    1006a2f8     libucrt:util.obj
 0002:00007308       __d_min                    1006a308     libucrt:util.obj
 0002:00007318       __d_mzero                  1006a318     libucrt:util.obj
 0002:00007358       ??_C@_1M@HPNHIDJI@?$AAj?$AAa?$AA?9?$AAJ?$AAP?$AA?$AA@ 1006a358     libucrt:mbctype.obj
 0002:00007368       ??_C@_1M@BIBDDEMK@?$AAz?$AAh?$AA?9?$AAC?$AAN?$AA?$AA@ 1006a368     libucrt:mbctype.obj
 0002:00007378       ??_C@_1M@JLOOOEGK@?$AAk?$AAo?$AA?9?$AAK?$AAR?$AA?$AA@ 1006a378     libucrt:mbctype.obj
 0002:00007388       ??_C@_1M@CLNBBOPM@?$AAz?$AAh?$AA?9?$AAT?$AAW?$AA?$AA@ 1006a388     libucrt:mbctype.obj
 0002:00007398       __wctype                   1006a398     libucrt:ctype.obj
 0002:00007608       ___newctype                1006a608     libucrt:ctype.obj
 0002:000079a8       ___newclmap                1006a9a8     libucrt:ctype.obj
 0002:00007b78       ___newcumap                1006ab78     libucrt:ctype.obj
 0002:000085d4       ??_C@_15EMKDOKLE@?$AAa?$AAr?$AA?$AA@ 1006b5d4     libucrt:lcidtoname_downlevel.obj
 0002:000085dc       ??_C@_15KNPADPLH@?$AAb?$AAg?$AA?$AA@ 1006b5dc     libucrt:lcidtoname_downlevel.obj
 0002:000085e4       ??_C@_15EDMHLDMO@?$AAc?$AAa?$AA?$AA@ 1006b5e4     libucrt:lcidtoname_downlevel.obj
 0002:000085ec       ??_C@_1O@BPEAJADD@?$AAz?$AAh?$AA?9?$AAC?$AAH?$AAS?$AA?$AA@ 1006b5ec     libucrt:lcidtoname_downlevel.obj
 0002:000085fc       ??_C@_15LJNHCMNK@?$AAc?$AAs?$AA?$AA@ 1006b5fc     libucrt:lcidtoname_downlevel.obj
 0002:00008604       ??_C@_15FOMCIDHG@?$AAd?$AAa?$AA?$AA@ 1006b604     libucrt:lcidtoname_downlevel.obj
 0002:0000860c       ??_C@_15NBKABECB@?$AAd?$AAe?$AA?$AA@ 1006b60c     libucrt:lcidtoname_downlevel.obj
 0002:00008614       ??_C@_15GHPEIIAO@?$AAe?$AAl?$AA?$AA@ 1006b614     libucrt:lcidtoname_downlevel.obj
 0002:0000861c       ??_C@_15MNPNEAIF@?$AAe?$AAn?$AA?$AA@ 1006b61c     libucrt:lcidtoname_downlevel.obj
 0002:00008624       ??_C@_15GPIOMPMH@?$AAe?$AAs?$AA?$AA@ 1006b624     libucrt:lcidtoname_downlevel.obj
 0002:0000862c       ??_C@_15NGLOAKJC@?$AAf?$AAi?$AA?$AA@ 1006b62c     libucrt:lcidtoname_downlevel.obj
 0002:00008634       ??_C@_15FBKGNKAM@?$AAf?$AAr?$AA?$AA@ 1006b634     libucrt:lcidtoname_downlevel.obj
 0002:0000863c       ??_C@_15KGGCNEFK@?$AAh?$AAe?$AA?$AA@ 1006b63c     libucrt:lcidtoname_downlevel.obj
 0002:00008644       ??_C@_15PGHLIDMF@?$AAh?$AAu?$AA?$AA@ 1006b644     libucrt:lcidtoname_downlevel.obj
 0002:0000864c       ??_C@_15BIEMAPLM@?$AAi?$AAs?$AA?$AA@ 1006b64c     libucrt:lcidtoname_downlevel.obj
 0002:00008654       ??_C@_15IFJLDHAF@?$AAi?$AAt?$AA?$AA@ 1006b654     libucrt:lcidtoname_downlevel.obj
 0002:0000865c       ??_C@_15GEMIOCAG@?$AAj?$AAa?$AA?$AA@ 1006b65c     libucrt:lcidtoname_downlevel.obj
 0002:00008664       ??_C@_15EPELEGJA@?$AAk?$AAo?$AA?$AA@ 1006b664     libucrt:lcidtoname_downlevel.obj
 0002:0000866c       ??_C@_15NDDHIMN@?$AAn?$AAl?$AA?$AA@ 1006b66c     libucrt:lcidtoname_downlevel.obj
 0002:00008674       ??_C@_15BPIGNHCD@?$AAn?$AAo?$AA?$AA@ 1006b674     libucrt:lcidtoname_downlevel.obj
 0002:0000867c       ??_C@_15DEOPBLCG@?$AAp?$AAl?$AA?$AA@ 1006b67c     libucrt:lcidtoname_downlevel.obj
 0002:00008684       ??_C@_15KBECGEFG@?$AAp?$AAt?$AA?$AA@ 1006b684     libucrt:lcidtoname_downlevel.obj
 0002:0000868c       ??_C@_15GLJCBFMD@?$AAr?$AAo?$AA?$AA@ 1006b68c     libucrt:lcidtoname_downlevel.obj
 0002:00008694       ??_C@_15FEDGKCDI@?$AAr?$AAu?$AA?$AA@ 1006b694     libucrt:lcidtoname_downlevel.obj
 0002:0000869c       ??_C@_15GLKMLLHM@?$AAh?$AAr?$AA?$AA@ 1006b69c     libucrt:lcidtoname_downlevel.obj
 0002:000086a4       ??_C@_15CPKMFBDB@?$AAs?$AAk?$AA?$AA@ 1006b6a4     libucrt:lcidtoname_downlevel.obj
 0002:000086ac       ??_C@_15BAAIOGMK@?$AAs?$AAq?$AA?$AA@ 1006b6ac     libucrt:lcidtoname_downlevel.obj
 0002:000086b4       ??_C@_15INNPNOHD@?$AAs?$AAv?$AA?$AA@ 1006b6b4     libucrt:lcidtoname_downlevel.obj
 0002:000086bc       ??_C@_15CABMMOGH@?$AAt?$AAh?$AA?$AA@ 1006b6bc     libucrt:lcidtoname_downlevel.obj
 0002:000086c4       ??_C@_15BPLIHJJM@?$AAt?$AAr?$AA?$AA@ 1006b6c4     libucrt:lcidtoname_downlevel.obj
 0002:000086cc       ??_C@_15NEOEKKDJ@?$AAu?$AAr?$AA?$AA@ 1006b6cc     libucrt:lcidtoname_downlevel.obj
 0002:000086d4       ??_C@_15NFICGAJK@?$AAi?$AAd?$AA?$AA@ 1006b6d4     libucrt:lcidtoname_downlevel.obj
 0002:000086dc       ??_C@_15PJPFLCCM@?$AAu?$AAk?$AA?$AA@ 1006b6dc     libucrt:lcidtoname_downlevel.obj
 0002:000086e4       ??_C@_15HPJPHDM@?$AAb?$AAe?$AA?$AA@ 1006b6e4     libucrt:lcidtoname_downlevel.obj
 0002:000086ec       ??_C@_15LCHLGJII@?$AAs?$AAl?$AA?$AA@ 1006b6ec     libucrt:lcidtoname_downlevel.obj
 0002:000086f4       ??_C@_15PCFJPHHO@?$AAe?$AAt?$AA?$AA@ 1006b6f4     libucrt:lcidtoname_downlevel.obj
 0002:000086fc       ??_C@_15HPFPGODN@?$AAl?$AAv?$AA?$AA@ 1006b6fc     libucrt:lcidtoname_downlevel.obj
 0002:00008704       ??_C@_15NFFGKGLG@?$AAl?$AAt?$AA?$AA@ 1006b704     libucrt:lcidtoname_downlevel.obj
 0002:0000870c       ??_C@_15BDAKCCHN@?$AAf?$AAa?$AA?$AA@ 1006b70c     libucrt:lcidtoname_downlevel.obj
 0002:00008714       ??_C@_15NFGIAIAJ@?$AAv?$AAi?$AA?$AA@ 1006b714     libucrt:lcidtoname_downlevel.obj
 0002:0000871c       ??_C@_15LMKNDMHN@?$AAh?$AAy?$AA?$AA@ 1006b71c     libucrt:lcidtoname_downlevel.obj
 0002:00008724       ??_C@_15IJBHMCFL@?$AAa?$AAz?$AA?$AA@ 1006b724     libucrt:lcidtoname_downlevel.obj
 0002:0000872c       ??_C@_15EKOFJABL@?$AAe?$AAu?$AA?$AA@ 1006b72c     libucrt:lcidtoname_downlevel.obj
 0002:00008734       ??_C@_15BGHADCNK@?$AAm?$AAk?$AA?$AA@ 1006b734     libucrt:lcidtoname_downlevel.obj
 0002:0000873c       ??_C@_15JDNICKHM@?$AAa?$AAf?$AA?$AA@ 1006b73c     libucrt:lcidtoname_downlevel.obj
 0002:00008744       ??_C@_15KPJEDBKD@?$AAk?$AAa?$AA?$AA@ 1006b744     libucrt:lcidtoname_downlevel.obj
 0002:0000874c       ??_C@_15PDNFFFEO@?$AAf?$AAo?$AA?$AA@ 1006b74c     libucrt:lcidtoname_downlevel.obj
 0002:00008754       ??_C@_15OMLEGLOC@?$AAh?$AAi?$AA?$AA@ 1006b754     libucrt:lcidtoname_downlevel.obj
 0002:0000875c       ??_C@_15IDNNENKK@?$AAm?$AAs?$AA?$AA@ 1006b75c     libucrt:lcidtoname_downlevel.obj
 0002:00008764       ??_C@_15MACJNBMH@?$AAk?$AAk?$AA?$AA@ 1006b764     libucrt:lcidtoname_downlevel.obj
 0002:0000876c       ??_C@_15DKDJEOND@?$AAk?$AAy?$AA?$AA@ 1006b76c     libucrt:lcidtoname_downlevel.obj
 0002:00008774       ??_C@_15DFGDLJBG@?$AAs?$AAw?$AA?$AA@ 1006b774     libucrt:lcidtoname_downlevel.obj
 0002:0000877c       ??_C@_15BBFAICNG@?$AAu?$AAz?$AA?$AA@ 1006b77c     libucrt:lcidtoname_downlevel.obj
 0002:00008784       ??_C@_15DKNDCGEA@?$AAt?$AAt?$AA?$AA@ 1006b784     libucrt:lcidtoname_downlevel.obj
 0002:0000878c       ??_C@_15MGIFMDPL@?$AAp?$AAa?$AA?$AA@ 1006b78c     libucrt:lcidtoname_downlevel.obj
 0002:00008794       ??_C@_15HCNDBBA@?$AAg?$AAu?$AA?$AA@ 1006b794     libucrt:lcidtoname_downlevel.obj
 0002:0000879c       ??_C@_15FNBEIBON@?$AAt?$AAa?$AA?$AA@ 1006b79c     libucrt:lcidtoname_downlevel.obj
 0002:000087a4       ??_C@_15NCHGBGLK@?$AAt?$AAe?$AA?$AA@ 1006b7a4     libucrt:lcidtoname_downlevel.obj
 0002:000087ac       ??_C@_15PHPHCBPF@?$AAk?$AAn?$AA?$AA@ 1006b7ac     libucrt:lcidtoname_downlevel.obj
 0002:000087b4       ??_C@_15DLGBCKMP@?$AAm?$AAr?$AA?$AA@ 1006b7b4     libucrt:lcidtoname_downlevel.obj
 0002:000087bc       ??_C@_15EABBLBFF@?$AAs?$AAa?$AA?$AA@ 1006b7bc     libucrt:lcidtoname_downlevel.obj
 0002:000087c4       ??_C@_15CBKOMCOI@?$AAm?$AAn?$AA?$AA@ 1006b7c4     libucrt:lcidtoname_downlevel.obj
 0002:000087cc       ??_C@_15CKDMCJAF@?$AAg?$AAl?$AA?$AA@ 1006b7cc     libucrt:lcidtoname_downlevel.obj
 0002:000087d4       ??_C@_17CNJFBPG@?$AAk?$AAo?$AAk?$AA?$AA@ 1006b7d4     libucrt:lcidtoname_downlevel.obj
 0002:000087e0       ??_C@_17FFBJICPL@?$AAs?$AAy?$AAr?$AA?$AA@ 1006b7e0     libucrt:lcidtoname_downlevel.obj
 0002:000087ec       ??_C@_17KPNDCPAF@?$AAd?$AAi?$AAv?$AA?$AA@ 1006b7ec     libucrt:lcidtoname_downlevel.obj
 0002:000087f8       ??_C@_11LOCGONAA@?$AA?$AA@ 1006b7f8     libucrt:lcidtoname_downlevel.obj
 0002:000087fc       ??_C@_1M@OKAHONE@?$AAa?$AAr?$AA?9?$AAS?$AAA?$AA?$AA@ 1006b7fc     libucrt:lcidtoname_downlevel.obj
 0002:0000880c       ??_C@_1M@FFFIGIGK@?$AAb?$AAg?$AA?9?$AAB?$AAG?$AA?$AA@ 1006b80c     libucrt:lcidtoname_downlevel.obj
 0002:0000881c       ??_C@_1M@BJNKEDC@?$AAc?$AAa?$AA?9?$AAE?$AAS?$AA?$AA@ 1006b81c     libucrt:lcidtoname_downlevel.obj
 0002:0000882c       ??_C@_1M@IJJHFJHA@?$AAc?$AAs?$AA?9?$AAC?$AAZ?$AA?$AA@ 1006b82c     libucrt:lcidtoname_downlevel.obj
 0002:0000883c       ??_C@_1M@CLPEOBGI@?$AAd?$AAa?$AA?9?$AAD?$AAK?$AA?$AA@ 1006b83c     libucrt:lcidtoname_downlevel.obj
 0002:0000884c       ??_C@_1M@MCMADGCB@?$AAd?$AAe?$AA?9?$AAD?$AAE?$AA?$AA@ 1006b84c     libucrt:lcidtoname_downlevel.obj
 0002:0000885c       ??_C@_1M@OOCKEMAM@?$AAe?$AAl?$AA?9?$AAG?$AAR?$AA?$AA@ 1006b85c     libucrt:lcidtoname_downlevel.obj
 0002:0000886c       ??_C@_1M@DDNJFGID@?$AAf?$AAi?$AA?9?$AAF?$AAI?$AA?$AA@ 1006b86c     libucrt:lcidtoname_downlevel.obj
 0002:0000887c       ??_C@_1M@GLIPPMAC@?$AAf?$AAr?$AA?9?$AAF?$AAR?$AA?$AA@ 1006b87c     libucrt:lcidtoname_downlevel.obj
 0002:0000888c       ??_C@_1M@GFMCHPE@?$AAh?$AAe?$AA?9?$AAI?$AAL?$AA?$AA@ 1006b88c     libucrt:lcidtoname_downlevel.obj
 0002:0000889c       ??_C@_1M@MHLPGNKM@?$AAh?$AAu?$AA?9?$AAH?$AAU?$AA?$AA@ 1006b89c     libucrt:lcidtoname_downlevel.obj
 0002:000088ac       ??_C@_1M@LPDDNNPN@?$AAi?$AAs?$AA?9?$AAI?$AAS?$AA?$AA@ 1006b8ac     libucrt:lcidtoname_downlevel.obj
 0002:000088bc       ??_C@_1M@MADIPODN@?$AAi?$AAt?$AA?9?$AAI?$AAT?$AA?$AA@ 1006b8bc     libucrt:lcidtoname_downlevel.obj
 0002:000088cc       ??_C@_1M@IHBJJGG@?$AAn?$AAl?$AA?9?$AAN?$AAL?$AA?$AA@ 1006b8cc     libucrt:lcidtoname_downlevel.obj
 0002:000088dc       ??_C@_1M@EANAGDL@?$AAn?$AAb?$AA?9?$AAN?$AAO?$AA?$AA@ 1006b8dc     libucrt:lcidtoname_downlevel.obj
 0002:000088ec       ??_C@_1M@NEIEMEGP@?$AAp?$AAl?$AA?9?$AAP?$AAL?$AA?$AA@ 1006b8ec     libucrt:lcidtoname_downlevel.obj
 0002:000088fc       ??_C@_1M@BOCFIGEP@?$AAp?$AAt?$AA?9?$AAB?$AAR?$AA?$AA@ 1006b8fc     libucrt:lcidtoname_downlevel.obj
 0002:0000890c       ??_C@_1M@IMPFOPBG@?$AAr?$AAo?$AA?9?$AAR?$AAO?$AA?$AA@ 1006b90c     libucrt:lcidtoname_downlevel.obj
 0002:0000891c       ??_C@_1M@IDNNEJMM@?$AAr?$AAu?$AA?9?$AAR?$AAU?$AA?$AA@ 1006b91c     libucrt:lcidtoname_downlevel.obj
 0002:0000892c       ??_C@_1M@LILEEOGM@?$AAh?$AAr?$AA?9?$AAH?$AAR?$AA?$AA@ 1006b92c     libucrt:lcidtoname_downlevel.obj
 0002:0000893c       ??_C@_1M@FKIFEHPB@?$AAs?$AAk?$AA?9?$AAS?$AAK?$AA?$AA@ 1006b93c     libucrt:lcidtoname_downlevel.obj
 0002:0000894c       ??_C@_1M@LJMAMNPJ@?$AAs?$AAq?$AA?9?$AAA?$AAL?$AA?$AA@ 1006b94c     libucrt:lcidtoname_downlevel.obj
 0002:0000895c       ??_C@_1M@GIAKDKJK@?$AAs?$AAv?$AA?9?$AAS?$AAE?$AA?$AA@ 1006b95c     libucrt:lcidtoname_downlevel.obj
 0002:0000896c       ??_C@_1M@MKJKIKCL@?$AAt?$AAh?$AA?9?$AAT?$AAH?$AA?$AA@ 1006b96c     libucrt:lcidtoname_downlevel.obj
 0002:0000897c       ??_C@_1M@MFLCCMPB@?$AAt?$AAr?$AA?9?$AAT?$AAR?$AA?$AA@ 1006b97c     libucrt:lcidtoname_downlevel.obj
 0002:0000898c       ??_C@_1M@OIJHDKJN@?$AAu?$AAr?$AA?9?$AAP?$AAK?$AA?$AA@ 1006b98c     libucrt:lcidtoname_downlevel.obj
 0002:0000899c       ??_C@_1M@LHIPCIEK@?$AAi?$AAd?$AA?9?$AAI?$AAD?$AA?$AA@ 1006b99c     libucrt:lcidtoname_downlevel.obj
 0002:000089ac       ??_C@_1M@MFMOBGI@?$AAu?$AAk?$AA?9?$AAU?$AAA?$AA?$AA@ 1006b9ac     libucrt:lcidtoname_downlevel.obj
 0002:000089bc       ??_C@_1M@OBGLJIPL@?$AAb?$AAe?$AA?9?$AAB?$AAY?$AA?$AA@ 1006b9bc     libucrt:lcidtoname_downlevel.obj
 0002:000089cc       ??_C@_1M@BCFAJEAD@?$AAs?$AAl?$AA?9?$AAS?$AAI?$AA?$AA@ 1006b9cc     libucrt:lcidtoname_downlevel.obj
 0002:000089dc       ??_C@_1M@FKFFEDDN@?$AAe?$AAt?$AA?9?$AAE?$AAE?$AA?$AA@ 1006b9dc     libucrt:lcidtoname_downlevel.obj
 0002:000089ec       ??_C@_1M@KGKKAACI@?$AAl?$AAv?$AA?9?$AAL?$AAV?$AA?$AA@ 1006b9ec     libucrt:lcidtoname_downlevel.obj
 0002:000089fc       ??_C@_1M@IFGBIJO@?$AAl?$AAt?$AA?9?$AAL?$AAT?$AA?$AA@ 1006b9fc     libucrt:lcidtoname_downlevel.obj
 0002:00008a0c       ??_C@_1M@FGEAHEDM@?$AAf?$AAa?$AA?9?$AAI?$AAR?$AA?$AA@ 1006ba0c     libucrt:lcidtoname_downlevel.obj
 0002:00008a1c       ??_C@_1M@KBMAIBFN@?$AAv?$AAi?$AA?9?$AAV?$AAN?$AA?$AA@ 1006ba1c     libucrt:lcidtoname_downlevel.obj
 0002:00008a2c       ??_C@_1M@GPCBKDJK@?$AAh?$AAy?$AA?9?$AAA?$AAM?$AA?$AA@ 1006ba2c     libucrt:lcidtoname_downlevel.obj
 0002:00008a3c       ??_C@_1BG@BECMDDJB@?$AAa?$AAz?$AA?9?$AAA?$AAZ?$AA?9?$AAL?$AAa?$AAt?$AAn?$AA?$AA@ 1006ba3c     libucrt:lcidtoname_downlevel.obj
 0002:00008a58       ??_C@_1M@MAOFCAEA@?$AAe?$AAu?$AA?9?$AAE?$AAS?$AA?$AA@ 1006ba58     libucrt:lcidtoname_downlevel.obj
 0002:00008a68       ??_C@_1M@IGHABKPI@?$AAm?$AAk?$AA?9?$AAM?$AAK?$AA?$AA@ 1006ba68     libucrt:lcidtoname_downlevel.obj
 0002:00008a78       ??_C@_1M@IAIGNEJG@?$AAt?$AAn?$AA?9?$AAZ?$AAA?$AA?$AA@ 1006ba78     libucrt:lcidtoname_downlevel.obj
 0002:00008a88       ??_C@_1M@IIJCOJFA@?$AAx?$AAh?$AA?9?$AAZ?$AAA?$AA?$AA@ 1006ba88     libucrt:lcidtoname_downlevel.obj
 0002:00008a98       ??_C@_1M@LGPJHNJH@?$AAz?$AAu?$AA?9?$AAZ?$AAA?$AA?$AA@ 1006ba98     libucrt:lcidtoname_downlevel.obj
 0002:00008aa8       ??_C@_1M@HOKAOIO@?$AAa?$AAf?$AA?9?$AAZ?$AAA?$AA?$AA@ 1006baa8     libucrt:lcidtoname_downlevel.obj
 0002:00008ab8       ??_C@_1M@DPCLHLIE@?$AAk?$AAa?$AA?9?$AAG?$AAE?$AA?$AA@ 1006bab8     libucrt:lcidtoname_downlevel.obj
 0002:00008ac8       ??_C@_1M@BLKMHJBI@?$AAf?$AAo?$AA?9?$AAF?$AAO?$AA?$AA@ 1006bac8     libucrt:lcidtoname_downlevel.obj
 0002:00008ad8       ??_C@_1M@LGGJAPPB@?$AAh?$AAi?$AA?9?$AAI?$AAN?$AA?$AA@ 1006bad8     libucrt:lcidtoname_downlevel.obj
 0002:00008ae8       ??_C@_1M@FIKPIHFE@?$AAm?$AAt?$AA?9?$AAM?$AAT?$AA?$AA@ 1006bae8     libucrt:lcidtoname_downlevel.obj
 0002:00008af8       ??_C@_1M@HEGGPBFA@?$AAs?$AAe?$AA?9?$AAN?$AAO?$AA?$AA@ 1006baf8     libucrt:lcidtoname_downlevel.obj
 0002:00008b08       ??_C@_1M@EIBJEEPA@?$AAm?$AAs?$AA?9?$AAM?$AAY?$AA?$AA@ 1006bb08     libucrt:lcidtoname_downlevel.obj
 0002:00008b18       ??_C@_1M@FHLBGMPP@?$AAk?$AAk?$AA?9?$AAK?$AAZ?$AA?$AA@ 1006bb18     libucrt:lcidtoname_downlevel.obj
 0002:00008b28       ??_C@_1M@NGJJLCGI@?$AAk?$AAy?$AA?9?$AAK?$AAG?$AA?$AA@ 1006bb28     libucrt:lcidtoname_downlevel.obj
 0002:00008b38       ??_C@_1M@GIENNBFC@?$AAs?$AAw?$AA?9?$AAK?$AAE?$AA?$AA@ 1006bb38     libucrt:lcidtoname_downlevel.obj
 0002:00008b48       ??_C@_1BG@NDGMJIMJ@?$AAu?$AAz?$AA?9?$AAU?$AAZ?$AA?9?$AAL?$AAa?$AAt?$AAn?$AA?$AA@ 1006bb48     libucrt:lcidtoname_downlevel.obj
 0002:00008b64       ??_C@_1M@IDCCIHBC@?$AAt?$AAt?$AA?9?$AAR?$AAU?$AA?$AA@ 1006bb64     libucrt:lcidtoname_downlevel.obj
 0002:00008b74       ??_C@_1M@LOICPMOJ@?$AAb?$AAn?$AA?9?$AAI?$AAN?$AA?$AA@ 1006bb74     libucrt:lcidtoname_downlevel.obj
 0002:00008b84       ??_C@_1M@KPKKNEAH@?$AAp?$AAa?$AA?9?$AAI?$AAN?$AA?$AA@ 1006bb84     libucrt:lcidtoname_downlevel.obj
 0002:00008b94       ??_C@_1M@PJGPPBOG@?$AAg?$AAu?$AA?9?$AAI?$AAN?$AA?$AA@ 1006bb94     libucrt:lcidtoname_downlevel.obj
 0002:00008ba4       ??_C@_1M@KMKMOPHI@?$AAt?$AAa?$AA?9?$AAI?$AAN?$AA?$AA@ 1006bba4     libucrt:lcidtoname_downlevel.obj
 0002:00008bb4       ??_C@_1M@KFEHEPAC@?$AAt?$AAe?$AA?9?$AAI?$AAN?$AA?$AA@ 1006bbb4     libucrt:lcidtoname_downlevel.obj
 0002:00008bc4       ??_C@_1M@CDCLMGHI@?$AAk?$AAn?$AA?9?$AAI?$AAN?$AA?$AA@ 1006bbc4     libucrt:lcidtoname_downlevel.obj
 0002:00008bd4       ??_C@_1M@MIODLDKF@?$AAm?$AAl?$AA?9?$AAI?$AAN?$AA?$AA@ 1006bbd4     libucrt:lcidtoname_downlevel.obj
 0002:00008be4       ??_C@_1M@PBIEACPO@?$AAm?$AAr?$AA?9?$AAI?$AAN?$AA?$AA@ 1006bbe4     libucrt:lcidtoname_downlevel.obj
 0002:00008bf4       ??_C@_1M@NIDEAGPH@?$AAs?$AAa?$AA?9?$AAI?$AAN?$AA?$AA@ 1006bbf4     libucrt:lcidtoname_downlevel.obj
 0002:00008c04       ??_C@_1M@FHIHCBIO@?$AAm?$AAn?$AA?9?$AAM?$AAN?$AA?$AA@ 1006bc04     libucrt:lcidtoname_downlevel.obj
 0002:00008c14       ??_C@_1M@JAIJPENP@?$AAc?$AAy?$AA?9?$AAG?$AAB?$AA?$AA@ 1006bc14     libucrt:lcidtoname_downlevel.obj
 0002:00008c24       ??_C@_1M@PHGFBEPN@?$AAg?$AAl?$AA?9?$AAE?$AAS?$AA?$AA@ 1006bc24     libucrt:lcidtoname_downlevel.obj
 0002:00008c34       ??_C@_1O@KPIPDNCP@?$AAk?$AAo?$AAk?$AA?9?$AAI?$AAN?$AA?$AA@ 1006bc34     libucrt:lcidtoname_downlevel.obj
 0002:00008c44       ??_C@_1O@KNHJLDJA@?$AAs?$AAy?$AAr?$AA?9?$AAS?$AAY?$AA?$AA@ 1006bc44     libucrt:lcidtoname_downlevel.obj
 0002:00008c54       ??_C@_1O@MKEKBLAH@?$AAd?$AAi?$AAv?$AA?9?$AAM?$AAV?$AA?$AA@ 1006bc54     libucrt:lcidtoname_downlevel.obj
 0002:00008c64       ??_C@_1O@OHDCKDDF@?$AAq?$AAu?$AAz?$AA?9?$AAB?$AAO?$AA?$AA@ 1006bc64     libucrt:lcidtoname_downlevel.obj
 0002:00008c74       ??_C@_1M@LEPJNLFD@?$AAn?$AAs?$AA?9?$AAZ?$AAA?$AA?$AA@ 1006bc74     libucrt:lcidtoname_downlevel.obj
 0002:00008c84       ??_C@_1M@OMLEIIJB@?$AAm?$AAi?$AA?9?$AAN?$AAZ?$AA?$AA@ 1006bc84     libucrt:lcidtoname_downlevel.obj
 0002:00008c94       ??_C@_1M@PMPEAILG@?$AAa?$AAr?$AA?9?$AAI?$AAQ?$AA?$AA@ 1006bc94     libucrt:lcidtoname_downlevel.obj
 0002:00008ca4       ??_C@_1M@CNKPNOEE@?$AAd?$AAe?$AA?9?$AAC?$AAH?$AA?$AA@ 1006bca4     libucrt:lcidtoname_downlevel.obj
 0002:00008cb4       ??_C@_1M@LKMGMLKO@?$AAe?$AAn?$AA?9?$AAG?$AAB?$AA?$AA@ 1006bcb4     libucrt:lcidtoname_downlevel.obj
 0002:00008cc4       ??_C@_1M@PGKJFFGL@?$AAe?$AAs?$AA?9?$AAM?$AAX?$AA?$AA@ 1006bcc4     libucrt:lcidtoname_downlevel.obj
 0002:00008cd4       ??_C@_1M@DNNANBDC@?$AAf?$AAr?$AA?9?$AAB?$AAE?$AA?$AA@ 1006bcd4     libucrt:lcidtoname_downlevel.obj
 0002:00008ce4       ??_C@_1M@HLGMDFHM@?$AAi?$AAt?$AA?9?$AAC?$AAH?$AA?$AA@ 1006bce4     libucrt:lcidtoname_downlevel.obj
 0002:00008cf4       ??_C@_1M@CLLBGJH@?$AAn?$AAl?$AA?9?$AAB?$AAE?$AA?$AA@ 1006bcf4     libucrt:lcidtoname_downlevel.obj
 0002:00008d04       ??_C@_1M@BODBOGLF@?$AAn?$AAn?$AA?9?$AAN?$AAO?$AA?$AA@ 1006bd04     libucrt:lcidtoname_downlevel.obj
 0002:00008d14       ??_C@_1M@HFFAHKAD@?$AAp?$AAt?$AA?9?$AAP?$AAT?$AA?$AA@ 1006bd14     libucrt:lcidtoname_downlevel.obj
 0002:00008d24       ??_C@_1BG@LNOAKHIE@?$AAs?$AAr?$AA?9?$AAS?$AAP?$AA?9?$AAL?$AAa?$AAt?$AAn?$AA?$AA@ 1006bd24     libucrt:lcidtoname_downlevel.obj
 0002:00008d40       ??_C@_1M@HBMHBGAK@?$AAs?$AAv?$AA?9?$AAF?$AAI?$AA?$AA@ 1006bd40     libucrt:lcidtoname_downlevel.obj
 0002:00008d50       ??_C@_1BG@DGCJGJBE@?$AAa?$AAz?$AA?9?$AAA?$AAZ?$AA?9?$AAC?$AAy?$AAr?$AAl?$AA?$AA@ 1006bd50     libucrt:lcidtoname_downlevel.obj
 0002:00008d6c       ??_C@_1M@KEJDAAHB@?$AAs?$AAe?$AA?9?$AAS?$AAE?$AA?$AA@ 1006bd6c     libucrt:lcidtoname_downlevel.obj
 0002:00008d7c       ??_C@_1M@HEIBJJAD@?$AAm?$AAs?$AA?9?$AAB?$AAN?$AA?$AA@ 1006bd7c     libucrt:lcidtoname_downlevel.obj
 0002:00008d8c       ??_C@_1BG@PBGJMCEM@?$AAu?$AAz?$AA?9?$AAU?$AAZ?$AA?9?$AAC?$AAy?$AAr?$AAl?$AA?$AA@ 1006bd8c     libucrt:lcidtoname_downlevel.obj
 0002:00008da8       ??_C@_1O@LAOBCMDF@?$AAq?$AAu?$AAz?$AA?9?$AAE?$AAC?$AA?$AA@ 1006bda8     libucrt:lcidtoname_downlevel.obj
 0002:00008db8       ??_C@_1M@POEEMAIO@?$AAa?$AAr?$AA?9?$AAE?$AAG?$AA?$AA@ 1006bdb8     libucrt:lcidtoname_downlevel.obj
 0002:00008dc8       ??_C@_1M@EFAKDEDL@?$AAz?$AAh?$AA?9?$AAH?$AAK?$AA?$AA@ 1006bdc8     libucrt:lcidtoname_downlevel.obj
 0002:00008dd8       ??_C@_1M@HKKIJHGI@?$AAd?$AAe?$AA?9?$AAA?$AAT?$AA?$AA@ 1006bdd8     libucrt:lcidtoname_downlevel.obj
 0002:00008de8       ??_C@_1M@KBFBEHJF@?$AAe?$AAn?$AA?9?$AAA?$AAU?$AA?$AA@ 1006bde8     libucrt:lcidtoname_downlevel.obj
 0002:00008df8       ??_C@_1M@MNPLFAAH@?$AAe?$AAs?$AA?9?$AAE?$AAS?$AA?$AA@ 1006bdf8     libucrt:lcidtoname_downlevel.obj
 0002:00008e08       ??_C@_1M@HJOOJFMA@?$AAf?$AAr?$AA?9?$AAC?$AAA?$AA?$AA@ 1006be08     libucrt:lcidtoname_downlevel.obj
 0002:00008e18       ??_C@_1BG@JPOFPNAB@?$AAs?$AAr?$AA?9?$AAS?$AAP?$AA?9?$AAC?$AAy?$AAr?$AAl?$AA?$AA@ 1006be18     libucrt:lcidtoname_downlevel.obj
 0002:00008e34       ??_C@_1M@LNFOCMOB@?$AAs?$AAe?$AA?9?$AAF?$AAI?$AA?$AA@ 1006be34     libucrt:lcidtoname_downlevel.obj
 0002:00008e44       ??_C@_1O@MGJBOAMB@?$AAq?$AAu?$AAz?$AA?9?$AAP?$AAE?$AA?$AA@ 1006be44     libucrt:lcidtoname_downlevel.obj
 0002:00008e54       ??_C@_1M@GJINLBOK@?$AAa?$AAr?$AA?9?$AAL?$AAY?$AA?$AA@ 1006be54     libucrt:lcidtoname_downlevel.obj
 0002:00008e64       ??_C@_1M@GGMNHJNL@?$AAz?$AAh?$AA?9?$AAS?$AAG?$AA?$AA@ 1006be64     libucrt:lcidtoname_downlevel.obj
 0002:00008e74       ??_C@_1M@HOIKODND@?$AAd?$AAe?$AA?9?$AAL?$AAU?$AA?$AA@ 1006be74     libucrt:lcidtoname_downlevel.obj
 0002:00008e84       ??_C@_1M@DDOCCGFG@?$AAe?$AAn?$AA?9?$AAC?$AAA?$AA?$AA@ 1006be84     libucrt:lcidtoname_downlevel.obj
 0002:00008e94       ??_C@_1M@BNOEMJLF@?$AAe?$AAs?$AA?9?$AAG?$AAT?$AA?$AA@ 1006be94     libucrt:lcidtoname_downlevel.obj
 0002:00008ea4       ??_C@_1M@EOGNKEK@?$AAf?$AAr?$AA?9?$AAC?$AAH?$AA?$AA@ 1006bea4     libucrt:lcidtoname_downlevel.obj
 0002:00008eb4       ??_C@_1M@FLIDJFHL@?$AAh?$AAr?$AA?9?$AAB?$AAA?$AA?$AA@ 1006beb4     libucrt:lcidtoname_downlevel.obj
 0002:00008ec4       ??_C@_1O@FMCELNAJ@?$AAs?$AAm?$AAj?$AA?9?$AAN?$AAO?$AA?$AA@ 1006bec4     libucrt:lcidtoname_downlevel.obj
 0002:00008ed4       ??_C@_1M@JHGLJMGJ@?$AAa?$AAr?$AA?9?$AAD?$AAZ?$AA?$AA@ 1006bed4     libucrt:lcidtoname_downlevel.obj
 0002:00008ee4       ??_C@_1M@JKKFDCNP@?$AAz?$AAh?$AA?9?$AAM?$AAO?$AA?$AA@ 1006bee4     libucrt:lcidtoname_downlevel.obj
 0002:00008ef4       ??_C@_1M@GEEFALPE@?$AAd?$AAe?$AA?9?$AAL?$AAI?$AA?$AA@ 1006bef4     libucrt:lcidtoname_downlevel.obj
 0002:00008f04       ??_C@_1M@IGEOFBG@?$AAe?$AAn?$AA?9?$AAN?$AAZ?$AA?$AA@ 1006bf04     libucrt:lcidtoname_downlevel.obj
 0002:00008f14       ??_C@_1M@KDBONEHP@?$AAe?$AAs?$AA?9?$AAC?$AAR?$AA?$AA@ 1006bf14     libucrt:lcidtoname_downlevel.obj
 0002:00008f24       ??_C@_1M@FHMDOHNN@?$AAf?$AAr?$AA?9?$AAL?$AAU?$AA?$AA@ 1006bf24     libucrt:lcidtoname_downlevel.obj
 0002:00008f34       ??_C@_1BG@NFKKMAFG@?$AAb?$AAs?$AA?9?$AAB?$AAA?$AA?9?$AAL?$AAa?$AAt?$AAn?$AA?$AA@ 1006bf34     libucrt:lcidtoname_downlevel.obj
 0002:00008f50       ??_C@_1O@IMNBEMCI@?$AAs?$AAm?$AAj?$AA?9?$AAS?$AAE?$AA?$AA@ 1006bf50     libucrt:lcidtoname_downlevel.obj
 0002:00008f60       ??_C@_1M@DHHMBNDP@?$AAa?$AAr?$AA?9?$AAM?$AAA?$AA?$AA@ 1006bf60     libucrt:lcidtoname_downlevel.obj
 0002:00008f70       ??_C@_1M@BNBLJCGH@?$AAe?$AAn?$AA?9?$AAI?$AAE?$AA?$AA@ 1006bf70     libucrt:lcidtoname_downlevel.obj
 0002:00008f80       ??_C@_1M@GEPAFMDL@?$AAe?$AAs?$AA?9?$AAP?$AAA?$AA?$AA@ 1006bf80     libucrt:lcidtoname_downlevel.obj
 0002:00008f90       ??_C@_1M@OJONDMDL@?$AAf?$AAr?$AA?9?$AAM?$AAC?$AA?$AA@ 1006bf90     libucrt:lcidtoname_downlevel.obj
 0002:00008fa0       ??_C@_1BG@OBCNFJB@?$AAs?$AAr?$AA?9?$AAB?$AAA?$AA?9?$AAL?$AAa?$AAt?$AAn?$AA?$AA@ 1006bfa0     libucrt:lcidtoname_downlevel.obj
 0002:00008fbc       ??_C@_1O@KEMEEGPO@?$AAs?$AAm?$AAa?$AA?9?$AAN?$AAO?$AA?$AA@ 1006bfbc     libucrt:lcidtoname_downlevel.obj
 0002:00008fcc       ??_C@_1M@ELMGFODK@?$AAa?$AAr?$AA?9?$AAT?$AAN?$AA?$AA@ 1006bfcc     libucrt:lcidtoname_downlevel.obj
 0002:00008fdc       ??_C@_1M@BHDLHFAF@?$AAe?$AAn?$AA?9?$AAZ?$AAA?$AA?$AA@ 1006bfdc     libucrt:lcidtoname_downlevel.obj
 0002:00008fec       ??_C@_1M@BMGIGLIF@?$AAe?$AAs?$AA?9?$AAD?$AAO?$AA?$AA@ 1006bfec     libucrt:lcidtoname_downlevel.obj
 0002:00008ffc       ??_C@_1BG@CMBHIPBE@?$AAs?$AAr?$AA?9?$AAB?$AAA?$AA?9?$AAC?$AAy?$AAr?$AAl?$AA?$AA@ 1006bffc     libucrt:lcidtoname_downlevel.obj
 0002:00009018       ??_C@_1O@HEDBLHNP@?$AAs?$AAm?$AAa?$AA?9?$AAS?$AAE?$AA?$AA@ 1006c018     libucrt:lcidtoname_downlevel.obj
 0002:00009028       ??_C@_1M@DAGCADIM@?$AAa?$AAr?$AA?9?$AAO?$AAM?$AA?$AA@ 1006c028     libucrt:lcidtoname_downlevel.obj
 0002:00009038       ??_C@_1M@FODLMICG@?$AAe?$AAn?$AA?9?$AAJ?$AAM?$AA?$AA@ 1006c038     libucrt:lcidtoname_downlevel.obj
 0002:00009048       ??_C@_1M@DNMLCIHB@?$AAe?$AAs?$AA?9?$AAV?$AAE?$AA?$AA@ 1006c048     libucrt:lcidtoname_downlevel.obj
 0002:00009058       ??_C@_1O@EOKHMKJK@?$AAs?$AAm?$AAs?$AA?9?$AAF?$AAI?$AA?$AA@ 1006c058     libucrt:lcidtoname_downlevel.obj
 0002:00009068       ??_C@_1M@CAFJMKOF@?$AAa?$AAr?$AA?9?$AAY?$AAE?$AA?$AA@ 1006c068     libucrt:lcidtoname_downlevel.obj
 0002:00009078       ??_C@_1M@CBFHIJLI@?$AAe?$AAn?$AA?9?$AAC?$AAB?$AA?$AA@ 1006c078     libucrt:lcidtoname_downlevel.obj
 0002:00009088       ??_C@_1M@BGNFLDN@?$AAe?$AAs?$AA?9?$AAC?$AAO?$AA?$AA@ 1006c088     libucrt:lcidtoname_downlevel.obj
 0002:00009098       ??_C@_1O@JMPHMAMC@?$AAs?$AAm?$AAn?$AA?9?$AAF?$AAI?$AA?$AA@ 1006c098     libucrt:lcidtoname_downlevel.obj
 0002:000090a8       ??_C@_1M@JLANABKE@?$AAa?$AAr?$AA?9?$AAS?$AAY?$AA?$AA@ 1006c0a8     libucrt:lcidtoname_downlevel.obj
 0002:000090b8       ??_C@_1M@HPKGCFGN@?$AAe?$AAn?$AA?9?$AAB?$AAZ?$AA?$AA@ 1006c0b8     libucrt:lcidtoname_downlevel.obj
 0002:000090c8       ??_C@_1M@OLJCMLGM@?$AAe?$AAs?$AA?9?$AAP?$AAE?$AA?$AA@ 1006c0c8     libucrt:lcidtoname_downlevel.obj
 0002:000090d8       ??_C@_1M@MKKGFKLE@?$AAa?$AAr?$AA?9?$AAJ?$AAO?$AA?$AA@ 1006c0d8     libucrt:lcidtoname_downlevel.obj
 0002:000090e8       ??_C@_1M@EKPGLDNI@?$AAe?$AAn?$AA?9?$AAT?$AAT?$AA?$AA@ 1006c0e8     libucrt:lcidtoname_downlevel.obj
 0002:000090f8       ??_C@_1M@OONGHFHE@?$AAe?$AAs?$AA?9?$AAA?$AAR?$AA?$AA@ 1006c0f8     libucrt:lcidtoname_downlevel.obj
 0002:00009108       ??_C@_1M@OOJFGBHE@?$AAa?$AAr?$AA?9?$AAL?$AAB?$AA?$AA@ 1006c108     libucrt:lcidtoname_downlevel.obj
 0002:00009118       ??_C@_1M@GCEJHNEG@?$AAe?$AAn?$AA?9?$AAZ?$AAW?$AA?$AA@ 1006c118     libucrt:lcidtoname_downlevel.obj
 0002:00009128       ??_C@_1M@JNOCAHJI@?$AAe?$AAs?$AA?9?$AAE?$AAC?$AA?$AA@ 1006c128     libucrt:lcidtoname_downlevel.obj
 0002:00009138       ??_C@_1M@JEFHPGGB@?$AAa?$AAr?$AA?9?$AAK?$AAW?$AA?$AA@ 1006c138     libucrt:lcidtoname_downlevel.obj
 0002:00009148       ??_C@_1M@MLKIBJOJ@?$AAe?$AAn?$AA?9?$AAP?$AAH?$AA?$AA@ 1006c148     libucrt:lcidtoname_downlevel.obj
 0002:00009158       ??_C@_1M@BDNIPEND@?$AAe?$AAs?$AA?9?$AAC?$AAL?$AA?$AA@ 1006c158     libucrt:lcidtoname_downlevel.obj
 0002:00009168       ??_C@_1M@MPNMEKBD@?$AAa?$AAr?$AA?9?$AAA?$AAE?$AA?$AA@ 1006c168     libucrt:lcidtoname_downlevel.obj
 0002:00009178       ??_C@_1M@KBJALCPI@?$AAe?$AAs?$AA?9?$AAU?$AAY?$AA?$AA@ 1006c178     libucrt:lcidtoname_downlevel.obj
 0002:00009188       ??_C@_1M@LLCCOAGA@?$AAa?$AAr?$AA?9?$AAB?$AAH?$AA?$AA@ 1006c188     libucrt:lcidtoname_downlevel.obj
 0002:00009198       ??_C@_1M@PBFNCDEL@?$AAe?$AAs?$AA?9?$AAP?$AAY?$AA?$AA@ 1006c198     libucrt:lcidtoname_downlevel.obj
 0002:000091a8       ??_C@_1M@EDGINPNP@?$AAa?$AAr?$AA?9?$AAQ?$AAA?$AA?$AA@ 1006c1a8     libucrt:lcidtoname_downlevel.obj
 0002:000091b8       ??_C@_1M@MKDBIIJI@?$AAe?$AAs?$AA?9?$AAB?$AAO?$AA?$AA@ 1006c1b8     libucrt:lcidtoname_downlevel.obj
 0002:000091c8       ??_C@_1M@CPKKEBLD@?$AAe?$AAs?$AA?9?$AAS?$AAV?$AA?$AA@ 1006c1c8     libucrt:lcidtoname_downlevel.obj
 0002:000091d8       ??_C@_1M@NDBGMMJL@?$AAe?$AAs?$AA?9?$AAH?$AAN?$AA?$AA@ 1006c1d8     libucrt:lcidtoname_downlevel.obj
 0002:000091e8       ??_C@_1M@JIJIBHDP@?$AAe?$AAs?$AA?9?$AAN?$AAI?$AA?$AA@ 1006c1e8     libucrt:lcidtoname_downlevel.obj
 0002:000091f8       ??_C@_1M@CGFMKEEK@?$AAe?$AAs?$AA?9?$AAP?$AAR?$AA?$AA@ 1006c1f8     libucrt:lcidtoname_downlevel.obj
 0002:00009208       ??_C@_1O@ICJHKIIK@?$AAz?$AAh?$AA?9?$AAC?$AAH?$AAT?$AA?$AA@ 1006c208     libucrt:lcidtoname_downlevel.obj
 0002:00009218       ??_C@_15CLNEJCE@?$AAs?$AAr?$AA?$AA@ 1006c218     libucrt:lcidtoname_downlevel.obj
 0002:00009aac       ??_C@_1M@KAHEKEIG@?$AAa?$AAf?$AA?9?$AAz?$AAa?$AA?$AA@ 1006caac     libucrt:lcidtoname_downlevel.obj
 0002:00009abc       ??_C@_1M@GIECOABL@?$AAa?$AAr?$AA?9?$AAa?$AAe?$AA?$AA@ 1006cabc     libucrt:lcidtoname_downlevel.obj
 0002:00009acc       ??_C@_1M@BMLMEKGI@?$AAa?$AAr?$AA?9?$AAb?$AAh?$AA?$AA@ 1006cacc     libucrt:lcidtoname_downlevel.obj
 0002:00009adc       ??_C@_1M@DAPFDGGB@?$AAa?$AAr?$AA?9?$AAd?$AAz?$AA?$AA@ 1006cadc     libucrt:lcidtoname_downlevel.obj
 0002:00009aec       ??_C@_1M@FJNKGKIG@?$AAa?$AAr?$AA?9?$AAe?$AAg?$AA?$AA@ 1006caec     libucrt:lcidtoname_downlevel.obj
 0002:00009afc       ??_C@_1M@FLGKKCLO@?$AAa?$AAr?$AA?9?$AAi?$AAq?$AA?$AA@ 1006cafc     libucrt:lcidtoname_downlevel.obj
 0002:00009b0c       ??_C@_1M@GNDIPALM@?$AAa?$AAr?$AA?9?$AAj?$AAo?$AA?$AA@ 1006cb0c     libucrt:lcidtoname_downlevel.obj
 0002:00009b1c       ??_C@_1M@DDMJFMGJ@?$AAa?$AAr?$AA?9?$AAk?$AAw?$AA?$AA@ 1006cb1c     libucrt:lcidtoname_downlevel.obj
 0002:00009b2c       ??_C@_1M@EJALMLHM@?$AAa?$AAr?$AA?9?$AAl?$AAb?$AA?$AA@ 1006cb2c     libucrt:lcidtoname_downlevel.obj
 0002:00009b3c       ??_C@_1M@MOBDBLOC@?$AAa?$AAr?$AA?9?$AAl?$AAy?$AA?$AA@ 1006cb3c     libucrt:lcidtoname_downlevel.obj
 0002:00009b4c       ??_C@_1M@JAOCLHDH@?$AAa?$AAr?$AA?9?$AAm?$AAa?$AA?$AA@ 1006cb4c     libucrt:lcidtoname_downlevel.obj
 0002:00009b5c       ??_C@_1M@JHPMKJIE@?$AAa?$AAr?$AA?9?$AAo?$AAm?$AA?$AA@ 1006cb5c     libucrt:lcidtoname_downlevel.obj
 0002:00009b6c       ??_C@_1M@OEPGHFNH@?$AAa?$AAr?$AA?9?$AAq?$AAa?$AA?$AA@ 1006cb6c     libucrt:lcidtoname_downlevel.obj
 0002:00009b7c       ??_C@_1M@KJDONENM@?$AAa?$AAr?$AA?9?$AAs?$AAa?$AA?$AA@ 1006cb7c     libucrt:lcidtoname_downlevel.obj
 0002:00009b8c       ??_C@_1M@DMJDKLKM@?$AAa?$AAr?$AA?9?$AAs?$AAy?$AA?$AA@ 1006cb8c     libucrt:lcidtoname_downlevel.obj
 0002:00009b9c       ??_C@_1M@OMFIPEDC@?$AAa?$AAr?$AA?9?$AAt?$AAn?$AA?$AA@ 1006cb9c     libucrt:lcidtoname_downlevel.obj
 0002:00009bac       ??_C@_1M@IHMHGAON@?$AAa?$AAr?$AA?9?$AAy?$AAe?$AA?$AA@ 1006cbac     libucrt:lcidtoname_downlevel.obj
 0002:00009bbc       ??_C@_1BG@KDCPGJGB@?$AAa?$AAz?$AA?9?$AAa?$AAz?$AA?9?$AAc?$AAy?$AAr?$AAl?$AA?$AA@ 1006cbbc     libucrt:lcidtoname_downlevel.obj
 0002:00009bd8       ??_C@_1BG@IBCKDDOE@?$AAa?$AAz?$AA?9?$AAa?$AAz?$AA?9?$AAl?$AAa?$AAt?$AAn?$AA?$AA@ 1006cbd8     libucrt:lcidtoname_downlevel.obj
 0002:00009bf4       ??_C@_1M@EGPFDCPD@?$AAb?$AAe?$AA?9?$AAb?$AAy?$AA?$AA@ 1006cbf4     libucrt:lcidtoname_downlevel.obj
 0002:00009c04       ??_C@_1M@PCMGMCGC@?$AAb?$AAg?$AA?9?$AAb?$AAg?$AA?$AA@ 1006cc04     libucrt:lcidtoname_downlevel.obj
 0002:00009c14       ??_C@_1M@BJBMFGOB@?$AAb?$AAn?$AA?9?$AAi?$AAn?$AA?$AA@ 1006cc14     libucrt:lcidtoname_downlevel.obj
 0002:00009c24       ??_C@_1BG@EAKMMACD@?$AAb?$AAs?$AA?9?$AAb?$AAa?$AA?9?$AAl?$AAa?$AAt?$AAn?$AA?$AA@ 1006cc24     libucrt:lcidtoname_downlevel.obj
 0002:00009c40       ??_C@_1M@KGADAODK@?$AAc?$AAa?$AA?9?$AAe?$AAs?$AA?$AA@ 1006cc40     libucrt:lcidtoname_downlevel.obj
 0002:00009c50       ??_C@_1M@COAJPDHI@?$AAc?$AAs?$AA?9?$AAc?$AAz?$AA?$AA@ 1006cc50     libucrt:lcidtoname_downlevel.obj
 0002:00009c60       ??_C@_1M@DHBHFONH@?$AAc?$AAy?$AA?9?$AAg?$AAb?$AA?$AA@ 1006cc60     libucrt:lcidtoname_downlevel.obj
 0002:00009c70       ??_C@_1M@IMGKELGA@?$AAd?$AAa?$AA?9?$AAd?$AAk?$AA?$AA@ 1006cc70     libucrt:lcidtoname_downlevel.obj
 0002:00009c80       ??_C@_1M@NNDGDNGA@?$AAd?$AAe?$AA?9?$AAa?$AAt?$AA?$AA@ 1006cc80     libucrt:lcidtoname_downlevel.obj
 0002:00009c90       ??_C@_1M@IKDBHEEM@?$AAd?$AAe?$AA?9?$AAc?$AAh?$AA?$AA@ 1006cc90     libucrt:lcidtoname_downlevel.obj
 0002:00009ca0       ??_C@_1M@GFFOJMCJ@?$AAd?$AAe?$AA?9?$AAd?$AAe?$AA?$AA@ 1006cca0     libucrt:lcidtoname_downlevel.obj
 0002:00009cb0       ??_C@_1M@MDNLKBPM@?$AAd?$AAe?$AA?9?$AAl?$AAi?$AA?$AA@ 1006ccb0     libucrt:lcidtoname_downlevel.obj
 0002:00009cc0       ??_C@_1M@NJBEEJNL@?$AAd?$AAe?$AA?9?$AAl?$AAu?$AA?$AA@ 1006ccc0     libucrt:lcidtoname_downlevel.obj
 0002:00009cd0       ??_C@_1O@GNNELBAP@?$AAd?$AAi?$AAv?$AA?9?$AAm?$AAv?$AA?$AA@ 1006ccd0     libucrt:lcidtoname_downlevel.obj
 0002:00009ce0       ??_C@_1M@EJLEOGAE@?$AAe?$AAl?$AA?9?$AAg?$AAr?$AA?$AA@ 1006cce0     libucrt:lcidtoname_downlevel.obj
 0002:00009cf0       ??_C@_1M@GMPONJN@?$AAe?$AAn?$AA?9?$AAa?$AAu?$AA?$AA@ 1006ccf0     libucrt:lcidtoname_downlevel.obj
 0002:00009d00       ??_C@_1M@NIDIIPGF@?$AAe?$AAn?$AA?9?$AAb?$AAz?$AA?$AA@ 1006cd00     libucrt:lcidtoname_downlevel.obj
 0002:00009d10       ??_C@_1M@JEHMIMFO@?$AAe?$AAn?$AA?9?$AAc?$AAa?$AA?$AA@ 1006cd10     libucrt:lcidtoname_downlevel.obj
 0002:00009d20       ??_C@_1M@IGMJCDLA@?$AAe?$AAn?$AA?9?$AAc?$AAb?$AA?$AA@ 1006cd20     libucrt:lcidtoname_downlevel.obj
 0002:00009d30       ??_C@_1M@BNFIGBKG@?$AAe?$AAn?$AA?9?$AAg?$AAb?$AA?$AA@ 1006cd30     libucrt:lcidtoname_downlevel.obj
 0002:00009d40       ??_C@_1M@LKIFDIGP@?$AAe?$AAn?$AA?9?$AAi?$AAe?$AA?$AA@ 1006cd40     libucrt:lcidtoname_downlevel.obj
 0002:00009d50       ??_C@_1M@PJKFGCCO@?$AAe?$AAn?$AA?9?$AAj?$AAm?$AA?$AA@ 1006cd50     libucrt:lcidtoname_downlevel.obj
 0002:00009d60       ??_C@_1M@KPPKEPBO@?$AAe?$AAn?$AA?9?$AAn?$AAz?$AA?$AA@ 1006cd60     libucrt:lcidtoname_downlevel.obj
 0002:00009d70       ??_C@_1M@GMDGLDOB@?$AAe?$AAn?$AA?9?$AAp?$AAh?$AA?$AA@ 1006cd70     libucrt:lcidtoname_downlevel.obj
 0002:00009d80       ??_C@_1M@ONGIBJNA@?$AAe?$AAn?$AA?9?$AAt?$AAt?$AA?$AA@ 1006cd80     libucrt:lcidtoname_downlevel.obj
 0002:00009d90       ??_C@_1M@LLODPCMM@?$AAe?$AAn?$AA?9?$AAu?$AAs?$AA?$AA@ 1006cd90     libucrt:lcidtoname_downlevel.obj
 0002:00009da0       ??_C@_1M@LAKFNPAN@?$AAe?$AAn?$AA?9?$AAz?$AAa?$AA?$AA@ 1006cda0     libucrt:lcidtoname_downlevel.obj
 0002:00009db0       ??_C@_1M@MFNHNHEO@?$AAe?$AAn?$AA?9?$AAz?$AAw?$AA?$AA@ 1006cdb0     libucrt:lcidtoname_downlevel.obj
 0002:00009dc0       ??_C@_1M@EJEINPHM@?$AAe?$AAs?$AA?9?$AAa?$AAr?$AA?$AA@ 1006cdc0     libucrt:lcidtoname_downlevel.obj
 0002:00009dd0       ??_C@_1M@GNKPCCJA@?$AAe?$AAs?$AA?9?$AAb?$AAo?$AA?$AA@ 1006cdd0     libucrt:lcidtoname_downlevel.obj
 0002:00009de0       ??_C@_1M@LEEGFONL@?$AAe?$AAs?$AA?9?$AAc?$AAl?$AA?$AA@ 1006cde0     libucrt:lcidtoname_downlevel.obj
 0002:00009df0       ??_C@_1M@KGPDPBDF@?$AAe?$AAs?$AA?9?$AAc?$AAo?$AA?$AA@ 1006cdf0     libucrt:lcidtoname_downlevel.obj
 0002:00009e00       ??_C@_1M@EIAHOHH@?$AAe?$AAs?$AA?9?$AAc?$AAr?$AA?$AA@ 1006ce00     libucrt:lcidtoname_downlevel.obj
 0002:00009e10       ??_C@_1M@LLPGMBIN@?$AAe?$AAs?$AA?9?$AAd?$AAo?$AA?$AA@ 1006ce10     libucrt:lcidtoname_downlevel.obj
 0002:00009e20       ??_C@_1M@DKHMKNJA@?$AAe?$AAs?$AA?9?$AAe?$AAc?$AA?$AA@ 1006ce20     libucrt:lcidtoname_downlevel.obj
 0002:00009e30       ??_C@_1M@GKGFPKAP@?$AAe?$AAs?$AA?9?$AAe?$AAs?$AA?$AA@ 1006ce30     libucrt:lcidtoname_downlevel.obj
 0002:00009e40       ??_C@_1M@LKHKGDLN@?$AAe?$AAs?$AA?9?$AAg?$AAt?$AA?$AA@ 1006ce40     libucrt:lcidtoname_downlevel.obj
 0002:00009e50       ??_C@_1M@HEIIGGJD@?$AAe?$AAs?$AA?9?$AAh?$AAn?$AA?$AA@ 1006ce50     libucrt:lcidtoname_downlevel.obj
 0002:00009e60       ??_C@_1M@FBDHPPGD@?$AAe?$AAs?$AA?9?$AAm?$AAx?$AA?$AA@ 1006ce60     libucrt:lcidtoname_downlevel.obj
 0002:00009e70       ??_C@_1M@DPAGLNDH@?$AAe?$AAs?$AA?9?$AAn?$AAi?$AA?$AA@ 1006ce70     libucrt:lcidtoname_downlevel.obj
 0002:00009e80       ??_C@_1M@MDGOPGDD@?$AAe?$AAs?$AA?9?$AAp?$AAa?$AA?$AA@ 1006ce80     libucrt:lcidtoname_downlevel.obj
 0002:00009e90       ??_C@_1M@EMAMGBGE@?$AAe?$AAs?$AA?9?$AAp?$AAe?$AA?$AA@ 1006ce90     libucrt:lcidtoname_downlevel.obj
 0002:00009ea0       ??_C@_1M@IBMCAOEC@?$AAe?$AAs?$AA?9?$AAp?$AAr?$AA?$AA@ 1006cea0     libucrt:lcidtoname_downlevel.obj
 0002:00009eb0       ??_C@_1M@FGMDIJED@?$AAe?$AAs?$AA?9?$AAp?$AAy?$AA?$AA@ 1006ceb0     libucrt:lcidtoname_downlevel.obj
 0002:00009ec0       ??_C@_1M@IIDEOLLL@?$AAe?$AAs?$AA?9?$AAs?$AAv?$AA?$AA@ 1006cec0     libucrt:lcidtoname_downlevel.obj
 0002:00009ed0       ??_C@_1M@GAOBIPA@?$AAe?$AAs?$AA?9?$AAu?$AAy?$AA?$AA@ 1006ced0     libucrt:lcidtoname_downlevel.obj
 0002:00009ee0       ??_C@_1M@JKFFICHJ@?$AAe?$AAs?$AA?9?$AAv?$AAe?$AA?$AA@ 1006cee0     libucrt:lcidtoname_downlevel.obj
 0002:00009ef0       ??_C@_1M@PNMLOJDF@?$AAe?$AAt?$AA?9?$AAe?$AAe?$AA?$AA@ 1006cef0     libucrt:lcidtoname_downlevel.obj
 0002:00009f00       ??_C@_1M@GHHLIKEI@?$AAe?$AAu?$AA?9?$AAe?$AAs?$AA?$AA@ 1006cf00     libucrt:lcidtoname_downlevel.obj
 0002:00009f10       ??_C@_1M@PBNONODE@?$AAf?$AAa?$AA?9?$AAi?$AAr?$AA?$AA@ 1006cf10     libucrt:lcidtoname_downlevel.obj
 0002:00009f20       ??_C@_1M@JEEHPMIL@?$AAf?$AAi?$AA?9?$AAf?$AAi?$AA?$AA@ 1006cf20     libucrt:lcidtoname_downlevel.obj
 0002:00009f30       ??_C@_1M@LMDCNDBA@?$AAf?$AAo?$AA?9?$AAf?$AAo?$AA?$AA@ 1006cf30     libucrt:lcidtoname_downlevel.obj
 0002:00009f40       ??_C@_1M@JKEOHLDK@?$AAf?$AAr?$AA?9?$AAb?$AAe?$AA?$AA@ 1006cf40     libucrt:lcidtoname_downlevel.obj
 0002:00009f50       ??_C@_1M@NOHADPMI@?$AAf?$AAr?$AA?9?$AAc?$AAa?$AA?$AA@ 1006cf50     libucrt:lcidtoname_downlevel.obj
 0002:00009f60       ??_C@_1M@KDHIHAEC@?$AAf?$AAr?$AA?9?$AAc?$AAh?$AA?$AA@ 1006cf60     libucrt:lcidtoname_downlevel.obj
 0002:00009f70       ??_C@_1M@MMBBFGAK@?$AAf?$AAr?$AA?9?$AAf?$AAr?$AA?$AA@ 1006cf70     libucrt:lcidtoname_downlevel.obj
 0002:00009f80       ??_C@_1M@PAFNENNF@?$AAf?$AAr?$AA?9?$AAl?$AAu?$AA?$AA@ 1006cf80     libucrt:lcidtoname_downlevel.obj
 0002:00009f90       ??_C@_1M@EOHDJGDD@?$AAf?$AAr?$AA?9?$AAm?$AAc?$AA?$AA@ 1006cf90     libucrt:lcidtoname_downlevel.obj
