 dc_motor_encoder_hardware_simulated_slrt

 Timestamp is 5acb9fbc (Mon Apr  9 13:15:40 2018)

 Preferred load address is 10000000

 Start         Length     Name                   Class
 0001:00000000 00063158H .text$mn                CODE
 0002:00000000 00000104H .CRT$XCA                DATA
 0002:00000104 00000104H .CRT$XCZ                DATA
 0002:00000208 00000104H .CRT$XIA                DATA
 0002:0000030c 00000110H .CRT$XIC                DATA
 0002:0000041c 00000104H .CRT$XIZ                DATA
 0002:00000520 00000104H .CRT$XPA                DATA
 0002:00000624 0000010cH .CRT$XPX                DATA
 0002:00000730 00000104H .CRT$XPXA               DATA
 0002:00000834 00000104H .CRT$XPZ                DATA
 0002:00000938 00000104H .CRT$XTA                DATA
 0002:00000a3c 00000104H .CRT$XTZ                DATA
 0002:00000b40 0000e250H .rdata                  DATA
 0002:0000ed90 00000390H .rdata$r                DATA
 0002:0000f120 00000110H .rdata$sxdata           DATA
 0002:0000f230 000001dcH .rdata$zzzdbg           DATA
 0002:0000f40c 00000104H .rtc$IAA                DATA
 0002:0000f510 00000104H .rtc$IZZ                DATA
 0002:0000f614 00000104H .rtc$TAA                DATA
 0002:0000f718 00000108H .rtc$TZZ                DATA
 0002:0000f820 00000ac0H .xdata$x                DATA
 0002:000102e0 00000202H .edata                  DATA
 0003:00000000 00001374H .data                   DATA
 0003:00001374 000001ecH .data$r                 DATA
 0003:00001560 00014218H .bss                    DATA
 0004:00000000 000001d4H .idata$5                DATA
 0004:000001d4 00000014H .idata$2                DATA
 0004:000001e8 00000014H .idata$3                DATA
 0004:000001fc 000001d4H .idata$4                DATA
 0004:000003d0 00000843H .idata$6                DATA
 0005:00000000 00000224H .gfids$x                DATA
 0005:00000224 000001a5H .gfids$y                DATA
 0006:00000000 00000104H .00cfg                  DATA

  Address         Publics by Value              Rva+Base       Lib:Object

 0000:00000000       ___guard_fids_count        00000000     <absolute>
 0000:00000000       ___guard_iat_count         00000000     <absolute>
 0000:00000000       ___dynamic_value_reloc_table 00000000     <absolute>
 0000:00000000       ___guard_iat_table         00000000     <absolute>
 0000:00000000       __except_list              00000000     <absolute>
 0000:00000000       ___guard_longjmp_count     00000000     <absolute>
 0000:00000000       ___guard_fids_table        00000000     <absolute>
 0000:00000000       ___guard_longjmp_table     00000000     <absolute>
 0000:00000003       ___safe_se_handler_count   00000003     <absolute>
 0000:00000100       ___guard_flags             00000100     <absolute>
 0000:00000000       ___ImageBase               10000000     <linker-defined>
 0001:00005f20       _MdlInitialize             10006f20 f   dc_motor_encoder_hardware_simulated.obj
 0001:00005f30       _MdlInitializeSampleTimes  10006f30 f   dc_motor_encoder_hardware_simulated.obj
 0001:00005f40       _MdlInitializeSizes        10006f40 f   dc_motor_encoder_hardware_simulated.obj
 0001:00005f50       _MdlOutputs                10006f50 f   dc_motor_encoder_hardware_simulated.obj
 0001:00005f60       _MdlStart                  10006f60 f   dc_motor_encoder_hardware_simulated.obj
 0001:00005f70       _MdlTerminate              10006f70 f   dc_motor_encoder_hardware_simulated.obj
 0001:00005fa0       _MdlUpdate                 10006fa0 f   dc_motor_encoder_hardware_simulated.obj
 0001:00005fb0       ___local_stdio_printf_options 10006fb0 f i dc_motor_encoder_hardware_simulated.obj
 0001:00005fc0       __vfprintf_l               10006fc0 f i dc_motor_encoder_hardware_simulated.obj
 0001:00005ff0       _dc_motor_enco_IfActionSubsystem 10006ff0 f   dc_motor_encoder_hardware_simulated.obj
 0001:00006010       _dc_motor_encoder_hardware_simulated 10007010 f   dc_motor_encoder_hardware_simulated.obj
 0001:00006ab0       _dc_motor_encoder_hardware_simulated_derivatives 10007ab0 f   dc_motor_encoder_hardware_simulated.obj
 0001:00006b00       _dc_motor_encoder_hardware_simulated_initialize 10007b00 f   dc_motor_encoder_hardware_simulated.obj
 0001:000073c0       _dc_motor_encoder_hardware_simulated_output 100083c0 f   dc_motor_encoder_hardware_simulated.obj
 0001:00007a40       _dc_motor_encoder_hardware_simulated_terminate 10008a40 f   dc_motor_encoder_hardware_simulated.obj
 0001:00007a70       _dc_motor_encoder_hardware_simulated_update 10008a70 f   dc_motor_encoder_hardware_simulated.obj
 0001:00007bc0       _printf                    10008bc0 f i dc_motor_encoder_hardware_simulated.obj
 0001:00007c00       _rt_ODECreateIntegrationData 10008c00 f   dc_motor_encoder_hardware_simulated.obj
 0001:00007c10       _rt_ODEDestroyIntegrationData 10008c10 f   dc_motor_encoder_hardware_simulated.obj
 0001:00007c20       _rt_ODEUpdateContinuousStates 10008c20 f   dc_motor_encoder_hardware_simulated.obj
 0001:00008040       _rt_mxCreateCharMatrixFromStrings 10009040 f   rt_matrx.obj
 0001:000081a0       _rt_mxCreateDoubleMatrix   100091a0 f   rt_matrx.obj
 0001:00008200       _rt_mxCreateNumericArray   10009200 f   rt_matrx.obj
 0001:00008280       _rt_mxCreateString         10009280 f   rt_matrx.obj
 0001:00008310       _rt_mxDuplicateArray       10009310 f   rt_matrx.obj
 0001:00008370       _rt_mxGetDimensions        10009370 f   rt_matrx.obj
 0001:000083b0       _rt_mxGetEps               100093b0 f   rt_matrx.obj
 0001:000083c0       _rt_mxGetString            100093c0 f   rt_matrx.obj
 0001:00008440       _rtPrintfNoOp              10009440 f   rt_printf.obj
 0001:00008450       _dc_motor_encoder_hardware_simulated_GetCAPIStaticMap 10009450 f   dc_motor_encoder_hardware_simulated_capi.obj
 0001:00008460       _dc_motor_encoder_hardware_simulated_InitializeDataMapInfo 10009460 f   dc_motor_encoder_hardware_simulated_capi.obj
 0001:000084f0       _rtGetInf                  100094f0 f   rtGetInf.obj
 0001:00008520       _rtGetInfF                 10009520 f   rtGetInf.obj
 0001:00008540       _rtGetMinusInf             10009540 f   rtGetInf.obj
 0001:00008570       _rtGetMinusInfF            10009570 f   rtGetInf.obj
 0001:00008590       _rtGetNaN                  10009590 f   rtGetNaN.obj
 0001:000085c0       _rtGetNaNF                 100095c0 f   rtGetNaN.obj
 0001:000085e0       _rtIsInf                   100095e0 f   rt_nonfinite.obj
 0001:00008620       _rtIsInfF                  10009620 f   rt_nonfinite.obj
 0001:00008660       _rtIsNaN                   10009660 f   rt_nonfinite.obj
 0001:00008680       _rtIsNaNF                  10009680 f   rt_nonfinite.obj
 0001:000086a0       _rt_InitInfAndNaN          100096a0 f   rt_nonfinite.obj
 0001:00008700       _rt_CleanUpForStateLogWithMMI 10009700 f   rt_logging_mmi.obj
 0001:00008810       _rt_FillStateSigInfoFromMMI 10009810 f   rt_logging_mmi.obj
 0001:00008bb0       _rtwCAPI_CountSysRan       10009bb0 f   rtw_modelmap_utils.obj
 0001:00008c50       _rtwCAPI_EncodePath        10009c50 f   rtw_modelmap_utils.obj
 0001:00008d50       _rtwCAPI_FillSysRan        10009d50 f   rtw_modelmap_utils.obj
 0001:00008e40       _rtwCAPI_FreeFullPaths     10009e40 f   rtw_modelmap_utils.obj
 0001:00008ed0       _rtwCAPI_GetFullStateBlockPath 10009ed0 f   rtw_modelmap_utils.obj
 0001:00009080       _rtwCAPI_GetNumContStateRecords 1000a080 f   rtw_modelmap_utils.obj
 0001:00009140       _rtwCAPI_GetNumSigLogRecords 1000a140 f   rtw_modelmap_utils.obj
 0001:00009190       _rtwCAPI_GetNumSigLogRecordsForRTWLogging 1000a190 f   rtw_modelmap_utils.obj
 0001:00009230       _rtwCAPI_GetNumStateRecords 1000a230 f   rtw_modelmap_utils.obj
 0001:00009280       _rtwCAPI_GetNumStateRecordsForRTWLogging 1000a280 f   rtw_modelmap_utils.obj
 0001:00009320       _rtwCAPI_GetSigAddrFromMap 1000a320 f   rtw_modelmap_utils.obj
 0001:000093e0       _rtwCAPI_GetSigLogRecordInfo 1000a3e0 f   rtw_modelmap_utils.obj
 0001:00009810       _rtwCAPI_GetStateRecordInfo 1000a810 f   rtw_modelmap_utils.obj
 0001:00009cc0       _rtwCAPI_GetStateWidth     1000acc0 f   rtw_modelmap_utils.obj
 0001:00009d20       _rtwCAPI_HasStates         1000ad20 f   rtw_modelmap_utils.obj
 0001:00009d90       _rtwCAPI_UpdateFullPaths   1000ad90 f   rtw_modelmap_utils.obj
 0001:00009f70       __vsnprintf_l              1000af70 f i rt_logging.obj
 0001:00009fb0       __vsprintf_l               1000afb0 f i rt_logging.obj
 0001:00009ff0       _fprintf                   1000aff0 f i rt_logging.obj
 0001:0000a900       _rt_CreateLogVar           1000b900 f   rt_logging.obj
 0001:0000a990       _rt_CreateLogVarWithConvert 1000b990 f   rt_logging.obj
 0001:0000b310       _rt_CreateStructLogVar     1000c310 f   rt_logging.obj
 0001:0000c070       _rt_GetMxIdFromDTypeId     1000d070 f   rt_logging.obj
 0001:0000c0a0       _rt_GetMxIdFromDTypeIdForRSim 1000d0a0 f   rt_logging.obj
 0001:0000e970       _rt_StartDataLogging       1000f970 f   rt_logging.obj
 0001:0000ee30       _rt_StartDataLoggingWithStartTime 1000fe30 f   rt_logging.obj
 0001:0000f790       _rt_StopDataLogging        10010790 f   rt_logging.obj
 0001:0000f7b0       _rt_StopDataLoggingImpl    100107b0 f   rt_logging.obj
 0001:0000fae0       _rt_UpdateLogVar           10010ae0 f   rt_logging.obj
 0001:00010c00       _rt_UpdateStructLogVar     10011c00 f   rt_logging.obj
 0001:00010c90       _rt_UpdateTXXFYLogVars     10011c90 f   rt_logging.obj
 0001:00010fc0       _rt_UpdateTXYLogVars       10011fc0 f   rt_logging.obj
 0001:00011210       _sprintf                   10012210 f i rt_logging.obj
 0001:00011250       _DllMain@12                10012250 f   xpctarget.obj
 0001:00011260       _SLRTSetErrorStatus        10012260 f   xpctarget.obj
 0001:00011280       _changeStepSize            10012280 f   xpctarget.obj
 0001:000112f0       _dc_motor_encoder_hardware_simulated_ChangeStepSize 100122f0 f   xpctarget.obj
 0001:00011360       _getDLMVersion             10012360 f   xpctarget.obj
 0001:00011370       _getRefMdlPath             10012370 f   xpctarget.obj
 0001:000113f0       _getRefMdlSignalNumber     100123f0 f   xpctarget.obj
 0001:000114a0       _getrlmdlinfo              100124a0 f   xpctarget.obj
 0001:00011680       _updateDiscreteEvents      10012680 f   xpctarget.obj
 0001:00011690       _getNumRef                 10012690 f   appmappingData.obj
 0001:000116a0       _vprintf                   100126a0 f i legacy_stdio.obj
 0001:000116e0       _daquanserq8               100126e0 f   daquanserq8.obj
 0001:00012050       _encquanserq8              10013050 f   encquanserq8.obj
 0001:00012b90       _GetPCIDeviceFull          10013b90 f   xpcruntime:xpcimports.obj
 0001:00012bd0       _ShowPCIDevice             10013bd0 f   xpcruntime:xpcimports.obj
 0001:00013390       _xpcGetPciConfigAtSlot     10014390 f   xpcruntime:xpcimports.obj
 0001:000136a0       _xpcInitProcs              100146a0 f   xpcruntime:xpcimports.obj
 0001:00014a00       _xpceuploadevent           10015a00 f   xpcruntime:xpcimports.obj
 0001:00014a10       __ftoui3                   10015a10 f   LIBCMT:_ftol3_.obj
 0001:00014a1f       __ftoul3                   10015a1f f   LIBCMT:_ftol3_.obj
 0001:00014a2e       __ftol3                    10015a2e f   LIBCMT:_ftol3_.obj
 0001:00014a3b       __ftol3_NaN                10015a3b f   LIBCMT:_ftol3_.obj
 0001:00014a53       __ftol3_work               10015a53 f   LIBCMT:_ftol3_.obj
 0001:00014ad9       __ftol3_common             10015ad9 f   LIBCMT:_ftol3_.obj
 0001:00014b9b       __ftol3_arg_error          10015b9b f   LIBCMT:_ftol3_.obj
 0001:00014bad       __ftol3_except             10015bad f   LIBCMT:_ftol3_.obj
 0001:00014bf1       __dtoui3                   10015bf1 f   LIBCMT:_ftol3_.obj
 0001:00014c00       __dtoul3                   10015c00 f   LIBCMT:_ftol3_.obj
 0001:00014c0f       __dtol3                    10015c0f f   LIBCMT:_ftol3_.obj
 0001:00014c1c       __dtol3_NaN                10015c1c f   LIBCMT:_ftol3_.obj
 0001:00014c39       __dtol3_work               10015c39 f   LIBCMT:_ftol3_.obj
 0001:00014d20       __ultod3                   10015d20 f   LIBCMT:_ftol3_.obj
 0001:00014d60       __ltod3                    10015d60 f   LIBCMT:_ftol3_.obj
 0001:00014e64       ___raise_securityfailure   10015e64 f   LIBCMT:gs_report.obj
 0001:00014e96       ___report_gsfailure        10015e96 f   LIBCMT:gs_report.obj
 0001:00014fcf       ___report_rangecheckfailure 10015fcf f   LIBCMT:gs_report.obj
 0001:00014fde       ___report_securityfailure  10015fde f   LIBCMT:gs_report.obj
 0001:000150e2       ___report_securityfailureEx 100160e2 f   LIBCMT:gs_report.obj
 0001:0001523d       @__security_check_cookie@4 1001623d f   LIBCMT:_secchk_.obj
 0001:00015252       ___isa_available_init      10016252 f   LIBCMT:_cpu_disp_.obj
 0001:0001581a       __CRT_INIT@12              1001681a f   LIBCMT:dll_dllmain.obj
 0001:00015825       __DllMainCRTStartup@12     10016825 f   LIBCMT:dll_dllmain.obj
 0001:00015850       ??$__crt_fast_decode_pointer@PAP6AXXZ@@YAPAP6AXXZQAP6AXXZ@Z 10016850 f i LIBCMT:utility.obj
 0001:00015869       ??$__crt_fast_encode_pointer@PAP6AXXZ@@YAPAP6AXXZQAP6AXXZ@Z 10016869 f i LIBCMT:utility.obj
 0001:0001588d       ?__crt_rotate_pointer_value@@YAIIH@Z 1001688d f i LIBCMT:utility.obj
 0001:0001589d       ?configure_argv@__scrt_narrow_argv_policy@@SAHXZ 1001689d f i LIBCMT:utility.obj
 0001:00015941       _NtCurrentTeb              10016941 f i LIBCMT:utility.obj
 0001:00015948       ___scrt_acquire_startup_lock 10016948 f   LIBCMT:utility.obj
 0001:0001598a       ___scrt_dllmain_after_initialize_c 1001698a f   LIBCMT:utility.obj
 0001:000159bf       ___scrt_dllmain_before_initialize_c 100169bf f   LIBCMT:utility.obj
 0001:000159d0       ___scrt_dllmain_crt_thread_attach 100169d0 f   LIBCMT:utility.obj
 0001:000159f6       ___scrt_dllmain_crt_thread_detach 100169f6 f   LIBCMT:utility.obj
 0001:00015a06       ___scrt_dllmain_exception_filter 10016a06 f   LIBCMT:utility.obj
 0001:00015a45       ___scrt_dllmain_uninitialize_c 10016a45 f   LIBCMT:utility.obj
 0001:00015a70       ___scrt_dllmain_uninitialize_critical 10016a70 f   LIBCMT:utility.obj
 0001:00015a80       ___scrt_initialize_crt     10016a80 f   LIBCMT:utility.obj
 0001:00015ac7       ___scrt_initialize_onexit_tables 10016ac7 f   LIBCMT:utility.obj
 0001:00015b83       ___scrt_is_nonwritable_in_current_image 10016b83 f   LIBCMT:utility.obj
 0001:00015c2f       ___scrt_release_startup_lock 10016c2f f   LIBCMT:utility.obj
 0001:00015c53       ___scrt_uninitialize_crt   10016c53 f   LIBCMT:utility.obj
 0001:00015c85       __onexit                   10016c85 f   LIBCMT:utility.obj
 0001:00015cce       _at_quick_exit             10016cce f   LIBCMT:utility.obj
 0001:00015d0b       _atexit                    10016d0b f   LIBCMT:utility.obj
 0001:00015d25       ___security_init_cookie    10016d25 f   LIBCMT:gs_support.obj
 0001:00015de8       ?__scrt_initialize_type_info@@YAXXZ 10016de8 f   LIBCMT:tncleanup.obj
 0001:00015df7       ?__scrt_uninitialize_type_info@@YAXXZ 10016df7 f   LIBCMT:tncleanup.obj
 0001:00015e06       ___local_stdio_scanf_options 10016e06 f i LIBCMT:default_local_stdio_options.obj
 0001:00015e0c       ___scrt_initialize_default_local_stdio_options 10016e0c f   LIBCMT:default_local_stdio_options.obj
 0001:00015e30       ___scrt_get_dyn_tls_init_callback 10016e30 f   LIBCMT:dyn_tls_init.obj
 0001:00015e36       ___scrt_fastfail           10016e36 f   LIBCMT:utility_desktop.obj
 0001:00015f97       ___scrt_get_show_window_mode 10016f97 f   LIBCMT:utility_desktop.obj
 0001:00015fd6       ___scrt_initialize_winrt   10016fd6 f   LIBCMT:utility_desktop.obj
 0001:00015fd9       ___scrt_is_managed_app     10016fd9 f   LIBCMT:utility_desktop.obj
 0001:0001602e       ___scrt_set_unhandled_exception_filter 1001702e f   LIBCMT:utility_desktop.obj
 0001:0001603d       ___scrt_unhandled_exception_filter@4 1001703d f   LIBCMT:utility_desktop.obj
 0001:0001608e       __crt_debugger_hook        1001708e f   LIBCMT:utility_desktop.obj
 0001:00016098       __RTC_Initialize           10017098 f   LIBCMT:_initsect_.obj
 0001:000160cd       __RTC_Terminate            100170cd f   LIBCMT:_initsect_.obj
 0001:00016102       @_guard_check_icall@4      10017102 f i LIBCMT:checkcfg.obj
 0001:00016110       __SEH_prolog4              10017110 f   LIBCMT:_sehprolg4_.obj
 0001:00016156       __SEH_epilog4              10017156 f   LIBCMT:_sehprolg4_.obj
 0001:00016181       __get_startup_argv_mode    10017181 f   LIBCMT:argv_mode.obj
 0001:00016185       ___scrt_is_ucrt_dll_in_use 10017185 f   LIBCMT:ucrt_detection.obj
 0001:00016194       @_guard_check_icall_nop@4  10017194 f i LIBCMT:guard_support.obj
 0001:00016195       __guard_icall_checks_enforced 10017195 f i LIBCMT:guard_support.obj
 0001:000161ac       _GetModuleHandleA@4        100171ac f   kernel32:KERNEL32.dll
 0001:000161b2       _GetProcAddress@8          100171b2 f   kernel32:KERNEL32.dll
 0001:000161b8       _UnhandledExceptionFilter@4 100171b8 f   kernel32:KERNEL32.dll
 0001:000161be       _SetUnhandledExceptionFilter@4 100171be f   kernel32:KERNEL32.dll
 0001:000161c4       _GetCurrentProcess@0       100171c4 f   kernel32:KERNEL32.dll
 0001:000161ca       _TerminateProcess@8        100171ca f   kernel32:KERNEL32.dll
 0001:000161d0       _IsProcessorFeaturePresent@4 100171d0 f   kernel32:KERNEL32.dll
 0001:000161d6       _QueryPerformanceCounter@4 100171d6 f   kernel32:KERNEL32.dll
 0001:000161dc       _GetCurrentProcessId@0     100171dc f   kernel32:KERNEL32.dll
 0001:000161e2       _GetCurrentThreadId@0      100171e2 f   kernel32:KERNEL32.dll
 0001:000161e8       _GetSystemTimeAsFileTime@4 100171e8 f   kernel32:KERNEL32.dll
 0001:000161ee       _InitializeSListHead@4     100171ee f   kernel32:KERNEL32.dll
 0001:000161f4       _IsDebuggerPresent@0       100171f4 f   kernel32:KERNEL32.dll
 0001:000161fa       _GetStartupInfoW@4         100171fa f   kernel32:KERNEL32.dll
 0001:00016200       _GetModuleHandleW@4        10017200 f   kernel32:KERNEL32.dll
 0001:00016210       _memcpy                    10017210 f   libvcruntime:memcpy.obj
 0001:000168f0       _memset                    100178f0 f   libvcruntime:memset.obj
 0001:00016aa0       _memmove                   10017aa0 f   libvcruntime:memmove.obj
 0001:00017180       _strchr                    10018180 f   libvcruntime:strchr.obj
 0001:000171ee       ___from_strstr_to_strchr   100181ee     libvcruntime:strchr.obj
 0001:00017340       __except_handler4          10018340 f   libvcruntime:_chandler4_.obj
 0001:000174ff       ___vcrt_initialize         100184ff f   libvcruntime:initialization.obj
 0001:00017532       ___vcrt_thread_attach      10018532 f   libvcruntime:initialization.obj
 0001:0001753f       ___vcrt_thread_detach      1001853f f   libvcruntime:initialization.obj
 0001:0001754c       ___vcrt_uninitialize       1001854c f   libvcruntime:initialization.obj
 0001:00017572       ___vcrt_uninitialize_critical 10018572 f   libvcruntime:initialization.obj
 0001:0001758d       ??$?RD@__crt_internal_free_policy@@QBEXQBD@Z 1001858d f i libvcruntime:std_type_info.obj
 0001:000175a1       ??$?RX@__crt_internal_free_policy@@QBEXQBX@Z 100185a1 f i libvcruntime:std_type_info.obj
 0001:000175b5       ??$__crt_interlocked_compare_exchange_pointer@$$CBD$$T$$T@@YAPBDPDSBD$$T1@Z 100185b5 f i libvcruntime:std_type_info.obj
 0001:000175cb       ??$__crt_interlocked_compare_exchange_pointer@$$CBDPAD$$T@@YAPBDPDSBDQAD$$T@Z 100185cb f i libvcruntime:std_type_info.obj
 0001:000175e1       ??$__crt_interlocked_read_pointer@$$CBD@@YAPBDPDSBD@Z 100185e1 f i libvcruntime:std_type_info.obj
 0001:000175f5       ??0?$__crt_unique_heap_ptr@DU__crt_internal_free_policy@@@@QAE@QAD@Z 100185f5 f i libvcruntime:std_type_info.obj
 0001:00017606       ??0?$__crt_unique_heap_ptr@XU__crt_internal_free_policy@@@@QAE@QAX@Z 10018606 f i libvcruntime:std_type_info.obj
 0001:00017617       ??1?$__crt_unique_heap_ptr@DU__crt_internal_free_policy@@@@QAE@XZ 10018617 f i libvcruntime:std_type_info.obj
 0001:0001762b       ??1?$__crt_unique_heap_ptr@XU__crt_internal_free_policy@@@@QAE@XZ 1001862b f i libvcruntime:std_type_info.obj
 0001:0001764b       ??B?$__crt_unique_heap_ptr@DU__crt_internal_free_policy@@@@QBE_NXZ 1001864b f i libvcruntime:std_type_info.obj
 0001:00017652       ??B?$__crt_unique_heap_ptr@XU__crt_internal_free_policy@@@@QBE_NXZ 10018652 f i libvcruntime:std_type_info.obj
 0001:00017681       ?detach@?$__crt_unique_heap_ptr@XU__crt_internal_free_policy@@@@QAEPAXXZ 10018681 f i libvcruntime:std_type_info.obj
 0001:00017687       ?get@?$__crt_unique_heap_ptr@DU__crt_internal_free_policy@@@@QBEPADXZ 10018687 f i libvcruntime:std_type_info.obj
 0001:0001768a       ?get@?$__crt_unique_heap_ptr@XU__crt_internal_free_policy@@@@QBEPAXXZ 1001868a f i libvcruntime:std_type_info.obj
 0001:0001768d       ?is_valid@?$__crt_unique_heap_ptr@DU__crt_internal_free_policy@@@@QBE_NXZ 1001868d f i libvcruntime:std_type_info.obj
 0001:00017694       ?is_valid@?$__crt_unique_heap_ptr@XU__crt_internal_free_policy@@@@QBE_NXZ 10018694 f i libvcruntime:std_type_info.obj
 0001:0001769b       ?release@?$__crt_unique_heap_ptr@DU__crt_internal_free_policy@@@@QAEXXZ 1001869b f i libvcruntime:std_type_info.obj
 0001:000176af       ?release@?$__crt_unique_heap_ptr@XU__crt_internal_free_policy@@@@QAEXXZ 100186af f i libvcruntime:std_type_info.obj
 0001:000176c3       ___std_type_info_compare   100186c3 f   libvcruntime:std_type_info.obj
 0001:0001770e       ___std_type_info_destroy_list 1001870e f   libvcruntime:std_type_info.obj
 0001:00017739       ___std_type_info_hash      10018739 f   libvcruntime:std_type_info.obj
 0001:00017768       ___std_type_info_name      10018768 f   libvcruntime:std_type_info.obj
 0001:00017870       __local_unwind4            10018870 f   libvcruntime:_exsup4_.obj
 0001:00017946       __seh_longjmp_unwind4@4    10018946 f   libvcruntime:_exsup4_.obj
 0001:0001796e       @_EH4_CallFilterFunc@8     1001896e f   libvcruntime:_exsup4_.obj
 0001:00017985       @_EH4_TransferToHandler@8  10018985 f   libvcruntime:_exsup4_.obj
 0001:0001799e       @_EH4_GlobalUnwind2@8      1001899e f   libvcruntime:_exsup4_.obj
 0001:000179b7       @_EH4_LocalUnwind@16       100189b7 f   libvcruntime:_exsup4_.obj
 0001:00017a25       ___except_validate_context_record 10018a25 f   libvcruntime:jbcxrval.obj
 0001:00017a26       ___except_validate_jump_buffer 10018a26 f   libvcruntime:jbcxrval.obj
 0001:00017a27       ??$?RU__vcrt_ptd@@@__crt_internal_free_policy@@QBEXQBU__vcrt_ptd@@@Z 10018a27 f i libvcruntime:per_thread_data.obj
 0001:00017a3b       ??0?$__crt_unique_heap_ptr@U__vcrt_ptd@@U__crt_internal_free_policy@@@@QAE@QAU__vcrt_ptd@@@Z 10018a3b f i libvcruntime:per_thread_data.obj
 0001:00017a5e       ??1?$__crt_unique_heap_ptr@U__vcrt_ptd@@U__crt_internal_free_policy@@@@QAE@XZ 10018a5e f i libvcruntime:per_thread_data.obj
 0001:00017a7d       ??B?$__crt_unique_heap_ptr@U__vcrt_ptd@@U__crt_internal_free_policy@@@@QBE_NXZ 10018a7d f i libvcruntime:per_thread_data.obj
 0001:00017a84       ?detach@?$__crt_unique_heap_ptr@U__vcrt_ptd@@U__crt_internal_free_policy@@@@QAEPAU__vcrt_ptd@@XZ 10018a84 f i libvcruntime:per_thread_data.obj
 0001:00017a8a       ?get@?$__crt_unique_heap_ptr@U__vcrt_ptd@@U__crt_internal_free_policy@@@@QBEPAU__vcrt_ptd@@XZ 10018a8a f i libvcruntime:per_thread_data.obj
 0001:00017a8d       ?is_valid@?$__crt_unique_heap_ptr@U__vcrt_ptd@@U__crt_internal_free_policy@@@@QBE_NXZ 10018a8d f i libvcruntime:per_thread_data.obj
 0001:00017a94       ?release@?$__crt_unique_heap_ptr@U__vcrt_ptd@@U__crt_internal_free_policy@@@@QAEXXZ 10018a94 f i libvcruntime:per_thread_data.obj
 0001:00017ac8       ___vcrt_freefls@4          10018ac8 f   libvcruntime:per_thread_data.obj
 0001:00017aeb       ___vcrt_freeptd            10018aeb f   libvcruntime:per_thread_data.obj
 0001:00017b2e       ___vcrt_getptd             10018b2e f   libvcruntime:per_thread_data.obj
 0001:00017b3f       ___vcrt_getptd_noexit      10018b3f f   libvcruntime:per_thread_data.obj
 0001:00017bf5       ___vcrt_initialize_ptd     10018bf5 f   libvcruntime:per_thread_data.obj
 0001:00017c34       ___vcrt_uninitialize_ptd   10018c34 f   libvcruntime:per_thread_data.obj
 0001:00017c55       ___vcrt_initialize_locks   10018c55 f   libvcruntime:locks.obj
 0001:00017ca0       ___vcrt_lock               10018ca0 f   libvcruntime:locks.obj
 0001:00017cba       ___vcrt_uninitialize_locks 10018cba f   libvcruntime:locks.obj
 0001:00017cf4       ___vcrt_unlock             10018cf4 f   libvcruntime:locks.obj
 0001:00017d0e       ??$?BX@__crt_fast_encoded_nullptr_t@@QBEPAXXZ 10018d0e f i libvcruntime:winapi_downlevel.obj
 0001:00017d2c       ??$__crt_fast_decode_pointer@PAX@@YAPAXQAX@Z 10018d2c f i libvcruntime:winapi_downlevel.obj
 0001:00017d45       ??$__crt_fast_encode_pointer@PAX@@YAPAXQAX@Z 10018d45 f i libvcruntime:winapi_downlevel.obj
 0001:00017d69       ??$__crt_interlocked_compare_exchange_pointer@UHINSTANCE__@@$$T$$T@@YAPAUHINSTANCE__@@PDSAU0@$$T1@Z 10018d69 f i libvcruntime:winapi_downlevel.obj
 0001:00017d7f       ??$__crt_interlocked_compare_exchange_pointer@X$$T$$T@@YAPAXPDSAX$$T1@Z 10018d7f f i libvcruntime:winapi_downlevel.obj
 0001:00017d95       ??$__crt_interlocked_exchange_pointer@UHINSTANCE__@@PAU1@@@YAPAUHINSTANCE__@@PDSAU0@QAU0@@Z 10018d95 f i libvcruntime:winapi_downlevel.obj
 0001:00017da5       ??$__crt_interlocked_exchange_pointer@UHINSTANCE__@@PAX@@YAPAUHINSTANCE__@@PDSAU0@QAX@Z 10018da5 f i libvcruntime:winapi_downlevel.obj
 0001:00017db5       ??$__crt_interlocked_exchange_pointer@XPAX@@YAPAXPDSAXQAX@Z 10018db5 f i libvcruntime:winapi_downlevel.obj
 0001:00017dc5       ??$__crt_interlocked_read_pointer@UHINSTANCE__@@@@YAPAUHINSTANCE__@@PDSAU0@@Z 10018dc5 f i libvcruntime:winapi_downlevel.obj
 0001:00017dd9       ??$__crt_interlocked_read_pointer@X@@YAPAXPDSAX@Z 10018dd9 f i libvcruntime:winapi_downlevel.obj
 0001:00017ded       ?__crt_fast_encode_pointer@@YA?AU__crt_fast_encoded_nullptr_t@@$$T@Z 10018ded f i libvcruntime:winapi_downlevel.obj
 0001:00018131       ___vcrt_EventRegister      10019131 f   libvcruntime:winapi_downlevel.obj
 0001:00018181       ___vcrt_EventSetInformation 10019181 f   libvcruntime:winapi_downlevel.obj
 0001:000181d4       ___vcrt_EventUnregister    100191d4 f   libvcruntime:winapi_downlevel.obj
 0001:0001821c       ___vcrt_EventWriteTransfer 1001921c f   libvcruntime:winapi_downlevel.obj
 0001:00018277       ___vcrt_FlsAlloc           10019277 f   libvcruntime:winapi_downlevel.obj
 0001:000182bf       ___vcrt_FlsFree            100192bf f   libvcruntime:winapi_downlevel.obj
 0001:00018307       ___vcrt_FlsGetValue        10019307 f   libvcruntime:winapi_downlevel.obj
 0001:0001834f       ___vcrt_FlsSetValue        1001934f f   libvcruntime:winapi_downlevel.obj
 0001:0001839b       ___vcrt_InitializeCriticalSectionEx 1001939b f   libvcruntime:winapi_downlevel.obj
 0001:000183f2       ___vcrt_initialize_winapi_thunks 100193f2 f   libvcruntime:winapi_downlevel.obj
 0001:0001843a       ___vcrt_uninitialize_winapi_thunks 1001943a f   libvcruntime:winapi_downlevel.obj
 0001:00018478       ??$?B$$A6AXXZ@__crt_fast_encoded_nullptr_t@@QBEP6AXXZXZ 10019478 f i libvcruntime:purevirt_data.obj
 0001:00018496       ??$__crt_fast_encode_pointer@P6AXXZ@@YAP6AXXZQ6AXXZ@Z 10019496 f i libvcruntime:purevirt_data.obj
 0001:000184ba       ___vcrt_initialize_pure_virtual_call_handler 100194ba f   libvcruntime:purevirt_data.obj
 0001:000184de       ??$__vcrt_va_start_verify_argument_type@QBD@@YAXXZ 100194de f i libvcruntime:undname.obj
 0001:000184df       ??0Block@_HeapManager@@QAE@XZ 100194df f i libvcruntime:undname.obj
 0001:000184e5       ??0DName@@QAE@AAPBDD@Z     100194e5 f   libvcruntime:undname.obj
 0001:000185cc       ??0DName@@QAE@ABV0@@Z      100195cc f i libvcruntime:undname.obj
 0001:000185e7       ??0DName@@QAE@D@Z          100195e7 f   libvcruntime:undname.obj
 0001:0001861e       ??0DName@@QAE@PAV0@@Z      1001961e f   libvcruntime:undname.obj
 0001:0001867e       ??0DName@@QAE@PBD@Z        1001967e f   libvcruntime:undname.obj
 0001:000186c6       ??0DName@@QAE@W4DNameStatus@@@Z 100196c6 f   libvcruntime:undname.obj
 0001:00018719       ??0DName@@QAE@XZ           10019719 f i libvcruntime:undname.obj
 0001:0001872e       ??0DName@@QAE@_J@Z         1001972e f   libvcruntime:undname.obj
 0001:000187e8       ??0DName@@QAE@_K@Z         100197e8 f   libvcruntime:undname.obj
 0001:00018872       ??0DNameNode@@IAE@XZ       10019872 f   libvcruntime:undname.obj
 0001:0001887d       ??0DNameStatusNode@@AAE@W4DNameStatus@@@Z 1001987d f   libvcruntime:undname.obj
 0001:000188a8       ??0Replicator@@QAE@XZ      100198a8 f i libvcruntime:undname.obj
 0001:000188ae       ??0UnDecorator@@QAE@PADPBDHP6APADJ@ZK@Z 100198ae f i libvcruntime:undname.obj
 0001:00018931       ??0charNode@@QAE@D@Z       10019931 f   libvcruntime:undname.obj
 0001:0001894b       ??0pDNameNode@@QAE@PAVDName@@@Z 1001994b f   libvcruntime:undname.obj
 0001:0001897d       ??0pairNode@@QAE@PAVDNameNode@@0@Z 1001997d f   libvcruntime:undname.obj
 0001:000189a3       ??0pcharNode@@QAE@PBDH@Z   100199a3 f   libvcruntime:undname.obj
 0001:00018a12       ??2@YAPAXIAAV_HeapManager@@H@Z 10019a12 f i libvcruntime:undname.obj
 0001:00018a2c       ??4DName@@QAEAAV0@ABV0@@Z  10019a2c f   libvcruntime:undname.obj
 0001:00018a47       ??4DName@@QAEAAV0@D@Z      10019a47 f i libvcruntime:undname.obj
 0001:00018a7e       ??4DName@@QAEAAV0@PAV0@@Z  10019a7e f   libvcruntime:undname.obj
 0001:00018ad9       ??4DName@@QAEAAV0@PBD@Z    10019ad9 f   libvcruntime:undname.obj
 0001:00018b17       ??4DName@@QAEAAV0@W4DNameStatus@@@Z 10019b17 f   libvcruntime:undname.obj
 0001:00018b59       ??AReplicator@@QBE?AVDName@@H@Z 10019b59 f   libvcruntime:undname.obj
 0001:00018ba4       ??BUnDecorator@@QAEPADXZ   10019ba4 f i libvcruntime:undname.obj
 0001:00018d7b       ??H@YA?AVDName@@DABV0@@Z   10019d7b f i libvcruntime:undname.obj
 0001:00018da8       ??H@YA?AVDName@@PBDABV0@@Z 10019da8 f i libvcruntime:undname.obj
 0001:00018dd5       ??H@YA?AVDName@@W4DNameStatus@@ABV0@@Z 10019dd5 f i libvcruntime:undname.obj
 0001:00018e02       ??HDName@@QBE?AV0@ABV0@@Z  10019e02 f   libvcruntime:undname.obj
 0001:00018e2c       ??HDName@@QBE?AV0@D@Z      10019e2c f   libvcruntime:undname.obj
 0001:00018e56       ??HDName@@QBE?AV0@PAV0@@Z  10019e56 f   libvcruntime:undname.obj
 0001:00018e80       ??HDName@@QBE?AV0@PBD@Z    10019e80 f   libvcruntime:undname.obj
 0001:00018eaa       ??HDName@@QBE?AV0@W4DNameStatus@@@Z 10019eaa f   libvcruntime:undname.obj
 0001:00018ed4       ??YDName@@QAEAAV0@ABV0@@Z  10019ed4 f   libvcruntime:undname.obj
 0001:00018f27       ??YDName@@QAEAAV0@D@Z      10019f27 f   libvcruntime:undname.obj
 0001:00018f8b       ??YDName@@QAEAAV0@PAV0@@Z  10019f8b f   libvcruntime:undname.obj
 0001:00019009       ??YDName@@QAEAAV0@PBD@Z    1001a009 f   libvcruntime:undname.obj
 0001:00019082       ??YDName@@QAEAAV0@W4DNameStatus@@@Z 1001a082 f   libvcruntime:undname.obj
 0001:000190d2       ??YReplicator@@QAEAAV0@ABVDName@@@Z 1001a0d2 f   libvcruntime:undname.obj
 0001:0001912e       ??_5DName@@QAEAAV0@ABV0@@Z 1001a12e f   libvcruntime:undname.obj
 0001:00019151       ?Constructor@_HeapManager@@QAEXP6APAXI@ZP6AXPAX@Z@Z 1001a151 f i libvcruntime:undname.obj
 0001:00019175       ?Destructor@_HeapManager@@QAEXXZ 1001a175 f i libvcruntime:undname.obj
 0001:000191bc       ?UScore@UnDecorator@@SAPBDW4Tokens@@@Z 1001a1bc f   libvcruntime:undname.obj
 0001:000191e0       ?append@DName@@AAEXPAVDNameNode@@@Z 1001a1e0 f   libvcruntime:undname.obj
 0001:00019237       ?composeDeclaration@UnDecorator@@CA?AVDName@@ABV2@@Z 1001a237 f i libvcruntime:undname.obj
 0001:0001a272       ?doAccessSpecifiers@UnDecorator@@SAHXZ 1001b272 f i libvcruntime:undname.obj
 0001:0001a283       ?doAllocationLanguage@UnDecorator@@SAHXZ 1001b283 f i libvcruntime:undname.obj
 0001:0001a294       ?doAllocationModel@UnDecorator@@SAHXZ 1001b294 f i libvcruntime:undname.obj
 0001:0001a2a5       ?doEcsu@UnDecorator@@SAHXZ 1001b2a5 f i libvcruntime:undname.obj
 0001:0001a2b6       ?doEllipsis@UnDecorator@@SAHXZ 1001b2b6 f i libvcruntime:undname.obj
 0001:0001a2c7       ?doFunctionReturns@UnDecorator@@SAHXZ 1001b2c7 f i libvcruntime:undname.obj
 0001:0001a2d8       ?doMSKeywords@UnDecorator@@SAHXZ 1001b2d8 f i libvcruntime:undname.obj
 0001:0001a2e8       ?doMemberTypes@UnDecorator@@SAHXZ 1001b2e8 f i libvcruntime:undname.obj
 0001:0001a2f9       ?doNameOnly@UnDecorator@@SAHXZ 1001b2f9 f i libvcruntime:undname.obj
 0001:0001a306       ?doNoIdentCharCheck@UnDecorator@@SAHXZ 1001b306 f i libvcruntime:undname.obj
 0001:0001a313       ?doPchar@DName@@AAEXPBDH@Z 1001b313 f   libvcruntime:undname.obj
 0001:0001a3bf       ?doPtr64@UnDecorator@@SAHXZ 1001b3bf f i libvcruntime:undname.obj
 0001:0001a3d0       ?doRestrictionSpec@UnDecorator@@SAHXZ 1001b3d0 f i libvcruntime:undname.obj
 0001:0001a3e1       ?doThisTypes@UnDecorator@@SAHXZ 1001b3e1 f i libvcruntime:undname.obj
 0001:0001a3f7       ?doThrowTypes@UnDecorator@@SAHXZ 1001b3f7 f i libvcruntime:undname.obj
 0001:0001a408       ?doTypeOnly@UnDecorator@@SAHXZ 1001b408 f i libvcruntime:undname.obj
 0001:0001a415       ?doUnderScore@UnDecorator@@SAHXZ 1001b415 f i libvcruntime:undname.obj
 0001:0001a422       ?getArgumentList@UnDecorator@@CA?AVDName@@XZ 1001b422 f   libvcruntime:undname.obj
 0001:0001a571       ?getArgumentTypes@UnDecorator@@CA?AVDName@@XZ 1001b571 f   libvcruntime:undname.obj
 0001:0001a689       ?getArrayType@UnDecorator@@CA?AVDName@@ABV2@@Z 1001b689 f i libvcruntime:undname.obj
 0001:0001a90b       ?getBasedType@UnDecorator@@CA?AVDName@@XZ 1001b90b f   libvcruntime:undname.obj
 0001:0001a9ca       ?getBasicDataType@UnDecorator@@CA?AVDName@@ABV2@@Z 1001b9ca f   libvcruntime:undname.obj
 0001:0001aeb4       ?getCallIndex@UnDecorator@@CA?AVDName@@XZ 1001beb4 f i libvcruntime:undname.obj
 0001:0001aecd       ?getCallingConvention@UnDecorator@@CA?AVDName@@XZ 1001becd f   libvcruntime:undname.obj
 0001:0001afbb       ?getDataIndirectType@UnDecorator@@CA?AVDName@@ABV2@PBD0H@Z 1001bfbb f   libvcruntime:undname.obj
 0001:0001b766       ?getDataIndirectType@UnDecorator@@CA?AVDName@@XZ 1001c766 f i libvcruntime:undname.obj
 0001:0001b7ad       ?getDataType@UnDecorator@@CA?AVDName@@PAV2@@Z 1001c7ad f   libvcruntime:undname.obj
 0001:0001b8b3       ?getDecoratedName@UnDecorator@@CA?AVDName@@XZ 1001c8b3 f   libvcruntime:undname.obj
 0001:0001bb92       ?getDimension@UnDecorator@@CA?AVDName@@_N@Z 1001cb92 f   libvcruntime:undname.obj
 0001:0001bd16       ?getDispatchTarget@UnDecorator@@CA?AVDName@@XZ 1001cd16 f   libvcruntime:undname.obj
 0001:0001bd87       ?getDisplacement@UnDecorator@@CA?AVDName@@XZ 1001cd87 f i libvcruntime:undname.obj
 0001:0001bda0       ?getECSUDataType@UnDecorator@@CA?AVDName@@XZ 1001cda0 f   libvcruntime:undname.obj
 0001:0001bf04       ?getECSUName@UnDecorator@@CA?AVDName@@XZ 1001cf04 f i libvcruntime:undname.obj
 0001:0001bf19       ?getEnumType@UnDecorator@@CA?AVDName@@XZ 1001cf19 f i libvcruntime:undname.obj
 0001:0001c040       ?getExtendedDataIndirectType@UnDecorator@@CA?AVDName@@AAPBDAA_NH@Z 1001d040 f   libvcruntime:undname.obj
 0001:0001c253       ?getExternalDataType@UnDecorator@@CA?AVDName@@ABV2@@Z 1001d253 f i libvcruntime:undname.obj
 0001:0001c2ea       ?getFunctionIndirectType@UnDecorator@@CA?AVDName@@ABV2@@Z 1001d2ea f   libvcruntime:undname.obj
 0001:0001c7f5       ?getGuardNumber@UnDecorator@@CA?AVDName@@XZ 1001d7f5 f i libvcruntime:undname.obj
 0001:0001c80e       ?getLastChar@DName@@QBEDXZ 1001d80e f i libvcruntime:undname.obj
 0001:0001c834       ?getLastChar@DNameStatusNode@@UBEDXZ 1001d834 f i libvcruntime:undname.obj
 0001:0001c843       ?getLastChar@charNode@@UBEDXZ 1001d843 f i libvcruntime:undname.obj
 0001:0001c847       ?getLastChar@pDNameNode@@UBEDXZ 1001d847 f i libvcruntime:undname.obj
 0001:0001c858       ?getLastChar@pairNode@@UBEDXZ 1001d858 f i libvcruntime:undname.obj
 0001:0001c897       ?getLastChar@pcharNode@@UBEDXZ 1001d897 f i libvcruntime:undname.obj
 0001:0001c8ad       ?getLexicalFrame@UnDecorator@@CA?AVDName@@XZ 1001d8ad f i libvcruntime:undname.obj
 0001:0001c8f9       ?getMemory@_HeapManager@@QAEPAXIH@Z 1001d8f9 f   libvcruntime:undname.obj
 0001:0001c9aa       ?getNumberOfDimensions@UnDecorator@@CAHXZ 1001d9aa f   libvcruntime:undname.obj
 0001:0001ca23       ?getOperatorName@UnDecorator@@CA?AVDName@@_NPA_N@Z 1001da23 f i libvcruntime:undname.obj
 0001:0001d1d3       ?getPointerType@UnDecorator@@CA?AVDName@@ABV2@0@Z 1001e1d3 f i libvcruntime:undname.obj
 0001:0001d1f8       ?getPointerTypeArray@UnDecorator@@CA?AVDName@@ABV2@0@Z 1001e1f8 f i libvcruntime:undname.obj
 0001:0001d21d       ?getPrimaryDataType@UnDecorator@@CA?AVDName@@ABV2@@Z 1001e21d f   libvcruntime:undname.obj
 0001:0001d48e       ?getPtrRefDataType@UnDecorator@@CA?AVDName@@ABV2@H@Z 1001e48e f   libvcruntime:undname.obj
 0001:0001d5d0       ?getPtrRefType@UnDecorator@@CA?AVDName@@ABV2@0PBD@Z 1001e5d0 f   libvcruntime:undname.obj
 0001:0001d70b       ?getReferenceType@UnDecorator@@CA?AVDName@@ABV2@0PBD@Z 1001e70b f i libvcruntime:undname.obj
 0001:0001d72e       ?getRestrictionSpec@UnDecorator@@CA?AVDName@@XZ 1001e72e f   libvcruntime:undname.obj
 0001:0001d85c       ?getReturnType@UnDecorator@@CA?AVDName@@PAV2@@Z 1001e85c f   libvcruntime:undname.obj
 0001:0001d896       ?getScope@UnDecorator@@CA?AVDName@@XZ 1001e896 f   libvcruntime:undname.obj
 0001:0001dd6b       ?getScopedName@UnDecorator@@CA?AVDName@@XZ 1001ed6b f   libvcruntime:undname.obj
 0001:0001dea4       ?getSignedDimension@UnDecorator@@CA?AVDName@@XZ 1001eea4 f   libvcruntime:undname.obj
 0001:0001df0b       ?getStorageConvention@UnDecorator@@CA?AVDName@@XZ 1001ef0b f i libvcruntime:undname.obj
 0001:0001df20       ?getString@DName@@QBEPADPAD0@Z 1001ef20 f i libvcruntime:undname.obj
 0001:0001df57       ?getString@DName@@QBEPADPADH@Z 1001ef57 f i libvcruntime:undname.obj
 0001:0001dfc2       ?getString@DNameStatusNode@@UBEPADPAD0@Z 1001efc2 f i libvcruntime:undname.obj
 0001:0001dff2       ?getString@charNode@@UBEPADPAD0@Z 1001eff2 f i libvcruntime:undname.obj
 0001:0001e00c       ?getString@pDNameNode@@UBEPADPAD0@Z 1001f00c f i libvcruntime:undname.obj
 0001:0001e028       ?getString@pairNode@@UBEPADPAD0@Z 1001f028 f i libvcruntime:undname.obj
 0001:0001e07d       ?getString@pcharNode@@UBEPADPAD0@Z 1001f07d f i libvcruntime:undname.obj
 0001:0001e09e       ?getStringEncoding@UnDecorator@@CA?AVDName@@PADH@Z 1001f09e f   libvcruntime:undname.obj
 0001:0001e169       ?getStringHelper@@YAPADPAD00H@Z 1001f169 f i libvcruntime:undname.obj
 0001:0001e1ad       ?getSymbolName@UnDecorator@@CA?AVDName@@XZ 1001f1ad f i libvcruntime:undname.obj
 0001:0001e207       ?getTemplateArgumentList@UnDecorator@@CA?AVDName@@XZ 1001f207 f   libvcruntime:undname.obj
 0001:0001e554       ?getTemplateConstant@UnDecorator@@CA?AVDName@@XZ 1001f554 f   libvcruntime:undname.obj
 0001:0001e969       ?getTemplateName@UnDecorator@@CA?AVDName@@_N@Z 1001f969 f   libvcruntime:undname.obj
 0001:0001eb14       ?getThisType@UnDecorator@@CA?AVDName@@XZ 1001fb14 f i libvcruntime:undname.obj
 0001:0001eb5c       ?getThrowTypes@UnDecorator@@CA?AVDName@@XZ 1001fb5c f   libvcruntime:undname.obj
 0001:0001ec08       ?getTypeEncoding@UnDecorator@@CAHXZ 1001fc08 f i libvcruntime:undname.obj
 0001:0001f004       ?getVCallThunkType@UnDecorator@@CA?AVDName@@XZ 10020004 f i libvcruntime:undname.obj
 0001:0001f04d       ?getVbTableType@UnDecorator@@CA?AVDName@@ABV2@@Z 1002004d f i libvcruntime:undname.obj
 0001:0001f067       ?getVdispMapType@UnDecorator@@CA?AVDName@@ABV2@@Z 10020067 f i libvcruntime:undname.obj
 0001:0001f0d2       ?getVfTableType@UnDecorator@@CA?AVDName@@ABV2@@Z 100200d2 f i libvcruntime:undname.obj
 0001:0001f290       ?getZName@UnDecorator@@CA?AVDName@@_N0@Z 10020290 f   libvcruntime:undname.obj
 0001:0001f560       ?haveTemplateParameters@UnDecorator@@SAHXZ 10020560 f i libvcruntime:undname.obj
 0001:0001f56d       ?isArray@DName@@QBEHXZ     1002056d f i libvcruntime:undname.obj
 0001:0001f579       ?isComArray@DName@@QBEHXZ  10020579 f i libvcruntime:undname.obj
 0001:0001f585       ?isEmpty@DName@@QBEHXZ     10020585 f i libvcruntime:undname.obj
 0001:0001f58f       ?isFull@Replicator@@QBEHXZ 1002058f f i libvcruntime:undname.obj
 0001:0001f59a       ?isNoTE@DName@@QBEHXZ      1002059a f i libvcruntime:undname.obj
 0001:0001f5a6       ?isPinPtr@DName@@QBEHXZ    100205a6 f i libvcruntime:undname.obj
 0001:0001f5b2       ?isPtrRef@DName@@QBEHXZ    100205b2 f i libvcruntime:undname.obj
 0001:0001f5be       ?isUDC@DName@@QBEHXZ       100205be f i libvcruntime:undname.obj
 0001:0001f5d3       ?isUDTThunk@DName@@QBEHXZ  100205d3 f i libvcruntime:undname.obj
 0001:0001f5e8       ?isVCallThunk@DName@@QBEHXZ 100205e8 f i libvcruntime:undname.obj
 0001:0001f5f4       ?isValid@DName@@QBEHXZ     100205f4 f i libvcruntime:undname.obj
 0001:0001f600       ?length@DName@@QBEHXZ      10020600 f i libvcruntime:undname.obj
 0001:0001f625       ?length@DNameStatusNode@@UBEHXZ 10020625 f i libvcruntime:undname.obj
 0001:0001f629       ?length@charNode@@UBEHXZ   10020629 f i libvcruntime:undname.obj
 0001:0001f62d       ?length@pDNameNode@@UBEHXZ 1002062d f i libvcruntime:undname.obj
 0001:0001f63e       ?length@pairNode@@UBEHXZ   1002063e f i libvcruntime:undname.obj
 0001:0001f69a       ?length@pcharNode@@UBEHXZ  1002069a f i libvcruntime:undname.obj
 0001:0001f69e       ?make@DNameStatusNode@@SAPAV1@W4DNameStatus@@@Z 1002069e f i libvcruntime:undname.obj
 0001:0001f745       ?setIsArray@DName@@QAEXXZ  10020745 f i libvcruntime:undname.obj
 0001:0001f74f       ?setIsComArray@DName@@QAEXXZ 1002074f f i libvcruntime:undname.obj
 0001:0001f759       ?setIsNoTE@DName@@QAEXXZ   10020759 f i libvcruntime:undname.obj
 0001:0001f763       ?setIsPinPtr@DName@@QAEXXZ 10020763 f i libvcruntime:undname.obj
 0001:0001f76d       ?setIsUDC@DName@@QAEXXZ    1002076d f i libvcruntime:undname.obj
 0001:0001f77d       ?setIsVCallThunk@DName@@QAEXXZ 1002077d f i libvcruntime:undname.obj
 0001:0001f787       ?setPtrRef@DName@@QAEAAV1@XZ 10020787 f i libvcruntime:undname.obj
 0001:0001f793       ?status@DName@@QBE?AW4DNameStatus@@XZ 10020793 f i libvcruntime:undname.obj
 0001:0001f818       ___unDName                 10020818 f   libvcruntime:undname.obj
 0001:0001f8d2       ___unDNameEx               100208d2 f   libvcruntime:undname.obj
 0001:0001f98c       __vsprintf_s_l             1002098c f i libvcruntime:undname.obj
 0001:0001f9c4       _sprintf_s                 100209c4 f i libvcruntime:undname.obj
 0001:0001f9f0       __global_unwind2           100209f0 f   libvcruntime:_exsup_.obj
 0001:0001fa55       __local_unwind2            10020a55 f   libvcruntime:_exsup_.obj
 0001:0001fad9       __abnormal_termination     10020ad9 f   libvcruntime:_exsup_.obj
 0001:0001fafc       __NLG_Notify1              10020afc f   libvcruntime:_exsup_.obj
 0001:0001fb05       __NLG_Notify               10020b05 f   libvcruntime:_exsup_.obj
 0001:0001fb1c       __NLG_Dispatch2            10020b1c     libvcruntime:_exsup_.obj
 0001:0001fb1c       __NLG_Dispatch             10020b1c     libvcruntime:_exsup_.obj
 0001:0001fb24       __NLG_Call                 10020b24 f   libvcruntime:_exsup_.obj
 0001:0001fb26       __NLG_Return2              10020b26     libvcruntime:_exsup_.obj
 0001:0001fb74       ??$__crt_fast_decode_pointer@P6AXXZ@@YAP6AXXZQ6AXXZ@Z 10020b74 f i libvcruntime:purevirt.obj
 0001:0001fb8d       ??$__crt_interlocked_compare_exchange_pointer@$$A6AXXZ$$T$$T@@YAP6AXXZPDS6AXXZ$$T1@Z 10020b8d f i libvcruntime:purevirt.obj
 0001:0001fba3       ??$__crt_interlocked_exchange_pointer@$$A6AXXZP6AXXZ@@YAP6AXXZPDS6AXXZQ6AXXZ@Z 10020ba3 f i libvcruntime:purevirt.obj
 0001:0001fbb3       ??$__crt_interlocked_read_pointer@$$A6AXXZ@@YAP6AXXZPDS6AXXZ@Z 10020bb3 f i libvcruntime:purevirt.obj
 0001:0001fbc7       __get_purecall_handler     10020bc7 f   libvcruntime:purevirt.obj
 0001:0001fbed       __purecall                 10020bed f   libvcruntime:purevirt.obj
 0001:0001fc0e       __set_purecall_handler     10020c0e f   libvcruntime:purevirt.obj
 0001:0001fc3c       _malloc                    10020c3c f   libucrt:malloc.obj
 0001:0001fc49       ??$?RPAU__crt_stdio_stream_data@@@__crt_internal_free_policy@@QBEXQBQAU__crt_stdio_stream_data@@@Z 10020c49 f i libucrt:_file.obj
 0001:0001fc5f       ??0?$__crt_unique_heap_ptr@PAU__crt_stdio_stream_data@@U__crt_internal_free_policy@@@@QAE@QAPAU__crt_stdio_stream_data@@@Z 10020c5f f i libucrt:_file.obj
 0001:0001fc73       ??0__crt_stdio_stream@@QAE@QAU_iobuf@@@Z 10020c73 f i libucrt:_file.obj
 0001:0001fc87       ??1?$__crt_unique_heap_ptr@PAU__crt_stdio_stream_data@@U__crt_internal_free_policy@@@@QAE@XZ 10020c87 f i libucrt:_file.obj
 0001:0001fc9d       ??C__crt_stdio_stream@@QBEPAU__crt_stdio_stream_data@@XZ 10020c9d f i libucrt:_file.obj
 0001:0001fca0       ?detach@?$__crt_unique_heap_ptr@PAU__crt_stdio_stream_data@@U__crt_internal_free_policy@@@@QAEPAPAU__crt_stdio_stream_data@@XZ 10020ca0 f i libucrt:_file.obj
 0001:0001fca6       ?release@?$__crt_unique_heap_ptr@PAU__crt_stdio_stream_data@@U__crt_internal_free_policy@@@@QAEXXZ 10020ca6 f i libucrt:_file.obj
 0001:0001fcbc       ___acrt_initialize_stdio   10020cbc f   libucrt:_file.obj
 0001:0001fdb6       ___acrt_iob_func           10020db6 f   libucrt:_file.obj
 0001:0001fdca       ___acrt_uninitialize_stdio 10020dca f   libucrt:_file.obj
 0001:0001fe29       __get_stream_buffer_pointers 10020e29 f   libucrt:_file.obj
 0001:0001fe80       __lock_file                10020e80 f   libucrt:_file.obj
 0001:0001fe99       __unlock_file              10020e99 f   libucrt:_file.obj
 0001:0001feb2       ??$?0ABV?$stream_output_adapter@D@__crt_stdio_output@@AB_KABQBDABQAU__crt_locale_pointers@@ABQAD@?$format_validation_base@DV?$stream_output_adapter@D@__crt_stdio_output@@@__crt_stdio_output@@IAE@ABV?$stream_output_adapter@D@1@AB_KABQBDABQAU__crt_locale_pointers@@ABQAD@Z 10020eb2 f i libucrt:output.obj
 0001:0001fedd       ??$?0ABV?$stream_output_adapter@D@__crt_stdio_output@@AB_KABQBDABQAU__crt_locale_pointers@@ABQAD@?$positional_parameter_base@DV?$stream_output_adapter@D@__crt_stdio_output@@@__crt_stdio_output@@IAE@ABV?$stream_output_adapter@D@1@AB_KABQBDABQAU__crt_locale_pointers@@ABQAD@Z 10020edd f i libucrt:output.obj
 0001:0001ff37       ??$?0ABV?$stream_output_adapter@D@__crt_stdio_output@@AB_KABQBDABQAU__crt_locale_pointers@@ABQAD@?$standard_base@DV?$stream_output_adapter@D@__crt_stdio_output@@@__crt_stdio_output@@IAE@ABV?$stream_output_adapter@D@1@AB_KABQBDABQAU__crt_locale_pointers@@ABQAD@Z 10020f37 f i libucrt:output.obj
 0001:0001ff79       ??$?0ABV?$stream_output_adapter@_W@__crt_stdio_output@@AB_KABQB_WABQAU__crt_locale_pointers@@ABQAD@?$format_validation_base@_WV?$stream_output_adapter@_W@__crt_stdio_output@@@__crt_stdio_output@@IAE@ABV?$stream_output_adapter@_W@1@AB_KABQB_WABQAU__crt_locale_pointers@@ABQAD@Z 10020f79 f i libucrt:output.obj
 0001:0001ffa4       ??$?0ABV?$stream_output_adapter@_W@__crt_stdio_output@@AB_KABQB_WABQAU__crt_locale_pointers@@ABQAD@?$positional_parameter_base@_WV?$stream_output_adapter@_W@__crt_stdio_output@@@__crt_stdio_output@@IAE@ABV?$stream_output_adapter@_W@1@AB_KABQB_WABQAU__crt_locale_pointers@@ABQAD@Z 10020fa4 f i libucrt:output.obj
 0001:0001fffe       ??$?0ABV?$stream_output_adapter@_W@__crt_stdio_output@@AB_KABQB_WABQAU__crt_locale_pointers@@ABQAD@?$standard_base@_WV?$stream_output_adapter@_W@__crt_stdio_output@@@__crt_stdio_output@@IAE@ABV?$stream_output_adapter@_W@1@AB_KABQB_WABQAU__crt_locale_pointers@@ABQAD@Z 10020ffe f i libucrt:output.obj
 0001:00020040       ??$?0ABV?$string_output_adapter@D@__crt_stdio_output@@AB_KABQBDABQAU__crt_locale_pointers@@ABQAD@?$format_validation_base@DV?$string_output_adapter@D@__crt_stdio_output@@@__crt_stdio_output@@IAE@ABV?$string_output_adapter@D@1@AB_KABQBDABQAU__crt_locale_pointers@@ABQAD@Z 10021040 f i libucrt:output.obj
 0001:0002006b       ??$?0ABV?$string_output_adapter@D@__crt_stdio_output@@AB_KABQBDABQAU__crt_locale_pointers@@ABQAD@?$positional_parameter_base@DV?$string_output_adapter@D@__crt_stdio_output@@@__crt_stdio_output@@IAE@ABV?$string_output_adapter@D@1@AB_KABQBDABQAU__crt_locale_pointers@@ABQAD@Z 1002106b f i libucrt:output.obj
 0001:000200c5       ??$?0ABV?$string_output_adapter@D@__crt_stdio_output@@AB_KABQBDABQAU__crt_locale_pointers@@ABQAD@?$standard_base@DV?$string_output_adapter@D@__crt_stdio_output@@@__crt_stdio_output@@IAE@ABV?$string_output_adapter@D@1@AB_KABQBDABQAU__crt_locale_pointers@@ABQAD@Z 100210c5 f i libucrt:output.obj
 0001:00020107       ??$?0ABV?$string_output_adapter@_W@__crt_stdio_output@@AB_KABQB_WABQAU__crt_locale_pointers@@ABQAD@?$format_validation_base@_WV?$string_output_adapter@_W@__crt_stdio_output@@@__crt_stdio_output@@IAE@ABV?$string_output_adapter@_W@1@AB_KABQB_WABQAU__crt_locale_pointers@@ABQAD@Z 10021107 f i libucrt:output.obj
 0001:00020132       ??$?0ABV?$string_output_adapter@_W@__crt_stdio_output@@AB_KABQB_WABQAU__crt_locale_pointers@@ABQAD@?$positional_parameter_base@_WV?$string_output_adapter@_W@__crt_stdio_output@@@__crt_stdio_output@@IAE@ABV?$string_output_adapter@_W@1@AB_KABQB_WABQAU__crt_locale_pointers@@ABQAD@Z 10021132 f i libucrt:output.obj
 0001:0002018c       ??$?0ABV?$string_output_adapter@_W@__crt_stdio_output@@AB_KABQB_WABQAU__crt_locale_pointers@@ABQAD@?$standard_base@_WV?$string_output_adapter@_W@__crt_stdio_output@@@__crt_stdio_output@@IAE@ABV?$string_output_adapter@_W@1@AB_KABQB_WABQAU__crt_locale_pointers@@ABQAD@Z 1002118c f i libucrt:output.obj
 0001:000201ce       ??$?RV<lambda_2293f24e3ce1ad6fe22ccfb9dec07671>@@AAV<lambda_2565fc715a641e539f44ad02d6823606>@@V<lambda_d3217f279b832965d9ca670dc2993570>@@@?$__crt_seh_guarded_call@H@@QAEH$$QAV<lambda_2293f24e3ce1ad6fe22ccfb9dec07671>@@AAV<lambda_2565fc715a641e539f44ad02d6823606>@@$$QAV<lambda_d3217f279b832965d9ca670dc2993570>@@@Z 100211ce f i libucrt:output.obj
 0001:00020233       ??$?RV<lambda_4d4ac866be0fa3c441830420fabdd2cb>@@AAV<lambda_63a10c2dc8dbb9e4dd1890be52af7c93>@@V<lambda_002af9fa0f8fe472b648c51882d4fc32>@@@?$__crt_seh_guarded_call@H@@QAEH$$QAV<lambda_4d4ac866be0fa3c441830420fabdd2cb>@@AAV<lambda_63a10c2dc8dbb9e4dd1890be52af7c93>@@$$QAV<lambda_002af9fa0f8fe472b648c51882d4fc32>@@@Z 10021233 f i libucrt:output.obj
 0001:00020298       ??$?RV<lambda_5be909dfbae0a631386585770cd7b676>@@AAV<lambda_e516058a9c289d98c8ca9fea99247804>@@V<lambda_afe2e0cdc5e0ecf6f0d6f5e2f8985e38>@@@?$__crt_seh_guarded_call@H@@QAEH$$QAV<lambda_5be909dfbae0a631386585770cd7b676>@@AAV<lambda_e516058a9c289d98c8ca9fea99247804>@@$$QAV<lambda_afe2e0cdc5e0ecf6f0d6f5e2f8985e38>@@@Z 10021298 f i libucrt:output.obj
 0001:000202fd       ??$?RV<lambda_823d65812123d985753d53e2a8c25d20>@@AAV<lambda_0a97c9e57da7be065955385c79108ff2>@@V<lambda_4d2973f3ad2d226f00468307185dca1b>@@@?$__crt_seh_guarded_call@H@@QAEH$$QAV<lambda_823d65812123d985753d53e2a8c25d20>@@AAV<lambda_0a97c9e57da7be065955385c79108ff2>@@$$QAV<lambda_4d2973f3ad2d226f00468307185dca1b>@@@Z 100212fd f i libucrt:output.obj
 0001:00020362       ??$?RV<lambda_ab9923ffb5d694ec0d78876dd103e44f>@@AAV<lambda_481dd5778c961fbcd3b60b650e9b9dc4>@@V<lambda_7923d86c9e3f319b415918ec4b39749c>@@@?$__crt_seh_guarded_call@H@@QAEH$$QAV<lambda_ab9923ffb5d694ec0d78876dd103e44f>@@AAV<lambda_481dd5778c961fbcd3b60b650e9b9dc4>@@$$QAV<lambda_7923d86c9e3f319b415918ec4b39749c>@@@Z 10021362 f i libucrt:output.obj
 0001:000203c7       ??$?RV<lambda_db08b09ef7aa9d4f8620ce68402612bc>@@AAV<lambda_4f2c1eaeead2a5fc776db5b62ea0fb9b>@@V<lambda_3ae262bc35d4ba6a3825c4f6bcaaf95c>@@@?$__crt_seh_guarded_call@H@@QAEH$$QAV<lambda_db08b09ef7aa9d4f8620ce68402612bc>@@AAV<lambda_4f2c1eaeead2a5fc776db5b62ea0fb9b>@@$$QAV<lambda_3ae262bc35d4ba6a3825c4f6bcaaf95c>@@@Z 100213c7 f i libucrt:output.obj
 0001:0002042c       ??$__acrt_lock_stream_and_call@V<lambda_0a97c9e57da7be065955385c79108ff2>@@@@YAHQAU_iobuf@@$$QAV<lambda_0a97c9e57da7be065955385c79108ff2>@@@Z 1002142c f i libucrt:output.obj
 0001:0002045e       ??$__acrt_lock_stream_and_call@V<lambda_2565fc715a641e539f44ad02d6823606>@@@@YAHQAU_iobuf@@$$QAV<lambda_2565fc715a641e539f44ad02d6823606>@@@Z 1002145e f i libucrt:output.obj
 0001:00020490       ??$__acrt_lock_stream_and_call@V<lambda_481dd5778c961fbcd3b60b650e9b9dc4>@@@@YAHQAU_iobuf@@$$QAV<lambda_481dd5778c961fbcd3b60b650e9b9dc4>@@@Z 10021490 f i libucrt:output.obj
 0001:000204c2       ??$__acrt_lock_stream_and_call@V<lambda_4f2c1eaeead2a5fc776db5b62ea0fb9b>@@@@YAHQAU_iobuf@@$$QAV<lambda_4f2c1eaeead2a5fc776db5b62ea0fb9b>@@@Z 100214c2 f i libucrt:output.obj
 0001:000204f4       ??$__acrt_lock_stream_and_call@V<lambda_63a10c2dc8dbb9e4dd1890be52af7c93>@@@@YAHQAU_iobuf@@$$QAV<lambda_63a10c2dc8dbb9e4dd1890be52af7c93>@@@Z 100214f4 f i libucrt:output.obj
 0001:00020526       ??$__acrt_lock_stream_and_call@V<lambda_e516058a9c289d98c8ca9fea99247804>@@@@YAHQAU_iobuf@@$$QAV<lambda_e516058a9c289d98c8ca9fea99247804>@@@Z 10021526 f i libucrt:output.obj
 0001:00020558       ??$__crt_interlocked_read@J@@YAJPDJ@Z 10021558 f i libucrt:output.obj
 0001:000217a3       ??$count@D@formatting_buffer@__crt_stdio_output@@QBEIXZ 100227a3 f i libucrt:output.obj
 0001:000217c1       ??$data@D@formatting_buffer@__crt_stdio_output@@QAEPADXZ 100227c1 f i libucrt:output.obj
 0001:000217d1       ??$data@_W@formatting_buffer@__crt_stdio_output@@QAEPA_WXZ 100227d1 f i libucrt:output.obj
 0001:000217e1       ??$ensure_buffer_is_big_enough@D@formatting_buffer@__crt_stdio_output@@QAE_NI@Z 100227e1 f i libucrt:output.obj
 0001:00021888       ??$extract_argument_from_va_list@C_J@?$positional_parameter_base@DV?$stream_output_adapter@D@__crt_stdio_output@@@__crt_stdio_output@@IAE_NAA_J@Z 10022888 f i libucrt:output.obj
 0001:00021926       ??$extract_argument_from_va_list@C_J@?$positional_parameter_base@DV?$string_output_adapter@D@__crt_stdio_output@@@__crt_stdio_output@@IAE_NAA_J@Z 10022926 f i libucrt:output.obj
 0001:000219c4       ??$extract_argument_from_va_list@C_J@?$positional_parameter_base@_WV?$stream_output_adapter@_W@__crt_stdio_output@@@__crt_stdio_output@@IAE_NAA_J@Z 100229c4 f i libucrt:output.obj
 0001:00021a62       ??$extract_argument_from_va_list@C_J@?$positional_parameter_base@_WV?$string_output_adapter@_W@__crt_stdio_output@@@__crt_stdio_output@@IAE_NAA_J@Z 10022a62 f i libucrt:output.obj
 0001:00021b00       ??$extract_argument_from_va_list@C_J@?$standard_base@DV?$stream_output_adapter@D@__crt_stdio_output@@@__crt_stdio_output@@IAE_NAA_J@Z 10022b00 f i libucrt:output.obj
 0001:00021b26       ??$extract_argument_from_va_list@C_J@?$standard_base@DV?$string_output_adapter@D@__crt_stdio_output@@@__crt_stdio_output@@IAE_NAA_J@Z 10022b26 f i libucrt:output.obj
 0001:00021b4c       ??$extract_argument_from_va_list@C_J@?$standard_base@_WV?$stream_output_adapter@_W@__crt_stdio_output@@@__crt_stdio_output@@IAE_NAA_J@Z 10022b4c f i libucrt:output.obj
 0001:00021b72       ??$extract_argument_from_va_list@C_J@?$standard_base@_WV?$string_output_adapter@_W@__crt_stdio_output@@@__crt_stdio_output@@IAE_NAA_J@Z 10022b72 f i libucrt:output.obj
 0001:00021b98       ??$extract_argument_from_va_list@E_J@?$positional_parameter_base@DV?$stream_output_adapter@D@__crt_stdio_output@@@__crt_stdio_output@@IAE_NAA_J@Z 10022b98 f i libucrt:output.obj
 0001:00021c36       ??$extract_argument_from_va_list@E_J@?$positional_parameter_base@DV?$string_output_adapter@D@__crt_stdio_output@@@__crt_stdio_output@@IAE_NAA_J@Z 10022c36 f i libucrt:output.obj
 0001:00021cd4       ??$extract_argument_from_va_list@E_J@?$positional_parameter_base@_WV?$stream_output_adapter@_W@__crt_stdio_output@@@__crt_stdio_output@@IAE_NAA_J@Z 10022cd4 f i libucrt:output.obj
 0001:00021d72       ??$extract_argument_from_va_list@E_J@?$positional_parameter_base@_WV?$string_output_adapter@_W@__crt_stdio_output@@@__crt_stdio_output@@IAE_NAA_J@Z 10022d72 f i libucrt:output.obj
 0001:00021e10       ??$extract_argument_from_va_list@E_J@?$standard_base@DV?$stream_output_adapter@D@__crt_stdio_output@@@__crt_stdio_output@@IAE_NAA_J@Z 10022e10 f i libucrt:output.obj
 0001:00021e36       ??$extract_argument_from_va_list@E_J@?$standard_base@DV?$string_output_adapter@D@__crt_stdio_output@@@__crt_stdio_output@@IAE_NAA_J@Z 10022e36 f i libucrt:output.obj
 0001:00021e5c       ??$extract_argument_from_va_list@E_J@?$standard_base@_WV?$stream_output_adapter@_W@__crt_stdio_output@@@__crt_stdio_output@@IAE_NAA_J@Z 10022e5c f i libucrt:output.obj
 0001:00021e82       ??$extract_argument_from_va_list@E_J@?$standard_base@_WV?$string_output_adapter@_W@__crt_stdio_output@@@__crt_stdio_output@@IAE_NAA_J@Z 10022e82 f i libucrt:output.obj
 0001:00021ea8       ??$extract_argument_from_va_list@F_J@?$positional_parameter_base@DV?$stream_output_adapter@D@__crt_stdio_output@@@__crt_stdio_output@@IAE_NAA_J@Z 10022ea8 f i libucrt:output.obj
 0001:00021f46       ??$extract_argument_from_va_list@F_J@?$positional_parameter_base@DV?$string_output_adapter@D@__crt_stdio_output@@@__crt_stdio_output@@IAE_NAA_J@Z 10022f46 f i libucrt:output.obj
 0001:00021fe4       ??$extract_argument_from_va_list@F_J@?$positional_parameter_base@_WV?$stream_output_adapter@_W@__crt_stdio_output@@@__crt_stdio_output@@IAE_NAA_J@Z 10022fe4 f i libucrt:output.obj
 0001:00022082       ??$extract_argument_from_va_list@F_J@?$positional_parameter_base@_WV?$string_output_adapter@_W@__crt_stdio_output@@@__crt_stdio_output@@IAE_NAA_J@Z 10023082 f i libucrt:output.obj
 0001:00022120       ??$extract_argument_from_va_list@F_J@?$standard_base@DV?$stream_output_adapter@D@__crt_stdio_output@@@__crt_stdio_output@@IAE_NAA_J@Z 10023120 f i libucrt:output.obj
 0001:00022146       ??$extract_argument_from_va_list@F_J@?$standard_base@DV?$string_output_adapter@D@__crt_stdio_output@@@__crt_stdio_output@@IAE_NAA_J@Z 10023146 f i libucrt:output.obj
 0001:0002216c       ??$extract_argument_from_va_list@F_J@?$standard_base@_WV?$stream_output_adapter@_W@__crt_stdio_output@@@__crt_stdio_output@@IAE_NAA_J@Z 1002316c f i libucrt:output.obj
 0001:00022192       ??$extract_argument_from_va_list@F_J@?$standard_base@_WV?$string_output_adapter@_W@__crt_stdio_output@@@__crt_stdio_output@@IAE_NAA_J@Z 10023192 f i libucrt:output.obj
 0001:000221b8       ??$extract_argument_from_va_list@GD@?$positional_parameter_base@DV?$stream_output_adapter@D@__crt_stdio_output@@@__crt_stdio_output@@IAE_NAAD@Z 100231b8 f i libucrt:output.obj
 0001:00022255       ??$extract_argument_from_va_list@GD@?$positional_parameter_base@DV?$string_output_adapter@D@__crt_stdio_output@@@__crt_stdio_output@@IAE_NAAD@Z 10023255 f i libucrt:output.obj
 0001:000222f2       ??$extract_argument_from_va_list@GD@?$standard_base@DV?$stream_output_adapter@D@__crt_stdio_output@@@__crt_stdio_output@@IAE_NAAD@Z 100232f2 f i libucrt:output.obj
 0001:00022312       ??$extract_argument_from_va_list@GD@?$standard_base@DV?$string_output_adapter@D@__crt_stdio_output@@@__crt_stdio_output@@IAE_NAAD@Z 10023312 f i libucrt:output.obj
 0001:00022332       ??$extract_argument_from_va_list@G_J@?$positional_parameter_base@DV?$stream_output_adapter@D@__crt_stdio_output@@@__crt_stdio_output@@IAE_NAA_J@Z 10023332 f i libucrt:output.obj
 0001:000223d0       ??$extract_argument_from_va_list@G_J@?$positional_parameter_base@DV?$string_output_adapter@D@__crt_stdio_output@@@__crt_stdio_output@@IAE_NAA_J@Z 100233d0 f i libucrt:output.obj
 0001:0002246e       ??$extract_argument_from_va_list@G_J@?$positional_parameter_base@_WV?$stream_output_adapter@_W@__crt_stdio_output@@@__crt_stdio_output@@IAE_NAA_J@Z 1002346e f i libucrt:output.obj
 0001:0002250c       ??$extract_argument_from_va_list@G_J@?$positional_parameter_base@_WV?$string_output_adapter@_W@__crt_stdio_output@@@__crt_stdio_output@@IAE_NAA_J@Z 1002350c f i libucrt:output.obj
 0001:000225aa       ??$extract_argument_from_va_list@G_J@?$standard_base@DV?$stream_output_adapter@D@__crt_stdio_output@@@__crt_stdio_output@@IAE_NAA_J@Z 100235aa f i libucrt:output.obj
 0001:000225d0       ??$extract_argument_from_va_list@G_J@?$standard_base@DV?$string_output_adapter@D@__crt_stdio_output@@@__crt_stdio_output@@IAE_NAA_J@Z 100235d0 f i libucrt:output.obj
 0001:000225f6       ??$extract_argument_from_va_list@G_J@?$standard_base@_WV?$stream_output_adapter@_W@__crt_stdio_output@@@__crt_stdio_output@@IAE_NAA_J@Z 100235f6 f i libucrt:output.obj
 0001:0002261c       ??$extract_argument_from_va_list@G_J@?$standard_base@_WV?$string_output_adapter@_W@__crt_stdio_output@@@__crt_stdio_output@@IAE_NAA_J@Z 1002361c f i libucrt:output.obj
 0001:00022642       ??$extract_argument_from_va_list@H_J@?$positional_parameter_base@DV?$stream_output_adapter@D@__crt_stdio_output@@@__crt_stdio_output@@IAE_NAA_J@Z 10023642 f i libucrt:output.obj
 0001:000226de       ??$extract_argument_from_va_list@H_J@?$positional_parameter_base@DV?$string_output_adapter@D@__crt_stdio_output@@@__crt_stdio_output@@IAE_NAA_J@Z 100236de f i libucrt:output.obj
 0001:0002277a       ??$extract_argument_from_va_list@H_J@?$positional_parameter_base@_WV?$stream_output_adapter@_W@__crt_stdio_output@@@__crt_stdio_output@@IAE_NAA_J@Z 1002377a f i libucrt:output.obj
 0001:00022816       ??$extract_argument_from_va_list@H_J@?$positional_parameter_base@_WV?$string_output_adapter@_W@__crt_stdio_output@@@__crt_stdio_output@@IAE_NAA_J@Z 10023816 f i libucrt:output.obj
 0001:000228b2       ??$extract_argument_from_va_list@H_J@?$standard_base@DV?$stream_output_adapter@D@__crt_stdio_output@@@__crt_stdio_output@@IAE_NAA_J@Z 100238b2 f i libucrt:output.obj
 0001:000228d7       ??$extract_argument_from_va_list@H_J@?$standard_base@DV?$string_output_adapter@D@__crt_stdio_output@@@__crt_stdio_output@@IAE_NAA_J@Z 100238d7 f i libucrt:output.obj
 0001:000228fc       ??$extract_argument_from_va_list@H_J@?$standard_base@_WV?$stream_output_adapter@_W@__crt_stdio_output@@@__crt_stdio_output@@IAE_NAA_J@Z 100238fc f i libucrt:output.obj
 0001:00022921       ??$extract_argument_from_va_list@H_J@?$standard_base@_WV?$string_output_adapter@_W@__crt_stdio_output@@@__crt_stdio_output@@IAE_NAA_J@Z 10023921 f i libucrt:output.obj
 0001:00022946       ??$extract_argument_from_va_list@I_J@?$positional_parameter_base@DV?$stream_output_adapter@D@__crt_stdio_output@@@__crt_stdio_output@@IAE_NAA_J@Z 10023946 f i libucrt:output.obj
 0001:000229ed       ??$extract_argument_from_va_list@I_J@?$positional_parameter_base@DV?$string_output_adapter@D@__crt_stdio_output@@@__crt_stdio_output@@IAE_NAA_J@Z 100239ed f i libucrt:output.obj
 0001:00022a94       ??$extract_argument_from_va_list@I_J@?$positional_parameter_base@_WV?$stream_output_adapter@_W@__crt_stdio_output@@@__crt_stdio_output@@IAE_NAA_J@Z 10023a94 f i libucrt:output.obj
 0001:00022b3b       ??$extract_argument_from_va_list@I_J@?$positional_parameter_base@_WV?$string_output_adapter@_W@__crt_stdio_output@@@__crt_stdio_output@@IAE_NAA_J@Z 10023b3b f i libucrt:output.obj
 0001:00022be2       ??$extract_argument_from_va_list@I_J@?$standard_base@DV?$stream_output_adapter@D@__crt_stdio_output@@@__crt_stdio_output@@IAE_NAA_J@Z 10023be2 f i libucrt:output.obj
 0001:00022c07       ??$extract_argument_from_va_list@I_J@?$standard_base@DV?$string_output_adapter@D@__crt_stdio_output@@@__crt_stdio_output@@IAE_NAA_J@Z 10023c07 f i libucrt:output.obj
 0001:00022c2c       ??$extract_argument_from_va_list@I_J@?$standard_base@_WV?$stream_output_adapter@_W@__crt_stdio_output@@@__crt_stdio_output@@IAE_NAA_J@Z 10023c2c f i libucrt:output.obj
 0001:00022c51       ??$extract_argument_from_va_list@I_J@?$standard_base@_WV?$string_output_adapter@_W@__crt_stdio_output@@@__crt_stdio_output@@IAE_NAA_J@Z 10023c51 f i libucrt:output.obj
 0001:00022c76       ??$extract_argument_from_va_list@PADPAD@?$positional_parameter_base@DV?$stream_output_adapter@D@__crt_stdio_output@@@__crt_stdio_output@@IAE_NAAPAD@Z 10023c76 f i libucrt:output.obj
 0001:00022d13       ??$extract_argument_from_va_list@PADPAD@?$positional_parameter_base@DV?$string_output_adapter@D@__crt_stdio_output@@@__crt_stdio_output@@IAE_NAAPAD@Z 10023d13 f i libucrt:output.obj
 0001:00022db0       ??$extract_argument_from_va_list@PADPAD@?$positional_parameter_base@_WV?$stream_output_adapter@_W@__crt_stdio_output@@@__crt_stdio_output@@IAE_NAAPAD@Z 10023db0 f i libucrt:output.obj
 0001:00022e4d       ??$extract_argument_from_va_list@PADPAD@?$positional_parameter_base@_WV?$string_output_adapter@_W@__crt_stdio_output@@@__crt_stdio_output@@IAE_NAAPAD@Z 10023e4d f i libucrt:output.obj
 0001:00022eea       ??$extract_argument_from_va_list@PADPAD@?$standard_base@DV?$stream_output_adapter@D@__crt_stdio_output@@@__crt_stdio_output@@IAE_NAAPAD@Z 10023eea f i libucrt:output.obj
 0001:00022f0a       ??$extract_argument_from_va_list@PADPAD@?$standard_base@DV?$string_output_adapter@D@__crt_stdio_output@@@__crt_stdio_output@@IAE_NAAPAD@Z 10023f0a f i libucrt:output.obj
 0001:00022f2a       ??$extract_argument_from_va_list@PADPAD@?$standard_base@_WV?$stream_output_adapter@_W@__crt_stdio_output@@@__crt_stdio_output@@IAE_NAAPAD@Z 10023f2a f i libucrt:output.obj
 0001:00022f4a       ??$extract_argument_from_va_list@PADPAD@?$standard_base@_WV?$string_output_adapter@_W@__crt_stdio_output@@@__crt_stdio_output@@IAE_NAAPAD@Z 10023f4a f i libucrt:output.obj
 0001:00022f6a       ??$extract_argument_from_va_list@PAUansi_string@?1??type_case_Z@?$output_processor@DV?$stream_output_adapter@D@__crt_stdio_output@@V?$format_validation_base@DV?$stream_output_adapter@D@__crt_stdio_output@@@2@@__crt_stdio_output@@AAE_NXZ@PAU1?1??234@AAE_NXZ@@?$standard_base@DV?$stream_output_adapter@D@__crt_stdio_output@@@__crt_stdio_output@@IAE_NAAPAUansi_string@?1??type_case_Z@?$output_processor@DV?$stream_output_adapter@D@__crt_stdio_output@@V?$format_validation_base@DV?$stream_output_adapter@D@__crt_stdio_output@@@2@@1@AAE_NXZ@@Z 10023f6a f i libucrt:output.obj
 0001:00022f8a       ??$extract_argument_from_va_list@PAUansi_string@?1??type_case_Z@?$output_processor@DV?$stream_output_adapter@D@__crt_stdio_output@@V?$positional_parameter_base@DV?$stream_output_adapter@D@__crt_stdio_output@@@2@@__crt_stdio_output@@AAE_NXZ@PAU1?1??234@AAE_NXZ@@?$positional_parameter_base@DV?$stream_output_adapter@D@__crt_stdio_output@@@__crt_stdio_output@@IAE_NAAPAUansi_string@?1??type_case_Z@?$output_processor@DV?$stream_output_adapter@D@__crt_stdio_output@@V?$positional_parameter_base@DV?$stream_output_adapter@D@__crt_stdio_output@@@2@@1@AAE_NXZ@@Z 10023f8a f i libucrt:output.obj
 0001:00023027       ??$extract_argument_from_va_list@PAUansi_string@?1??type_case_Z@?$output_processor@DV?$stream_output_adapter@D@__crt_stdio_output@@V?$positional_parameter_base@DV?$stream_output_adapter@D@__crt_stdio_output@@@2@@__crt_stdio_output@@AAE_NXZ@PAU1?1??234@AAE_NXZ@@?$standard_base@DV?$stream_output_adapter@D@__crt_stdio_output@@@__crt_stdio_output@@IAE_NAAPAUansi_string@?1??type_case_Z@?$output_processor@DV?$stream_output_adapter@D@__crt_stdio_output@@V?$positional_parameter_base@DV?$stream_output_adapter@D@__crt_stdio_output@@@2@@1@AAE_NXZ@@Z 10024027 f i libucrt:output.obj
 0001:00023047       ??$extract_argument_from_va_list@PAUansi_string@?1??type_case_Z@?$output_processor@DV?$stream_output_adapter@D@__crt_stdio_output@@V?$standard_base@DV?$stream_output_adapter@D@__crt_stdio_output@@@2@@__crt_stdio_output@@AAE_NXZ@PAU1?1??234@AAE_NXZ@@?$standard_base@DV?$stream_output_adapter@D@__crt_stdio_output@@@__crt_stdio_output@@IAE_NAAPAUansi_string@?1??type_case_Z@?$output_processor@DV?$stream_output_adapter@D@__crt_stdio_output@@V?$standard_base@DV?$stream_output_adapter@D@__crt_stdio_output@@@2@@1@AAE_NXZ@@Z 10024047 f i libucrt:output.obj
 0001:00023067       ??$extract_argument_from_va_list@PAUansi_string@?1??type_case_Z@?$output_processor@DV?$string_output_adapter@D@__crt_stdio_output@@V?$format_validation_base@DV?$string_output_adapter@D@__crt_stdio_output@@@2@@__crt_stdio_output@@AAE_NXZ@PAU1?1??234@AAE_NXZ@@?$standard_base@DV?$string_output_adapter@D@__crt_stdio_output@@@__crt_stdio_output@@IAE_NAAPAUansi_string@?1??type_case_Z@?$output_processor@DV?$string_output_adapter@D@__crt_stdio_output@@V?$format_validation_base@DV?$string_output_adapter@D@__crt_stdio_output@@@2@@1@AAE_NXZ@@Z 10024067 f i libucrt:output.obj
 0001:00023087       ??$extract_argument_from_va_list@PAUansi_string@?1??type_case_Z@?$output_processor@DV?$string_output_adapter@D@__crt_stdio_output@@V?$positional_parameter_base@DV?$string_output_adapter@D@__crt_stdio_output@@@2@@__crt_stdio_output@@AAE_NXZ@PAU1?1??234@AAE_NXZ@@?$positional_parameter_base@DV?$string_output_adapter@D@__crt_stdio_output@@@__crt_stdio_output@@IAE_NAAPAUansi_string@?1??type_case_Z@?$output_processor@DV?$string_output_adapter@D@__crt_stdio_output@@V?$positional_parameter_base@DV?$string_output_adapter@D@__crt_stdio_output@@@2@@1@AAE_NXZ@@Z 10024087 f i libucrt:output.obj
 0001:00023124       ??$extract_argument_from_va_list@PAUansi_string@?1??type_case_Z@?$output_processor@DV?$string_output_adapter@D@__crt_stdio_output@@V?$positional_parameter_base@DV?$string_output_adapter@D@__crt_stdio_output@@@2@@__crt_stdio_output@@AAE_NXZ@PAU1?1??234@AAE_NXZ@@?$standard_base@DV?$string_output_adapter@D@__crt_stdio_output@@@__crt_stdio_output@@IAE_NAAPAUansi_string@?1??type_case_Z@?$output_processor@DV?$string_output_adapter@D@__crt_stdio_output@@V?$positional_parameter_base@DV?$string_output_adapter@D@__crt_stdio_output@@@2@@1@AAE_NXZ@@Z 10024124 f i libucrt:output.obj
 0001:00023144       ??$extract_argument_from_va_list@PAUansi_string@?1??type_case_Z@?$output_processor@DV?$string_output_adapter@D@__crt_stdio_output@@V?$standard_base@DV?$string_output_adapter@D@__crt_stdio_output@@@2@@__crt_stdio_output@@AAE_NXZ@PAU1?1??234@AAE_NXZ@@?$standard_base@DV?$string_output_adapter@D@__crt_stdio_output@@@__crt_stdio_output@@IAE_NAAPAUansi_string@?1??type_case_Z@?$output_processor@DV?$string_output_adapter@D@__crt_stdio_output@@V?$standard_base@DV?$string_output_adapter@D@__crt_stdio_output@@@2@@1@AAE_NXZ@@Z 10024144 f i libucrt:output.obj
 0001:00023164       ??$extract_argument_from_va_list@PAUansi_string@?1??type_case_Z@?$output_processor@_WV?$stream_output_adapter@_W@__crt_stdio_output@@V?$format_validation_base@_WV?$stream_output_adapter@_W@__crt_stdio_output@@@2@@__crt_stdio_output@@AAE_NXZ@PAU1?1??234@AAE_NXZ@@?$standard_base@_WV?$stream_output_adapter@_W@__crt_stdio_output@@@__crt_stdio_output@@IAE_NAAPAUansi_string@?1??type_case_Z@?$output_processor@_WV?$stream_output_adapter@_W@__crt_stdio_output@@V?$format_validation_base@_WV?$stream_output_adapter@_W@__crt_stdio_output@@@2@@1@AAE_NXZ@@Z 10024164 f i libucrt:output.obj
 0001:00023184       ??$extract_argument_from_va_list@PAUansi_string@?1??type_case_Z@?$output_processor@_WV?$stream_output_adapter@_W@__crt_stdio_output@@V?$positional_parameter_base@_WV?$stream_output_adapter@_W@__crt_stdio_output@@@2@@__crt_stdio_output@@AAE_NXZ@PAU1?1??234@AAE_NXZ@@?$positional_parameter_base@_WV?$stream_output_adapter@_W@__crt_stdio_output@@@__crt_stdio_output@@IAE_NAAPAUansi_string@?1??type_case_Z@?$output_processor@_WV?$stream_output_adapter@_W@__crt_stdio_output@@V?$positional_parameter_base@_WV?$stream_output_adapter@_W@__crt_stdio_output@@@2@@1@AAE_NXZ@@Z 10024184 f i libucrt:output.obj
 0001:00023221       ??$extract_argument_from_va_list@PAUansi_string@?1??type_case_Z@?$output_processor@_WV?$stream_output_adapter@_W@__crt_stdio_output@@V?$positional_parameter_base@_WV?$stream_output_adapter@_W@__crt_stdio_output@@@2@@__crt_stdio_output@@AAE_NXZ@PAU1?1??234@AAE_NXZ@@?$standard_base@_WV?$stream_output_adapter@_W@__crt_stdio_output@@@__crt_stdio_output@@IAE_NAAPAUansi_string@?1??type_case_Z@?$output_processor@_WV?$stream_output_adapter@_W@__crt_stdio_output@@V?$positional_parameter_base@_WV?$stream_output_adapter@_W@__crt_stdio_output@@@2@@1@AAE_NXZ@@Z 10024221 f i libucrt:output.obj
 0001:00023241       ??$extract_argument_from_va_list@PAUansi_string@?1??type_case_Z@?$output_processor@_WV?$stream_output_adapter@_W@__crt_stdio_output@@V?$standard_base@_WV?$stream_output_adapter@_W@__crt_stdio_output@@@2@@__crt_stdio_output@@AAE_NXZ@PAU1?1??234@AAE_NXZ@@?$standard_base@_WV?$stream_output_adapter@_W@__crt_stdio_output@@@__crt_stdio_output@@IAE_NAAPAUansi_string@?1??type_case_Z@?$output_processor@_WV?$stream_output_adapter@_W@__crt_stdio_output@@V?$standard_base@_WV?$stream_output_adapter@_W@__crt_stdio_output@@@2@@1@AAE_NXZ@@Z 10024241 f i libucrt:output.obj
 0001:00023261       ??$extract_argument_from_va_list@PAUansi_string@?1??type_case_Z@?$output_processor@_WV?$string_output_adapter@_W@__crt_stdio_output@@V?$format_validation_base@_WV?$string_output_adapter@_W@__crt_stdio_output@@@2@@__crt_stdio_output@@AAE_NXZ@PAU1?1??234@AAE_NXZ@@?$standard_base@_WV?$string_output_adapter@_W@__crt_stdio_output@@@__crt_stdio_output@@IAE_NAAPAUansi_string@?1??type_case_Z@?$output_processor@_WV?$string_output_adapter@_W@__crt_stdio_output@@V?$format_validation_base@_WV?$string_output_adapter@_W@__crt_stdio_output@@@2@@1@AAE_NXZ@@Z 10024261 f i libucrt:output.obj
 0001:00023281       ??$extract_argument_from_va_list@PAUansi_string@?1??type_case_Z@?$output_processor@_WV?$string_output_adapter@_W@__crt_stdio_output@@V?$positional_parameter_base@_WV?$string_output_adapter@_W@__crt_stdio_output@@@2@@__crt_stdio_output@@AAE_NXZ@PAU1?1??234@AAE_NXZ@@?$positional_parameter_base@_WV?$string_output_adapter@_W@__crt_stdio_output@@@__crt_stdio_output@@IAE_NAAPAUansi_string@?1??type_case_Z@?$output_processor@_WV?$string_output_adapter@_W@__crt_stdio_output@@V?$positional_parameter_base@_WV?$string_output_adapter@_W@__crt_stdio_output@@@2@@1@AAE_NXZ@@Z 10024281 f i libucrt:output.obj
 0001:0002331e       ??$extract_argument_from_va_list@PAUansi_string@?1??type_case_Z@?$output_processor@_WV?$string_output_adapter@_W@__crt_stdio_output@@V?$positional_parameter_base@_WV?$string_output_adapter@_W@__crt_stdio_output@@@2@@__crt_stdio_output@@AAE_NXZ@PAU1?1??234@AAE_NXZ@@?$standard_base@_WV?$string_output_adapter@_W@__crt_stdio_output@@@__crt_stdio_output@@IAE_NAAPAUansi_string@?1??type_case_Z@?$output_processor@_WV?$string_output_adapter@_W@__crt_stdio_output@@V?$positional_parameter_base@_WV?$string_output_adapter@_W@__crt_stdio_output@@@2@@1@AAE_NXZ@@Z 1002431e f i libucrt:output.obj
 0001:0002333e       ??$extract_argument_from_va_list@PAUansi_string@?1??type_case_Z@?$output_processor@_WV?$string_output_adapter@_W@__crt_stdio_output@@V?$standard_base@_WV?$string_output_adapter@_W@__crt_stdio_output@@@2@@__crt_stdio_output@@AAE_NXZ@PAU1?1??234@AAE_NXZ@@?$standard_base@_WV?$string_output_adapter@_W@__crt_stdio_output@@@__crt_stdio_output@@IAE_NAAPAUansi_string@?1??type_case_Z@?$output_processor@_WV?$string_output_adapter@_W@__crt_stdio_output@@V?$standard_base@_WV?$string_output_adapter@_W@__crt_stdio_output@@@2@@1@AAE_NXZ@@Z 1002433e f i libucrt:output.obj
 0001:0002335e       ??$extract_argument_from_va_list@PAXPAX@?$positional_parameter_base@DV?$stream_output_adapter@D@__crt_stdio_output@@@__crt_stdio_output@@IAE_NAAPAX@Z 1002435e f i libucrt:output.obj
 0001:000233fb       ??$extract_argument_from_va_list@PAXPAX@?$positional_parameter_base@DV?$string_output_adapter@D@__crt_stdio_output@@@__crt_stdio_output@@IAE_NAAPAX@Z 100243fb f i libucrt:output.obj
 0001:00023498       ??$extract_argument_from_va_list@PAXPAX@?$positional_parameter_base@_WV?$stream_output_adapter@_W@__crt_stdio_output@@@__crt_stdio_output@@IAE_NAAPAX@Z 10024498 f i libucrt:output.obj
 0001:00023535       ??$extract_argument_from_va_list@PAXPAX@?$positional_parameter_base@_WV?$string_output_adapter@_W@__crt_stdio_output@@@__crt_stdio_output@@IAE_NAAPAX@Z 10024535 f i libucrt:output.obj
 0001:000235d2       ??$extract_argument_from_va_list@PAXPAX@?$standard_base@DV?$stream_output_adapter@D@__crt_stdio_output@@@__crt_stdio_output@@IAE_NAAPAX@Z 100245d2 f i libucrt:output.obj
 0001:000235f2       ??$extract_argument_from_va_list@PAXPAX@?$standard_base@DV?$string_output_adapter@D@__crt_stdio_output@@@__crt_stdio_output@@IAE_NAAPAX@Z 100245f2 f i libucrt:output.obj
 0001:00023612       ??$extract_argument_from_va_list@PAXPAX@?$standard_base@_WV?$stream_output_adapter@_W@__crt_stdio_output@@@__crt_stdio_output@@IAE_NAAPAX@Z 10024612 f i libucrt:output.obj
 0001:00023632       ??$extract_argument_from_va_list@PAXPAX@?$standard_base@_WV?$string_output_adapter@_W@__crt_stdio_output@@@__crt_stdio_output@@IAE_NAAPAX@Z 10024632 f i libucrt:output.obj
 0001:00023652       ??$extract_argument_from_va_list@U_CRT_DOUBLE@@U1@@?$positional_parameter_base@DV?$stream_output_adapter@D@__crt_stdio_output@@@__crt_stdio_output@@IAE_NAAU_CRT_DOUBLE@@@Z 10024652 f i libucrt:output.obj
 0001:00023703       ??$extract_argument_from_va_list@U_CRT_DOUBLE@@U1@@?$positional_parameter_base@DV?$string_output_adapter@D@__crt_stdio_output@@@__crt_stdio_output@@IAE_NAAU_CRT_DOUBLE@@@Z 10024703 f i libucrt:output.obj
 0001:000237b4       ??$extract_argument_from_va_list@U_CRT_DOUBLE@@U1@@?$positional_parameter_base@_WV?$stream_output_adapter@_W@__crt_stdio_output@@@__crt_stdio_output@@IAE_NAAU_CRT_DOUBLE@@@Z 100247b4 f i libucrt:output.obj
 0001:00023865       ??$extract_argument_from_va_list@U_CRT_DOUBLE@@U1@@?$positional_parameter_base@_WV?$string_output_adapter@_W@__crt_stdio_output@@@__crt_stdio_output@@IAE_NAAU_CRT_DOUBLE@@@Z 10024865 f i libucrt:output.obj
 0001:00023916       ??$extract_argument_from_va_list@U_CRT_DOUBLE@@U1@@?$standard_base@DV?$stream_output_adapter@D@__crt_stdio_output@@@__crt_stdio_output@@IAE_NAAU_CRT_DOUBLE@@@Z 10024916 f i libucrt:output.obj
 0001:0002393e       ??$extract_argument_from_va_list@U_CRT_DOUBLE@@U1@@?$standard_base@DV?$string_output_adapter@D@__crt_stdio_output@@@__crt_stdio_output@@IAE_NAAU_CRT_DOUBLE@@@Z 1002493e f i libucrt:output.obj
 0001:00023966       ??$extract_argument_from_va_list@U_CRT_DOUBLE@@U1@@?$standard_base@_WV?$stream_output_adapter@_W@__crt_stdio_output@@@__crt_stdio_output@@IAE_NAAU_CRT_DOUBLE@@@Z 10024966 f i libucrt:output.obj
 0001:0002398e       ??$extract_argument_from_va_list@U_CRT_DOUBLE@@U1@@?$standard_base@_WV?$string_output_adapter@_W@__crt_stdio_output@@@__crt_stdio_output@@IAE_NAAU_CRT_DOUBLE@@@Z 1002498e f i libucrt:output.obj
 0001:000239b6       ??$extract_argument_from_va_list@_J_J@?$positional_parameter_base@DV?$stream_output_adapter@D@__crt_stdio_output@@@__crt_stdio_output@@IAE_NAA_J@Z 100249b6 f i libucrt:output.obj
 0001:00023a67       ??$extract_argument_from_va_list@_J_J@?$positional_parameter_base@DV?$string_output_adapter@D@__crt_stdio_output@@@__crt_stdio_output@@IAE_NAA_J@Z 10024a67 f i libucrt:output.obj
 0001:00023b18       ??$extract_argument_from_va_list@_J_J@?$positional_parameter_base@_WV?$stream_output_adapter@_W@__crt_stdio_output@@@__crt_stdio_output@@IAE_NAA_J@Z 10024b18 f i libucrt:output.obj
 0001:00023bc9       ??$extract_argument_from_va_list@_J_J@?$positional_parameter_base@_WV?$string_output_adapter@_W@__crt_stdio_output@@@__crt_stdio_output@@IAE_NAA_J@Z 10024bc9 f i libucrt:output.obj
 0001:00023c7a       ??$extract_argument_from_va_list@_J_J@?$standard_base@DV?$stream_output_adapter@D@__crt_stdio_output@@@__crt_stdio_output@@IAE_NAA_J@Z 10024c7a f i libucrt:output.obj
 0001:00023ca2       ??$extract_argument_from_va_list@_J_J@?$standard_base@DV?$string_output_adapter@D@__crt_stdio_output@@@__crt_stdio_output@@IAE_NAA_J@Z 10024ca2 f i libucrt:output.obj
 0001:00023cca       ??$extract_argument_from_va_list@_J_J@?$standard_base@_WV?$stream_output_adapter@_W@__crt_stdio_output@@@__crt_stdio_output@@IAE_NAA_J@Z 10024cca f i libucrt:output.obj
 0001:00023cf2       ??$extract_argument_from_va_list@_J_J@?$standard_base@_WV?$string_output_adapter@_W@__crt_stdio_output@@@__crt_stdio_output@@IAE_NAA_J@Z 10024cf2 f i libucrt:output.obj
 0001:00023d1a       ??$extract_argument_from_va_list@_K_J@?$positional_parameter_base@DV?$stream_output_adapter@D@__crt_stdio_output@@@__crt_stdio_output@@IAE_NAA_J@Z 10024d1a f i libucrt:output.obj
 0001:00023dcb       ??$extract_argument_from_va_list@_K_J@?$positional_parameter_base@DV?$string_output_adapter@D@__crt_stdio_output@@@__crt_stdio_output@@IAE_NAA_J@Z 10024dcb f i libucrt:output.obj
 0001:00023e7c       ??$extract_argument_from_va_list@_K_J@?$positional_parameter_base@_WV?$stream_output_adapter@_W@__crt_stdio_output@@@__crt_stdio_output@@IAE_NAA_J@Z 10024e7c f i libucrt:output.obj
 0001:00023f2d       ??$extract_argument_from_va_list@_K_J@?$positional_parameter_base@_WV?$string_output_adapter@_W@__crt_stdio_output@@@__crt_stdio_output@@IAE_NAA_J@Z 10024f2d f i libucrt:output.obj
 0001:00023fde       ??$extract_argument_from_va_list@_K_J@?$standard_base@DV?$stream_output_adapter@D@__crt_stdio_output@@@__crt_stdio_output@@IAE_NAA_J@Z 10024fde f i libucrt:output.obj
 0001:00024006       ??$extract_argument_from_va_list@_K_J@?$standard_base@DV?$string_output_adapter@D@__crt_stdio_output@@@__crt_stdio_output@@IAE_NAA_J@Z 10025006 f i libucrt:output.obj
 0001:0002402e       ??$extract_argument_from_va_list@_K_J@?$standard_base@_WV?$stream_output_adapter@_W@__crt_stdio_output@@@__crt_stdio_output@@IAE_NAA_J@Z 1002502e f i libucrt:output.obj
 0001:00024056       ??$extract_argument_from_va_list@_K_J@?$standard_base@_WV?$string_output_adapter@_W@__crt_stdio_output@@@__crt_stdio_output@@IAE_NAA_J@Z 10025056 f i libucrt:output.obj
 0001:0002407e       ??$extract_argument_from_va_list@_W_W@?$positional_parameter_base@DV?$stream_output_adapter@D@__crt_stdio_output@@@__crt_stdio_output@@IAE_NAA_W@Z 1002507e f i libucrt:output.obj
 0001:00024120       ??$extract_argument_from_va_list@_W_W@?$positional_parameter_base@DV?$string_output_adapter@D@__crt_stdio_output@@@__crt_stdio_output@@IAE_NAA_W@Z 10025120 f i libucrt:output.obj
 0001:000241c2       ??$extract_argument_from_va_list@_W_W@?$positional_parameter_base@_WV?$stream_output_adapter@_W@__crt_stdio_output@@@__crt_stdio_output@@IAE_NAA_W@Z 100251c2 f i libucrt:output.obj
 0001:00024264       ??$extract_argument_from_va_list@_W_W@?$positional_parameter_base@_WV?$string_output_adapter@_W@__crt_stdio_output@@@__crt_stdio_output@@IAE_NAA_W@Z 10025264 f i libucrt:output.obj
 0001:00024306       ??$extract_argument_from_va_list@_W_W@?$standard_base@DV?$stream_output_adapter@D@__crt_stdio_output@@@__crt_stdio_output@@IAE_NAA_W@Z 10025306 f i libucrt:output.obj
 0001:00024329       ??$extract_argument_from_va_list@_W_W@?$standard_base@DV?$string_output_adapter@D@__crt_stdio_output@@@__crt_stdio_output@@IAE_NAA_W@Z 10025329 f i libucrt:output.obj
 0001:0002434c       ??$extract_argument_from_va_list@_W_W@?$standard_base@_WV?$stream_output_adapter@_W@__crt_stdio_output@@@__crt_stdio_output@@IAE_NAA_W@Z 1002534c f i libucrt:output.obj
 0001:0002436f       ??$extract_argument_from_va_list@_W_W@?$standard_base@_WV?$string_output_adapter@_W@__crt_stdio_output@@@__crt_stdio_output@@IAE_NAA_W@Z 1002536f f i libucrt:output.obj
 0001:00024392       ??$get_parameter_type@D@?$positional_parameter_base@DV?$stream_output_adapter@D@__crt_stdio_output@@@__crt_stdio_output@@CA?AW4parameter_type@01@PAD@Z 10025392 f i libucrt:output.obj
 0001:00024396       ??$get_parameter_type@D@?$positional_parameter_base@DV?$string_output_adapter@D@__crt_stdio_output@@@__crt_stdio_output@@CA?AW4parameter_type@01@PAD@Z 10025396 f i libucrt:output.obj
 0001:0002439a       ??$get_parameter_type@D@?$positional_parameter_base@_WV?$stream_output_adapter@_W@__crt_stdio_output@@@__crt_stdio_output@@CA?AW4parameter_type@01@PAD@Z 1002539a f i libucrt:output.obj
 0001:0002439e       ??$get_parameter_type@D@?$positional_parameter_base@_WV?$string_output_adapter@_W@__crt_stdio_output@@@__crt_stdio_output@@CA?AW4parameter_type@01@PAD@Z 1002539e f i libucrt:output.obj
 0001:000243a2       ??$get_parameter_type@Uansi_string@?1??type_case_Z@?$output_processor@DV?$stream_output_adapter@D@__crt_stdio_output@@V?$positional_parameter_base@DV?$stream_output_adapter@D@__crt_stdio_output@@@2@@__crt_stdio_output@@AAE_NXZ@@?$positional_parameter_base@DV?$stream_output_adapter@D@__crt_stdio_output@@@__crt_stdio_output@@CA?AW4parameter_type@01@PAUansi_string@?1??type_case_Z@?$output_processor@DV?$stream_output_adapter@D@__crt_stdio_output@@V?$positional_parameter_base@DV?$stream_output_adapter@D@__crt_stdio_output@@@2@@1@AAE_NXZ@@Z 100253a2 f i libucrt:output.obj
 0001:000243a6       ??$get_parameter_type@Uansi_string@?1??type_case_Z@?$output_processor@DV?$string_output_adapter@D@__crt_stdio_output@@V?$positional_parameter_base@DV?$string_output_adapter@D@__crt_stdio_output@@@2@@__crt_stdio_output@@AAE_NXZ@@?$positional_parameter_base@DV?$string_output_adapter@D@__crt_stdio_output@@@__crt_stdio_output@@CA?AW4parameter_type@01@PAUansi_string@?1??type_case_Z@?$output_processor@DV?$string_output_adapter@D@__crt_stdio_output@@V?$positional_parameter_base@DV?$string_output_adapter@D@__crt_stdio_output@@@2@@1@AAE_NXZ@@Z 100253a6 f i libucrt:output.obj
 0001:000243aa       ??$get_parameter_type@Uansi_string@?1??type_case_Z@?$output_processor@_WV?$stream_output_adapter@_W@__crt_stdio_output@@V?$positional_parameter_base@_WV?$stream_output_adapter@_W@__crt_stdio_output@@@2@@__crt_stdio_output@@AAE_NXZ@@?$positional_parameter_base@_WV?$stream_output_adapter@_W@__crt_stdio_output@@@__crt_stdio_output@@CA?AW4parameter_type@01@PAUansi_string@?1??type_case_Z@?$output_processor@_WV?$stream_output_adapter@_W@__crt_stdio_output@@V?$positional_parameter_base@_WV?$stream_output_adapter@_W@__crt_stdio_output@@@2@@1@AAE_NXZ@@Z 100253aa f i libucrt:output.obj
 0001:000243ae       ??$get_parameter_type@Uansi_string@?1??type_case_Z@?$output_processor@_WV?$string_output_adapter@_W@__crt_stdio_output@@V?$positional_parameter_base@_WV?$string_output_adapter@_W@__crt_stdio_output@@@2@@__crt_stdio_output@@AAE_NXZ@@?$positional_parameter_base@_WV?$string_output_adapter@_W@__crt_stdio_output@@@__crt_stdio_output@@CA?AW4parameter_type@01@PAUansi_string@?1??type_case_Z@?$output_processor@_WV?$string_output_adapter@_W@__crt_stdio_output@@V?$positional_parameter_base@_WV?$string_output_adapter@_W@__crt_stdio_output@@@2@@1@AAE_NXZ@@Z 100253ae f i libucrt:output.obj
 0001:000243b2       ??$get_parameter_type@X@?$positional_parameter_base@DV?$stream_output_adapter@D@__crt_stdio_output@@@__crt_stdio_output@@CA?AW4parameter_type@01@PAX@Z 100253b2 f i libucrt:output.obj
 0001:000243b6       ??$get_parameter_type@X@?$positional_parameter_base@DV?$string_output_adapter@D@__crt_stdio_output@@@__crt_stdio_output@@CA?AW4parameter_type@01@PAX@Z 100253b6 f i libucrt:output.obj
 0001:000243ba       ??$get_parameter_type@X@?$positional_parameter_base@_WV?$stream_output_adapter@_W@__crt_stdio_output@@@__crt_stdio_output@@CA?AW4parameter_type@01@PAX@Z 100253ba f i libucrt:output.obj
 0001:000243be       ??$get_parameter_type@X@?$positional_parameter_base@_WV?$string_output_adapter@_W@__crt_stdio_output@@@__crt_stdio_output@@CA?AW4parameter_type@01@PAX@Z 100253be f i libucrt:output.obj
 0001:000243c2       ??$is_character_specifier@D@?$positional_parameter_base@DV?$stream_output_adapter@D@__crt_stdio_output@@@__crt_stdio_output@@CA_ND@Z 100253c2 f i libucrt:output.obj
 0001:000243e1       ??$is_character_specifier@D@?$positional_parameter_base@DV?$string_output_adapter@D@__crt_stdio_output@@@__crt_stdio_output@@CA_ND@Z 100253e1 f i libucrt:output.obj
 0001:00024400       ??$is_character_specifier@_W@?$positional_parameter_base@_WV?$stream_output_adapter@_W@__crt_stdio_output@@@__crt_stdio_output@@CA_N_W@Z 10025400 f i libucrt:output.obj
 0001:00024423       ??$is_character_specifier@_W@?$positional_parameter_base@_WV?$string_output_adapter@_W@__crt_stdio_output@@@__crt_stdio_output@@CA_N_W@Z 10025423 f i libucrt:output.obj
 0001:00024446       ??$is_integral_specifier@D@?$positional_parameter_base@DV?$stream_output_adapter@D@__crt_stdio_output@@@__crt_stdio_output@@CA_ND@Z 10025446 f i libucrt:output.obj
 0001:0002447e       ??$is_integral_specifier@D@?$positional_parameter_base@DV?$string_output_adapter@D@__crt_stdio_output@@@__crt_stdio_output@@CA_ND@Z 1002547e f i libucrt:output.obj
 0001:000244b6       ??$is_integral_specifier@_W@?$positional_parameter_base@_WV?$stream_output_adapter@_W@__crt_stdio_output@@@__crt_stdio_output@@CA_N_W@Z 100254b6 f i libucrt:output.obj
 0001:00024501       ??$is_integral_specifier@_W@?$positional_parameter_base@_WV?$string_output_adapter@_W@__crt_stdio_output@@@__crt_stdio_output@@CA_N_W@Z 10025501 f i libucrt:output.obj
 0001:0002454c       ??$is_pointer_specifier@D@?$positional_parameter_base@DV?$stream_output_adapter@D@__crt_stdio_output@@@__crt_stdio_output@@CA_ND@Z 1002554c f i libucrt:output.obj
 0001:00024560       ??$is_pointer_specifier@D@?$positional_parameter_base@DV?$string_output_adapter@D@__crt_stdio_output@@@__crt_stdio_output@@CA_ND@Z 10025560 f i libucrt:output.obj
 0001:00024574       ??$is_pointer_specifier@_W@?$positional_parameter_base@_WV?$stream_output_adapter@_W@__crt_stdio_output@@@__crt_stdio_output@@CA_N_W@Z 10025574 f i libucrt:output.obj
 0001:00024589       ??$is_pointer_specifier@_W@?$positional_parameter_base@_WV?$string_output_adapter@_W@__crt_stdio_output@@@__crt_stdio_output@@CA_N_W@Z 10025589 f i libucrt:output.obj
 0001:0002459e       ??$is_string_specifier@D@?$positional_parameter_base@DV?$stream_output_adapter@D@__crt_stdio_output@@@__crt_stdio_output@@CA_ND@Z 1002559e f i libucrt:output.obj
 0001:000245bd       ??$is_string_specifier@D@?$positional_parameter_base@DV?$string_output_adapter@D@__crt_stdio_output@@@__crt_stdio_output@@CA_ND@Z 100255bd f i libucrt:output.obj
 0001:000245dc       ??$is_string_specifier@_W@?$positional_parameter_base@_WV?$stream_output_adapter@_W@__crt_stdio_output@@@__crt_stdio_output@@CA_N_W@Z 100255dc f i libucrt:output.obj
 0001:000245ff       ??$is_string_specifier@_W@?$positional_parameter_base@_WV?$string_output_adapter@_W@__crt_stdio_output@@@__crt_stdio_output@@CA_N_W@Z 100255ff f i libucrt:output.obj
 0001:00024622       ??$is_wide_character_specifier@D@__crt_stdio_output@@YA_N_KDW4length_modifier@0@@Z 10025622 f i libucrt:output.obj
 0001:00024672       ??$is_wide_character_specifier@_W@__crt_stdio_output@@YA_N_K_WW4length_modifier@0@@Z 10025672 f i libucrt:output.obj
 0001:000246d4       ??$peek_va_arg@C@__crt_stdio_output@@YACPAD@Z 100256d4 f i libucrt:output.obj
 0001:000246e3       ??$peek_va_arg@E@__crt_stdio_output@@YAEPAD@Z 100256e3 f i libucrt:output.obj
 0001:000246f2       ??$peek_va_arg@F@__crt_stdio_output@@YAFPAD@Z 100256f2 f i libucrt:output.obj
 0001:00024702       ??$peek_va_arg@G@__crt_stdio_output@@YAGPAD@Z 10025702 f i libucrt:output.obj
 0001:00024712       ??$peek_va_arg@H@__crt_stdio_output@@YAHPAD@Z 10025712 f i libucrt:output.obj
 0001:00024721       ??$peek_va_arg@I@__crt_stdio_output@@YAIPAD@Z 10025721 f i libucrt:output.obj
 0001:00024730       ??$peek_va_arg@PAD@__crt_stdio_output@@YAPADPAD@Z 10025730 f i libucrt:output.obj
 0001:0002473f       ??$peek_va_arg@PAUansi_string@?1??type_case_Z@?$output_processor@DV?$stream_output_adapter@D@__crt_stdio_output@@V?$positional_parameter_base@DV?$stream_output_adapter@D@__crt_stdio_output@@@2@@__crt_stdio_output@@AAE_NXZ@@__crt_stdio_output@@YAPAUansi_string@?1??type_case_Z@?$output_processor@DV?$stream_output_adapter@D@__crt_stdio_output@@V?$positional_parameter_base@DV?$stream_output_adapter@D@__crt_stdio_output@@@2@@0@AAE_NXZ@PAD@Z 1002573f f i libucrt:output.obj
 0001:0002474e       ??$peek_va_arg@PAUansi_string@?1??type_case_Z@?$output_processor@DV?$string_output_adapter@D@__crt_stdio_output@@V?$positional_parameter_base@DV?$string_output_adapter@D@__crt_stdio_output@@@2@@__crt_stdio_output@@AAE_NXZ@@__crt_stdio_output@@YAPAUansi_string@?1??type_case_Z@?$output_processor@DV?$string_output_adapter@D@__crt_stdio_output@@V?$positional_parameter_base@DV?$string_output_adapter@D@__crt_stdio_output@@@2@@0@AAE_NXZ@PAD@Z 1002574e f i libucrt:output.obj
 0001:0002475d       ??$peek_va_arg@PAUansi_string@?1??type_case_Z@?$output_processor@_WV?$stream_output_adapter@_W@__crt_stdio_output@@V?$positional_parameter_base@_WV?$stream_output_adapter@_W@__crt_stdio_output@@@2@@__crt_stdio_output@@AAE_NXZ@@__crt_stdio_output@@YAPAUansi_string@?1??type_case_Z@?$output_processor@_WV?$stream_output_adapter@_W@__crt_stdio_output@@V?$positional_parameter_base@_WV?$stream_output_adapter@_W@__crt_stdio_output@@@2@@0@AAE_NXZ@PAD@Z 1002575d f i libucrt:output.obj
 0001:0002476c       ??$peek_va_arg@PAUansi_string@?1??type_case_Z@?$output_processor@_WV?$string_output_adapter@_W@__crt_stdio_output@@V?$positional_parameter_base@_WV?$string_output_adapter@_W@__crt_stdio_output@@@2@@__crt_stdio_output@@AAE_NXZ@@__crt_stdio_output@@YAPAUansi_string@?1??type_case_Z@?$output_processor@_WV?$string_output_adapter@_W@__crt_stdio_output@@V?$positional_parameter_base@_WV?$string_output_adapter@_W@__crt_stdio_output@@@2@@0@AAE_NXZ@PAD@Z 1002576c f i libucrt:output.obj
 0001:0002477b       ??$peek_va_arg@PAX@__crt_stdio_output@@YAPAXPAD@Z 1002577b f i libucrt:output.obj
 0001:0002478a       ??$peek_va_arg@U_CRT_DOUBLE@@@__crt_stdio_output@@YA?AU_CRT_DOUBLE@@PAD@Z 1002578a f i libucrt:output.obj
 0001:0002479c       ??$peek_va_arg@_J@__crt_stdio_output@@YA_JPAD@Z 1002579c f i libucrt:output.obj
 0001:000247ae       ??$peek_va_arg@_K@__crt_stdio_output@@YA_KPAD@Z 100257ae f i libucrt:output.obj
 0001:000247c0       ??$peek_va_arg@_W@__crt_stdio_output@@YA_WPAD@Z 100257c0 f i libucrt:output.obj
 0001:000247d0       ??$puttc_nolock@ABDPAU_iobuf@@@?$__crt_char_traits@D@@SAHABD$$QAPAU_iobuf@@@Z 100257d0 f i libucrt:output.obj
 0001:000247f0       ??$puttc_nolock@AB_WPAU_iobuf@@@?$__crt_char_traits@_W@@SAGAB_W$$QAPAU_iobuf@@@Z 100257f0 f i libucrt:output.obj
 0001:00024810       ??$read_va_arg@C@__crt_stdio_output@@YACAAPAD@Z 10025810 f i libucrt:output.obj
 0001:00024826       ??$read_va_arg@E@__crt_stdio_output@@YAEAAPAD@Z 10025826 f i libucrt:output.obj
 0001:0002483c       ??$read_va_arg@F@__crt_stdio_output@@YAFAAPAD@Z 1002583c f i libucrt:output.obj
 0001:00024853       ??$read_va_arg@G@__crt_stdio_output@@YAGAAPAD@Z 10025853 f i libucrt:output.obj
 0001:0002486a       ??$read_va_arg@H@__crt_stdio_output@@YAHAAPAD@Z 1002586a f i libucrt:output.obj
 0001:00024880       ??$read_va_arg@I@__crt_stdio_output@@YAIAAPAD@Z 10025880 f i libucrt:output.obj
 0001:00024896       ??$read_va_arg@PAD@__crt_stdio_output@@YAPADAAPAD@Z 10025896 f i libucrt:output.obj
 0001:000248ac       ??$read_va_arg@PAUansi_string@?1??type_case_Z@?$output_processor@DV?$stream_output_adapter@D@__crt_stdio_output@@V?$format_validation_base@DV?$stream_output_adapter@D@__crt_stdio_output@@@2@@__crt_stdio_output@@AAE_NXZ@@__crt_stdio_output@@YAPAUansi_string@?1??type_case_Z@?$output_processor@DV?$stream_output_adapter@D@__crt_stdio_output@@V?$format_validation_base@DV?$stream_output_adapter@D@__crt_stdio_output@@@2@@0@AAE_NXZ@AAPAD@Z 100258ac f i libucrt:output.obj
 0001:000248c2       ??$read_va_arg@PAUansi_string@?1??type_case_Z@?$output_processor@DV?$stream_output_adapter@D@__crt_stdio_output@@V?$positional_parameter_base@DV?$stream_output_adapter@D@__crt_stdio_output@@@2@@__crt_stdio_output@@AAE_NXZ@@__crt_stdio_output@@YAPAUansi_string@?1??type_case_Z@?$output_processor@DV?$stream_output_adapter@D@__crt_stdio_output@@V?$positional_parameter_base@DV?$stream_output_adapter@D@__crt_stdio_output@@@2@@0@AAE_NXZ@AAPAD@Z 100258c2 f i libucrt:output.obj
 0001:000248d8       ??$read_va_arg@PAUansi_string@?1??type_case_Z@?$output_processor@DV?$stream_output_adapter@D@__crt_stdio_output@@V?$standard_base@DV?$stream_output_adapter@D@__crt_stdio_output@@@2@@__crt_stdio_output@@AAE_NXZ@@__crt_stdio_output@@YAPAUansi_string@?1??type_case_Z@?$output_processor@DV?$stream_output_adapter@D@__crt_stdio_output@@V?$standard_base@DV?$stream_output_adapter@D@__crt_stdio_output@@@2@@0@AAE_NXZ@AAPAD@Z 100258d8 f i libucrt:output.obj
 0001:000248ee       ??$read_va_arg@PAUansi_string@?1??type_case_Z@?$output_processor@DV?$string_output_adapter@D@__crt_stdio_output@@V?$format_validation_base@DV?$string_output_adapter@D@__crt_stdio_output@@@2@@__crt_stdio_output@@AAE_NXZ@@__crt_stdio_output@@YAPAUansi_string@?1??type_case_Z@?$output_processor@DV?$string_output_adapter@D@__crt_stdio_output@@V?$format_validation_base@DV?$string_output_adapter@D@__crt_stdio_output@@@2@@0@AAE_NXZ@AAPAD@Z 100258ee f i libucrt:output.obj
 0001:00024904       ??$read_va_arg@PAUansi_string@?1??type_case_Z@?$output_processor@DV?$string_output_adapter@D@__crt_stdio_output@@V?$positional_parameter_base@DV?$string_output_adapter@D@__crt_stdio_output@@@2@@__crt_stdio_output@@AAE_NXZ@@__crt_stdio_output@@YAPAUansi_string@?1??type_case_Z@?$output_processor@DV?$string_output_adapter@D@__crt_stdio_output@@V?$positional_parameter_base@DV?$string_output_adapter@D@__crt_stdio_output@@@2@@0@AAE_NXZ@AAPAD@Z 10025904 f i libucrt:output.obj
 0001:0002491a       ??$read_va_arg@PAUansi_string@?1??type_case_Z@?$output_processor@DV?$string_output_adapter@D@__crt_stdio_output@@V?$standard_base@DV?$string_output_adapter@D@__crt_stdio_output@@@2@@__crt_stdio_output@@AAE_NXZ@@__crt_stdio_output@@YAPAUansi_string@?1??type_case_Z@?$output_processor@DV?$string_output_adapter@D@__crt_stdio_output@@V?$standard_base@DV?$string_output_adapter@D@__crt_stdio_output@@@2@@0@AAE_NXZ@AAPAD@Z 1002591a f i libucrt:output.obj
 0001:00024930       ??$read_va_arg@PAUansi_string@?1??type_case_Z@?$output_processor@_WV?$stream_output_adapter@_W@__crt_stdio_output@@V?$format_validation_base@_WV?$stream_output_adapter@_W@__crt_stdio_output@@@2@@__crt_stdio_output@@AAE_NXZ@@__crt_stdio_output@@YAPAUansi_string@?1??type_case_Z@?$output_processor@_WV?$stream_output_adapter@_W@__crt_stdio_output@@V?$format_validation_base@_WV?$stream_output_adapter@_W@__crt_stdio_output@@@2@@0@AAE_NXZ@AAPAD@Z 10025930 f i libucrt:output.obj
 0001:00024946       ??$read_va_arg@PAUansi_string@?1??type_case_Z@?$output_processor@_WV?$stream_output_adapter@_W@__crt_stdio_output@@V?$positional_parameter_base@_WV?$stream_output_adapter@_W@__crt_stdio_output@@@2@@__crt_stdio_output@@AAE_NXZ@@__crt_stdio_output@@YAPAUansi_string@?1??type_case_Z@?$output_processor@_WV?$stream_output_adapter@_W@__crt_stdio_output@@V?$positional_parameter_base@_WV?$stream_output_adapter@_W@__crt_stdio_output@@@2@@0@AAE_NXZ@AAPAD@Z 10025946 f i libucrt:output.obj
 0001:0002495c       ??$read_va_arg@PAUansi_string@?1??type_case_Z@?$output_processor@_WV?$stream_output_adapter@_W@__crt_stdio_output@@V?$standard_base@_WV?$stream_output_adapter@_W@__crt_stdio_output@@@2@@__crt_stdio_output@@AAE_NXZ@@__crt_stdio_output@@YAPAUansi_string@?1??type_case_Z@?$output_processor@_WV?$stream_output_adapter@_W@__crt_stdio_output@@V?$standard_base@_WV?$stream_output_adapter@_W@__crt_stdio_output@@@2@@0@AAE_NXZ@AAPAD@Z 1002595c f i libucrt:output.obj
 0001:00024972       ??$read_va_arg@PAUansi_string@?1??type_case_Z@?$output_processor@_WV?$string_output_adapter@_W@__crt_stdio_output@@V?$format_validation_base@_WV?$string_output_adapter@_W@__crt_stdio_output@@@2@@__crt_stdio_output@@AAE_NXZ@@__crt_stdio_output@@YAPAUansi_string@?1??type_case_Z@?$output_processor@_WV?$string_output_adapter@_W@__crt_stdio_output@@V?$format_validation_base@_WV?$string_output_adapter@_W@__crt_stdio_output@@@2@@0@AAE_NXZ@AAPAD@Z 10025972 f i libucrt:output.obj
 0001:00024988       ??$read_va_arg@PAUansi_string@?1??type_case_Z@?$output_processor@_WV?$string_output_adapter@_W@__crt_stdio_output@@V?$positional_parameter_base@_WV?$string_output_adapter@_W@__crt_stdio_output@@@2@@__crt_stdio_output@@AAE_NXZ@@__crt_stdio_output@@YAPAUansi_string@?1??type_case_Z@?$output_processor@_WV?$string_output_adapter@_W@__crt_stdio_output@@V?$positional_parameter_base@_WV?$string_output_adapter@_W@__crt_stdio_output@@@2@@0@AAE_NXZ@AAPAD@Z 10025988 f i libucrt:output.obj
 0001:0002499e       ??$read_va_arg@PAUansi_string@?1??type_case_Z@?$output_processor@_WV?$string_output_adapter@_W@__crt_stdio_output@@V?$standard_base@_WV?$string_output_adapter@_W@__crt_stdio_output@@@2@@__crt_stdio_output@@AAE_NXZ@@__crt_stdio_output@@YAPAUansi_string@?1??type_case_Z@?$output_processor@_WV?$string_output_adapter@_W@__crt_stdio_output@@V?$standard_base@_WV?$string_output_adapter@_W@__crt_stdio_output@@@2@@0@AAE_NXZ@AAPAD@Z 1002599e f i libucrt:output.obj
 0001:000249b4       ??$read_va_arg@PAX@__crt_stdio_output@@YAPAXAAPAD@Z 100259b4 f i libucrt:output.obj
 0001:000249ca       ??$read_va_arg@U_CRT_DOUBLE@@@__crt_stdio_output@@YA?AU_CRT_DOUBLE@@AAPAD@Z 100259ca f i libucrt:output.obj
 0001:000249e4       ??$read_va_arg@_J@__crt_stdio_output@@YA_JAAPAD@Z 100259e4 f i libucrt:output.obj
 0001:000249fe       ??$read_va_arg@_K@__crt_stdio_output@@YA_KAAPAD@Z 100259fe f i libucrt:output.obj
 0001:00024a18       ??$read_va_arg@_W@__crt_stdio_output@@YA_WAAPAD@Z 10025a18 f i libucrt:output.obj
 0001:00024a2f       ??$scratch_count@D@formatting_buffer@__crt_stdio_output@@QBEIXZ 10025a2f f i libucrt:output.obj
 0001:00024a34       ??$scratch_data@D@formatting_buffer@__crt_stdio_output@@QAEPADXZ 10025a34 f i libucrt:output.obj
 0001:00024a59       ??$tcstol@AAPBDPAPADH@?$__crt_char_traits@D@@SAJAAPBD$$QAPAPAD$$QAH@Z 10025a59 f i libucrt:output.obj
 0001:00024a7e       ??$tcstol@AAPB_WPAPA_WH@?$__crt_char_traits@_W@@SAJAAPB_W$$QAPAPA_W$$QAH@Z 10025a7e f i libucrt:output.obj
 0001:00024aa3       ??$tcstol@PBDPAPADH@?$__crt_char_traits@D@@SAJ$$QAPBD$$QAPAPAD$$QAH@Z 10025aa3 f i libucrt:output.obj
 0001:00024ac8       ??$tcstol@PB_WPAPA_WH@?$__crt_char_traits@_W@@SAJ$$QAPB_W$$QAPAPA_W$$QAH@Z 10025ac8 f i libucrt:output.obj
 0001:00024aed       ??$type_case_integer_parse_into_buffer@I@?$output_processor@DV?$stream_output_adapter@D@__crt_stdio_output@@V?$format_validation_base@DV?$stream_output_adapter@D@__crt_stdio_output@@@2@@__crt_stdio_output@@AAEXII_N@Z 10025aed f i libucrt:output.obj
 0001:00024b7f       ??$type_case_integer_parse_into_buffer@I@?$output_processor@DV?$stream_output_adapter@D@__crt_stdio_output@@V?$positional_parameter_base@DV?$stream_output_adapter@D@__crt_stdio_output@@@2@@__crt_stdio_output@@AAEXII_N@Z 10025b7f f i libucrt:output.obj
 0001:00024c11       ??$type_case_integer_parse_into_buffer@I@?$output_processor@DV?$stream_output_adapter@D@__crt_stdio_output@@V?$standard_base@DV?$stream_output_adapter@D@__crt_stdio_output@@@2@@__crt_stdio_output@@AAEXII_N@Z 10025c11 f i libucrt:output.obj
 0001:00024ca3       ??$type_case_integer_parse_into_buffer@I@?$output_processor@DV?$string_output_adapter@D@__crt_stdio_output@@V?$format_validation_base@DV?$string_output_adapter@D@__crt_stdio_output@@@2@@__crt_stdio_output@@AAEXII_N@Z 10025ca3 f i libucrt:output.obj
 0001:00024d35       ??$type_case_integer_parse_into_buffer@I@?$output_processor@DV?$string_output_adapter@D@__crt_stdio_output@@V?$positional_parameter_base@DV?$string_output_adapter@D@__crt_stdio_output@@@2@@__crt_stdio_output@@AAEXII_N@Z 10025d35 f i libucrt:output.obj
 0001:00024dc7       ??$type_case_integer_parse_into_buffer@I@?$output_processor@DV?$string_output_adapter@D@__crt_stdio_output@@V?$standard_base@DV?$string_output_adapter@D@__crt_stdio_output@@@2@@__crt_stdio_output@@AAEXII_N@Z 10025dc7 f i libucrt:output.obj
 0001:00024e59       ??$type_case_integer_parse_into_buffer@I@?$output_processor@_WV?$stream_output_adapter@_W@__crt_stdio_output@@V?$format_validation_base@_WV?$stream_output_adapter@_W@__crt_stdio_output@@@2@@__crt_stdio_output@@AAEXII_N@Z 10025e59 f i libucrt:output.obj
 0001:00024eeb       ??$type_case_integer_parse_into_buffer@I@?$output_processor@_WV?$stream_output_adapter@_W@__crt_stdio_output@@V?$positional_parameter_base@_WV?$stream_output_adapter@_W@__crt_stdio_output@@@2@@__crt_stdio_output@@AAEXII_N@Z 10025eeb f i libucrt:output.obj
 0001:00024f7d       ??$type_case_integer_parse_into_buffer@I@?$output_processor@_WV?$stream_output_adapter@_W@__crt_stdio_output@@V?$standard_base@_WV?$stream_output_adapter@_W@__crt_stdio_output@@@2@@__crt_stdio_output@@AAEXII_N@Z 10025f7d f i libucrt:output.obj
 0001:0002500f       ??$type_case_integer_parse_into_buffer@I@?$output_processor@_WV?$string_output_adapter@_W@__crt_stdio_output@@V?$format_validation_base@_WV?$string_output_adapter@_W@__crt_stdio_output@@@2@@__crt_stdio_output@@AAEXII_N@Z 1002600f f i libucrt:output.obj
 0001:000250a1       ??$type_case_integer_parse_into_buffer@I@?$output_processor@_WV?$string_output_adapter@_W@__crt_stdio_output@@V?$positional_parameter_base@_WV?$string_output_adapter@_W@__crt_stdio_output@@@2@@__crt_stdio_output@@AAEXII_N@Z 100260a1 f i libucrt:output.obj
 0001:00025133       ??$type_case_integer_parse_into_buffer@I@?$output_processor@_WV?$string_output_adapter@_W@__crt_stdio_output@@V?$standard_base@_WV?$string_output_adapter@_W@__crt_stdio_output@@@2@@__crt_stdio_output@@AAEXII_N@Z 10026133 f i libucrt:output.obj
 0001:000251c5       ??$type_case_integer_parse_into_buffer@_K@?$output_processor@DV?$stream_output_adapter@D@__crt_stdio_output@@V?$format_validation_base@DV?$stream_output_adapter@D@__crt_stdio_output@@@2@@__crt_stdio_output@@AAEX_KI_N@Z 100261c5 f i libucrt:output.obj
 0001:0002526f       ??$type_case_integer_parse_into_buffer@_K@?$output_processor@DV?$stream_output_adapter@D@__crt_stdio_output@@V?$positional_parameter_base@DV?$stream_output_adapter@D@__crt_stdio_output@@@2@@__crt_stdio_output@@AAEX_KI_N@Z 1002626f f i libucrt:output.obj
 0001:00025319       ??$type_case_integer_parse_into_buffer@_K@?$output_processor@DV?$stream_output_adapter@D@__crt_stdio_output@@V?$standard_base@DV?$stream_output_adapter@D@__crt_stdio_output@@@2@@__crt_stdio_output@@AAEX_KI_N@Z 10026319 f i libucrt:output.obj
 0001:000253c3       ??$type_case_integer_parse_into_buffer@_K@?$output_processor@DV?$string_output_adapter@D@__crt_stdio_output@@V?$format_validation_base@DV?$string_output_adapter@D@__crt_stdio_output@@@2@@__crt_stdio_output@@AAEX_KI_N@Z 100263c3 f i libucrt:output.obj
 0001:0002546d       ??$type_case_integer_parse_into_buffer@_K@?$output_processor@DV?$string_output_adapter@D@__crt_stdio_output@@V?$positional_parameter_base@DV?$string_output_adapter@D@__crt_stdio_output@@@2@@__crt_stdio_output@@AAEX_KI_N@Z 1002646d f i libucrt:output.obj
 0001:00025517       ??$type_case_integer_parse_into_buffer@_K@?$output_processor@DV?$string_output_adapter@D@__crt_stdio_output@@V?$standard_base@DV?$string_output_adapter@D@__crt_stdio_output@@@2@@__crt_stdio_output@@AAEX_KI_N@Z 10026517 f i libucrt:output.obj
 0001:000255c1       ??$type_case_integer_parse_into_buffer@_K@?$output_processor@_WV?$stream_output_adapter@_W@__crt_stdio_output@@V?$format_validation_base@_WV?$stream_output_adapter@_W@__crt_stdio_output@@@2@@__crt_stdio_output@@AAEX_KI_N@Z 100265c1 f i libucrt:output.obj
 0001:0002566b       ??$type_case_integer_parse_into_buffer@_K@?$output_processor@_WV?$stream_output_adapter@_W@__crt_stdio_output@@V?$positional_parameter_base@_WV?$stream_output_adapter@_W@__crt_stdio_output@@@2@@__crt_stdio_output@@AAEX_KI_N@Z 1002666b f i libucrt:output.obj
 0001:00025715       ??$type_case_integer_parse_into_buffer@_K@?$output_processor@_WV?$stream_output_adapter@_W@__crt_stdio_output@@V?$standard_base@_WV?$stream_output_adapter@_W@__crt_stdio_output@@@2@@__crt_stdio_output@@AAEX_KI_N@Z 10026715 f i libucrt:output.obj
 0001:000257bf       ??$type_case_integer_parse_into_buffer@_K@?$output_processor@_WV?$string_output_adapter@_W@__crt_stdio_output@@V?$format_validation_base@_WV?$string_output_adapter@_W@__crt_stdio_output@@@2@@__crt_stdio_output@@AAEX_KI_N@Z 100267bf f i libucrt:output.obj
 0001:00025869       ??$type_case_integer_parse_into_buffer@_K@?$output_processor@_WV?$string_output_adapter@_W@__crt_stdio_output@@V?$positional_parameter_base@_WV?$string_output_adapter@_W@__crt_stdio_output@@@2@@__crt_stdio_output@@AAEX_KI_N@Z 10026869 f i libucrt:output.obj
 0001:00025913       ??$type_case_integer_parse_into_buffer@_K@?$output_processor@_WV?$string_output_adapter@_W@__crt_stdio_output@@V?$standard_base@_WV?$string_output_adapter@_W@__crt_stdio_output@@@2@@__crt_stdio_output@@AAEX_KI_N@Z 10026913 f i libucrt:output.obj
 0001:000259bd       ??$write_multiple_characters@V?$stream_output_adapter@D@__crt_stdio_output@@D@__crt_stdio_output@@YAXABV?$stream_output_adapter@D@0@DHQAH@Z 100269bd f i libucrt:output.obj
 0001:000259f4       ??$write_multiple_characters@V?$stream_output_adapter@_W@__crt_stdio_output@@D@__crt_stdio_output@@YAXABV?$stream_output_adapter@_W@0@DHQAH@Z 100269f4 f i libucrt:output.obj
 0001:00025a31       ??$write_multiple_characters@V?$string_output_adapter@D@__crt_stdio_output@@D@__crt_stdio_output@@YAXABV?$string_output_adapter@D@0@DHQAH@Z 10026a31 f i libucrt:output.obj
 0001:00025a68       ??$write_multiple_characters@V?$string_output_adapter@_W@__crt_stdio_output@@D@__crt_stdio_output@@YAXABV?$string_output_adapter@_W@0@DHQAH@Z 10026a68 f i libucrt:output.obj
 0001:00025cd9       ??0?$common_data@D@__crt_stdio_output@@IAE@XZ 10026cd9 f i libucrt:output.obj
 0001:00025d31       ??0?$common_data@_W@__crt_stdio_output@@IAE@XZ 10026d31 f i libucrt:output.obj
 0001:00025d90       ??0?$output_adapter_data@DV?$stream_output_adapter@D@__crt_stdio_output@@@__crt_stdio_output@@IAE@ABV?$stream_output_adapter@D@1@_KQBDQAU__crt_locale_pointers@@QAD@Z 10026d90 f i libucrt:output.obj
 0001:00025ddb       ??0?$output_adapter_data@DV?$string_output_adapter@D@__crt_stdio_output@@@__crt_stdio_output@@IAE@ABV?$string_output_adapter@D@1@_KQBDQAU__crt_locale_pointers@@QAD@Z 10026ddb f i libucrt:output.obj
 0001:00025e26       ??0?$output_adapter_data@_WV?$stream_output_adapter@_W@__crt_stdio_output@@@__crt_stdio_output@@IAE@ABV?$stream_output_adapter@_W@1@_KQB_WQAU__crt_locale_pointers@@QAD@Z 10026e26 f i libucrt:output.obj
 0001:00025e71       ??0?$output_adapter_data@_WV?$string_output_adapter@_W@__crt_stdio_output@@@__crt_stdio_output@@IAE@ABV?$string_output_adapter@_W@1@_KQB_WQAU__crt_locale_pointers@@QAD@Z 10026e71 f i libucrt:output.obj
 0001:00025ebc       ??0?$output_processor@DV?$stream_output_adapter@D@__crt_stdio_output@@V?$format_validation_base@DV?$stream_output_adapter@D@__crt_stdio_output@@@2@@__crt_stdio_output@@QAE@ABV?$stream_output_adapter@D@1@_KQBDQAU__crt_locale_pointers@@QAD@Z 10026ebc f i libucrt:output.obj
 0001:00025efe       ??0?$output_processor@DV?$stream_output_adapter@D@__crt_stdio_output@@V?$positional_parameter_base@DV?$stream_output_adapter@D@__crt_stdio_output@@@2@@__crt_stdio_output@@QAE@ABV?$stream_output_adapter@D@1@_KQBDQAU__crt_locale_pointers@@QAD@Z 10026efe f i libucrt:output.obj
 0001:00025f38       ??0?$output_processor@DV?$stream_output_adapter@D@__crt_stdio_output@@V?$standard_base@DV?$stream_output_adapter@D@__crt_stdio_output@@@2@@__crt_stdio_output@@QAE@ABV?$stream_output_adapter@D@1@_KQBDQAU__crt_locale_pointers@@QAD@Z 10026f38 f i libucrt:output.obj
 0001:00025f7a       ??0?$output_processor@DV?$string_output_adapter@D@__crt_stdio_output@@V?$format_validation_base@DV?$string_output_adapter@D@__crt_stdio_output@@@2@@__crt_stdio_output@@QAE@ABV?$string_output_adapter@D@1@_KQBDQAU__crt_locale_pointers@@QAD@Z 10026f7a f i libucrt:output.obj
 0001:00025fbc       ??0?$output_processor@DV?$string_output_adapter@D@__crt_stdio_output@@V?$positional_parameter_base@DV?$string_output_adapter@D@__crt_stdio_output@@@2@@__crt_stdio_output@@QAE@ABV?$string_output_adapter@D@1@_KQBDQAU__crt_locale_pointers@@QAD@Z 10026fbc f i libucrt:output.obj
 0001:00025ff6       ??0?$output_processor@DV?$string_output_adapter@D@__crt_stdio_output@@V?$standard_base@DV?$string_output_adapter@D@__crt_stdio_output@@@2@@__crt_stdio_output@@QAE@ABV?$string_output_adapter@D@1@_KQBDQAU__crt_locale_pointers@@QAD@Z 10026ff6 f i libucrt:output.obj
 0001:00026038       ??0?$output_processor@_WV?$stream_output_adapter@_W@__crt_stdio_output@@V?$format_validation_base@_WV?$stream_output_adapter@_W@__crt_stdio_output@@@2@@__crt_stdio_output@@QAE@ABV?$stream_output_adapter@_W@1@_KQB_WQAU__crt_locale_pointers@@QAD@Z 10027038 f i libucrt:output.obj
 0001:0002607a       ??0?$output_processor@_WV?$stream_output_adapter@_W@__crt_stdio_output@@V?$positional_parameter_base@_WV?$stream_output_adapter@_W@__crt_stdio_output@@@2@@__crt_stdio_output@@QAE@ABV?$stream_output_adapter@_W@1@_KQB_WQAU__crt_locale_pointers@@QAD@Z 1002707a f i libucrt:output.obj
 0001:000260b4       ??0?$output_processor@_WV?$stream_output_adapter@_W@__crt_stdio_output@@V?$standard_base@_WV?$stream_output_adapter@_W@__crt_stdio_output@@@2@@__crt_stdio_output@@QAE@ABV?$stream_output_adapter@_W@1@_KQB_WQAU__crt_locale_pointers@@QAD@Z 100270b4 f i libucrt:output.obj
 0001:000260f6       ??0?$output_processor@_WV?$string_output_adapter@_W@__crt_stdio_output@@V?$format_validation_base@_WV?$string_output_adapter@_W@__crt_stdio_output@@@2@@__crt_stdio_output@@QAE@ABV?$string_output_adapter@_W@1@_KQB_WQAU__crt_locale_pointers@@QAD@Z 100270f6 f i libucrt:output.obj
 0001:00026138       ??0?$output_processor@_WV?$string_output_adapter@_W@__crt_stdio_output@@V?$positional_parameter_base@_WV?$string_output_adapter@_W@__crt_stdio_output@@@2@@__crt_stdio_output@@QAE@ABV?$string_output_adapter@_W@1@_KQB_WQAU__crt_locale_pointers@@QAD@Z 10027138 f i libucrt:output.obj
 0001:00026172       ??0?$output_processor@_WV?$string_output_adapter@_W@__crt_stdio_output@@V?$standard_base@_WV?$string_output_adapter@_W@__crt_stdio_output@@@2@@__crt_stdio_output@@QAE@ABV?$string_output_adapter@_W@1@_KQB_WQAU__crt_locale_pointers@@QAD@Z 10027172 f i libucrt:output.obj
 0001:000261b4       ??0?$stream_output_adapter@D@__crt_stdio_output@@QAE@QAU_iobuf@@@Z 100271b4 f i libucrt:output.obj
 0001:000261c8       ??0?$stream_output_adapter@_W@__crt_stdio_output@@QAE@QAU_iobuf@@@Z 100271c8 f i libucrt:output.obj
 0001:000261dc       ??0?$string_output_adapter@D@__crt_stdio_output@@QAE@QAU?$string_output_adapter_context@D@1@@Z 100271dc f i libucrt:output.obj
 0001:000261f0       ??0?$string_output_adapter@_W@__crt_stdio_output@@QAE@QAU?$string_output_adapter_context@_W@1@@Z 100271f0 f i libucrt:output.obj
 0001:00026204       ??0_LocaleUpdate@@QAE@QAU__crt_locale_pointers@@@Z 10027204 f i libucrt:output.obj
 0001:000262a7       ??0__acrt_stdio_temporary_buffering_guard@@QAE@QAU_iobuf@@@Z 100272a7 f i libucrt:output.obj
 0001:000262cc       ??0__crt_errno_guard@@QAE@QAH@Z 100272cc f i libucrt:output.obj
 0001:000262ea       ??0formatting_buffer@__crt_stdio_output@@QAE@XZ 100272ea f i libucrt:output.obj
 0001:000262ff       ??1?$common_data@D@__crt_stdio_output@@QAE@XZ 100272ff f i libucrt:output.obj
 0001:00026309       ??1?$common_data@_W@__crt_stdio_output@@QAE@XZ 10027309 f i libucrt:output.obj
 0001:00026313       ??1?$format_validation_base@DV?$stream_output_adapter@D@__crt_stdio_output@@@__crt_stdio_output@@QAE@XZ 10027313 f i libucrt:output.obj
 0001:0002631d       ??1?$format_validation_base@DV?$string_output_adapter@D@__crt_stdio_output@@@__crt_stdio_output@@QAE@XZ 1002731d f i libucrt:output.obj
 0001:00026327       ??1?$format_validation_base@_WV?$stream_output_adapter@_W@__crt_stdio_output@@@__crt_stdio_output@@QAE@XZ 10027327 f i libucrt:output.obj
 0001:00026331       ??1?$format_validation_base@_WV?$string_output_adapter@_W@__crt_stdio_output@@@__crt_stdio_output@@QAE@XZ 10027331 f i libucrt:output.obj
 0001:0002633b       ??1?$output_adapter_data@DV?$stream_output_adapter@D@__crt_stdio_output@@@__crt_stdio_output@@QAE@XZ 1002733b f i libucrt:output.obj
 0001:00026345       ??1?$output_adapter_data@DV?$string_output_adapter@D@__crt_stdio_output@@@__crt_stdio_output@@QAE@XZ 10027345 f i libucrt:output.obj
 0001:0002634f       ??1?$output_adapter_data@_WV?$stream_output_adapter@_W@__crt_stdio_output@@@__crt_stdio_output@@QAE@XZ 1002734f f i libucrt:output.obj
 0001:00026359       ??1?$output_adapter_data@_WV?$string_output_adapter@_W@__crt_stdio_output@@@__crt_stdio_output@@QAE@XZ 10027359 f i libucrt:output.obj
 0001:00026363       ??1?$output_processor@DV?$stream_output_adapter@D@__crt_stdio_output@@V?$format_validation_base@DV?$stream_output_adapter@D@__crt_stdio_output@@@2@@__crt_stdio_output@@QAE@XZ 10027363 f i libucrt:output.obj
 0001:0002636d       ??1?$output_processor@DV?$stream_output_adapter@D@__crt_stdio_output@@V?$positional_parameter_base@DV?$stream_output_adapter@D@__crt_stdio_output@@@2@@__crt_stdio_output@@QAE@XZ 1002736d f i libucrt:output.obj
 0001:00026377       ??1?$output_processor@DV?$stream_output_adapter@D@__crt_stdio_output@@V?$standard_base@DV?$stream_output_adapter@D@__crt_stdio_output@@@2@@__crt_stdio_output@@QAE@XZ 10027377 f i libucrt:output.obj
 0001:00026381       ??1?$output_processor@DV?$string_output_adapter@D@__crt_stdio_output@@V?$format_validation_base@DV?$string_output_adapter@D@__crt_stdio_output@@@2@@__crt_stdio_output@@QAE@XZ 10027381 f i libucrt:output.obj
 0001:0002638b       ??1?$output_processor@DV?$string_output_adapter@D@__crt_stdio_output@@V?$positional_parameter_base@DV?$string_output_adapter@D@__crt_stdio_output@@@2@@__crt_stdio_output@@QAE@XZ 1002738b f i libucrt:output.obj
 0001:00026395       ??1?$output_processor@DV?$string_output_adapter@D@__crt_stdio_output@@V?$standard_base@DV?$string_output_adapter@D@__crt_stdio_output@@@2@@__crt_stdio_output@@QAE@XZ 10027395 f i libucrt:output.obj
 0001:0002639f       ??1?$output_processor@_WV?$stream_output_adapter@_W@__crt_stdio_output@@V?$format_validation_base@_WV?$stream_output_adapter@_W@__crt_stdio_output@@@2@@__crt_stdio_output@@QAE@XZ 1002739f f i libucrt:output.obj
 0001:000263a9       ??1?$output_processor@_WV?$stream_output_adapter@_W@__crt_stdio_output@@V?$positional_parameter_base@_WV?$stream_output_adapter@_W@__crt_stdio_output@@@2@@__crt_stdio_output@@QAE@XZ 100273a9 f i libucrt:output.obj
 0001:000263b3       ??1?$output_processor@_WV?$stream_output_adapter@_W@__crt_stdio_output@@V?$standard_base@_WV?$stream_output_adapter@_W@__crt_stdio_output@@@2@@__crt_stdio_output@@QAE@XZ 100273b3 f i libucrt:output.obj
 0001:000263bd       ??1?$output_processor@_WV?$string_output_adapter@_W@__crt_stdio_output@@V?$format_validation_base@_WV?$string_output_adapter@_W@__crt_stdio_output@@@2@@__crt_stdio_output@@QAE@XZ 100273bd f i libucrt:output.obj
 0001:000263c7       ??1?$output_processor@_WV?$string_output_adapter@_W@__crt_stdio_output@@V?$positional_parameter_base@_WV?$string_output_adapter@_W@__crt_stdio_output@@@2@@__crt_stdio_output@@QAE@XZ 100273c7 f i libucrt:output.obj
 0001:000263d1       ??1?$output_processor@_WV?$string_output_adapter@_W@__crt_stdio_output@@V?$standard_base@_WV?$string_output_adapter@_W@__crt_stdio_output@@@2@@__crt_stdio_output@@QAE@XZ 100273d1 f i libucrt:output.obj
 0001:000263db       ??1?$positional_parameter_base@DV?$stream_output_adapter@D@__crt_stdio_output@@@__crt_stdio_output@@QAE@XZ 100273db f i libucrt:output.obj
 0001:000263e5       ??1?$positional_parameter_base@DV?$string_output_adapter@D@__crt_stdio_output@@@__crt_stdio_output@@QAE@XZ 100273e5 f i libucrt:output.obj
 0001:000263ef       ??1?$positional_parameter_base@_WV?$stream_output_adapter@_W@__crt_stdio_output@@@__crt_stdio_output@@QAE@XZ 100273ef f i libucrt:output.obj
 0001:000263f9       ??1?$positional_parameter_base@_WV?$string_output_adapter@_W@__crt_stdio_output@@@__crt_stdio_output@@QAE@XZ 100273f9 f i libucrt:output.obj
 0001:00026403       ??1?$standard_base@DV?$stream_output_adapter@D@__crt_stdio_output@@@__crt_stdio_output@@QAE@XZ 10027403 f i libucrt:output.obj
 0001:0002640d       ??1?$standard_base@DV?$string_output_adapter@D@__crt_stdio_output@@@__crt_stdio_output@@QAE@XZ 1002740d f i libucrt:output.obj
 0001:00026417       ??1?$standard_base@_WV?$stream_output_adapter@_W@__crt_stdio_output@@@__crt_stdio_output@@QAE@XZ 10027417 f i libucrt:output.obj
 0001:00026421       ??1?$standard_base@_WV?$string_output_adapter@_W@__crt_stdio_output@@@__crt_stdio_output@@QAE@XZ 10027421 f i libucrt:output.obj
 0001:0002642b       ??1_LocaleUpdate@@QAE@XZ   1002742b f i libucrt:output.obj
 0001:0002643f       ??1__acrt_stdio_temporary_buffering_guard@@QAE@XZ 1002743f f i libucrt:output.obj
 0001:00026451       ??1__crt_errno_guard@@QAE@XZ 10027451 f i libucrt:output.obj
 0001:00026466       ??1formatting_buffer@__crt_stdio_output@@QAE@XZ 10027466 f i libucrt:output.obj
 0001:00026486       ??4?$__crt_unique_heap_ptr@DU__crt_internal_free_policy@@@@QAEAAV0@$$QAV0@@Z 10027486 f i libucrt:output.obj
 0001:00026b69       ?GetLocaleT@_LocaleUpdate@@QAEPAU__crt_locale_pointers@@XZ 10027b69 f i libucrt:output.obj
 0001:00026b6d       ?__crt_interlocked_read_32@@YAHPDH@Z 10027b6d f i libucrt:output.obj
 0001:00026b7c       ?adjust_hexit@?$output_processor@DV?$stream_output_adapter@D@__crt_stdio_output@@V?$format_validation_base@DV?$stream_output_adapter@D@__crt_stdio_output@@@2@@__crt_stdio_output@@CADH_N@Z 10027b7c f i libucrt:output.obj
 0001:00026ba1       ?adjust_hexit@?$output_processor@DV?$stream_output_adapter@D@__crt_stdio_output@@V?$positional_parameter_base@DV?$stream_output_adapter@D@__crt_stdio_output@@@2@@__crt_stdio_output@@CADH_N@Z 10027ba1 f i libucrt:output.obj
 0001:00026bc6       ?adjust_hexit@?$output_processor@DV?$stream_output_adapter@D@__crt_stdio_output@@V?$standard_base@DV?$stream_output_adapter@D@__crt_stdio_output@@@2@@__crt_stdio_output@@CADH_N@Z 10027bc6 f i libucrt:output.obj
 0001:00026beb       ?adjust_hexit@?$output_processor@DV?$string_output_adapter@D@__crt_stdio_output@@V?$format_validation_base@DV?$string_output_adapter@D@__crt_stdio_output@@@2@@__crt_stdio_output@@CADH_N@Z 10027beb f i libucrt:output.obj
 0001:00026c10       ?adjust_hexit@?$output_processor@DV?$string_output_adapter@D@__crt_stdio_output@@V?$positional_parameter_base@DV?$string_output_adapter@D@__crt_stdio_output@@@2@@__crt_stdio_output@@CADH_N@Z 10027c10 f i libucrt:output.obj
 0001:00026c35       ?adjust_hexit@?$output_processor@DV?$string_output_adapter@D@__crt_stdio_output@@V?$standard_base@DV?$string_output_adapter@D@__crt_stdio_output@@@2@@__crt_stdio_output@@CADH_N@Z 10027c35 f i libucrt:output.obj
 0001:00026c5a       ?adjust_hexit@?$output_processor@_WV?$stream_output_adapter@_W@__crt_stdio_output@@V?$format_validation_base@_WV?$stream_output_adapter@_W@__crt_stdio_output@@@2@@__crt_stdio_output@@CADH_N@Z 10027c5a f i libucrt:output.obj
 0001:00026c7f       ?adjust_hexit@?$output_processor@_WV?$stream_output_adapter@_W@__crt_stdio_output@@V?$positional_parameter_base@_WV?$stream_output_adapter@_W@__crt_stdio_output@@@2@@__crt_stdio_output@@CADH_N@Z 10027c7f f i libucrt:output.obj
 0001:00026ca4       ?adjust_hexit@?$output_processor@_WV?$stream_output_adapter@_W@__crt_stdio_output@@V?$standard_base@_WV?$stream_output_adapter@_W@__crt_stdio_output@@@2@@__crt_stdio_output@@CADH_N@Z 10027ca4 f i libucrt:output.obj
 0001:00026cc9       ?adjust_hexit@?$output_processor@_WV?$string_output_adapter@_W@__crt_stdio_output@@V?$format_validation_base@_WV?$string_output_adapter@_W@__crt_stdio_output@@@2@@__crt_stdio_output@@CADH_N@Z 10027cc9 f i libucrt:output.obj
 0001:00026cee       ?adjust_hexit@?$output_processor@_WV?$string_output_adapter@_W@__crt_stdio_output@@V?$positional_parameter_base@_WV?$string_output_adapter@_W@__crt_stdio_output@@@2@@__crt_stdio_output@@CADH_N@Z 10027cee f i libucrt:output.obj
 0001:00026d13       ?adjust_hexit@?$output_processor@_WV?$string_output_adapter@_W@__crt_stdio_output@@V?$standard_base@_WV?$string_output_adapter@_W@__crt_stdio_output@@@2@@__crt_stdio_output@@CADH_N@Z 10027d13 f i libucrt:output.obj
 0001:00026d38       ?advance_to_next_pass@?$positional_parameter_base@DV?$stream_output_adapter@D@__crt_stdio_output@@@__crt_stdio_output@@IAE_NXZ 10027d38 f i libucrt:output.obj
 0001:00026d97       ?advance_to_next_pass@?$positional_parameter_base@DV?$string_output_adapter@D@__crt_stdio_output@@@__crt_stdio_output@@IAE_NXZ 10027d97 f i libucrt:output.obj
 0001:00026df6       ?advance_to_next_pass@?$positional_parameter_base@_WV?$stream_output_adapter@_W@__crt_stdio_output@@@__crt_stdio_output@@IAE_NXZ 10027df6 f i libucrt:output.obj
 0001:00026e55       ?advance_to_next_pass@?$positional_parameter_base@_WV?$string_output_adapter@_W@__crt_stdio_output@@@__crt_stdio_output@@IAE_NXZ 10027e55 f i libucrt:output.obj
 0001:00026eb4       ?advance_to_next_pass@?$standard_base@DV?$stream_output_adapter@D@__crt_stdio_output@@@__crt_stdio_output@@IAE_NXZ 10027eb4 f i libucrt:output.obj
 0001:00026ecb       ?advance_to_next_pass@?$standard_base@DV?$string_output_adapter@D@__crt_stdio_output@@@__crt_stdio_output@@IAE_NXZ 10027ecb f i libucrt:output.obj
 0001:00026ee2       ?advance_to_next_pass@?$standard_base@_WV?$stream_output_adapter@_W@__crt_stdio_output@@@__crt_stdio_output@@IAE_NXZ 10027ee2 f i libucrt:output.obj
 0001:00026ef9       ?advance_to_next_pass@?$standard_base@_WV?$string_output_adapter@_W@__crt_stdio_output@@@__crt_stdio_output@@IAE_NXZ 10027ef9 f i libucrt:output.obj
 0001:00026f10       ?crop_zeroes@__crt_stdio_output@@YAXPADQAU__crt_locale_pointers@@@Z 10027f10 f i libucrt:output.obj
 0001:00026f7c       ?find_next_state@?$output_processor@DV?$stream_output_adapter@D@__crt_stdio_output@@V?$format_validation_base@DV?$stream_output_adapter@D@__crt_stdio_output@@@2@@__crt_stdio_output@@ABE?AW4state@2@DW432@@Z 10027f7c f i libucrt:output.obj
 0001:00026fbe       ?find_next_state@?$output_processor@DV?$stream_output_adapter@D@__crt_stdio_output@@V?$positional_parameter_base@DV?$stream_output_adapter@D@__crt_stdio_output@@@2@@__crt_stdio_output@@ABE?AW4state@2@DW432@@Z 10027fbe f i libucrt:output.obj
 0001:00027000       ?find_next_state@?$output_processor@DV?$stream_output_adapter@D@__crt_stdio_output@@V?$standard_base@DV?$stream_output_adapter@D@__crt_stdio_output@@@2@@__crt_stdio_output@@ABE?AW4state@2@DW432@@Z 10028000 f i libucrt:output.obj
 0001:0002703e       ?find_next_state@?$output_processor@DV?$string_output_adapter@D@__crt_stdio_output@@V?$format_validation_base@DV?$string_output_adapter@D@__crt_stdio_output@@@2@@__crt_stdio_output@@ABE?AW4state@2@DW432@@Z 1002803e f i libucrt:output.obj
 0001:00027080       ?find_next_state@?$output_processor@DV?$string_output_adapter@D@__crt_stdio_output@@V?$positional_parameter_base@DV?$string_output_adapter@D@__crt_stdio_output@@@2@@__crt_stdio_output@@ABE?AW4state@2@DW432@@Z 10028080 f i libucrt:output.obj
 0001:000270c2       ?find_next_state@?$output_processor@DV?$string_output_adapter@D@__crt_stdio_output@@V?$standard_base@DV?$string_output_adapter@D@__crt_stdio_output@@@2@@__crt_stdio_output@@ABE?AW4state@2@DW432@@Z 100280c2 f i libucrt:output.obj
 0001:00027100       ?find_next_state@?$output_processor@_WV?$stream_output_adapter@_W@__crt_stdio_output@@V?$format_validation_base@_WV?$stream_output_adapter@_W@__crt_stdio_output@@@2@@__crt_stdio_output@@ABE?AW4state@2@_WW432@@Z 10028100 f i libucrt:output.obj
 0001:00027144       ?find_next_state@?$output_processor@_WV?$stream_output_adapter@_W@__crt_stdio_output@@V?$positional_parameter_base@_WV?$stream_output_adapter@_W@__crt_stdio_output@@@2@@__crt_stdio_output@@ABE?AW4state@2@_WW432@@Z 10028144 f i libucrt:output.obj
 0001:00027188       ?find_next_state@?$output_processor@_WV?$stream_output_adapter@_W@__crt_stdio_output@@V?$standard_base@_WV?$stream_output_adapter@_W@__crt_stdio_output@@@2@@__crt_stdio_output@@ABE?AW4state@2@_WW432@@Z 10028188 f i libucrt:output.obj
 0001:000271c9       ?find_next_state@?$output_processor@_WV?$string_output_adapter@_W@__crt_stdio_output@@V?$format_validation_base@_WV?$string_output_adapter@_W@__crt_stdio_output@@@2@@__crt_stdio_output@@ABE?AW4state@2@_WW432@@Z 100281c9 f i libucrt:output.obj
 0001:0002720d       ?find_next_state@?$output_processor@_WV?$string_output_adapter@_W@__crt_stdio_output@@V?$positional_parameter_base@_WV?$string_output_adapter@_W@__crt_stdio_output@@@2@@__crt_stdio_output@@ABE?AW4state@2@_WW432@@Z 1002820d f i libucrt:output.obj
 0001:00027251       ?find_next_state@?$output_processor@_WV?$string_output_adapter@_W@__crt_stdio_output@@V?$standard_base@_WV?$string_output_adapter@_W@__crt_stdio_output@@@2@@__crt_stdio_output@@ABE?AW4state@2@_WW432@@Z 10028251 f i libucrt:output.obj
 0001:00027292       ?force_decimal_point@__crt_stdio_output@@YAXPADQAU__crt_locale_pointers@@@Z 10028292 f i libucrt:output.obj
 0001:00027305       ?get_flags@__crt_stdio_stream@@QBEJXZ 10028305 f i libucrt:output.obj
 0001:0002730b       ?get_parameter_type@?$positional_parameter_base@DV?$stream_output_adapter@D@__crt_stdio_output@@@__crt_stdio_output@@CA?AW4parameter_type@12@F@Z 1002830b f i libucrt:output.obj
 0001:0002730f       ?get_parameter_type@?$positional_parameter_base@DV?$stream_output_adapter@D@__crt_stdio_output@@@__crt_stdio_output@@CA?AW4parameter_type@12@G@Z 1002830f f i libucrt:output.obj
 0001:00027313       ?get_parameter_type@?$positional_parameter_base@DV?$stream_output_adapter@D@__crt_stdio_output@@@__crt_stdio_output@@CA?AW4parameter_type@12@H@Z 10028313 f i libucrt:output.obj
 0001:00027317       ?get_parameter_type@?$positional_parameter_base@DV?$stream_output_adapter@D@__crt_stdio_output@@@__crt_stdio_output@@CA?AW4parameter_type@12@I@Z 10028317 f i libucrt:output.obj
 0001:0002731b       ?get_parameter_type@?$positional_parameter_base@DV?$stream_output_adapter@D@__crt_stdio_output@@@__crt_stdio_output@@CA?AW4parameter_type@12@U_CRT_DOUBLE@@@Z 1002831b f i libucrt:output.obj
 0001:0002731f       ?get_parameter_type@?$positional_parameter_base@DV?$stream_output_adapter@D@__crt_stdio_output@@@__crt_stdio_output@@CA?AW4parameter_type@12@_J@Z 1002831f f i libucrt:output.obj
 0001:00027323       ?get_parameter_type@?$positional_parameter_base@DV?$stream_output_adapter@D@__crt_stdio_output@@@__crt_stdio_output@@CA?AW4parameter_type@12@_K@Z 10028323 f i libucrt:output.obj
 0001:00027327       ?get_parameter_type@?$positional_parameter_base@DV?$stream_output_adapter@D@__crt_stdio_output@@@__crt_stdio_output@@CA?AW4parameter_type@12@_W@Z 10028327 f i libucrt:output.obj
 0001:0002732b       ?get_parameter_type@?$positional_parameter_base@DV?$string_output_adapter@D@__crt_stdio_output@@@__crt_stdio_output@@CA?AW4parameter_type@12@F@Z 1002832b f i libucrt:output.obj
 0001:0002732f       ?get_parameter_type@?$positional_parameter_base@DV?$string_output_adapter@D@__crt_stdio_output@@@__crt_stdio_output@@CA?AW4parameter_type@12@G@Z 1002832f f i libucrt:output.obj
 0001:00027333       ?get_parameter_type@?$positional_parameter_base@DV?$string_output_adapter@D@__crt_stdio_output@@@__crt_stdio_output@@CA?AW4parameter_type@12@H@Z 10028333 f i libucrt:output.obj
 0001:00027337       ?get_parameter_type@?$positional_parameter_base@DV?$string_output_adapter@D@__crt_stdio_output@@@__crt_stdio_output@@CA?AW4parameter_type@12@I@Z 10028337 f i libucrt:output.obj
 0001:0002733b       ?get_parameter_type@?$positional_parameter_base@DV?$string_output_adapter@D@__crt_stdio_output@@@__crt_stdio_output@@CA?AW4parameter_type@12@U_CRT_DOUBLE@@@Z 1002833b f i libucrt:output.obj
 0001:0002733f       ?get_parameter_type@?$positional_parameter_base@DV?$string_output_adapter@D@__crt_stdio_output@@@__crt_stdio_output@@CA?AW4parameter_type@12@_J@Z 1002833f f i libucrt:output.obj
 0001:00027343       ?get_parameter_type@?$positional_parameter_base@DV?$string_output_adapter@D@__crt_stdio_output@@@__crt_stdio_output@@CA?AW4parameter_type@12@_K@Z 10028343 f i libucrt:output.obj
 0001:00027347       ?get_parameter_type@?$positional_parameter_base@DV?$string_output_adapter@D@__crt_stdio_output@@@__crt_stdio_output@@CA?AW4parameter_type@12@_W@Z 10028347 f i libucrt:output.obj
 0001:0002734b       ?get_parameter_type@?$positional_parameter_base@_WV?$stream_output_adapter@_W@__crt_stdio_output@@@__crt_stdio_output@@CA?AW4parameter_type@12@F@Z 1002834b f i libucrt:output.obj
 0001:0002734f       ?get_parameter_type@?$positional_parameter_base@_WV?$stream_output_adapter@_W@__crt_stdio_output@@@__crt_stdio_output@@CA?AW4parameter_type@12@G@Z 1002834f f i libucrt:output.obj
 0001:00027353       ?get_parameter_type@?$positional_parameter_base@_WV?$stream_output_adapter@_W@__crt_stdio_output@@@__crt_stdio_output@@CA?AW4parameter_type@12@H@Z 10028353 f i libucrt:output.obj
 0001:00027357       ?get_parameter_type@?$positional_parameter_base@_WV?$stream_output_adapter@_W@__crt_stdio_output@@@__crt_stdio_output@@CA?AW4parameter_type@12@I@Z 10028357 f i libucrt:output.obj
 0001:0002735b       ?get_parameter_type@?$positional_parameter_base@_WV?$stream_output_adapter@_W@__crt_stdio_output@@@__crt_stdio_output@@CA?AW4parameter_type@12@U_CRT_DOUBLE@@@Z 1002835b f i libucrt:output.obj
 0001:0002735f       ?get_parameter_type@?$positional_parameter_base@_WV?$stream_output_adapter@_W@__crt_stdio_output@@@__crt_stdio_output@@CA?AW4parameter_type@12@_J@Z 1002835f f i libucrt:output.obj
 0001:00027363       ?get_parameter_type@?$positional_parameter_base@_WV?$stream_output_adapter@_W@__crt_stdio_output@@@__crt_stdio_output@@CA?AW4parameter_type@12@_K@Z 10028363 f i libucrt:output.obj
 0001:00027367       ?get_parameter_type@?$positional_parameter_base@_WV?$stream_output_adapter@_W@__crt_stdio_output@@@__crt_stdio_output@@CA?AW4parameter_type@12@_W@Z 10028367 f i libucrt:output.obj
 0001:0002736b       ?get_parameter_type@?$positional_parameter_base@_WV?$string_output_adapter@_W@__crt_stdio_output@@@__crt_stdio_output@@CA?AW4parameter_type@12@F@Z 1002836b f i libucrt:output.obj
 0001:0002736f       ?get_parameter_type@?$positional_parameter_base@_WV?$string_output_adapter@_W@__crt_stdio_output@@@__crt_stdio_output@@CA?AW4parameter_type@12@G@Z 1002836f f i libucrt:output.obj
 0001:00027373       ?get_parameter_type@?$positional_parameter_base@_WV?$string_output_adapter@_W@__crt_stdio_output@@@__crt_stdio_output@@CA?AW4parameter_type@12@H@Z 10028373 f i libucrt:output.obj
 0001:00027377       ?get_parameter_type@?$positional_parameter_base@_WV?$string_output_adapter@_W@__crt_stdio_output@@@__crt_stdio_output@@CA?AW4parameter_type@12@I@Z 10028377 f i libucrt:output.obj
 0001:0002737b       ?get_parameter_type@?$positional_parameter_base@_WV?$string_output_adapter@_W@__crt_stdio_output@@@__crt_stdio_output@@CA?AW4parameter_type@12@U_CRT_DOUBLE@@@Z 1002837b f i libucrt:output.obj
 0001:0002737f       ?get_parameter_type@?$positional_parameter_base@_WV?$string_output_adapter@_W@__crt_stdio_output@@@__crt_stdio_output@@CA?AW4parameter_type@12@_J@Z 1002837f f i libucrt:output.obj
 0001:00027383       ?get_parameter_type@?$positional_parameter_base@_WV?$string_output_adapter@_W@__crt_stdio_output@@@__crt_stdio_output@@CA?AW4parameter_type@12@_K@Z 10028383 f i libucrt:output.obj
 0001:00027387       ?get_parameter_type@?$positional_parameter_base@_WV?$string_output_adapter@_W@__crt_stdio_output@@@__crt_stdio_output@@CA?AW4parameter_type@12@_W@Z 10028387 f i libucrt:output.obj
 0001:0002738b       ?has_flag@?$output_processor@DV?$stream_output_adapter@D@__crt_stdio_output@@V?$format_validation_base@DV?$stream_output_adapter@D@__crt_stdio_output@@@2@@__crt_stdio_output@@ABE_NI@Z 1002838b f i libucrt:output.obj
 0001:000273a5       ?has_flag@?$output_processor@DV?$stream_output_adapter@D@__crt_stdio_output@@V?$positional_parameter_base@DV?$stream_output_adapter@D@__crt_stdio_output@@@2@@__crt_stdio_output@@ABE_NI@Z 100283a5 f i libucrt:output.obj
 0001:000273bf       ?has_flag@?$output_processor@DV?$stream_output_adapter@D@__crt_stdio_output@@V?$standard_base@DV?$stream_output_adapter@D@__crt_stdio_output@@@2@@__crt_stdio_output@@ABE_NI@Z 100283bf f i libucrt:output.obj
 0001:000273d9       ?has_flag@?$output_processor@DV?$string_output_adapter@D@__crt_stdio_output@@V?$format_validation_base@DV?$string_output_adapter@D@__crt_stdio_output@@@2@@__crt_stdio_output@@ABE_NI@Z 100283d9 f i libucrt:output.obj
 0001:000273f3       ?has_flag@?$output_processor@DV?$string_output_adapter@D@__crt_stdio_output@@V?$positional_parameter_base@DV?$string_output_adapter@D@__crt_stdio_output@@@2@@__crt_stdio_output@@ABE_NI@Z 100283f3 f i libucrt:output.obj
 0001:0002740d       ?has_flag@?$output_processor@DV?$string_output_adapter@D@__crt_stdio_output@@V?$standard_base@DV?$string_output_adapter@D@__crt_stdio_output@@@2@@__crt_stdio_output@@ABE_NI@Z 1002840d f i libucrt:output.obj
 0001:00027427       ?has_flag@?$output_processor@_WV?$stream_output_adapter@_W@__crt_stdio_output@@V?$format_validation_base@_WV?$stream_output_adapter@_W@__crt_stdio_output@@@2@@__crt_stdio_output@@ABE_NI@Z 10028427 f i libucrt:output.obj
 0001:00027441       ?has_flag@?$output_processor@_WV?$stream_output_adapter@_W@__crt_stdio_output@@V?$positional_parameter_base@_WV?$stream_output_adapter@_W@__crt_stdio_output@@@2@@__crt_stdio_output@@ABE_NI@Z 10028441 f i libucrt:output.obj
 0001:0002745b       ?has_flag@?$output_processor@_WV?$stream_output_adapter@_W@__crt_stdio_output@@V?$standard_base@_WV?$stream_output_adapter@_W@__crt_stdio_output@@@2@@__crt_stdio_output@@ABE_NI@Z 1002845b f i libucrt:output.obj
 0001:00027475       ?has_flag@?$output_processor@_WV?$string_output_adapter@_W@__crt_stdio_output@@V?$format_validation_base@_WV?$string_output_adapter@_W@__crt_stdio_output@@@2@@__crt_stdio_output@@ABE_NI@Z 10028475 f i libucrt:output.obj
 0001:0002748f       ?has_flag@?$output_processor@_WV?$string_output_adapter@_W@__crt_stdio_output@@V?$positional_parameter_base@_WV?$string_output_adapter@_W@__crt_stdio_output@@@2@@__crt_stdio_output@@ABE_NI@Z 1002848f f i libucrt:output.obj
 0001:000274a9       ?has_flag@?$output_processor@_WV?$string_output_adapter@_W@__crt_stdio_output@@V?$standard_base@_WV?$string_output_adapter@_W@__crt_stdio_output@@@2@@__crt_stdio_output@@ABE_NI@Z 100284a9 f i libucrt:output.obj
 0001:000274c3       ?is_positional_parameter_reappearance_consistent@?$positional_parameter_base@DV?$stream_output_adapter@D@__crt_stdio_output@@@__crt_stdio_output@@AAE_NABUparameter_data@12@W4parameter_type@12@DW4length_modifier@2@@Z 100284c3 f i libucrt:output.obj
 0001:0002763c       ?is_positional_parameter_reappearance_consistent@?$positional_parameter_base@DV?$string_output_adapter@D@__crt_stdio_output@@@__crt_stdio_output@@AAE_NABUparameter_data@12@W4parameter_type@12@DW4length_modifier@2@@Z 1002863c f i libucrt:output.obj
 0001:000277b5       ?is_positional_parameter_reappearance_consistent@?$positional_parameter_base@_WV?$stream_output_adapter@_W@__crt_stdio_output@@@__crt_stdio_output@@AAE_NABUparameter_data@12@W4parameter_type@12@_WW4length_modifier@2@@Z 100287b5 f i libucrt:output.obj
 0001:00027920       ?is_positional_parameter_reappearance_consistent@?$positional_parameter_base@_WV?$string_output_adapter@_W@__crt_stdio_output@@@__crt_stdio_output@@AAE_NABUparameter_data@12@W4parameter_type@12@_WW4length_modifier@2@@Z 10028920 f i libucrt:output.obj
 0001:00027a8b       ?is_string_backed@__crt_stdio_stream@@QBE_NXZ 10028a8b f i libucrt:output.obj
 0001:00027a9a       ?narrow_null_string@?$output_processor@DV?$stream_output_adapter@D@__crt_stdio_output@@V?$format_validation_base@DV?$stream_output_adapter@D@__crt_stdio_output@@@2@@__crt_stdio_output@@CAPADXZ 10028a9a f i libucrt:output.obj
 0001:00027aa0       ?narrow_null_string@?$output_processor@DV?$stream_output_adapter@D@__crt_stdio_output@@V?$positional_parameter_base@DV?$stream_output_adapter@D@__crt_stdio_output@@@2@@__crt_stdio_output@@CAPADXZ 10028aa0 f i libucrt:output.obj
 0001:00027aa6       ?narrow_null_string@?$output_processor@DV?$stream_output_adapter@D@__crt_stdio_output@@V?$standard_base@DV?$stream_output_adapter@D@__crt_stdio_output@@@2@@__crt_stdio_output@@CAPADXZ 10028aa6 f i libucrt:output.obj
 0001:00027aac       ?narrow_null_string@?$output_processor@DV?$string_output_adapter@D@__crt_stdio_output@@V?$format_validation_base@DV?$string_output_adapter@D@__crt_stdio_output@@@2@@__crt_stdio_output@@CAPADXZ 10028aac f i libucrt:output.obj
 0001:00027ab2       ?narrow_null_string@?$output_processor@DV?$string_output_adapter@D@__crt_stdio_output@@V?$positional_parameter_base@DV?$string_output_adapter@D@__crt_stdio_output@@@2@@__crt_stdio_output@@CAPADXZ 10028ab2 f i libucrt:output.obj
 0001:00027ab8       ?narrow_null_string@?$output_processor@DV?$string_output_adapter@D@__crt_stdio_output@@V?$standard_base@DV?$string_output_adapter@D@__crt_stdio_output@@@2@@__crt_stdio_output@@CAPADXZ 10028ab8 f i libucrt:output.obj
 0001:00027abe       ?narrow_null_string@?$output_processor@_WV?$stream_output_adapter@_W@__crt_stdio_output@@V?$format_validation_base@_WV?$stream_output_adapter@_W@__crt_stdio_output@@@2@@__crt_stdio_output@@CAPADXZ 10028abe f i libucrt:output.obj
 0001:00027ac4       ?narrow_null_string@?$output_processor@_WV?$stream_output_adapter@_W@__crt_stdio_output@@V?$positional_parameter_base@_WV?$stream_output_adapter@_W@__crt_stdio_output@@@2@@__crt_stdio_output@@CAPADXZ 10028ac4 f i libucrt:output.obj
 0001:00027aca       ?narrow_null_string@?$output_processor@_WV?$stream_output_adapter@_W@__crt_stdio_output@@V?$standard_base@_WV?$stream_output_adapter@_W@__crt_stdio_output@@@2@@__crt_stdio_output@@CAPADXZ 10028aca f i libucrt:output.obj
 0001:00027ad0       ?narrow_null_string@?$output_processor@_WV?$string_output_adapter@_W@__crt_stdio_output@@V?$format_validation_base@_WV?$string_output_adapter@_W@__crt_stdio_output@@@2@@__crt_stdio_output@@CAPADXZ 10028ad0 f i libucrt:output.obj
 0001:00027ad6       ?narrow_null_string@?$output_processor@_WV?$string_output_adapter@_W@__crt_stdio_output@@V?$positional_parameter_base@_WV?$string_output_adapter@_W@__crt_stdio_output@@@2@@__crt_stdio_output@@CAPADXZ 10028ad6 f i libucrt:output.obj
 0001:00027adc       ?narrow_null_string@?$output_processor@_WV?$string_output_adapter@_W@__crt_stdio_output@@V?$standard_base@_WV?$string_output_adapter@_W@__crt_stdio_output@@@2@@__crt_stdio_output@@CAPADXZ 10028adc f i libucrt:output.obj
 0001:00027ae2       ?parse_int_from_format_string@?$output_processor@DV?$stream_output_adapter@D@__crt_stdio_output@@V?$format_validation_base@DV?$stream_output_adapter@D@__crt_stdio_output@@@2@@__crt_stdio_output@@AAE_NQAH@Z 10028ae2 f i libucrt:output.obj
 0001:00027b55       ?parse_int_from_format_string@?$output_processor@DV?$stream_output_adapter@D@__crt_stdio_output@@V?$positional_parameter_base@DV?$stream_output_adapter@D@__crt_stdio_output@@@2@@__crt_stdio_output@@AAE_NQAH@Z 10028b55 f i libucrt:output.obj
 0001:00027bc8       ?parse_int_from_format_string@?$output_processor@DV?$stream_output_adapter@D@__crt_stdio_output@@V?$standard_base@DV?$stream_output_adapter@D@__crt_stdio_output@@@2@@__crt_stdio_output@@AAE_NQAH@Z 10028bc8 f i libucrt:output.obj
 0001:00027c3b       ?parse_int_from_format_string@?$output_processor@DV?$string_output_adapter@D@__crt_stdio_output@@V?$format_validation_base@DV?$string_output_adapter@D@__crt_stdio_output@@@2@@__crt_stdio_output@@AAE_NQAH@Z 10028c3b f i libucrt:output.obj
 0001:00027cae       ?parse_int_from_format_string@?$output_processor@DV?$string_output_adapter@D@__crt_stdio_output@@V?$positional_parameter_base@DV?$string_output_adapter@D@__crt_stdio_output@@@2@@__crt_stdio_output@@AAE_NQAH@Z 10028cae f i libucrt:output.obj
 0001:00027d21       ?parse_int_from_format_string@?$output_processor@DV?$string_output_adapter@D@__crt_stdio_output@@V?$standard_base@DV?$string_output_adapter@D@__crt_stdio_output@@@2@@__crt_stdio_output@@AAE_NQAH@Z 10028d21 f i libucrt:output.obj
 0001:00027d94       ?parse_int_from_format_string@?$output_processor@_WV?$stream_output_adapter@_W@__crt_stdio_output@@V?$format_validation_base@_WV?$stream_output_adapter@_W@__crt_stdio_output@@@2@@__crt_stdio_output@@AAE_NQAH@Z 10028d94 f i libucrt:output.obj
 0001:00027e09       ?parse_int_from_format_string@?$output_processor@_WV?$stream_output_adapter@_W@__crt_stdio_output@@V?$positional_parameter_base@_WV?$stream_output_adapter@_W@__crt_stdio_output@@@2@@__crt_stdio_output@@AAE_NQAH@Z 10028e09 f i libucrt:output.obj
 0001:00027e7e       ?parse_int_from_format_string@?$output_processor@_WV?$stream_output_adapter@_W@__crt_stdio_output@@V?$standard_base@_WV?$stream_output_adapter@_W@__crt_stdio_output@@@2@@__crt_stdio_output@@AAE_NQAH@Z 10028e7e f i libucrt:output.obj
 0001:00027ef3       ?parse_int_from_format_string@?$output_processor@_WV?$string_output_adapter@_W@__crt_stdio_output@@V?$format_validation_base@_WV?$string_output_adapter@_W@__crt_stdio_output@@@2@@__crt_stdio_output@@AAE_NQAH@Z 10028ef3 f i libucrt:output.obj
 0001:00027f68       ?parse_int_from_format_string@?$output_processor@_WV?$string_output_adapter@_W@__crt_stdio_output@@V?$positional_parameter_base@_WV?$string_output_adapter@_W@__crt_stdio_output@@@2@@__crt_stdio_output@@AAE_NQAH@Z 10028f68 f i libucrt:output.obj
 0001:00027fdd       ?parse_int_from_format_string@?$output_processor@_WV?$string_output_adapter@_W@__crt_stdio_output@@V?$standard_base@_WV?$string_output_adapter@_W@__crt_stdio_output@@@2@@__crt_stdio_output@@AAE_NQAH@Z 10028fdd f i libucrt:output.obj
 0001:00028052       ?process@?$output_processor@DV?$stream_output_adapter@D@__crt_stdio_output@@V?$format_validation_base@DV?$stream_output_adapter@D@__crt_stdio_output@@@2@@__crt_stdio_output@@QAEHXZ 10029052 f i libucrt:output.obj
 0001:000281c4       ?process@?$output_processor@DV?$stream_output_adapter@D@__crt_stdio_output@@V?$positional_parameter_base@DV?$stream_output_adapter@D@__crt_stdio_output@@@2@@__crt_stdio_output@@QAEHXZ 100291c4 f i libucrt:output.obj
 0001:00028377       ?process@?$output_processor@DV?$stream_output_adapter@D@__crt_stdio_output@@V?$standard_base@DV?$stream_output_adapter@D@__crt_stdio_output@@@2@@__crt_stdio_output@@QAEHXZ 10029377 f i libucrt:output.obj
 0001:000284da       ?process@?$output_processor@DV?$string_output_adapter@D@__crt_stdio_output@@V?$format_validation_base@DV?$string_output_adapter@D@__crt_stdio_output@@@2@@__crt_stdio_output@@QAEHXZ 100294da f i libucrt:output.obj
 0001:0002864c       ?process@?$output_processor@DV?$string_output_adapter@D@__crt_stdio_output@@V?$positional_parameter_base@DV?$string_output_adapter@D@__crt_stdio_output@@@2@@__crt_stdio_output@@QAEHXZ 1002964c f i libucrt:output.obj
 0001:000287ff       ?process@?$output_processor@DV?$string_output_adapter@D@__crt_stdio_output@@V?$standard_base@DV?$string_output_adapter@D@__crt_stdio_output@@@2@@__crt_stdio_output@@QAEHXZ 100297ff f i libucrt:output.obj
 0001:00028962       ?process@?$output_processor@_WV?$stream_output_adapter@_W@__crt_stdio_output@@V?$format_validation_base@_WV?$stream_output_adapter@_W@__crt_stdio_output@@@2@@__crt_stdio_output@@QAEHXZ 10029962 f i libucrt:output.obj
 0001:00028ade       ?process@?$output_processor@_WV?$stream_output_adapter@_W@__crt_stdio_output@@V?$positional_parameter_base@_WV?$stream_output_adapter@_W@__crt_stdio_output@@@2@@__crt_stdio_output@@QAEHXZ 10029ade f i libucrt:output.obj
 0001:00028c96       ?process@?$output_processor@_WV?$stream_output_adapter@_W@__crt_stdio_output@@V?$standard_base@_WV?$stream_output_adapter@_W@__crt_stdio_output@@@2@@__crt_stdio_output@@QAEHXZ 10029c96 f i libucrt:output.obj
 0001:00028dfe       ?process@?$output_processor@_WV?$string_output_adapter@_W@__crt_stdio_output@@V?$format_validation_base@_WV?$string_output_adapter@_W@__crt_stdio_output@@@2@@__crt_stdio_output@@QAEHXZ 10029dfe f i libucrt:output.obj
 0001:00028f7a       ?process@?$output_processor@_WV?$string_output_adapter@_W@__crt_stdio_output@@V?$positional_parameter_base@_WV?$string_output_adapter@_W@__crt_stdio_output@@@2@@__crt_stdio_output@@QAEHXZ 10029f7a f i libucrt:output.obj
 0001:00029132       ?process@?$output_processor@_WV?$string_output_adapter@_W@__crt_stdio_output@@V?$standard_base@_WV?$string_output_adapter@_W@__crt_stdio_output@@@2@@__crt_stdio_output@@QAEHXZ 1002a132 f i libucrt:output.obj
 0001:0002929a       ?public_stream@__crt_stdio_stream@@QBEPAU_iobuf@@XZ 1002a29a f i libucrt:output.obj
 0001:0002929d       ?set_flag@?$output_processor@DV?$stream_output_adapter@D@__crt_stdio_output@@V?$format_validation_base@DV?$stream_output_adapter@D@__crt_stdio_output@@@2@@__crt_stdio_output@@AAEXI@Z 1002a29d f i libucrt:output.obj
 0001:000292af       ?set_flag@?$output_processor@DV?$stream_output_adapter@D@__crt_stdio_output@@V?$positional_parameter_base@DV?$stream_output_adapter@D@__crt_stdio_output@@@2@@__crt_stdio_output@@AAEXI@Z 1002a2af f i libucrt:output.obj
 0001:000292c1       ?set_flag@?$output_processor@DV?$stream_output_adapter@D@__crt_stdio_output@@V?$standard_base@DV?$stream_output_adapter@D@__crt_stdio_output@@@2@@__crt_stdio_output@@AAEXI@Z 1002a2c1 f i libucrt:output.obj
 0001:000292d3       ?set_flag@?$output_processor@DV?$string_output_adapter@D@__crt_stdio_output@@V?$format_validation_base@DV?$string_output_adapter@D@__crt_stdio_output@@@2@@__crt_stdio_output@@AAEXI@Z 1002a2d3 f i libucrt:output.obj
 0001:000292e5       ?set_flag@?$output_processor@DV?$string_output_adapter@D@__crt_stdio_output@@V?$positional_parameter_base@DV?$string_output_adapter@D@__crt_stdio_output@@@2@@__crt_stdio_output@@AAEXI@Z 1002a2e5 f i libucrt:output.obj
 0001:000292f7       ?set_flag@?$output_processor@DV?$string_output_adapter@D@__crt_stdio_output@@V?$standard_base@DV?$string_output_adapter@D@__crt_stdio_output@@@2@@__crt_stdio_output@@AAEXI@Z 1002a2f7 f i libucrt:output.obj
 0001:00029309       ?set_flag@?$output_processor@_WV?$stream_output_adapter@_W@__crt_stdio_output@@V?$format_validation_base@_WV?$stream_output_adapter@_W@__crt_stdio_output@@@2@@__crt_stdio_output@@AAEXI@Z 1002a309 f i libucrt:output.obj
 0001:0002931b       ?set_flag@?$output_processor@_WV?$stream_output_adapter@_W@__crt_stdio_output@@V?$positional_parameter_base@_WV?$stream_output_adapter@_W@__crt_stdio_output@@@2@@__crt_stdio_output@@AAEXI@Z 1002a31b f i libucrt:output.obj
 0001:0002932d       ?set_flag@?$output_processor@_WV?$stream_output_adapter@_W@__crt_stdio_output@@V?$standard_base@_WV?$stream_output_adapter@_W@__crt_stdio_output@@@2@@__crt_stdio_output@@AAEXI@Z 1002a32d f i libucrt:output.obj
 0001:0002933f       ?set_flag@?$output_processor@_WV?$string_output_adapter@_W@__crt_stdio_output@@V?$format_validation_base@_WV?$string_output_adapter@_W@__crt_stdio_output@@@2@@__crt_stdio_output@@AAEXI@Z 1002a33f f i libucrt:output.obj
 0001:00029351       ?set_flag@?$output_processor@_WV?$string_output_adapter@_W@__crt_stdio_output@@V?$positional_parameter_base@_WV?$string_output_adapter@_W@__crt_stdio_output@@@2@@__crt_stdio_output@@AAEXI@Z 1002a351 f i libucrt:output.obj
 0001:00029363       ?set_flag@?$output_processor@_WV?$string_output_adapter@_W@__crt_stdio_output@@V?$standard_base@_WV?$string_output_adapter@_W@__crt_stdio_output@@@2@@__crt_stdio_output@@AAEXI@Z 1002a363 f i libucrt:output.obj
 0001:00029375       ?should_format@?$positional_parameter_base@DV?$stream_output_adapter@D@__crt_stdio_output@@@__crt_stdio_output@@IAE_NXZ 1002a375 f i libucrt:output.obj
 0001:00029390       ?should_format@?$positional_parameter_base@DV?$string_output_adapter@D@__crt_stdio_output@@@__crt_stdio_output@@IAE_NXZ 1002a390 f i libucrt:output.obj
 0001:000293ab       ?should_format@?$positional_parameter_base@_WV?$stream_output_adapter@_W@__crt_stdio_output@@@__crt_stdio_output@@IAE_NXZ 1002a3ab f i libucrt:output.obj
 0001:000293c6       ?should_format@?$positional_parameter_base@_WV?$string_output_adapter@_W@__crt_stdio_output@@@__crt_stdio_output@@IAE_NXZ 1002a3c6 f i libucrt:output.obj
 0001:000293e1       ?should_format@?$standard_base@DV?$stream_output_adapter@D@__crt_stdio_output@@@__crt_stdio_output@@IAE_NXZ 1002a3e1 f i libucrt:output.obj
 0001:000293e4       ?should_format@?$standard_base@DV?$string_output_adapter@D@__crt_stdio_output@@@__crt_stdio_output@@IAE_NXZ 1002a3e4 f i libucrt:output.obj
 0001:000293e7       ?should_format@?$standard_base@_WV?$stream_output_adapter@_W@__crt_stdio_output@@@__crt_stdio_output@@IAE_NXZ 1002a3e7 f i libucrt:output.obj
 0001:000293ea       ?should_format@?$standard_base@_WV?$string_output_adapter@_W@__crt_stdio_output@@@__crt_stdio_output@@IAE_NXZ 1002a3ea f i libucrt:output.obj
 0001:000293ed       ?should_skip_normal_state_processing@?$positional_parameter_base@DV?$stream_output_adapter@D@__crt_stdio_output@@@__crt_stdio_output@@IAE_NXZ 1002a3ed f i libucrt:output.obj
 0001:0002941f       ?should_skip_normal_state_processing@?$positional_parameter_base@DV?$string_output_adapter@D@__crt_stdio_output@@@__crt_stdio_output@@IAE_NXZ 1002a41f f i libucrt:output.obj
 0001:00029451       ?should_skip_normal_state_processing@?$positional_parameter_base@_WV?$stream_output_adapter@_W@__crt_stdio_output@@@__crt_stdio_output@@IAE_NXZ 1002a451 f i libucrt:output.obj
 0001:00029483       ?should_skip_normal_state_processing@?$positional_parameter_base@_WV?$string_output_adapter@_W@__crt_stdio_output@@@__crt_stdio_output@@IAE_NXZ 1002a483 f i libucrt:output.obj
 0001:000294b5       ?should_skip_normal_state_processing@?$standard_base@DV?$stream_output_adapter@D@__crt_stdio_output@@@__crt_stdio_output@@IAE_NXZ 1002a4b5 f i libucrt:output.obj
 0001:000294b8       ?should_skip_normal_state_processing@?$standard_base@DV?$string_output_adapter@D@__crt_stdio_output@@@__crt_stdio_output@@IAE_NXZ 1002a4b8 f i libucrt:output.obj
 0001:000294bb       ?should_skip_normal_state_processing@?$standard_base@_WV?$stream_output_adapter@_W@__crt_stdio_output@@@__crt_stdio_output@@IAE_NXZ 1002a4bb f i libucrt:output.obj
 0001:000294be       ?should_skip_normal_state_processing@?$standard_base@_WV?$string_output_adapter@_W@__crt_stdio_output@@@__crt_stdio_output@@IAE_NXZ 1002a4be f i libucrt:output.obj
 0001:000294c1       ?should_skip_type_state_output@?$positional_parameter_base@DV?$stream_output_adapter@D@__crt_stdio_output@@@__crt_stdio_output@@IBE_NXZ 1002a4c1 f i libucrt:output.obj
 0001:000294dd       ?should_skip_type_state_output@?$positional_parameter_base@DV?$string_output_adapter@D@__crt_stdio_output@@@__crt_stdio_output@@IBE_NXZ 1002a4dd f i libucrt:output.obj
 0001:000294f9       ?should_skip_type_state_output@?$positional_parameter_base@_WV?$stream_output_adapter@_W@__crt_stdio_output@@@__crt_stdio_output@@IBE_NXZ 1002a4f9 f i libucrt:output.obj
 0001:00029515       ?should_skip_type_state_output@?$positional_parameter_base@_WV?$string_output_adapter@_W@__crt_stdio_output@@@__crt_stdio_output@@IBE_NXZ 1002a515 f i libucrt:output.obj
 0001:00029531       ?should_skip_type_state_output@?$standard_base@DV?$stream_output_adapter@D@__crt_stdio_output@@@__crt_stdio_output@@IBE_NXZ 1002a531 f i libucrt:output.obj
 0001:00029534       ?should_skip_type_state_output@?$standard_base@DV?$string_output_adapter@D@__crt_stdio_output@@@__crt_stdio_output@@IBE_NXZ 1002a534 f i libucrt:output.obj
 0001:00029537       ?should_skip_type_state_output@?$standard_base@_WV?$stream_output_adapter@_W@__crt_stdio_output@@@__crt_stdio_output@@IBE_NXZ 1002a537 f i libucrt:output.obj
 0001:0002953a       ?should_skip_type_state_output@?$standard_base@_WV?$string_output_adapter@_W@__crt_stdio_output@@@__crt_stdio_output@@IBE_NXZ 1002a53a f i libucrt:output.obj
 0001:0002953d       ?state_case_dot@?$output_processor@DV?$stream_output_adapter@D@__crt_stdio_output@@V?$format_validation_base@DV?$stream_output_adapter@D@__crt_stdio_output@@@2@@__crt_stdio_output@@AAE_NXZ 1002a53d f i libucrt:output.obj
 0001:00029544       ?state_case_dot@?$output_processor@DV?$stream_output_adapter@D@__crt_stdio_output@@V?$positional_parameter_base@DV?$stream_output_adapter@D@__crt_stdio_output@@@2@@__crt_stdio_output@@AAE_NXZ 1002a544 f i libucrt:output.obj
 0001:0002954b       ?state_case_dot@?$output_processor@DV?$stream_output_adapter@D@__crt_stdio_output@@V?$standard_base@DV?$stream_output_adapter@D@__crt_stdio_output@@@2@@__crt_stdio_output@@AAE_NXZ 1002a54b f i libucrt:output.obj
 0001:00029552       ?state_case_dot@?$output_processor@DV?$string_output_adapter@D@__crt_stdio_output@@V?$format_validation_base@DV?$string_output_adapter@D@__crt_stdio_output@@@2@@__crt_stdio_output@@AAE_NXZ 1002a552 f i libucrt:output.obj
 0001:00029559       ?state_case_dot@?$output_processor@DV?$string_output_adapter@D@__crt_stdio_output@@V?$positional_parameter_base@DV?$string_output_adapter@D@__crt_stdio_output@@@2@@__crt_stdio_output@@AAE_NXZ 1002a559 f i libucrt:output.obj
 0001:00029560       ?state_case_dot@?$output_processor@DV?$string_output_adapter@D@__crt_stdio_output@@V?$standard_base@DV?$string_output_adapter@D@__crt_stdio_output@@@2@@__crt_stdio_output@@AAE_NXZ 1002a560 f i libucrt:output.obj
 0001:00029567       ?state_case_dot@?$output_processor@_WV?$stream_output_adapter@_W@__crt_stdio_output@@V?$format_validation_base@_WV?$stream_output_adapter@_W@__crt_stdio_output@@@2@@__crt_stdio_output@@AAE_NXZ 1002a567 f i libucrt:output.obj
 0001:0002956e       ?state_case_dot@?$output_processor@_WV?$stream_output_adapter@_W@__crt_stdio_output@@V?$positional_parameter_base@_WV?$stream_output_adapter@_W@__crt_stdio_output@@@2@@__crt_stdio_output@@AAE_NXZ 1002a56e f i libucrt:output.obj
 0001:00029575       ?state_case_dot@?$output_processor@_WV?$stream_output_adapter@_W@__crt_stdio_output@@V?$standard_base@_WV?$stream_output_adapter@_W@__crt_stdio_output@@@2@@__crt_stdio_output@@AAE_NXZ 1002a575 f i libucrt:output.obj
 0001:0002957c       ?state_case_dot@?$output_processor@_WV?$string_output_adapter@_W@__crt_stdio_output@@V?$format_validation_base@_WV?$string_output_adapter@_W@__crt_stdio_output@@@2@@__crt_stdio_output@@AAE_NXZ 1002a57c f i libucrt:output.obj
 0001:00029583       ?state_case_dot@?$output_processor@_WV?$string_output_adapter@_W@__crt_stdio_output@@V?$positional_parameter_base@_WV?$string_output_adapter@_W@__crt_stdio_output@@@2@@__crt_stdio_output@@AAE_NXZ 1002a583 f i libucrt:output.obj
 0001:0002958a       ?state_case_dot@?$output_processor@_WV?$string_output_adapter@_W@__crt_stdio_output@@V?$standard_base@_WV?$string_output_adapter@_W@__crt_stdio_output@@@2@@__crt_stdio_output@@AAE_NXZ 1002a58a f i libucrt:output.obj
 0001:00029591       ?state_case_flag@?$output_processor@DV?$stream_output_adapter@D@__crt_stdio_output@@V?$format_validation_base@DV?$stream_output_adapter@D@__crt_stdio_output@@@2@@__crt_stdio_output@@AAE_NXZ 1002a591 f i libucrt:output.obj
 0001:000295dd       ?state_case_flag@?$output_processor@DV?$stream_output_adapter@D@__crt_stdio_output@@V?$positional_parameter_base@DV?$stream_output_adapter@D@__crt_stdio_output@@@2@@__crt_stdio_output@@AAE_NXZ 1002a5dd f i libucrt:output.obj
 0001:00029629       ?state_case_flag@?$output_processor@DV?$stream_output_adapter@D@__crt_stdio_output@@V?$standard_base@DV?$stream_output_adapter@D@__crt_stdio_output@@@2@@__crt_stdio_output@@AAE_NXZ 1002a629 f i libucrt:output.obj
 0001:00029675       ?state_case_flag@?$output_processor@DV?$string_output_adapter@D@__crt_stdio_output@@V?$format_validation_base@DV?$string_output_adapter@D@__crt_stdio_output@@@2@@__crt_stdio_output@@AAE_NXZ 1002a675 f i libucrt:output.obj
 0001:000296c1       ?state_case_flag@?$output_processor@DV?$string_output_adapter@D@__crt_stdio_output@@V?$positional_parameter_base@DV?$string_output_adapter@D@__crt_stdio_output@@@2@@__crt_stdio_output@@AAE_NXZ 1002a6c1 f i libucrt:output.obj
 0001:0002970d       ?state_case_flag@?$output_processor@DV?$string_output_adapter@D@__crt_stdio_output@@V?$standard_base@DV?$string_output_adapter@D@__crt_stdio_output@@@2@@__crt_stdio_output@@AAE_NXZ 1002a70d f i libucrt:output.obj
 0001:00029759       ?state_case_flag@?$output_processor@_WV?$stream_output_adapter@_W@__crt_stdio_output@@V?$format_validation_base@_WV?$stream_output_adapter@_W@__crt_stdio_output@@@2@@__crt_stdio_output@@AAE_NXZ 1002a759 f i libucrt:output.obj
 0001:000297a5       ?state_case_flag@?$output_processor@_WV?$stream_output_adapter@_W@__crt_stdio_output@@V?$positional_parameter_base@_WV?$stream_output_adapter@_W@__crt_stdio_output@@@2@@__crt_stdio_output@@AAE_NXZ 1002a7a5 f i libucrt:output.obj
 0001:000297f1       ?state_case_flag@?$output_processor@_WV?$stream_output_adapter@_W@__crt_stdio_output@@V?$standard_base@_WV?$stream_output_adapter@_W@__crt_stdio_output@@@2@@__crt_stdio_output@@AAE_NXZ 1002a7f1 f i libucrt:output.obj
 0001:0002983d       ?state_case_flag@?$output_processor@_WV?$string_output_adapter@_W@__crt_stdio_output@@V?$format_validation_base@_WV?$string_output_adapter@_W@__crt_stdio_output@@@2@@__crt_stdio_output@@AAE_NXZ 1002a83d f i libucrt:output.obj
 0001:00029889       ?state_case_flag@?$output_processor@_WV?$string_output_adapter@_W@__crt_stdio_output@@V?$positional_parameter_base@_WV?$string_output_adapter@_W@__crt_stdio_output@@@2@@__crt_stdio_output@@AAE_NXZ 1002a889 f i libucrt:output.obj
 0001:000298d5       ?state_case_flag@?$output_processor@_WV?$string_output_adapter@_W@__crt_stdio_output@@V?$standard_base@_WV?$string_output_adapter@_W@__crt_stdio_output@@@2@@__crt_stdio_output@@AAE_NXZ 1002a8d5 f i libucrt:output.obj
 0001:00029921       ?state_case_normal@?$output_processor@DV?$stream_output_adapter@D@__crt_stdio_output@@V?$format_validation_base@DV?$stream_output_adapter@D@__crt_stdio_output@@@2@@__crt_stdio_output@@AAE_NXZ 1002a921 f i libucrt:output.obj
 0001:00029947       ?state_case_normal@?$output_processor@DV?$stream_output_adapter@D@__crt_stdio_output@@V?$positional_parameter_base@DV?$stream_output_adapter@D@__crt_stdio_output@@@2@@__crt_stdio_output@@AAE_NXZ 1002a947 f i libucrt:output.obj
 0001:00029984       ?state_case_normal@?$output_processor@DV?$stream_output_adapter@D@__crt_stdio_output@@V?$standard_base@DV?$stream_output_adapter@D@__crt_stdio_output@@@2@@__crt_stdio_output@@AAE_NXZ 1002a984 f i libucrt:output.obj
 0001:000299aa       ?state_case_normal@?$output_processor@DV?$string_output_adapter@D@__crt_stdio_output@@V?$format_validation_base@DV?$string_output_adapter@D@__crt_stdio_output@@@2@@__crt_stdio_output@@AAE_NXZ 1002a9aa f i libucrt:output.obj
 0001:000299d0       ?state_case_normal@?$output_processor@DV?$string_output_adapter@D@__crt_stdio_output@@V?$positional_parameter_base@DV?$string_output_adapter@D@__crt_stdio_output@@@2@@__crt_stdio_output@@AAE_NXZ 1002a9d0 f i libucrt:output.obj
 0001:00029a0d       ?state_case_normal@?$output_processor@DV?$string_output_adapter@D@__crt_stdio_output@@V?$standard_base@DV?$string_output_adapter@D@__crt_stdio_output@@@2@@__crt_stdio_output@@AAE_NXZ 1002aa0d f i libucrt:output.obj
 0001:00029a33       ?state_case_normal@?$output_processor@_WV?$stream_output_adapter@_W@__crt_stdio_output@@V?$format_validation_base@_WV?$stream_output_adapter@_W@__crt_stdio_output@@@2@@__crt_stdio_output@@AAE_NXZ 1002aa33 f i libucrt:output.obj
 0001:00029a59       ?state_case_normal@?$output_processor@_WV?$stream_output_adapter@_W@__crt_stdio_output@@V?$positional_parameter_base@_WV?$stream_output_adapter@_W@__crt_stdio_output@@@2@@__crt_stdio_output@@AAE_NXZ 1002aa59 f i libucrt:output.obj
 0001:00029a96       ?state_case_normal@?$output_processor@_WV?$stream_output_adapter@_W@__crt_stdio_output@@V?$standard_base@_WV?$stream_output_adapter@_W@__crt_stdio_output@@@2@@__crt_stdio_output@@AAE_NXZ 1002aa96 f i libucrt:output.obj
 0001:00029abc       ?state_case_normal@?$output_processor@_WV?$string_output_adapter@_W@__crt_stdio_output@@V?$format_validation_base@_WV?$string_output_adapter@_W@__crt_stdio_output@@@2@@__crt_stdio_output@@AAE_NXZ 1002aabc f i libucrt:output.obj
 0001:00029ae2       ?state_case_normal@?$output_processor@_WV?$string_output_adapter@_W@__crt_stdio_output@@V?$positional_parameter_base@_WV?$string_output_adapter@_W@__crt_stdio_output@@@2@@__crt_stdio_output@@AAE_NXZ 1002aae2 f i libucrt:output.obj
 0001:00029b1f       ?state_case_normal@?$output_processor@_WV?$string_output_adapter@_W@__crt_stdio_output@@V?$standard_base@_WV?$string_output_adapter@_W@__crt_stdio_output@@@2@@__crt_stdio_output@@AAE_NXZ 1002ab1f f i libucrt:output.obj
 0001:00029b45       ?state_case_normal_common@?$output_processor@DV?$stream_output_adapter@D@__crt_stdio_output@@V?$format_validation_base@DV?$stream_output_adapter@D@__crt_stdio_output@@@2@@__crt_stdio_output@@AAE_NXZ 1002ab45 f i libucrt:output.obj
 0001:00029b79       ?state_case_normal_common@?$output_processor@DV?$stream_output_adapter@D@__crt_stdio_output@@V?$positional_parameter_base@DV?$stream_output_adapter@D@__crt_stdio_output@@@2@@__crt_stdio_output@@AAE_NXZ 1002ab79 f i libucrt:output.obj
 0001:00029bad       ?state_case_normal_common@?$output_processor@DV?$stream_output_adapter@D@__crt_stdio_output@@V?$standard_base@DV?$stream_output_adapter@D@__crt_stdio_output@@@2@@__crt_stdio_output@@AAE_NXZ 1002abad f i libucrt:output.obj
 0001:00029be1       ?state_case_normal_common@?$output_processor@DV?$string_output_adapter@D@__crt_stdio_output@@V?$format_validation_base@DV?$string_output_adapter@D@__crt_stdio_output@@@2@@__crt_stdio_output@@AAE_NXZ 1002abe1 f i libucrt:output.obj
 0001:00029c15       ?state_case_normal_common@?$output_processor@DV?$string_output_adapter@D@__crt_stdio_output@@V?$positional_parameter_base@DV?$string_output_adapter@D@__crt_stdio_output@@@2@@__crt_stdio_output@@AAE_NXZ 1002ac15 f i libucrt:output.obj
 0001:00029c49       ?state_case_normal_common@?$output_processor@DV?$string_output_adapter@D@__crt_stdio_output@@V?$standard_base@DV?$string_output_adapter@D@__crt_stdio_output@@@2@@__crt_stdio_output@@AAE_NXZ 1002ac49 f i libucrt:output.obj
 0001:00029c7d       ?state_case_normal_common@?$output_processor@_WV?$stream_output_adapter@_W@__crt_stdio_output@@V?$format_validation_base@_WV?$stream_output_adapter@_W@__crt_stdio_output@@@2@@__crt_stdio_output@@AAE_NXZ 1002ac7d f i libucrt:output.obj
 0001:00029c9e       ?state_case_normal_common@?$output_processor@_WV?$stream_output_adapter@_W@__crt_stdio_output@@V?$positional_parameter_base@_WV?$stream_output_adapter@_W@__crt_stdio_output@@@2@@__crt_stdio_output@@AAE_NXZ 1002ac9e f i libucrt:output.obj
 0001:00029cbf       ?state_case_normal_common@?$output_processor@_WV?$stream_output_adapter@_W@__crt_stdio_output@@V?$standard_base@_WV?$stream_output_adapter@_W@__crt_stdio_output@@@2@@__crt_stdio_output@@AAE_NXZ 1002acbf f i libucrt:output.obj
 0001:00029ce0       ?state_case_normal_common@?$output_processor@_WV?$string_output_adapter@_W@__crt_stdio_output@@V?$format_validation_base@_WV?$string_output_adapter@_W@__crt_stdio_output@@@2@@__crt_stdio_output@@AAE_NXZ 1002ace0 f i libucrt:output.obj
 0001:00029d01       ?state_case_normal_common@?$output_processor@_WV?$string_output_adapter@_W@__crt_stdio_output@@V?$positional_parameter_base@_WV?$string_output_adapter@_W@__crt_stdio_output@@@2@@__crt_stdio_output@@AAE_NXZ 1002ad01 f i libucrt:output.obj
 0001:00029d22       ?state_case_normal_common@?$output_processor@_WV?$string_output_adapter@_W@__crt_stdio_output@@V?$standard_base@_WV?$string_output_adapter@_W@__crt_stdio_output@@@2@@__crt_stdio_output@@AAE_NXZ 1002ad22 f i libucrt:output.obj
 0001:00029d43       ?state_case_normal_tchar@?$output_processor@DV?$stream_output_adapter@D@__crt_stdio_output@@V?$format_validation_base@DV?$stream_output_adapter@D@__crt_stdio_output@@@2@@__crt_stdio_output@@AAE_ND@Z 1002ad43 f i libucrt:output.obj
 0001:00029dbc       ?state_case_normal_tchar@?$output_processor@DV?$stream_output_adapter@D@__crt_stdio_output@@V?$positional_parameter_base@DV?$stream_output_adapter@D@__crt_stdio_output@@@2@@__crt_stdio_output@@AAE_ND@Z 1002adbc f i libucrt:output.obj
 0001:00029e35       ?state_case_normal_tchar@?$output_processor@DV?$stream_output_adapter@D@__crt_stdio_output@@V?$standard_base@DV?$stream_output_adapter@D@__crt_stdio_output@@@2@@__crt_stdio_output@@AAE_ND@Z 1002ae35 f i libucrt:output.obj
 0001:00029eae       ?state_case_normal_tchar@?$output_processor@DV?$string_output_adapter@D@__crt_stdio_output@@V?$format_validation_base@DV?$string_output_adapter@D@__crt_stdio_output@@@2@@__crt_stdio_output@@AAE_ND@Z 1002aeae f i libucrt:output.obj
 0001:00029f27       ?state_case_normal_tchar@?$output_processor@DV?$string_output_adapter@D@__crt_stdio_output@@V?$positional_parameter_base@DV?$string_output_adapter@D@__crt_stdio_output@@@2@@__crt_stdio_output@@AAE_ND@Z 1002af27 f i libucrt:output.obj
 0001:00029fa0       ?state_case_normal_tchar@?$output_processor@DV?$string_output_adapter@D@__crt_stdio_output@@V?$standard_base@DV?$string_output_adapter@D@__crt_stdio_output@@@2@@__crt_stdio_output@@AAE_ND@Z 1002afa0 f i libucrt:output.obj
 0001:0002a019       ?state_case_normal_tchar@?$output_processor@_WV?$stream_output_adapter@_W@__crt_stdio_output@@V?$format_validation_base@_WV?$stream_output_adapter@_W@__crt_stdio_output@@@2@@__crt_stdio_output@@AAE_N_W@Z 1002b019 f i libucrt:output.obj
 0001:0002a024       ?state_case_normal_tchar@?$output_processor@_WV?$stream_output_adapter@_W@__crt_stdio_output@@V?$positional_parameter_base@_WV?$stream_output_adapter@_W@__crt_stdio_output@@@2@@__crt_stdio_output@@AAE_N_W@Z 1002b024 f i libucrt:output.obj
 0001:0002a02f       ?state_case_normal_tchar@?$output_processor@_WV?$stream_output_adapter@_W@__crt_stdio_output@@V?$standard_base@_WV?$stream_output_adapter@_W@__crt_stdio_output@@@2@@__crt_stdio_output@@AAE_N_W@Z 1002b02f f i libucrt:output.obj
 0001:0002a03a       ?state_case_normal_tchar@?$output_processor@_WV?$string_output_adapter@_W@__crt_stdio_output@@V?$format_validation_base@_WV?$string_output_adapter@_W@__crt_stdio_output@@@2@@__crt_stdio_output@@AAE_N_W@Z 1002b03a f i libucrt:output.obj
 0001:0002a045       ?state_case_normal_tchar@?$output_processor@_WV?$string_output_adapter@_W@__crt_stdio_output@@V?$positional_parameter_base@_WV?$string_output_adapter@_W@__crt_stdio_output@@@2@@__crt_stdio_output@@AAE_N_W@Z 1002b045 f i libucrt:output.obj
 0001:0002a050       ?state_case_normal_tchar@?$output_processor@_WV?$string_output_adapter@_W@__crt_stdio_output@@V?$standard_base@_WV?$string_output_adapter@_W@__crt_stdio_output@@@2@@__crt_stdio_output@@AAE_N_W@Z 1002b050 f i libucrt:output.obj
 0001:0002a05b       ?state_case_percent@?$output_processor@DV?$stream_output_adapter@D@__crt_stdio_output@@V?$format_validation_base@DV?$stream_output_adapter@D@__crt_stdio_output@@@2@@__crt_stdio_output@@AAE_NXZ 1002b05b f i libucrt:output.obj
 0001:0002a079       ?state_case_percent@?$output_processor@DV?$stream_output_adapter@D@__crt_stdio_output@@V?$positional_parameter_base@DV?$stream_output_adapter@D@__crt_stdio_output@@@2@@__crt_stdio_output@@AAE_NXZ 1002b079 f i libucrt:output.obj
 0001:0002a097       ?state_case_percent@?$output_processor@DV?$stream_output_adapter@D@__crt_stdio_output@@V?$standard_base@DV?$stream_output_adapter@D@__crt_stdio_output@@@2@@__crt_stdio_output@@AAE_NXZ 1002b097 f i libucrt:output.obj
 0001:0002a0b5       ?state_case_percent@?$output_processor@DV?$string_output_adapter@D@__crt_stdio_output@@V?$format_validation_base@DV?$string_output_adapter@D@__crt_stdio_output@@@2@@__crt_stdio_output@@AAE_NXZ 1002b0b5 f i libucrt:output.obj
 0001:0002a0d3       ?state_case_percent@?$output_processor@DV?$string_output_adapter@D@__crt_stdio_output@@V?$positional_parameter_base@DV?$string_output_adapter@D@__crt_stdio_output@@@2@@__crt_stdio_output@@AAE_NXZ 1002b0d3 f i libucrt:output.obj
 0001:0002a0f1       ?state_case_percent@?$output_processor@DV?$string_output_adapter@D@__crt_stdio_output@@V?$standard_base@DV?$string_output_adapter@D@__crt_stdio_output@@@2@@__crt_stdio_output@@AAE_NXZ 1002b0f1 f i libucrt:output.obj
 0001:0002a10f       ?state_case_percent@?$output_processor@_WV?$stream_output_adapter@_W@__crt_stdio_output@@V?$format_validation_base@_WV?$stream_output_adapter@_W@__crt_stdio_output@@@2@@__crt_stdio_output@@AAE_NXZ 1002b10f f i libucrt:output.obj
 0001:0002a12d       ?state_case_percent@?$output_processor@_WV?$stream_output_adapter@_W@__crt_stdio_output@@V?$positional_parameter_base@_WV?$stream_output_adapter@_W@__crt_stdio_output@@@2@@__crt_stdio_output@@AAE_NXZ 1002b12d f i libucrt:output.obj
 0001:0002a14b       ?state_case_percent@?$output_processor@_WV?$stream_output_adapter@_W@__crt_stdio_output@@V?$standard_base@_WV?$stream_output_adapter@_W@__crt_stdio_output@@@2@@__crt_stdio_output@@AAE_NXZ 1002b14b f i libucrt:output.obj
 0001:0002a169       ?state_case_percent@?$output_processor@_WV?$string_output_adapter@_W@__crt_stdio_output@@V?$format_validation_base@_WV?$string_output_adapter@_W@__crt_stdio_output@@@2@@__crt_stdio_output@@AAE_NXZ 1002b169 f i libucrt:output.obj
 0001:0002a187       ?state_case_percent@?$output_processor@_WV?$string_output_adapter@_W@__crt_stdio_output@@V?$positional_parameter_base@_WV?$string_output_adapter@_W@__crt_stdio_output@@@2@@__crt_stdio_output@@AAE_NXZ 1002b187 f i libucrt:output.obj
 0001:0002a1a5       ?state_case_percent@?$output_processor@_WV?$string_output_adapter@_W@__crt_stdio_output@@V?$standard_base@_WV?$string_output_adapter@_W@__crt_stdio_output@@@2@@__crt_stdio_output@@AAE_NXZ 1002b1a5 f i libucrt:output.obj
 0001:0002a1c3       ?state_case_precision@?$output_processor@DV?$stream_output_adapter@D@__crt_stdio_output@@V?$format_validation_base@DV?$stream_output_adapter@D@__crt_stdio_output@@@2@@__crt_stdio_output@@AAE_NXZ 1002b1c3 f i libucrt:output.obj
 0001:0002a1f5       ?state_case_precision@?$output_processor@DV?$stream_output_adapter@D@__crt_stdio_output@@V?$positional_parameter_base@DV?$stream_output_adapter@D@__crt_stdio_output@@@2@@__crt_stdio_output@@AAE_NXZ 1002b1f5 f i libucrt:output.obj
 0001:0002a23d       ?state_case_precision@?$output_processor@DV?$stream_output_adapter@D@__crt_stdio_output@@V?$standard_base@DV?$stream_output_adapter@D@__crt_stdio_output@@@2@@__crt_stdio_output@@AAE_NXZ 1002b23d f i libucrt:output.obj
 0001:0002a26f       ?state_case_precision@?$output_processor@DV?$string_output_adapter@D@__crt_stdio_output@@V?$format_validation_base@DV?$string_output_adapter@D@__crt_stdio_output@@@2@@__crt_stdio_output@@AAE_NXZ 1002b26f f i libucrt:output.obj
 0001:0002a2a1       ?state_case_precision@?$output_processor@DV?$string_output_adapter@D@__crt_stdio_output@@V?$positional_parameter_base@DV?$string_output_adapter@D@__crt_stdio_output@@@2@@__crt_stdio_output@@AAE_NXZ 1002b2a1 f i libucrt:output.obj
 0001:0002a2e9       ?state_case_precision@?$output_processor@DV?$string_output_adapter@D@__crt_stdio_output@@V?$standard_base@DV?$string_output_adapter@D@__crt_stdio_output@@@2@@__crt_stdio_output@@AAE_NXZ 1002b2e9 f i libucrt:output.obj
 0001:0002a31b       ?state_case_precision@?$output_processor@_WV?$stream_output_adapter@_W@__crt_stdio_output@@V?$format_validation_base@_WV?$stream_output_adapter@_W@__crt_stdio_output@@@2@@__crt_stdio_output@@AAE_NXZ 1002b31b f i libucrt:output.obj
 0001:0002a34e       ?state_case_precision@?$output_processor@_WV?$stream_output_adapter@_W@__crt_stdio_output@@V?$positional_parameter_base@_WV?$stream_output_adapter@_W@__crt_stdio_output@@@2@@__crt_stdio_output@@AAE_NXZ 1002b34e f i libucrt:output.obj
 0001:0002a397       ?state_case_precision@?$output_processor@_WV?$stream_output_adapter@_W@__crt_stdio_output@@V?$standard_base@_WV?$stream_output_adapter@_W@__crt_stdio_output@@@2@@__crt_stdio_output@@AAE_NXZ 1002b397 f i libucrt:output.obj
 0001:0002a3ca       ?state_case_precision@?$output_processor@_WV?$string_output_adapter@_W@__crt_stdio_output@@V?$format_validation_base@_WV?$string_output_adapter@_W@__crt_stdio_output@@@2@@__crt_stdio_output@@AAE_NXZ 1002b3ca f i libucrt:output.obj
 0001:0002a3fd       ?state_case_precision@?$output_processor@_WV?$string_output_adapter@_W@__crt_stdio_output@@V?$positional_parameter_base@_WV?$string_output_adapter@_W@__crt_stdio_output@@@2@@__crt_stdio_output@@AAE_NXZ 1002b3fd f i libucrt:output.obj
 0001:0002a446       ?state_case_precision@?$output_processor@_WV?$string_output_adapter@_W@__crt_stdio_output@@V?$standard_base@_WV?$string_output_adapter@_W@__crt_stdio_output@@@2@@__crt_stdio_output@@AAE_NXZ 1002b446 f i libucrt:output.obj
 0001:0002a479       ?state_case_size@?$output_processor@DV?$stream_output_adapter@D@__crt_stdio_output@@V?$format_validation_base@DV?$stream_output_adapter@D@__crt_stdio_output@@@2@@__crt_stdio_output@@AAE_NXZ 1002b479 f i libucrt:output.obj
 0001:0002a63c       ?state_case_size@?$output_processor@DV?$stream_output_adapter@D@__crt_stdio_output@@V?$positional_parameter_base@DV?$stream_output_adapter@D@__crt_stdio_output@@@2@@__crt_stdio_output@@AAE_NXZ 1002b63c f i libucrt:output.obj
 0001:0002a7ff       ?state_case_size@?$output_processor@DV?$stream_output_adapter@D@__crt_stdio_output@@V?$standard_base@DV?$stream_output_adapter@D@__crt_stdio_output@@@2@@__crt_stdio_output@@AAE_NXZ 1002b7ff f i libucrt:output.obj
 0001:0002a9c2       ?state_case_size@?$output_processor@DV?$string_output_adapter@D@__crt_stdio_output@@V?$format_validation_base@DV?$string_output_adapter@D@__crt_stdio_output@@@2@@__crt_stdio_output@@AAE_NXZ 1002b9c2 f i libucrt:output.obj
 0001:0002ab85       ?state_case_size@?$output_processor@DV?$string_output_adapter@D@__crt_stdio_output@@V?$positional_parameter_base@DV?$string_output_adapter@D@__crt_stdio_output@@@2@@__crt_stdio_output@@AAE_NXZ 1002bb85 f i libucrt:output.obj
 0001:0002ad48       ?state_case_size@?$output_processor@DV?$string_output_adapter@D@__crt_stdio_output@@V?$standard_base@DV?$string_output_adapter@D@__crt_stdio_output@@@2@@__crt_stdio_output@@AAE_NXZ 1002bd48 f i libucrt:output.obj
 0001:0002af0b       ?state_case_size@?$output_processor@_WV?$stream_output_adapter@_W@__crt_stdio_output@@V?$format_validation_base@_WV?$stream_output_adapter@_W@__crt_stdio_output@@@2@@__crt_stdio_output@@AAE_NXZ 1002bf0b f i libucrt:output.obj
 0001:0002b0e6       ?state_case_size@?$output_processor@_WV?$stream_output_adapter@_W@__crt_stdio_output@@V?$positional_parameter_base@_WV?$stream_output_adapter@_W@__crt_stdio_output@@@2@@__crt_stdio_output@@AAE_NXZ 1002c0e6 f i libucrt:output.obj
 0001:0002b2c1       ?state_case_size@?$output_processor@_WV?$stream_output_adapter@_W@__crt_stdio_output@@V?$standard_base@_WV?$stream_output_adapter@_W@__crt_stdio_output@@@2@@__crt_stdio_output@@AAE_NXZ 1002c2c1 f i libucrt:output.obj
 0001:0002b49c       ?state_case_size@?$output_processor@_WV?$string_output_adapter@_W@__crt_stdio_output@@V?$format_validation_base@_WV?$string_output_adapter@_W@__crt_stdio_output@@@2@@__crt_stdio_output@@AAE_NXZ 1002c49c f i libucrt:output.obj
 0001:0002b677       ?state_case_size@?$output_processor@_WV?$string_output_adapter@_W@__crt_stdio_output@@V?$positional_parameter_base@_WV?$string_output_adapter@_W@__crt_stdio_output@@@2@@__crt_stdio_output@@AAE_NXZ 1002c677 f i libucrt:output.obj
 0001:0002b852       ?state_case_size@?$output_processor@_WV?$string_output_adapter@_W@__crt_stdio_output@@V?$standard_base@_WV?$string_output_adapter@_W@__crt_stdio_output@@@2@@__crt_stdio_output@@AAE_NXZ 1002c852 f i libucrt:output.obj
 0001:0002ba2d       ?state_case_type@?$output_processor@DV?$stream_output_adapter@D@__crt_stdio_output@@V?$format_validation_base@DV?$stream_output_adapter@D@__crt_stdio_output@@@2@@__crt_stdio_output@@AAE_NXZ 1002ca2d f i libucrt:output.obj
 0001:0002bce7       ?state_case_type@?$output_processor@DV?$stream_output_adapter@D@__crt_stdio_output@@V?$positional_parameter_base@DV?$stream_output_adapter@D@__crt_stdio_output@@@2@@__crt_stdio_output@@AAE_NXZ 1002cce7 f i libucrt:output.obj
 0001:0002bfaf       ?state_case_type@?$output_processor@DV?$stream_output_adapter@D@__crt_stdio_output@@V?$standard_base@DV?$stream_output_adapter@D@__crt_stdio_output@@@2@@__crt_stdio_output@@AAE_NXZ 1002cfaf f i libucrt:output.obj
 0001:0002c269       ?state_case_type@?$output_processor@DV?$string_output_adapter@D@__crt_stdio_output@@V?$format_validation_base@DV?$string_output_adapter@D@__crt_stdio_output@@@2@@__crt_stdio_output@@AAE_NXZ 1002d269 f i libucrt:output.obj
 0001:0002c523       ?state_case_type@?$output_processor@DV?$string_output_adapter@D@__crt_stdio_output@@V?$positional_parameter_base@DV?$string_output_adapter@D@__crt_stdio_output@@@2@@__crt_stdio_output@@AAE_NXZ 1002d523 f i libucrt:output.obj
 0001:0002c7eb       ?state_case_type@?$output_processor@DV?$string_output_adapter@D@__crt_stdio_output@@V?$standard_base@DV?$string_output_adapter@D@__crt_stdio_output@@@2@@__crt_stdio_output@@AAE_NXZ 1002d7eb f i libucrt:output.obj
 0001:0002caa5       ?state_case_type@?$output_processor@_WV?$stream_output_adapter@_W@__crt_stdio_output@@V?$format_validation_base@_WV?$stream_output_adapter@_W@__crt_stdio_output@@@2@@__crt_stdio_output@@AAE_NXZ 1002daa5 f i libucrt:output.obj
 0001:0002cd99       ?state_case_type@?$output_processor@_WV?$stream_output_adapter@_W@__crt_stdio_output@@V?$positional_parameter_base@_WV?$stream_output_adapter@_W@__crt_stdio_output@@@2@@__crt_stdio_output@@AAE_NXZ 1002dd99 f i libucrt:output.obj
 0001:0002d0a0       ?state_case_type@?$output_processor@_WV?$stream_output_adapter@_W@__crt_stdio_output@@V?$standard_base@_WV?$stream_output_adapter@_W@__crt_stdio_output@@@2@@__crt_stdio_output@@AAE_NXZ 1002e0a0 f i libucrt:output.obj
 0001:0002d394       ?state_case_type@?$output_processor@_WV?$string_output_adapter@_W@__crt_stdio_output@@V?$format_validation_base@_WV?$string_output_adapter@_W@__crt_stdio_output@@@2@@__crt_stdio_output@@AAE_NXZ 1002e394 f i libucrt:output.obj
 0001:0002d688       ?state_case_type@?$output_processor@_WV?$string_output_adapter@_W@__crt_stdio_output@@V?$positional_parameter_base@_WV?$string_output_adapter@_W@__crt_stdio_output@@@2@@__crt_stdio_output@@AAE_NXZ 1002e688 f i libucrt:output.obj
 0001:0002d98f       ?state_case_type@?$output_processor@_WV?$string_output_adapter@_W@__crt_stdio_output@@V?$standard_base@_WV?$string_output_adapter@_W@__crt_stdio_output@@@2@@__crt_stdio_output@@AAE_NXZ 1002e98f f i libucrt:output.obj
 0001:0002dc83       ?state_case_width@?$output_processor@DV?$stream_output_adapter@D@__crt_stdio_output@@V?$format_validation_base@DV?$stream_output_adapter@D@__crt_stdio_output@@@2@@__crt_stdio_output@@AAE_NXZ 1002ec83 f i libucrt:output.obj
 0001:0002dcb8       ?state_case_width@?$output_processor@DV?$stream_output_adapter@D@__crt_stdio_output@@V?$positional_parameter_base@DV?$stream_output_adapter@D@__crt_stdio_output@@@2@@__crt_stdio_output@@AAE_NXZ 1002ecb8 f i libucrt:output.obj
 0001:0002dd08       ?state_case_width@?$output_processor@DV?$stream_output_adapter@D@__crt_stdio_output@@V?$standard_base@DV?$stream_output_adapter@D@__crt_stdio_output@@@2@@__crt_stdio_output@@AAE_NXZ 1002ed08 f i libucrt:output.obj
 0001:0002dd3d       ?state_case_width@?$output_processor@DV?$string_output_adapter@D@__crt_stdio_output@@V?$format_validation_base@DV?$string_output_adapter@D@__crt_stdio_output@@@2@@__crt_stdio_output@@AAE_NXZ 1002ed3d f i libucrt:output.obj
 0001:0002dd72       ?state_case_width@?$output_processor@DV?$string_output_adapter@D@__crt_stdio_output@@V?$positional_parameter_base@DV?$string_output_adapter@D@__crt_stdio_output@@@2@@__crt_stdio_output@@AAE_NXZ 1002ed72 f i libucrt:output.obj
 0001:0002ddc2       ?state_case_width@?$output_processor@DV?$string_output_adapter@D@__crt_stdio_output@@V?$standard_base@DV?$string_output_adapter@D@__crt_stdio_output@@@2@@__crt_stdio_output@@AAE_NXZ 1002edc2 f i libucrt:output.obj
 0001:0002ddf7       ?state_case_width@?$output_processor@_WV?$stream_output_adapter@_W@__crt_stdio_output@@V?$format_validation_base@_WV?$stream_output_adapter@_W@__crt_stdio_output@@@2@@__crt_stdio_output@@AAE_NXZ 1002edf7 f i libucrt:output.obj
 0001:0002de2e       ?state_case_width@?$output_processor@_WV?$stream_output_adapter@_W@__crt_stdio_output@@V?$positional_parameter_base@_WV?$stream_output_adapter@_W@__crt_stdio_output@@@2@@__crt_stdio_output@@AAE_NXZ 1002ee2e f i libucrt:output.obj
 0001:0002de7f       ?state_case_width@?$output_processor@_WV?$stream_output_adapter@_W@__crt_stdio_output@@V?$standard_base@_WV?$stream_output_adapter@_W@__crt_stdio_output@@@2@@__crt_stdio_output@@AAE_NXZ 1002ee7f f i libucrt:output.obj
 0001:0002deb6       ?state_case_width@?$output_processor@_WV?$string_output_adapter@_W@__crt_stdio_output@@V?$format_validation_base@_WV?$string_output_adapter@_W@__crt_stdio_output@@@2@@__crt_stdio_output@@AAE_NXZ 1002eeb6 f i libucrt:output.obj
 0001:0002deed       ?state_case_width@?$output_processor@_WV?$string_output_adapter@_W@__crt_stdio_output@@V?$positional_parameter_base@_WV?$string_output_adapter@_W@__crt_stdio_output@@@2@@__crt_stdio_output@@AAE_NXZ 1002eeed f i libucrt:output.obj
 0001:0002df3e       ?state_case_width@?$output_processor@_WV?$string_output_adapter@_W@__crt_stdio_output@@V?$standard_base@_WV?$string_output_adapter@_W@__crt_stdio_output@@@2@@__crt_stdio_output@@AAE_NXZ 1002ef3e f i libucrt:output.obj
 0001:0002df75       ?state_count@?$format_validation_base@DV?$stream_output_adapter@D@__crt_stdio_output@@@__crt_stdio_output@@KAIXZ 1002ef75 f i libucrt:output.obj
 0001:0002df79       ?state_count@?$format_validation_base@DV?$string_output_adapter@D@__crt_stdio_output@@@__crt_stdio_output@@KAIXZ 1002ef79 f i libucrt:output.obj
 0001:0002df7d       ?state_count@?$format_validation_base@_WV?$stream_output_adapter@_W@__crt_stdio_output@@@__crt_stdio_output@@KAIXZ 1002ef7d f i libucrt:output.obj
 0001:0002df81       ?state_count@?$format_validation_base@_WV?$string_output_adapter@_W@__crt_stdio_output@@@__crt_stdio_output@@KAIXZ 1002ef81 f i libucrt:output.obj
 0001:0002df85       ?state_count@?$standard_base@DV?$stream_output_adapter@D@__crt_stdio_output@@@__crt_stdio_output@@KAIXZ 1002ef85 f i libucrt:output.obj
 0001:0002df89       ?state_count@?$standard_base@DV?$string_output_adapter@D@__crt_stdio_output@@@__crt_stdio_output@@KAIXZ 1002ef89 f i libucrt:output.obj
 0001:0002df8d       ?state_count@?$standard_base@_WV?$stream_output_adapter@_W@__crt_stdio_output@@@__crt_stdio_output@@KAIXZ 1002ef8d f i libucrt:output.obj
 0001:0002df91       ?state_count@?$standard_base@_WV?$string_output_adapter@_W@__crt_stdio_output@@@__crt_stdio_output@@KAIXZ 1002ef91 f i libucrt:output.obj
 0001:0002df95       ?state_transition_table@?$format_validation_base@DV?$stream_output_adapter@D@__crt_stdio_output@@@__crt_stdio_output@@KAPBEXZ 1002ef95 f i libucrt:output.obj
 0001:0002df9b       ?state_transition_table@?$format_validation_base@DV?$string_output_adapter@D@__crt_stdio_output@@@__crt_stdio_output@@KAPBEXZ 1002ef9b f i libucrt:output.obj
 0001:0002dfa1       ?state_transition_table@?$format_validation_base@_WV?$stream_output_adapter@_W@__crt_stdio_output@@@__crt_stdio_output@@KAPBEXZ 1002efa1 f i libucrt:output.obj
 0001:0002dfa7       ?state_transition_table@?$format_validation_base@_WV?$string_output_adapter@_W@__crt_stdio_output@@@__crt_stdio_output@@KAPBEXZ 1002efa7 f i libucrt:output.obj
 0001:0002dfad       ?state_transition_table@?$standard_base@DV?$stream_output_adapter@D@__crt_stdio_output@@@__crt_stdio_output@@KAPBEXZ 1002efad f i libucrt:output.obj
 0001:0002dfb3       ?state_transition_table@?$standard_base@DV?$string_output_adapter@D@__crt_stdio_output@@@__crt_stdio_output@@KAPBEXZ 1002efb3 f i libucrt:output.obj
 0001:0002dfb9       ?state_transition_table@?$standard_base@_WV?$stream_output_adapter@_W@__crt_stdio_output@@@__crt_stdio_output@@KAPBEXZ 1002efb9 f i libucrt:output.obj
 0001:0002dfbf       ?state_transition_table@?$standard_base@_WV?$string_output_adapter@_W@__crt_stdio_output@@@__crt_stdio_output@@KAPBEXZ 1002efbf f i libucrt:output.obj
 0001:0002dfc5       ?to_integer_size@__crt_stdio_output@@YAIW4length_modifier@1@@Z 1002efc5 f i libucrt:output.obj
 0001:0002e038       ?type_case_X@?$output_processor@DV?$stream_output_adapter@D@__crt_stdio_output@@V?$format_validation_base@DV?$stream_output_adapter@D@__crt_stdio_output@@@2@@__crt_stdio_output@@AAE_NXZ 1002f038 f i libucrt:output.obj
 0001:0002e044       ?type_case_X@?$output_processor@DV?$stream_output_adapter@D@__crt_stdio_output@@V?$positional_parameter_base@DV?$stream_output_adapter@D@__crt_stdio_output@@@2@@__crt_stdio_output@@AAE_NXZ 1002f044 f i libucrt:output.obj
 0001:0002e050       ?type_case_X@?$output_processor@DV?$stream_output_adapter@D@__crt_stdio_output@@V?$standard_base@DV?$stream_output_adapter@D@__crt_stdio_output@@@2@@__crt_stdio_output@@AAE_NXZ 1002f050 f i libucrt:output.obj
 0001:0002e05c       ?type_case_X@?$output_processor@DV?$string_output_adapter@D@__crt_stdio_output@@V?$format_validation_base@DV?$string_output_adapter@D@__crt_stdio_output@@@2@@__crt_stdio_output@@AAE_NXZ 1002f05c f i libucrt:output.obj
 0001:0002e068       ?type_case_X@?$output_processor@DV?$string_output_adapter@D@__crt_stdio_output@@V?$positional_parameter_base@DV?$string_output_adapter@D@__crt_stdio_output@@@2@@__crt_stdio_output@@AAE_NXZ 1002f068 f i libucrt:output.obj
 0001:0002e074       ?type_case_X@?$output_processor@DV?$string_output_adapter@D@__crt_stdio_output@@V?$standard_base@DV?$string_output_adapter@D@__crt_stdio_output@@@2@@__crt_stdio_output@@AAE_NXZ 1002f074 f i libucrt:output.obj
 0001:0002e080       ?type_case_X@?$output_processor@_WV?$stream_output_adapter@_W@__crt_stdio_output@@V?$format_validation_base@_WV?$stream_output_adapter@_W@__crt_stdio_output@@@2@@__crt_stdio_output@@AAE_NXZ 1002f080 f i libucrt:output.obj
 0001:0002e08c       ?type_case_X@?$output_processor@_WV?$stream_output_adapter@_W@__crt_stdio_output@@V?$positional_parameter_base@_WV?$stream_output_adapter@_W@__crt_stdio_output@@@2@@__crt_stdio_output@@AAE_NXZ 1002f08c f i libucrt:output.obj
 0001:0002e098       ?type_case_X@?$output_processor@_WV?$stream_output_adapter@_W@__crt_stdio_output@@V?$standard_base@_WV?$stream_output_adapter@_W@__crt_stdio_output@@@2@@__crt_stdio_output@@AAE_NXZ 1002f098 f i libucrt:output.obj
 0001:0002e0a4       ?type_case_X@?$output_processor@_WV?$string_output_adapter@_W@__crt_stdio_output@@V?$format_validation_base@_WV?$string_output_adapter@_W@__crt_stdio_output@@@2@@__crt_stdio_output@@AAE_NXZ 1002f0a4 f i libucrt:output.obj
 0001:0002e0b0       ?type_case_X@?$output_processor@_WV?$string_output_adapter@_W@__crt_stdio_output@@V?$positional_parameter_base@_WV?$string_output_adapter@_W@__crt_stdio_output@@@2@@__crt_stdio_output@@AAE_NXZ 1002f0b0 f i libucrt:output.obj
 0001:0002e0bc       ?type_case_X@?$output_processor@_WV?$string_output_adapter@_W@__crt_stdio_output@@V?$standard_base@_WV?$string_output_adapter@_W@__crt_stdio_output@@@2@@__crt_stdio_output@@AAE_NXZ 1002f0bc f i libucrt:output.obj
 0001:0002e0c8       ?type_case_Z@?$output_processor@DV?$stream_output_adapter@D@__crt_stdio_output@@V?$format_validation_base@DV?$stream_output_adapter@D@__crt_stdio_output@@@2@@__crt_stdio_output@@AAE_NXZ 1002f0c8 f i libucrt:output.obj
 0001:0002e143       ?type_case_Z@?$output_processor@DV?$stream_output_adapter@D@__crt_stdio_output@@V?$positional_parameter_base@DV?$stream_output_adapter@D@__crt_stdio_output@@@2@@__crt_stdio_output@@AAE_NXZ 1002f143 f i libucrt:output.obj
 0001:0002e1e1       ?type_case_Z@?$output_processor@DV?$stream_output_adapter@D@__crt_stdio_output@@V?$standard_base@DV?$stream_output_adapter@D@__crt_stdio_output@@@2@@__crt_stdio_output@@AAE_NXZ 1002f1e1 f i libucrt:output.obj
 0001:0002e25c       ?type_case_Z@?$output_processor@DV?$string_output_adapter@D@__crt_stdio_output@@V?$format_validation_base@DV?$string_output_adapter@D@__crt_stdio_output@@@2@@__crt_stdio_output@@AAE_NXZ 1002f25c f i libucrt:output.obj
 0001:0002e2d7       ?type_case_Z@?$output_processor@DV?$string_output_adapter@D@__crt_stdio_output@@V?$positional_parameter_base@DV?$string_output_adapter@D@__crt_stdio_output@@@2@@__crt_stdio_output@@AAE_NXZ 1002f2d7 f i libucrt:output.obj
 0001:0002e375       ?type_case_Z@?$output_processor@DV?$string_output_adapter@D@__crt_stdio_output@@V?$standard_base@DV?$string_output_adapter@D@__crt_stdio_output@@@2@@__crt_stdio_output@@AAE_NXZ 1002f375 f i libucrt:output.obj
 0001:0002e3f0       ?type_case_Z@?$output_processor@_WV?$stream_output_adapter@_W@__crt_stdio_output@@V?$format_validation_base@_WV?$stream_output_adapter@_W@__crt_stdio_output@@@2@@__crt_stdio_output@@AAE_NXZ 1002f3f0 f i libucrt:output.obj
 0001:0002e46b       ?type_case_Z@?$output_processor@_WV?$stream_output_adapter@_W@__crt_stdio_output@@V?$positional_parameter_base@_WV?$stream_output_adapter@_W@__crt_stdio_output@@@2@@__crt_stdio_output@@AAE_NXZ 1002f46b f i libucrt:output.obj
 0001:0002e509       ?type_case_Z@?$output_processor@_WV?$stream_output_adapter@_W@__crt_stdio_output@@V?$standard_base@_WV?$stream_output_adapter@_W@__crt_stdio_output@@@2@@__crt_stdio_output@@AAE_NXZ 1002f509 f i libucrt:output.obj
 0001:0002e584       ?type_case_Z@?$output_processor@_WV?$string_output_adapter@_W@__crt_stdio_output@@V?$format_validation_base@_WV?$string_output_adapter@_W@__crt_stdio_output@@@2@@__crt_stdio_output@@AAE_NXZ 1002f584 f i libucrt:output.obj
 0001:0002e5ff       ?type_case_Z@?$output_processor@_WV?$string_output_adapter@_W@__crt_stdio_output@@V?$positional_parameter_base@_WV?$string_output_adapter@_W@__crt_stdio_output@@@2@@__crt_stdio_output@@AAE_NXZ 1002f5ff f i libucrt:output.obj
 0001:0002e69d       ?type_case_Z@?$output_processor@_WV?$string_output_adapter@_W@__crt_stdio_output@@V?$standard_base@_WV?$string_output_adapter@_W@__crt_stdio_output@@@2@@__crt_stdio_output@@AAE_NXZ 1002f69d f i libucrt:output.obj
 0001:0002e718       ?type_case_a@?$output_processor@DV?$stream_output_adapter@D@__crt_stdio_output@@V?$format_validation_base@DV?$stream_output_adapter@D@__crt_stdio_output@@@2@@__crt_stdio_output@@AAE_NXZ 1002f718 f i libucrt:output.obj
 0001:0002e8c8       ?type_case_a@?$output_processor@DV?$stream_output_adapter@D@__crt_stdio_output@@V?$positional_parameter_base@DV?$stream_output_adapter@D@__crt_stdio_output@@@2@@__crt_stdio_output@@AAE_NXZ 1002f8c8 f i libucrt:output.obj
 0001:0002ea9f       ?type_case_a@?$output_processor@DV?$stream_output_adapter@D@__crt_stdio_output@@V?$standard_base@DV?$stream_output_adapter@D@__crt_stdio_output@@@2@@__crt_stdio_output@@AAE_NXZ 1002fa9f f i libucrt:output.obj
 0001:0002ec4f       ?type_case_a@?$output_processor@DV?$string_output_adapter@D@__crt_stdio_output@@V?$format_validation_base@DV?$string_output_adapter@D@__crt_stdio_output@@@2@@__crt_stdio_output@@AAE_NXZ 1002fc4f f i libucrt:output.obj
 0001:0002edff       ?type_case_a@?$output_processor@DV?$string_output_adapter@D@__crt_stdio_output@@V?$positional_parameter_base@DV?$string_output_adapter@D@__crt_stdio_output@@@2@@__crt_stdio_output@@AAE_NXZ 1002fdff f i libucrt:output.obj
 0001:0002efd6       ?type_case_a@?$output_processor@DV?$string_output_adapter@D@__crt_stdio_output@@V?$standard_base@DV?$string_output_adapter@D@__crt_stdio_output@@@2@@__crt_stdio_output@@AAE_NXZ 1002ffd6 f i libucrt:output.obj
 0001:0002f186       ?type_case_a@?$output_processor@_WV?$stream_output_adapter@_W@__crt_stdio_output@@V?$format_validation_base@_WV?$stream_output_adapter@_W@__crt_stdio_output@@@2@@__crt_stdio_output@@AAE_NXZ 10030186 f i libucrt:output.obj
 0001:0002f354       ?type_case_a@?$output_processor@_WV?$stream_output_adapter@_W@__crt_stdio_output@@V?$positional_parameter_base@_WV?$stream_output_adapter@_W@__crt_stdio_output@@@2@@__crt_stdio_output@@AAE_NXZ 10030354 f i libucrt:output.obj
 0001:0002f549       ?type_case_a@?$output_processor@_WV?$stream_output_adapter@_W@__crt_stdio_output@@V?$standard_base@_WV?$stream_output_adapter@_W@__crt_stdio_output@@@2@@__crt_stdio_output@@AAE_NXZ 10030549 f i libucrt:output.obj
 0001:0002f717       ?type_case_a@?$output_processor@_WV?$string_output_adapter@_W@__crt_stdio_output@@V?$format_validation_base@_WV?$string_output_adapter@_W@__crt_stdio_output@@@2@@__crt_stdio_output@@AAE_NXZ 10030717 f i libucrt:output.obj
 0001:0002f8e5       ?type_case_a@?$output_processor@_WV?$string_output_adapter@_W@__crt_stdio_output@@V?$positional_parameter_base@_WV?$string_output_adapter@_W@__crt_stdio_output@@@2@@__crt_stdio_output@@AAE_NXZ 100308e5 f i libucrt:output.obj
 0001:0002fada       ?type_case_a@?$output_processor@_WV?$string_output_adapter@_W@__crt_stdio_output@@V?$standard_base@_WV?$string_output_adapter@_W@__crt_stdio_output@@@2@@__crt_stdio_output@@AAE_NXZ 10030ada f i libucrt:output.obj
 0001:0002fca8       ?type_case_c@?$output_processor@DV?$stream_output_adapter@D@__crt_stdio_output@@V?$format_validation_base@DV?$stream_output_adapter@D@__crt_stdio_output@@@2@@__crt_stdio_output@@AAE_NXZ 10030ca8 f i libucrt:output.obj
 0001:0002fcb2       ?type_case_c@?$output_processor@DV?$stream_output_adapter@D@__crt_stdio_output@@V?$positional_parameter_base@DV?$stream_output_adapter@D@__crt_stdio_output@@@2@@__crt_stdio_output@@AAE_NXZ 10030cb2 f i libucrt:output.obj
 0001:0002fcbc       ?type_case_c@?$output_processor@DV?$stream_output_adapter@D@__crt_stdio_output@@V?$standard_base@DV?$stream_output_adapter@D@__crt_stdio_output@@@2@@__crt_stdio_output@@AAE_NXZ 10030cbc f i libucrt:output.obj
 0001:0002fcc6       ?type_case_c@?$output_processor@DV?$string_output_adapter@D@__crt_stdio_output@@V?$format_validation_base@DV?$string_output_adapter@D@__crt_stdio_output@@@2@@__crt_stdio_output@@AAE_NXZ 10030cc6 f i libucrt:output.obj
 0001:0002fcd0       ?type_case_c@?$output_processor@DV?$string_output_adapter@D@__crt_stdio_output@@V?$positional_parameter_base@DV?$string_output_adapter@D@__crt_stdio_output@@@2@@__crt_stdio_output@@AAE_NXZ 10030cd0 f i libucrt:output.obj
 0001:0002fcda       ?type_case_c@?$output_processor@DV?$string_output_adapter@D@__crt_stdio_output@@V?$standard_base@DV?$string_output_adapter@D@__crt_stdio_output@@@2@@__crt_stdio_output@@AAE_NXZ 10030cda f i libucrt:output.obj
 0001:0002fce4       ?type_case_c@?$output_processor@_WV?$stream_output_adapter@_W@__crt_stdio_output@@V?$format_validation_base@_WV?$stream_output_adapter@_W@__crt_stdio_output@@@2@@__crt_stdio_output@@AAE_NXZ 10030ce4 f i libucrt:output.obj
 0001:0002fcee       ?type_case_c@?$output_processor@_WV?$stream_output_adapter@_W@__crt_stdio_output@@V?$positional_parameter_base@_WV?$stream_output_adapter@_W@__crt_stdio_output@@@2@@__crt_stdio_output@@AAE_NXZ 10030cee f i libucrt:output.obj
 0001:0002fcf8       ?type_case_c@?$output_processor@_WV?$stream_output_adapter@_W@__crt_stdio_output@@V?$standard_base@_WV?$stream_output_adapter@_W@__crt_stdio_output@@@2@@__crt_stdio_output@@AAE_NXZ 10030cf8 f i libucrt:output.obj
 0001:0002fd02       ?type_case_c@?$output_processor@_WV?$string_output_adapter@_W@__crt_stdio_output@@V?$format_validation_base@_WV?$string_output_adapter@_W@__crt_stdio_output@@@2@@__crt_stdio_output@@AAE_NXZ 10030d02 f i libucrt:output.obj
 0001:0002fd0c       ?type_case_c@?$output_processor@_WV?$string_output_adapter@_W@__crt_stdio_output@@V?$positional_parameter_base@_WV?$string_output_adapter@_W@__crt_stdio_output@@@2@@__crt_stdio_output@@AAE_NXZ 10030d0c f i libucrt:output.obj
 0001:0002fd16       ?type_case_c@?$output_processor@_WV?$string_output_adapter@_W@__crt_stdio_output@@V?$standard_base@_WV?$string_output_adapter@_W@__crt_stdio_output@@@2@@__crt_stdio_output@@AAE_NXZ 10030d16 f i libucrt:output.obj
 0001:0002fd20       ?type_case_c_tchar@?$output_processor@DV?$stream_output_adapter@D@__crt_stdio_output@@V?$format_validation_base@DV?$stream_output_adapter@D@__crt_stdio_output@@@2@@__crt_stdio_output@@AAE_ND@Z 10030d20 f i libucrt:output.obj
 0001:0002fdd4       ?type_case_c_tchar@?$output_processor@DV?$stream_output_adapter@D@__crt_stdio_output@@V?$positional_parameter_base@DV?$stream_output_adapter@D@__crt_stdio_output@@@2@@__crt_stdio_output@@AAE_ND@Z 10030dd4 f i libucrt:output.obj
 0001:0002fec4       ?type_case_c_tchar@?$output_processor@DV?$stream_output_adapter@D@__crt_stdio_output@@V?$standard_base@DV?$stream_output_adapter@D@__crt_stdio_output@@@2@@__crt_stdio_output@@AAE_ND@Z 10030ec4 f i libucrt:output.obj
 0001:0002ff78       ?type_case_c_tchar@?$output_processor@DV?$string_output_adapter@D@__crt_stdio_output@@V?$format_validation_base@DV?$string_output_adapter@D@__crt_stdio_output@@@2@@__crt_stdio_output@@AAE_ND@Z 10030f78 f i libucrt:output.obj
 0001:0003002c       ?type_case_c_tchar@?$output_processor@DV?$string_output_adapter@D@__crt_stdio_output@@V?$positional_parameter_base@DV?$string_output_adapter@D@__crt_stdio_output@@@2@@__crt_stdio_output@@AAE_ND@Z 1003102c f i libucrt:output.obj
 0001:0003011c       ?type_case_c_tchar@?$output_processor@DV?$string_output_adapter@D@__crt_stdio_output@@V?$standard_base@DV?$string_output_adapter@D@__crt_stdio_output@@@2@@__crt_stdio_output@@AAE_ND@Z 1003111c f i libucrt:output.obj
 0001:000301d0       ?type_case_c_tchar@?$output_processor@_WV?$stream_output_adapter@_W@__crt_stdio_output@@V?$format_validation_base@_WV?$stream_output_adapter@_W@__crt_stdio_output@@@2@@__crt_stdio_output@@AAE_N_W@Z 100311d0 f i libucrt:output.obj
 0001:0003028e       ?type_case_c_tchar@?$output_processor@_WV?$stream_output_adapter@_W@__crt_stdio_output@@V?$positional_parameter_base@_WV?$stream_output_adapter@_W@__crt_stdio_output@@@2@@__crt_stdio_output@@AAE_N_W@Z 1003128e f i libucrt:output.obj
 0001:00030368       ?type_case_c_tchar@?$output_processor@_WV?$stream_output_adapter@_W@__crt_stdio_output@@V?$standard_base@_WV?$stream_output_adapter@_W@__crt_stdio_output@@@2@@__crt_stdio_output@@AAE_N_W@Z 10031368 f i libucrt:output.obj
 0001:00030426       ?type_case_c_tchar@?$output_processor@_WV?$string_output_adapter@_W@__crt_stdio_output@@V?$format_validation_base@_WV?$string_output_adapter@_W@__crt_stdio_output@@@2@@__crt_stdio_output@@AAE_N_W@Z 10031426 f i libucrt:output.obj
 0001:000304e4       ?type_case_c_tchar@?$output_processor@_WV?$string_output_adapter@_W@__crt_stdio_output@@V?$positional_parameter_base@_WV?$string_output_adapter@_W@__crt_stdio_output@@@2@@__crt_stdio_output@@AAE_N_W@Z 100314e4 f i libucrt:output.obj
 0001:000305be       ?type_case_c_tchar@?$output_processor@_WV?$string_output_adapter@_W@__crt_stdio_output@@V?$standard_base@_WV?$string_output_adapter@_W@__crt_stdio_output@@@2@@__crt_stdio_output@@AAE_N_W@Z 100315be f i libucrt:output.obj
 0001:0003067c       ?type_case_d@?$output_processor@DV?$stream_output_adapter@D@__crt_stdio_output@@V?$format_validation_base@DV?$stream_output_adapter@D@__crt_stdio_output@@@2@@__crt_stdio_output@@AAE_NXZ 1003167c f i libucrt:output.obj
 0001:0003068d       ?type_case_d@?$output_processor@DV?$stream_output_adapter@D@__crt_stdio_output@@V?$positional_parameter_base@DV?$stream_output_adapter@D@__crt_stdio_output@@@2@@__crt_stdio_output@@AAE_NXZ 1003168d f i libucrt:output.obj
 0001:0003069e       ?type_case_d@?$output_processor@DV?$stream_output_adapter@D@__crt_stdio_output@@V?$standard_base@DV?$stream_output_adapter@D@__crt_stdio_output@@@2@@__crt_stdio_output@@AAE_NXZ 1003169e f i libucrt:output.obj
 0001:000306af       ?type_case_d@?$output_processor@DV?$string_output_adapter@D@__crt_stdio_output@@V?$format_validation_base@DV?$string_output_adapter@D@__crt_stdio_output@@@2@@__crt_stdio_output@@AAE_NXZ 100316af f i libucrt:output.obj
 0001:000306c0       ?type_case_d@?$output_processor@DV?$string_output_adapter@D@__crt_stdio_output@@V?$positional_parameter_base@DV?$string_output_adapter@D@__crt_stdio_output@@@2@@__crt_stdio_output@@AAE_NXZ 100316c0 f i libucrt:output.obj
 0001:000306d1       ?type_case_d@?$output_processor@DV?$string_output_adapter@D@__crt_stdio_output@@V?$standard_base@DV?$string_output_adapter@D@__crt_stdio_output@@@2@@__crt_stdio_output@@AAE_NXZ 100316d1 f i libucrt:output.obj
 0001:000306e2       ?type_case_d@?$output_processor@_WV?$stream_output_adapter@_W@__crt_stdio_output@@V?$format_validation_base@_WV?$stream_output_adapter@_W@__crt_stdio_output@@@2@@__crt_stdio_output@@AAE_NXZ 100316e2 f i libucrt:output.obj
 0001:000306f3       ?type_case_d@?$output_processor@_WV?$stream_output_adapter@_W@__crt_stdio_output@@V?$positional_parameter_base@_WV?$stream_output_adapter@_W@__crt_stdio_output@@@2@@__crt_stdio_output@@AAE_NXZ 100316f3 f i libucrt:output.obj
 0001:00030704       ?type_case_d@?$output_processor@_WV?$stream_output_adapter@_W@__crt_stdio_output@@V?$standard_base@_WV?$stream_output_adapter@_W@__crt_stdio_output@@@2@@__crt_stdio_output@@AAE_NXZ 10031704 f i libucrt:output.obj
 0001:00030715       ?type_case_d@?$output_processor@_WV?$string_output_adapter@_W@__crt_stdio_output@@V?$format_validation_base@_WV?$string_output_adapter@_W@__crt_stdio_output@@@2@@__crt_stdio_output@@AAE_NXZ 10031715 f i libucrt:output.obj
 0001:00030726       ?type_case_d@?$output_processor@_WV?$string_output_adapter@_W@__crt_stdio_output@@V?$positional_parameter_base@_WV?$string_output_adapter@_W@__crt_stdio_output@@@2@@__crt_stdio_output@@AAE_NXZ 10031726 f i libucrt:output.obj
 0001:00030737       ?type_case_d@?$output_processor@_WV?$string_output_adapter@_W@__crt_stdio_output@@V?$standard_base@_WV?$string_output_adapter@_W@__crt_stdio_output@@@2@@__crt_stdio_output@@AAE_NXZ 10031737 f i libucrt:output.obj
 0001:00030748       ?type_case_integer@?$output_processor@DV?$stream_output_adapter@D@__crt_stdio_output@@V?$format_validation_base@DV?$stream_output_adapter@D@__crt_stdio_output@@@2@@__crt_stdio_output@@AAE_NI_N@Z 10031748 f i libucrt:output.obj
 0001:000308e4       ?type_case_integer@?$output_processor@DV?$stream_output_adapter@D@__crt_stdio_output@@V?$positional_parameter_base@DV?$stream_output_adapter@D@__crt_stdio_output@@@2@@__crt_stdio_output@@AAE_NI_N@Z 100318e4 f i libucrt:output.obj
 0001:00030ac1       ?type_case_integer@?$output_processor@DV?$stream_output_adapter@D@__crt_stdio_output@@V?$standard_base@DV?$stream_output_adapter@D@__crt_stdio_output@@@2@@__crt_stdio_output@@AAE_NI_N@Z 10031ac1 f i libucrt:output.obj
 0001:00030c5d       ?type_case_integer@?$output_processor@DV?$string_output_adapter@D@__crt_stdio_output@@V?$format_validation_base@DV?$string_output_adapter@D@__crt_stdio_output@@@2@@__crt_stdio_output@@AAE_NI_N@Z 10031c5d f i libucrt:output.obj
 0001:00030df9       ?type_case_integer@?$output_processor@DV?$string_output_adapter@D@__crt_stdio_output@@V?$positional_parameter_base@DV?$string_output_adapter@D@__crt_stdio_output@@@2@@__crt_stdio_output@@AAE_NI_N@Z 10031df9 f i libucrt:output.obj
 0001:00030fd6       ?type_case_integer@?$output_processor@DV?$string_output_adapter@D@__crt_stdio_output@@V?$standard_base@DV?$string_output_adapter@D@__crt_stdio_output@@@2@@__crt_stdio_output@@AAE_NI_N@Z 10031fd6 f i libucrt:output.obj
 0001:00031172       ?type_case_integer@?$output_processor@_WV?$stream_output_adapter@_W@__crt_stdio_output@@V?$format_validation_base@_WV?$stream_output_adapter@_W@__crt_stdio_output@@@2@@__crt_stdio_output@@AAE_NI_N@Z 10032172 f i libucrt:output.obj
 0001:0003130e       ?type_case_integer@?$output_processor@_WV?$stream_output_adapter@_W@__crt_stdio_output@@V?$positional_parameter_base@_WV?$stream_output_adapter@_W@__crt_stdio_output@@@2@@__crt_stdio_output@@AAE_NI_N@Z 1003230e f i libucrt:output.obj
 0001:000314eb       ?type_case_integer@?$output_processor@_WV?$stream_output_adapter@_W@__crt_stdio_output@@V?$standard_base@_WV?$stream_output_adapter@_W@__crt_stdio_output@@@2@@__crt_stdio_output@@AAE_NI_N@Z 100324eb f i libucrt:output.obj
 0001:00031687       ?type_case_integer@?$output_processor@_WV?$string_output_adapter@_W@__crt_stdio_output@@V?$format_validation_base@_WV?$string_output_adapter@_W@__crt_stdio_output@@@2@@__crt_stdio_output@@AAE_NI_N@Z 10032687 f i libucrt:output.obj
 0001:00031823       ?type_case_integer@?$output_processor@_WV?$string_output_adapter@_W@__crt_stdio_output@@V?$positional_parameter_base@_WV?$string_output_adapter@_W@__crt_stdio_output@@@2@@__crt_stdio_output@@AAE_NI_N@Z 10032823 f i libucrt:output.obj
 0001:00031a00       ?type_case_integer@?$output_processor@_WV?$string_output_adapter@_W@__crt_stdio_output@@V?$standard_base@_WV?$string_output_adapter@_W@__crt_stdio_output@@@2@@__crt_stdio_output@@AAE_NI_N@Z 10032a00 f i libucrt:output.obj
 0001:00031b9c       ?type_case_n@?$output_processor@DV?$stream_output_adapter@D@__crt_stdio_output@@V?$format_validation_base@DV?$stream_output_adapter@D@__crt_stdio_output@@@2@@__crt_stdio_output@@AAE_NXZ 10032b9c f i libucrt:output.obj
 0001:00031c2d       ?type_case_n@?$output_processor@DV?$stream_output_adapter@D@__crt_stdio_output@@V?$positional_parameter_base@DV?$stream_output_adapter@D@__crt_stdio_output@@@2@@__crt_stdio_output@@AAE_NXZ 10032c2d f i libucrt:output.obj
 0001:00031cec       ?type_case_n@?$output_processor@DV?$stream_output_adapter@D@__crt_stdio_output@@V?$standard_base@DV?$stream_output_adapter@D@__crt_stdio_output@@@2@@__crt_stdio_output@@AAE_NXZ 10032cec f i libucrt:output.obj
 0001:00031d7d       ?type_case_n@?$output_processor@DV?$string_output_adapter@D@__crt_stdio_output@@V?$format_validation_base@DV?$string_output_adapter@D@__crt_stdio_output@@@2@@__crt_stdio_output@@AAE_NXZ 10032d7d f i libucrt:output.obj
 0001:00031e0e       ?type_case_n@?$output_processor@DV?$string_output_adapter@D@__crt_stdio_output@@V?$positional_parameter_base@DV?$string_output_adapter@D@__crt_stdio_output@@@2@@__crt_stdio_output@@AAE_NXZ 10032e0e f i libucrt:output.obj
 0001:00031ecd       ?type_case_n@?$output_processor@DV?$string_output_adapter@D@__crt_stdio_output@@V?$standard_base@DV?$string_output_adapter@D@__crt_stdio_output@@@2@@__crt_stdio_output@@AAE_NXZ 10032ecd f i libucrt:output.obj
 0001:00031f5e       ?type_case_n@?$output_processor@_WV?$stream_output_adapter@_W@__crt_stdio_output@@V?$format_validation_base@_WV?$stream_output_adapter@_W@__crt_stdio_output@@@2@@__crt_stdio_output@@AAE_NXZ 10032f5e f i libucrt:output.obj
 0001:00031fef       ?type_case_n@?$output_processor@_WV?$stream_output_adapter@_W@__crt_stdio_output@@V?$positional_parameter_base@_WV?$stream_output_adapter@_W@__crt_stdio_output@@@2@@__crt_stdio_output@@AAE_NXZ 10032fef f i libucrt:output.obj
 0001:000320ae       ?type_case_n@?$output_processor@_WV?$stream_output_adapter@_W@__crt_stdio_output@@V?$standard_base@_WV?$stream_output_adapter@_W@__crt_stdio_output@@@2@@__crt_stdio_output@@AAE_NXZ 100330ae f i libucrt:output.obj
 0001:0003213f       ?type_case_n@?$output_processor@_WV?$string_output_adapter@_W@__crt_stdio_output@@V?$format_validation_base@_WV?$string_output_adapter@_W@__crt_stdio_output@@@2@@__crt_stdio_output@@AAE_NXZ 1003313f f i libucrt:output.obj
 0001:000321d0       ?type_case_n@?$output_processor@_WV?$string_output_adapter@_W@__crt_stdio_output@@V?$positional_parameter_base@_WV?$string_output_adapter@_W@__crt_stdio_output@@@2@@__crt_stdio_output@@AAE_NXZ 100331d0 f i libucrt:output.obj
 0001:0003228f       ?type_case_n@?$output_processor@_WV?$string_output_adapter@_W@__crt_stdio_output@@V?$standard_base@_WV?$string_output_adapter@_W@__crt_stdio_output@@@2@@__crt_stdio_output@@AAE_NXZ 1003328f f i libucrt:output.obj
 0001:00032320       ?type_case_o@?$output_processor@DV?$stream_output_adapter@D@__crt_stdio_output@@V?$format_validation_base@DV?$stream_output_adapter@D@__crt_stdio_output@@@2@@__crt_stdio_output@@AAE_NXZ 10033320 f i libucrt:output.obj
 0001:00032346       ?type_case_o@?$output_processor@DV?$stream_output_adapter@D@__crt_stdio_output@@V?$positional_parameter_base@DV?$stream_output_adapter@D@__crt_stdio_output@@@2@@__crt_stdio_output@@AAE_NXZ 10033346 f i libucrt:output.obj
 0001:0003236c       ?type_case_o@?$output_processor@DV?$stream_output_adapter@D@__crt_stdio_output@@V?$standard_base@DV?$stream_output_adapter@D@__crt_stdio_output@@@2@@__crt_stdio_output@@AAE_NXZ 1003336c f i libucrt:output.obj
 0001:00032392       ?type_case_o@?$output_processor@DV?$string_output_adapter@D@__crt_stdio_output@@V?$format_validation_base@DV?$string_output_adapter@D@__crt_stdio_output@@@2@@__crt_stdio_output@@AAE_NXZ 10033392 f i libucrt:output.obj
 0001:000323b8       ?type_case_o@?$output_processor@DV?$string_output_adapter@D@__crt_stdio_output@@V?$positional_parameter_base@DV?$string_output_adapter@D@__crt_stdio_output@@@2@@__crt_stdio_output@@AAE_NXZ 100333b8 f i libucrt:output.obj
 0001:000323de       ?type_case_o@?$output_processor@DV?$string_output_adapter@D@__crt_stdio_output@@V?$standard_base@DV?$string_output_adapter@D@__crt_stdio_output@@@2@@__crt_stdio_output@@AAE_NXZ 100333de f i libucrt:output.obj
 0001:00032404       ?type_case_o@?$output_processor@_WV?$stream_output_adapter@_W@__crt_stdio_output@@V?$format_validation_base@_WV?$stream_output_adapter@_W@__crt_stdio_output@@@2@@__crt_stdio_output@@AAE_NXZ 10033404 f i libucrt:output.obj
 0001:0003242a       ?type_case_o@?$output_processor@_WV?$stream_output_adapter@_W@__crt_stdio_output@@V?$positional_parameter_base@_WV?$stream_output_adapter@_W@__crt_stdio_output@@@2@@__crt_stdio_output@@AAE_NXZ 1003342a f i libucrt:output.obj
 0001:00032450       ?type_case_o@?$output_processor@_WV?$stream_output_adapter@_W@__crt_stdio_output@@V?$standard_base@_WV?$stream_output_adapter@_W@__crt_stdio_output@@@2@@__crt_stdio_output@@AAE_NXZ 10033450 f i libucrt:output.obj
 0001:00032476       ?type_case_o@?$output_processor@_WV?$string_output_adapter@_W@__crt_stdio_output@@V?$format_validation_base@_WV?$string_output_adapter@_W@__crt_stdio_output@@@2@@__crt_stdio_output@@AAE_NXZ 10033476 f i libucrt:output.obj
 0001:0003249c       ?type_case_o@?$output_processor@_WV?$string_output_adapter@_W@__crt_stdio_output@@V?$positional_parameter_base@_WV?$string_output_adapter@_W@__crt_stdio_output@@@2@@__crt_stdio_output@@AAE_NXZ 1003349c f i libucrt:output.obj
 0001:000324c2       ?type_case_o@?$output_processor@_WV?$string_output_adapter@_W@__crt_stdio_output@@V?$standard_base@_WV?$string_output_adapter@_W@__crt_stdio_output@@@2@@__crt_stdio_output@@AAE_NXZ 100334c2 f i libucrt:output.obj
 0001:000324e8       ?type_case_p@?$output_processor@DV?$stream_output_adapter@D@__crt_stdio_output@@V?$format_validation_base@DV?$stream_output_adapter@D@__crt_stdio_output@@@2@@__crt_stdio_output@@AAE_NXZ 100334e8 f i libucrt:output.obj
 0001:00032506       ?type_case_p@?$output_processor@DV?$stream_output_adapter@D@__crt_stdio_output@@V?$positional_parameter_base@DV?$stream_output_adapter@D@__crt_stdio_output@@@2@@__crt_stdio_output@@AAE_NXZ 10033506 f i libucrt:output.obj
 0001:00032524       ?type_case_p@?$output_processor@DV?$stream_output_adapter@D@__crt_stdio_output@@V?$standard_base@DV?$stream_output_adapter@D@__crt_stdio_output@@@2@@__crt_stdio_output@@AAE_NXZ 10033524 f i libucrt:output.obj
 0001:00032542       ?type_case_p@?$output_processor@DV?$string_output_adapter@D@__crt_stdio_output@@V?$format_validation_base@DV?$string_output_adapter@D@__crt_stdio_output@@@2@@__crt_stdio_output@@AAE_NXZ 10033542 f i libucrt:output.obj
 0001:00032560       ?type_case_p@?$output_processor@DV?$string_output_adapter@D@__crt_stdio_output@@V?$positional_parameter_base@DV?$string_output_adapter@D@__crt_stdio_output@@@2@@__crt_stdio_output@@AAE_NXZ 10033560 f i libucrt:output.obj
 0001:0003257e       ?type_case_p@?$output_processor@DV?$string_output_adapter@D@__crt_stdio_output@@V?$standard_base@DV?$string_output_adapter@D@__crt_stdio_output@@@2@@__crt_stdio_output@@AAE_NXZ 1003357e f i libucrt:output.obj
 0001:0003259c       ?type_case_p@?$output_processor@_WV?$stream_output_adapter@_W@__crt_stdio_output@@V?$format_validation_base@_WV?$stream_output_adapter@_W@__crt_stdio_output@@@2@@__crt_stdio_output@@AAE_NXZ 1003359c f i libucrt:output.obj
 0001:000325ba       ?type_case_p@?$output_processor@_WV?$stream_output_adapter@_W@__crt_stdio_output@@V?$positional_parameter_base@_WV?$stream_output_adapter@_W@__crt_stdio_output@@@2@@__crt_stdio_output@@AAE_NXZ 100335ba f i libucrt:output.obj
 0001:000325d8       ?type_case_p@?$output_processor@_WV?$stream_output_adapter@_W@__crt_stdio_output@@V?$standard_base@_WV?$stream_output_adapter@_W@__crt_stdio_output@@@2@@__crt_stdio_output@@AAE_NXZ 100335d8 f i libucrt:output.obj
 0001:000325f6       ?type_case_p@?$output_processor@_WV?$string_output_adapter@_W@__crt_stdio_output@@V?$format_validation_base@_WV?$string_output_adapter@_W@__crt_stdio_output@@@2@@__crt_stdio_output@@AAE_NXZ 100335f6 f i libucrt:output.obj
 0001:00032614       ?type_case_p@?$output_processor@_WV?$string_output_adapter@_W@__crt_stdio_output@@V?$positional_parameter_base@_WV?$string_output_adapter@_W@__crt_stdio_output@@@2@@__crt_stdio_output@@AAE_NXZ 10033614 f i libucrt:output.obj
 0001:00032632       ?type_case_p@?$output_processor@_WV?$string_output_adapter@_W@__crt_stdio_output@@V?$standard_base@_WV?$string_output_adapter@_W@__crt_stdio_output@@@2@@__crt_stdio_output@@AAE_NXZ 10033632 f i libucrt:output.obj
 0001:00032650       ?type_case_s@?$output_processor@DV?$stream_output_adapter@D@__crt_stdio_output@@V?$format_validation_base@DV?$stream_output_adapter@D@__crt_stdio_output@@@2@@__crt_stdio_output@@AAE_NXZ 10033650 f i libucrt:output.obj
 0001:000326df       ?type_case_s@?$output_processor@DV?$stream_output_adapter@D@__crt_stdio_output@@V?$positional_parameter_base@DV?$stream_output_adapter@D@__crt_stdio_output@@@2@@__crt_stdio_output@@AAE_NXZ 100336df f i libucrt:output.obj
 0001:0003277a       ?type_case_s@?$output_processor@DV?$stream_output_adapter@D@__crt_stdio_output@@V?$standard_base@DV?$stream_output_adapter@D@__crt_stdio_output@@@2@@__crt_stdio_output@@AAE_NXZ 1003377a f i libucrt:output.obj
 0001:00032809       ?type_case_s@?$output_processor@DV?$string_output_adapter@D@__crt_stdio_output@@V?$format_validation_base@DV?$string_output_adapter@D@__crt_stdio_output@@@2@@__crt_stdio_output@@AAE_NXZ 10033809 f i libucrt:output.obj
 0001:00032898       ?type_case_s@?$output_processor@DV?$string_output_adapter@D@__crt_stdio_output@@V?$positional_parameter_base@DV?$string_output_adapter@D@__crt_stdio_output@@@2@@__crt_stdio_output@@AAE_NXZ 10033898 f i libucrt:output.obj
 0001:00032933       ?type_case_s@?$output_processor@DV?$string_output_adapter@D@__crt_stdio_output@@V?$standard_base@DV?$string_output_adapter@D@__crt_stdio_output@@@2@@__crt_stdio_output@@AAE_NXZ 10033933 f i libucrt:output.obj
 0001:000329c2       ?type_case_s@?$output_processor@_WV?$stream_output_adapter@_W@__crt_stdio_output@@V?$format_validation_base@_WV?$stream_output_adapter@_W@__crt_stdio_output@@@2@@__crt_stdio_output@@AAE_NXZ 100339c2 f i libucrt:output.obj
 0001:00032a53       ?type_case_s@?$output_processor@_WV?$stream_output_adapter@_W@__crt_stdio_output@@V?$positional_parameter_base@_WV?$stream_output_adapter@_W@__crt_stdio_output@@@2@@__crt_stdio_output@@AAE_NXZ 10033a53 f i libucrt:output.obj
 0001:00032af0       ?type_case_s@?$output_processor@_WV?$stream_output_adapter@_W@__crt_stdio_output@@V?$standard_base@_WV?$stream_output_adapter@_W@__crt_stdio_output@@@2@@__crt_stdio_output@@AAE_NXZ 10033af0 f i libucrt:output.obj
 0001:00032b81       ?type_case_s@?$output_processor@_WV?$string_output_adapter@_W@__crt_stdio_output@@V?$format_validation_base@_WV?$string_output_adapter@_W@__crt_stdio_output@@@2@@__crt_stdio_output@@AAE_NXZ 10033b81 f i libucrt:output.obj
 0001:00032c12       ?type_case_s@?$output_processor@_WV?$string_output_adapter@_W@__crt_stdio_output@@V?$positional_parameter_base@_WV?$string_output_adapter@_W@__crt_stdio_output@@@2@@__crt_stdio_output@@AAE_NXZ 10033c12 f i libucrt:output.obj
 0001:00032caf       ?type_case_s@?$output_processor@_WV?$string_output_adapter@_W@__crt_stdio_output@@V?$standard_base@_WV?$string_output_adapter@_W@__crt_stdio_output@@@2@@__crt_stdio_output@@AAE_NXZ 10033caf f i libucrt:output.obj
 0001:00032d40       ?type_case_s_compute_narrow_string_length@?$output_processor@DV?$stream_output_adapter@D@__crt_stdio_output@@V?$format_validation_base@DV?$stream_output_adapter@D@__crt_stdio_output@@@2@@__crt_stdio_output@@ABEHHD@Z 10033d40 f i libucrt:output.obj
 0001:00032d5b       ?type_case_s_compute_narrow_string_length@?$output_processor@DV?$stream_output_adapter@D@__crt_stdio_output@@V?$positional_parameter_base@DV?$stream_output_adapter@D@__crt_stdio_output@@@2@@__crt_stdio_output@@ABEHHD@Z 10033d5b f i libucrt:output.obj
 0001:00032d76       ?type_case_s_compute_narrow_string_length@?$output_processor@DV?$stream_output_adapter@D@__crt_stdio_output@@V?$standard_base@DV?$stream_output_adapter@D@__crt_stdio_output@@@2@@__crt_stdio_output@@ABEHHD@Z 10033d76 f i libucrt:output.obj
 0001:00032d91       ?type_case_s_compute_narrow_string_length@?$output_processor@DV?$string_output_adapter@D@__crt_stdio_output@@V?$format_validation_base@DV?$string_output_adapter@D@__crt_stdio_output@@@2@@__crt_stdio_output@@ABEHHD@Z 10033d91 f i libucrt:output.obj
 0001:00032dac       ?type_case_s_compute_narrow_string_length@?$output_processor@DV?$string_output_adapter@D@__crt_stdio_output@@V?$positional_parameter_base@DV?$string_output_adapter@D@__crt_stdio_output@@@2@@__crt_stdio_output@@ABEHHD@Z 10033dac f i libucrt:output.obj
 0001:00032dc7       ?type_case_s_compute_narrow_string_length@?$output_processor@DV?$string_output_adapter@D@__crt_stdio_output@@V?$standard_base@DV?$string_output_adapter@D@__crt_stdio_output@@@2@@__crt_stdio_output@@ABEHHD@Z 10033dc7 f i libucrt:output.obj
 0001:00032de2       ?type_case_s_compute_narrow_string_length@?$output_processor@_WV?$stream_output_adapter@_W@__crt_stdio_output@@V?$format_validation_base@_WV?$stream_output_adapter@_W@__crt_stdio_output@@@2@@__crt_stdio_output@@ABEHH_W@Z 10033de2 f i libucrt:output.obj
 0001:00032e32       ?type_case_s_compute_narrow_string_length@?$output_processor@_WV?$stream_output_adapter@_W@__crt_stdio_output@@V?$positional_parameter_base@_WV?$stream_output_adapter@_W@__crt_stdio_output@@@2@@__crt_stdio_output@@ABEHH_W@Z 10033e32 f i libucrt:output.obj
 0001:00032e82       ?type_case_s_compute_narrow_string_length@?$output_processor@_WV?$stream_output_adapter@_W@__crt_stdio_output@@V?$standard_base@_WV?$stream_output_adapter@_W@__crt_stdio_output@@@2@@__crt_stdio_output@@ABEHH_W@Z 10033e82 f i libucrt:output.obj
 0001:00032ed2       ?type_case_s_compute_narrow_string_length@?$output_processor@_WV?$string_output_adapter@_W@__crt_stdio_output@@V?$format_validation_base@_WV?$string_output_adapter@_W@__crt_stdio_output@@@2@@__crt_stdio_output@@ABEHH_W@Z 10033ed2 f i libucrt:output.obj
 0001:00032f22       ?type_case_s_compute_narrow_string_length@?$output_processor@_WV?$string_output_adapter@_W@__crt_stdio_output@@V?$positional_parameter_base@_WV?$string_output_adapter@_W@__crt_stdio_output@@@2@@__crt_stdio_output@@ABEHH_W@Z 10033f22 f i libucrt:output.obj
 0001:00032f72       ?type_case_s_compute_narrow_string_length@?$output_processor@_WV?$string_output_adapter@_W@__crt_stdio_output@@V?$standard_base@_WV?$string_output_adapter@_W@__crt_stdio_output@@@2@@__crt_stdio_output@@ABEHH_W@Z 10033f72 f i libucrt:output.obj
 0001:00032fc2       ?type_case_u@?$output_processor@DV?$stream_output_adapter@D@__crt_stdio_output@@V?$format_validation_base@DV?$stream_output_adapter@D@__crt_stdio_output@@@2@@__crt_stdio_output@@AAE_NXZ 10033fc2 f i libucrt:output.obj
 0001:00032fce       ?type_case_u@?$output_processor@DV?$stream_output_adapter@D@__crt_stdio_output@@V?$positional_parameter_base@DV?$stream_output_adapter@D@__crt_stdio_output@@@2@@__crt_stdio_output@@AAE_NXZ 10033fce f i libucrt:output.obj
 0001:00032fda       ?type_case_u@?$output_processor@DV?$stream_output_adapter@D@__crt_stdio_output@@V?$standard_base@DV?$stream_output_adapter@D@__crt_stdio_output@@@2@@__crt_stdio_output@@AAE_NXZ 10033fda f i libucrt:output.obj
 0001:00032fe6       ?type_case_u@?$output_processor@DV?$string_output_adapter@D@__crt_stdio_output@@V?$format_validation_base@DV?$string_output_adapter@D@__crt_stdio_output@@@2@@__crt_stdio_output@@AAE_NXZ 10033fe6 f i libucrt:output.obj
 0001:00032ff2       ?type_case_u@?$output_processor@DV?$string_output_adapter@D@__crt_stdio_output@@V?$positional_parameter_base@DV?$string_output_adapter@D@__crt_stdio_output@@@2@@__crt_stdio_output@@AAE_NXZ 10033ff2 f i libucrt:output.obj
 0001:00032ffe       ?type_case_u@?$output_processor@DV?$string_output_adapter@D@__crt_stdio_output@@V?$standard_base@DV?$string_output_adapter@D@__crt_stdio_output@@@2@@__crt_stdio_output@@AAE_NXZ 10033ffe f i libucrt:output.obj
 0001:0003300a       ?type_case_u@?$output_processor@_WV?$stream_output_adapter@_W@__crt_stdio_output@@V?$format_validation_base@_WV?$stream_output_adapter@_W@__crt_stdio_output@@@2@@__crt_stdio_output@@AAE_NXZ 1003400a f i libucrt:output.obj
 0001:00033016       ?type_case_u@?$output_processor@_WV?$stream_output_adapter@_W@__crt_stdio_output@@V?$positional_parameter_base@_WV?$stream_output_adapter@_W@__crt_stdio_output@@@2@@__crt_stdio_output@@AAE_NXZ 10034016 f i libucrt:output.obj
 0001:00033022       ?type_case_u@?$output_processor@_WV?$stream_output_adapter@_W@__crt_stdio_output@@V?$standard_base@_WV?$stream_output_adapter@_W@__crt_stdio_output@@@2@@__crt_stdio_output@@AAE_NXZ 10034022 f i libucrt:output.obj
 0001:0003302e       ?type_case_u@?$output_processor@_WV?$string_output_adapter@_W@__crt_stdio_output@@V?$format_validation_base@_WV?$string_output_adapter@_W@__crt_stdio_output@@@2@@__crt_stdio_output@@AAE_NXZ 1003402e f i libucrt:output.obj
 0001:0003303a       ?type_case_u@?$output_processor@_WV?$string_output_adapter@_W@__crt_stdio_output@@V?$positional_parameter_base@_WV?$string_output_adapter@_W@__crt_stdio_output@@@2@@__crt_stdio_output@@AAE_NXZ 1003403a f i libucrt:output.obj
 0001:00033046       ?type_case_u@?$output_processor@_WV?$string_output_adapter@_W@__crt_stdio_output@@V?$standard_base@_WV?$string_output_adapter@_W@__crt_stdio_output@@@2@@__crt_stdio_output@@AAE_NXZ 10034046 f i libucrt:output.obj
 0001:00033052       ?type_case_x@?$output_processor@DV?$stream_output_adapter@D@__crt_stdio_output@@V?$format_validation_base@DV?$stream_output_adapter@D@__crt_stdio_output@@@2@@__crt_stdio_output@@AAE_NXZ 10034052 f i libucrt:output.obj
 0001:0003305e       ?type_case_x@?$output_processor@DV?$stream_output_adapter@D@__crt_stdio_output@@V?$positional_parameter_base@DV?$stream_output_adapter@D@__crt_stdio_output@@@2@@__crt_stdio_output@@AAE_NXZ 1003405e f i libucrt:output.obj
 0001:0003306a       ?type_case_x@?$output_processor@DV?$stream_output_adapter@D@__crt_stdio_output@@V?$standard_base@DV?$stream_output_adapter@D@__crt_stdio_output@@@2@@__crt_stdio_output@@AAE_NXZ 1003406a f i libucrt:output.obj
 0001:00033076       ?type_case_x@?$output_processor@DV?$string_output_adapter@D@__crt_stdio_output@@V?$format_validation_base@DV?$string_output_adapter@D@__crt_stdio_output@@@2@@__crt_stdio_output@@AAE_NXZ 10034076 f i libucrt:output.obj
 0001:00033082       ?type_case_x@?$output_processor@DV?$string_output_adapter@D@__crt_stdio_output@@V?$positional_parameter_base@DV?$string_output_adapter@D@__crt_stdio_output@@@2@@__crt_stdio_output@@AAE_NXZ 10034082 f i libucrt:output.obj
 0001:0003308e       ?type_case_x@?$output_processor@DV?$string_output_adapter@D@__crt_stdio_output@@V?$standard_base@DV?$string_output_adapter@D@__crt_stdio_output@@@2@@__crt_stdio_output@@AAE_NXZ 1003408e f i libucrt:output.obj
 0001:0003309a       ?type_case_x@?$output_processor@_WV?$stream_output_adapter@_W@__crt_stdio_output@@V?$format_validation_base@_WV?$stream_output_adapter@_W@__crt_stdio_output@@@2@@__crt_stdio_output@@AAE_NXZ 1003409a f i libucrt:output.obj
 0001:000330a6       ?type_case_x@?$output_processor@_WV?$stream_output_adapter@_W@__crt_stdio_output@@V?$positional_parameter_base@_WV?$stream_output_adapter@_W@__crt_stdio_output@@@2@@__crt_stdio_output@@AAE_NXZ 100340a6 f i libucrt:output.obj
 0001:000330b2       ?type_case_x@?$output_processor@_WV?$stream_output_adapter@_W@__crt_stdio_output@@V?$standard_base@_WV?$stream_output_adapter@_W@__crt_stdio_output@@@2@@__crt_stdio_output@@AAE_NXZ 100340b2 f i libucrt:output.obj
 0001:000330be       ?type_case_x@?$output_processor@_WV?$string_output_adapter@_W@__crt_stdio_output@@V?$format_validation_base@_WV?$string_output_adapter@_W@__crt_stdio_output@@@2@@__crt_stdio_output@@AAE_NXZ 100340be f i libucrt:output.obj
 0001:000330ca       ?type_case_x@?$output_processor@_WV?$string_output_adapter@_W@__crt_stdio_output@@V?$positional_parameter_base@_WV?$string_output_adapter@_W@__crt_stdio_output@@@2@@__crt_stdio_output@@AAE_NXZ 100340ca f i libucrt:output.obj
 0001:000330d6       ?type_case_x@?$output_processor@_WV?$string_output_adapter@_W@__crt_stdio_output@@V?$standard_base@_WV?$string_output_adapter@_W@__crt_stdio_output@@@2@@__crt_stdio_output@@AAE_NXZ 100340d6 f i libucrt:output.obj
 0001:000330e2       ?unset_flag@?$output_processor@DV?$stream_output_adapter@D@__crt_stdio_output@@V?$format_validation_base@DV?$stream_output_adapter@D@__crt_stdio_output@@@2@@__crt_stdio_output@@AAEXI@Z 100340e2 f i libucrt:output.obj
 0001:000330f7       ?unset_flag@?$output_processor@DV?$stream_output_adapter@D@__crt_stdio_output@@V?$positional_parameter_base@DV?$stream_output_adapter@D@__crt_stdio_output@@@2@@__crt_stdio_output@@AAEXI@Z 100340f7 f i libucrt:output.obj
 0001:0003310c       ?unset_flag@?$output_processor@DV?$stream_output_adapter@D@__crt_stdio_output@@V?$standard_base@DV?$stream_output_adapter@D@__crt_stdio_output@@@2@@__crt_stdio_output@@AAEXI@Z 1003410c f i libucrt:output.obj
 0001:00033121       ?unset_flag@?$output_processor@DV?$string_output_adapter@D@__crt_stdio_output@@V?$format_validation_base@DV?$string_output_adapter@D@__crt_stdio_output@@@2@@__crt_stdio_output@@AAEXI@Z 10034121 f i libucrt:output.obj
 0001:00033136       ?unset_flag@?$output_processor@DV?$string_output_adapter@D@__crt_stdio_output@@V?$positional_parameter_base@DV?$string_output_adapter@D@__crt_stdio_output@@@2@@__crt_stdio_output@@AAEXI@Z 10034136 f i libucrt:output.obj
 0001:0003314b       ?unset_flag@?$output_processor@DV?$string_output_adapter@D@__crt_stdio_output@@V?$standard_base@DV?$string_output_adapter@D@__crt_stdio_output@@@2@@__crt_stdio_output@@AAEXI@Z 1003414b f i libucrt:output.obj
 0001:00033160       ?unset_flag@?$output_processor@_WV?$stream_output_adapter@_W@__crt_stdio_output@@V?$format_validation_base@_WV?$stream_output_adapter@_W@__crt_stdio_output@@@2@@__crt_stdio_output@@AAEXI@Z 10034160 f i libucrt:output.obj
 0001:00033175       ?unset_flag@?$output_processor@_WV?$stream_output_adapter@_W@__crt_stdio_output@@V?$positional_parameter_base@_WV?$stream_output_adapter@_W@__crt_stdio_output@@@2@@__crt_stdio_output@@AAEXI@Z 10034175 f i libucrt:output.obj
 0001:0003318a       ?unset_flag@?$output_processor@_WV?$stream_output_adapter@_W@__crt_stdio_output@@V?$standard_base@_WV?$stream_output_adapter@_W@__crt_stdio_output@@@2@@__crt_stdio_output@@AAEXI@Z 1003418a f i libucrt:output.obj
 0001:0003319f       ?unset_flag@?$output_processor@_WV?$string_output_adapter@_W@__crt_stdio_output@@V?$format_validation_base@_WV?$string_output_adapter@_W@__crt_stdio_output@@@2@@__crt_stdio_output@@AAEXI@Z 1003419f f i libucrt:output.obj
 0001:000331b4       ?unset_flag@?$output_processor@_WV?$string_output_adapter@_W@__crt_stdio_output@@V?$positional_parameter_base@_WV?$string_output_adapter@_W@__crt_stdio_output@@@2@@__crt_stdio_output@@AAEXI@Z 100341b4 f i libucrt:output.obj
 0001:000331c9       ?unset_flag@?$output_processor@_WV?$string_output_adapter@_W@__crt_stdio_output@@V?$standard_base@_WV?$string_output_adapter@_W@__crt_stdio_output@@@2@@__crt_stdio_output@@AAEXI@Z 100341c9 f i libucrt:output.obj
 0001:000331de       ?update_field_width@?$positional_parameter_base@DV?$stream_output_adapter@D@__crt_stdio_output@@@__crt_stdio_output@@IAE_NXZ 100341de f i libucrt:output.obj
 0001:000332c1       ?update_field_width@?$positional_parameter_base@DV?$string_output_adapter@D@__crt_stdio_output@@@__crt_stdio_output@@IAE_NXZ 100342c1 f i libucrt:output.obj
 0001:000333a4       ?update_field_width@?$positional_parameter_base@_WV?$stream_output_adapter@_W@__crt_stdio_output@@@__crt_stdio_output@@IAE_NXZ 100343a4 f i libucrt:output.obj
 0001:00033488       ?update_field_width@?$positional_parameter_base@_WV?$string_output_adapter@_W@__crt_stdio_output@@@__crt_stdio_output@@IAE_NXZ 10034488 f i libucrt:output.obj
 0001:0003356c       ?update_field_width@?$standard_base@DV?$stream_output_adapter@D@__crt_stdio_output@@@__crt_stdio_output@@IAE_NXZ 1003456c f i libucrt:output.obj
 0001:00033580       ?update_field_width@?$standard_base@DV?$string_output_adapter@D@__crt_stdio_output@@@__crt_stdio_output@@IAE_NXZ 10034580 f i libucrt:output.obj
 0001:00033594       ?update_field_width@?$standard_base@_WV?$stream_output_adapter@_W@__crt_stdio_output@@@__crt_stdio_output@@IAE_NXZ 10034594 f i libucrt:output.obj
 0001:000335a8       ?update_field_width@?$standard_base@_WV?$string_output_adapter@_W@__crt_stdio_output@@@__crt_stdio_output@@IAE_NXZ 100345a8 f i libucrt:output.obj
 0001:000335bc       ?update_precision@?$positional_parameter_base@DV?$stream_output_adapter@D@__crt_stdio_output@@@__crt_stdio_output@@IAE_NXZ 100345bc f i libucrt:output.obj
 0001:0003369f       ?update_precision@?$positional_parameter_base@DV?$string_output_adapter@D@__crt_stdio_output@@@__crt_stdio_output@@IAE_NXZ 1003469f f i libucrt:output.obj
 0001:00033782       ?update_precision@?$positional_parameter_base@_WV?$stream_output_adapter@_W@__crt_stdio_output@@@__crt_stdio_output@@IAE_NXZ 10034782 f i libucrt:output.obj
 0001:00033866       ?update_precision@?$positional_parameter_base@_WV?$string_output_adapter@_W@__crt_stdio_output@@@__crt_stdio_output@@IAE_NXZ 10034866 f i libucrt:output.obj
 0001:0003394a       ?update_precision@?$standard_base@DV?$stream_output_adapter@D@__crt_stdio_output@@@__crt_stdio_output@@IAE_NXZ 1003494a f i libucrt:output.obj
 0001:0003395e       ?update_precision@?$standard_base@DV?$string_output_adapter@D@__crt_stdio_output@@@__crt_stdio_output@@IAE_NXZ 1003495e f i libucrt:output.obj
 0001:00033972       ?update_precision@?$standard_base@_WV?$stream_output_adapter@_W@__crt_stdio_output@@@__crt_stdio_output@@IAE_NXZ 10034972 f i libucrt:output.obj
 0001:00033986       ?update_precision@?$standard_base@_WV?$string_output_adapter@_W@__crt_stdio_output@@@__crt_stdio_output@@IAE_NXZ 10034986 f i libucrt:output.obj
 0001:0003399a       ?valid@__crt_stdio_stream@@QBE_NXZ 1003499a f i libucrt:output.obj
 0001:000339a4       ?validate@?$stream_output_adapter@D@__crt_stdio_output@@QBE_NXZ 100349a4 f i libucrt:output.obj
 0001:000339cd       ?validate@?$stream_output_adapter@_W@__crt_stdio_output@@QBE_NXZ 100349cd f i libucrt:output.obj
 0001:000339ee       ?validate@?$string_output_adapter@D@__crt_stdio_output@@QBE_NXZ 100349ee f i libucrt:output.obj
 0001:00033a0f       ?validate@?$string_output_adapter@_W@__crt_stdio_output@@QBE_NXZ 10034a0f f i libucrt:output.obj
 0001:00033a30       ?validate_and_store_parameter_data@?$positional_parameter_base@DV?$stream_output_adapter@D@__crt_stdio_output@@@__crt_stdio_output@@AAE_NAAUparameter_data@12@W4parameter_type@12@DW4length_modifier@2@@Z 10034a30 f i libucrt:output.obj
 0001:00033a8d       ?validate_and_store_parameter_data@?$positional_parameter_base@DV?$string_output_adapter@D@__crt_stdio_output@@@__crt_stdio_output@@AAE_NAAUparameter_data@12@W4parameter_type@12@DW4length_modifier@2@@Z 10034a8d f i libucrt:output.obj
 0001:00033aea       ?validate_and_store_parameter_data@?$positional_parameter_base@_WV?$stream_output_adapter@_W@__crt_stdio_output@@@__crt_stdio_output@@AAE_NAAUparameter_data@12@W4parameter_type@12@_WW4length_modifier@2@@Z 10034aea f i libucrt:output.obj
 0001:00033b4a       ?validate_and_store_parameter_data@?$positional_parameter_base@_WV?$string_output_adapter@_W@__crt_stdio_output@@@__crt_stdio_output@@AAE_NAAUparameter_data@12@W4parameter_type@12@_WW4length_modifier@2@@Z 10034b4a f i libucrt:output.obj
 0001:00033baa       ?validate_and_update_state_at_beginning_of_format_character@?$positional_parameter_base@DV?$stream_output_adapter@D@__crt_stdio_output@@@__crt_stdio_output@@IAE_NXZ 10034baa f i libucrt:output.obj
 0001:00033ce0       ?validate_and_update_state_at_beginning_of_format_character@?$positional_parameter_base@DV?$string_output_adapter@D@__crt_stdio_output@@@__crt_stdio_output@@IAE_NXZ 10034ce0 f i libucrt:output.obj
 0001:00033e16       ?validate_and_update_state_at_beginning_of_format_character@?$positional_parameter_base@_WV?$stream_output_adapter@_W@__crt_stdio_output@@@__crt_stdio_output@@IAE_NXZ 10034e16 f i libucrt:output.obj
 0001:00033f58       ?validate_and_update_state_at_beginning_of_format_character@?$positional_parameter_base@_WV?$string_output_adapter@_W@__crt_stdio_output@@@__crt_stdio_output@@IAE_NXZ 10034f58 f i libucrt:output.obj
 0001:0003409a       ?validate_and_update_state_at_beginning_of_format_character@?$standard_base@DV?$stream_output_adapter@D@__crt_stdio_output@@@__crt_stdio_output@@IAE_NXZ 1003509a f i libucrt:output.obj
 0001:0003409d       ?validate_and_update_state_at_beginning_of_format_character@?$standard_base@DV?$string_output_adapter@D@__crt_stdio_output@@@__crt_stdio_output@@IAE_NXZ 1003509d f i libucrt:output.obj
 0001:000340a0       ?validate_and_update_state_at_beginning_of_format_character@?$standard_base@_WV?$stream_output_adapter@_W@__crt_stdio_output@@@__crt_stdio_output@@IAE_NXZ 100350a0 f i libucrt:output.obj
 0001:000340a3       ?validate_and_update_state_at_beginning_of_format_character@?$standard_base@_WV?$string_output_adapter@_W@__crt_stdio_output@@@__crt_stdio_output@@IAE_NXZ 100350a3 f i libucrt:output.obj
 0001:000340a6       ?validate_and_update_state_at_end_of_format_string@?$format_validation_base@DV?$stream_output_adapter@D@__crt_stdio_output@@@__crt_stdio_output@@IBE_NXZ 100350a6 f i libucrt:output.obj
 0001:000340d0       ?validate_and_update_state_at_end_of_format_string@?$format_validation_base@DV?$string_output_adapter@D@__crt_stdio_output@@@__crt_stdio_output@@IBE_NXZ 100350d0 f i libucrt:output.obj
 0001:000340fa       ?validate_and_update_state_at_end_of_format_string@?$format_validation_base@_WV?$stream_output_adapter@_W@__crt_stdio_output@@@__crt_stdio_output@@IBE_NXZ 100350fa f i libucrt:output.obj
 0001:00034124       ?validate_and_update_state_at_end_of_format_string@?$format_validation_base@_WV?$string_output_adapter@_W@__crt_stdio_output@@@__crt_stdio_output@@IBE_NXZ 10035124 f i libucrt:output.obj
 0001:0003414e       ?validate_and_update_state_at_end_of_format_string@?$positional_parameter_base@DV?$stream_output_adapter@D@__crt_stdio_output@@@__crt_stdio_output@@IAE_NXZ 1003514e f i libucrt:output.obj
 0001:000341ee       ?validate_and_update_state_at_end_of_format_string@?$positional_parameter_base@DV?$string_output_adapter@D@__crt_stdio_output@@@__crt_stdio_output@@IAE_NXZ 100351ee f i libucrt:output.obj
 0001:0003428e       ?validate_and_update_state_at_end_of_format_string@?$positional_parameter_base@_WV?$stream_output_adapter@_W@__crt_stdio_output@@@__crt_stdio_output@@IAE_NXZ 1003528e f i libucrt:output.obj
 0001:0003432e       ?validate_and_update_state_at_end_of_format_string@?$positional_parameter_base@_WV?$string_output_adapter@_W@__crt_stdio_output@@@__crt_stdio_output@@IAE_NXZ 1003532e f i libucrt:output.obj
 0001:000343ce       ?validate_and_update_state_at_end_of_format_string@?$standard_base@DV?$stream_output_adapter@D@__crt_stdio_output@@@__crt_stdio_output@@IBE_NXZ 100353ce f i libucrt:output.obj
 0001:000343d1       ?validate_and_update_state_at_end_of_format_string@?$standard_base@DV?$string_output_adapter@D@__crt_stdio_output@@@__crt_stdio_output@@IBE_NXZ 100353d1 f i libucrt:output.obj
 0001:000343d4       ?validate_and_update_state_at_end_of_format_string@?$standard_base@_WV?$stream_output_adapter@_W@__crt_stdio_output@@@__crt_stdio_output@@IBE_NXZ 100353d4 f i libucrt:output.obj
 0001:000343d7       ?validate_and_update_state_at_end_of_format_string@?$standard_base@_WV?$string_output_adapter@_W@__crt_stdio_output@@@__crt_stdio_output@@IBE_NXZ 100353d7 f i libucrt:output.obj
 0001:000343da       ?validate_state_for_type_case_a@?$positional_parameter_base@DV?$stream_output_adapter@D@__crt_stdio_output@@@__crt_stdio_output@@IAE_NXZ 100353da f i libucrt:output.obj
 0001:00034441       ?validate_state_for_type_case_a@?$positional_parameter_base@DV?$string_output_adapter@D@__crt_stdio_output@@@__crt_stdio_output@@IAE_NXZ 10035441 f i libucrt:output.obj
 0001:000344a8       ?validate_state_for_type_case_a@?$positional_parameter_base@_WV?$stream_output_adapter@_W@__crt_stdio_output@@@__crt_stdio_output@@IAE_NXZ 100354a8 f i libucrt:output.obj
 0001:0003450f       ?validate_state_for_type_case_a@?$positional_parameter_base@_WV?$string_output_adapter@_W@__crt_stdio_output@@@__crt_stdio_output@@IAE_NXZ 1003550f f i libucrt:output.obj
 0001:00034576       ?validate_state_for_type_case_a@?$standard_base@DV?$stream_output_adapter@D@__crt_stdio_output@@@__crt_stdio_output@@IBE_NXZ 10035576 f i libucrt:output.obj
 0001:00034579       ?validate_state_for_type_case_a@?$standard_base@DV?$string_output_adapter@D@__crt_stdio_output@@@__crt_stdio_output@@IBE_NXZ 10035579 f i libucrt:output.obj
 0001:0003457c       ?validate_state_for_type_case_a@?$standard_base@_WV?$stream_output_adapter@_W@__crt_stdio_output@@@__crt_stdio_output@@IBE_NXZ 1003557c f i libucrt:output.obj
 0001:0003457f       ?validate_state_for_type_case_a@?$standard_base@_WV?$string_output_adapter@_W@__crt_stdio_output@@@__crt_stdio_output@@IBE_NXZ 1003557f f i libucrt:output.obj
 0001:00034582       ?validate_stream_is_ansi_if_required@?$__acrt_stdio_char_traits@D@@SA_NQAU_iobuf@@@Z 10035582 f i libucrt:output.obj
 0001:00034624       ?validate_stream_is_ansi_if_required@?$__acrt_stdio_char_traits@_W@@SA_NQAU_iobuf@@@Z 10035624 f i libucrt:output.obj
 0001:00034627       ?wide_null_string@?$output_processor@DV?$stream_output_adapter@D@__crt_stdio_output@@V?$format_validation_base@DV?$stream_output_adapter@D@__crt_stdio_output@@@2@@__crt_stdio_output@@CAPA_WXZ 10035627 f i libucrt:output.obj
 0001:0003462d       ?wide_null_string@?$output_processor@DV?$stream_output_adapter@D@__crt_stdio_output@@V?$positional_parameter_base@DV?$stream_output_adapter@D@__crt_stdio_output@@@2@@__crt_stdio_output@@CAPA_WXZ 1003562d f i libucrt:output.obj
 0001:00034633       ?wide_null_string@?$output_processor@DV?$stream_output_adapter@D@__crt_stdio_output@@V?$standard_base@DV?$stream_output_adapter@D@__crt_stdio_output@@@2@@__crt_stdio_output@@CAPA_WXZ 10035633 f i libucrt:output.obj
 0001:00034639       ?wide_null_string@?$output_processor@DV?$string_output_adapter@D@__crt_stdio_output@@V?$format_validation_base@DV?$string_output_adapter@D@__crt_stdio_output@@@2@@__crt_stdio_output@@CAPA_WXZ 10035639 f i libucrt:output.obj
 0001:0003463f       ?wide_null_string@?$output_processor@DV?$string_output_adapter@D@__crt_stdio_output@@V?$positional_parameter_base@DV?$string_output_adapter@D@__crt_stdio_output@@@2@@__crt_stdio_output@@CAPA_WXZ 1003563f f i libucrt:output.obj
 0001:00034645       ?wide_null_string@?$output_processor@DV?$string_output_adapter@D@__crt_stdio_output@@V?$standard_base@DV?$string_output_adapter@D@__crt_stdio_output@@@2@@__crt_stdio_output@@CAPA_WXZ 10035645 f i libucrt:output.obj
 0001:0003464b       ?wide_null_string@?$output_processor@_WV?$stream_output_adapter@_W@__crt_stdio_output@@V?$format_validation_base@_WV?$stream_output_adapter@_W@__crt_stdio_output@@@2@@__crt_stdio_output@@CAPA_WXZ 1003564b f i libucrt:output.obj
 0001:00034651       ?wide_null_string@?$output_processor@_WV?$stream_output_adapter@_W@__crt_stdio_output@@V?$positional_parameter_base@_WV?$stream_output_adapter@_W@__crt_stdio_output@@@2@@__crt_stdio_output@@CAPA_WXZ 10035651 f i libucrt:output.obj
 0001:00034657       ?wide_null_string@?$output_processor@_WV?$stream_output_adapter@_W@__crt_stdio_output@@V?$standard_base@_WV?$stream_output_adapter@_W@__crt_stdio_output@@@2@@__crt_stdio_output@@CAPA_WXZ 10035657 f i libucrt:output.obj
 0001:0003465d       ?wide_null_string@?$output_processor@_WV?$string_output_adapter@_W@__crt_stdio_output@@V?$format_validation_base@_WV?$string_output_adapter@_W@__crt_stdio_output@@@2@@__crt_stdio_output@@CAPA_WXZ 1003565d f i libucrt:output.obj
 0001:00034663       ?wide_null_string@?$output_processor@_WV?$string_output_adapter@_W@__crt_stdio_output@@V?$positional_parameter_base@_WV?$string_output_adapter@_W@__crt_stdio_output@@@2@@__crt_stdio_output@@CAPA_WXZ 10035663 f i libucrt:output.obj
 0001:00034669       ?wide_null_string@?$output_processor@_WV?$string_output_adapter@_W@__crt_stdio_output@@V?$standard_base@_WV?$string_output_adapter@_W@__crt_stdio_output@@@2@@__crt_stdio_output@@CAPA_WXZ 10035669 f i libucrt:output.obj
 0001:0003466f       ?write_character@?$stream_output_adapter@D@__crt_stdio_output@@QBEXDQAH@Z 1003566f f i libucrt:output.obj
 0001:000346bb       ?write_character@?$stream_output_adapter@_W@__crt_stdio_output@@QBEX_WQAH@Z 100356bb f i libucrt:output.obj
 0001:0003470b       ?write_character@?$string_output_adapter@D@__crt_stdio_output@@QBE_NDQAH@Z 1003570b f i libucrt:output.obj
 0001:0003475d       ?write_character@?$string_output_adapter@_W@__crt_stdio_output@@QBE_N_WQAH@Z 1003575d f i libucrt:output.obj
 0001:000347b3       ?write_stored_string_tchar@?$output_processor@DV?$stream_output_adapter@D@__crt_stdio_output@@V?$format_validation_base@DV?$stream_output_adapter@D@__crt_stdio_output@@@2@@__crt_stdio_output@@AAE_ND@Z 100357b3 f i libucrt:output.obj
 0001:00034883       ?write_stored_string_tchar@?$output_processor@DV?$stream_output_adapter@D@__crt_stdio_output@@V?$positional_parameter_base@DV?$stream_output_adapter@D@__crt_stdio_output@@@2@@__crt_stdio_output@@AAE_ND@Z 10035883 f i libucrt:output.obj
 0001:00034953       ?write_stored_string_tchar@?$output_processor@DV?$stream_output_adapter@D@__crt_stdio_output@@V?$standard_base@DV?$stream_output_adapter@D@__crt_stdio_output@@@2@@__crt_stdio_output@@AAE_ND@Z 10035953 f i libucrt:output.obj
 0001:00034a23       ?write_stored_string_tchar@?$output_processor@DV?$string_output_adapter@D@__crt_stdio_output@@V?$format_validation_base@DV?$string_output_adapter@D@__crt_stdio_output@@@2@@__crt_stdio_output@@AAE_ND@Z 10035a23 f i libucrt:output.obj
 0001:00034af3       ?write_stored_string_tchar@?$output_processor@DV?$string_output_adapter@D@__crt_stdio_output@@V?$positional_parameter_base@DV?$string_output_adapter@D@__crt_stdio_output@@@2@@__crt_stdio_output@@AAE_ND@Z 10035af3 f i libucrt:output.obj
 0001:00034bc3       ?write_stored_string_tchar@?$output_processor@DV?$string_output_adapter@D@__crt_stdio_output@@V?$standard_base@DV?$string_output_adapter@D@__crt_stdio_output@@@2@@__crt_stdio_output@@AAE_ND@Z 10035bc3 f i libucrt:output.obj
 0001:00034c93       ?write_stored_string_tchar@?$output_processor@_WV?$stream_output_adapter@_W@__crt_stdio_output@@V?$format_validation_base@_WV?$stream_output_adapter@_W@__crt_stdio_output@@@2@@__crt_stdio_output@@AAE_N_W@Z 10035c93 f i libucrt:output.obj
 0001:00034d40       ?write_stored_string_tchar@?$output_processor@_WV?$stream_output_adapter@_W@__crt_stdio_output@@V?$positional_parameter_base@_WV?$stream_output_adapter@_W@__crt_stdio_output@@@2@@__crt_stdio_output@@AAE_N_W@Z 10035d40 f i libucrt:output.obj
 0001:00034ded       ?write_stored_string_tchar@?$output_processor@_WV?$stream_output_adapter@_W@__crt_stdio_output@@V?$standard_base@_WV?$stream_output_adapter@_W@__crt_stdio_output@@@2@@__crt_stdio_output@@AAE_N_W@Z 10035ded f i libucrt:output.obj
 0001:00034e9a       ?write_stored_string_tchar@?$output_processor@_WV?$string_output_adapter@_W@__crt_stdio_output@@V?$format_validation_base@_WV?$string_output_adapter@_W@__crt_stdio_output@@@2@@__crt_stdio_output@@AAE_N_W@Z 10035e9a f i libucrt:output.obj
 0001:00034f47       ?write_stored_string_tchar@?$output_processor@_WV?$string_output_adapter@_W@__crt_stdio_output@@V?$positional_parameter_base@_WV?$string_output_adapter@_W@__crt_stdio_output@@@2@@__crt_stdio_output@@AAE_N_W@Z 10035f47 f i libucrt:output.obj
 0001:00034ff4       ?write_stored_string_tchar@?$output_processor@_WV?$string_output_adapter@_W@__crt_stdio_output@@V?$standard_base@_WV?$string_output_adapter@_W@__crt_stdio_output@@@2@@__crt_stdio_output@@AAE_N_W@Z 10035ff4 f i libucrt:output.obj
 0001:000350a1       ?write_string@?$stream_output_adapter@D@__crt_stdio_output@@QBEXQBDHQAH1@Z 100360a1 f i libucrt:output.obj
 0001:0003514d       ?write_string@?$stream_output_adapter@_W@__crt_stdio_output@@QBEXQB_WHQAH1@Z 1003614d f i libucrt:output.obj
 0001:000351fd       ?write_string@?$string_output_adapter@D@__crt_stdio_output@@QBEXQBDHQAH1@Z 100361fd f i libucrt:output.obj
 0001:000352b4       ?write_string@?$string_output_adapter@_W@__crt_stdio_output@@QBEXQB_WHQAH1@Z 100362b4 f i libucrt:output.obj
 0001:00035374       ___acrt_isleadbyte_l_noupdate 10036374 f i libucrt:output.obj
 0001:00035395       ___acrt_locale_changed     10036395 f i libucrt:output.obj
 0001:000353a6       ___stdio_common_vfprintf   100363a6 f   libucrt:output.obj
 0001:0003543a       ___stdio_common_vfprintf_p 1003643a f   libucrt:output.obj
 0001:000354ce       ___stdio_common_vfprintf_s 100364ce f   libucrt:output.obj
 0001:00035562       ___stdio_common_vfwprintf  10036562 f   libucrt:output.obj
 0001:000355f6       ___stdio_common_vfwprintf_p 100365f6 f   libucrt:output.obj
 0001:0003568a       ___stdio_common_vfwprintf_s 1003668a f   libucrt:output.obj
 0001:0003571e       ___stdio_common_vsnprintf_s 1003671e f   libucrt:output.obj
 0001:0003574e       ___stdio_common_vsnwprintf_s 1003674e f   libucrt:output.obj
 0001:0003577e       ___stdio_common_vsprintf   1003677e f   libucrt:output.obj
 0001:000357ab       ___stdio_common_vsprintf_p 100367ab f   libucrt:output.obj
 0001:000357d8       ___stdio_common_vsprintf_s 100367d8 f   libucrt:output.obj
 0001:00035805       ___stdio_common_vswprintf  10036805 f   libucrt:output.obj
 0001:00035832       ___stdio_common_vswprintf_p 10036832 f   libucrt:output.obj
 0001:0003585f       ___stdio_common_vswprintf_s 1003685f f   libucrt:output.obj
 0001:0003588c       _calloc                    1003688c f   libucrt:calloc.obj
 0001:00035899       _free                      10036899 f   libucrt:free.obj
 0001:0003589e       ??$__vcrt_va_start_verify_argument_type@QB_W@@YAXXZ 1003689e f i libucrt:assert.obj
 0001:0003683b       ??$ftprintf@PAU_iobuf@@PBDABQBDABQBDABI@?$__crt_char_traits@D@@SAH$$QAPAU_iobuf@@$$QAPBDABQBD2ABI@Z 1003783b f i libucrt:assert.obj
 0001:0003686d       ??$ftprintf@PAU_iobuf@@PB_WABQB_WABQB_WABI@?$__crt_char_traits@_W@@SAH$$QAPAU_iobuf@@$$QAPB_WABQB_W2ABI@Z 1003786d f i libucrt:assert.obj
 0001:0003689f       ??$get_module_file_name@AAPAUHINSTANCE__@@AAY0BAF@DK@?$__crt_char_traits@D@@SAKAAPAUHINSTANCE__@@AAY0BAF@D$$QAK@Z 1003789f f i libucrt:assert.obj
 0001:000368bf       ??$get_module_file_name@AAPAUHINSTANCE__@@AAY0BAF@_WK@?$__crt_char_traits@_W@@SAKAAPAUHINSTANCE__@@AAY0BAF@_W$$QAK@Z 100378bf f i libucrt:assert.obj
 0001:000368df       ??$itot_s@ABIQAD$$CBIH@?$__crt_char_traits@D@@SAHABI$$QBQAD$$QBI$$QAH@Z 100378df f i libucrt:assert.obj
 0001:0003690a       ??$itot_s@ABIQA_W$$CBIH@?$__crt_char_traits@_W@@SAHABI$$QBQA_W$$QBI$$QAH@Z 1003790a f i libucrt:assert.obj
 0001:00036935       ??$show_message_box@AAY0CEA@DPBDJ@?$__crt_char_traits@D@@SAHAAY0CEA@D$$QAPBD$$QAJ@Z 10037935 f i libucrt:assert.obj
 0001:00036958       ??$show_message_box@AAY0CEA@_WPB_WJ@?$__crt_char_traits@_W@@SAHAAY0CEA@_W$$QAPB_W$$QAJ@Z 10037958 f i libucrt:assert.obj
 0001:0003697b       ??$tcscat_s@ABQADABIAAPAD@?$__crt_char_traits@D@@SAHABQADABIAAPAD@Z 1003797b f i libucrt:assert.obj
 0001:000369a0       ??$tcscat_s@ABQADABIABQBD@?$__crt_char_traits@D@@SAHABQADABIABQBD@Z 100379a0 f i libucrt:assert.obj
 0001:000369c5       ??$tcscat_s@ABQADABIPBD@?$__crt_char_traits@D@@SAHABQADABI$$QAPBD@Z 100379c5 f i libucrt:assert.obj
 0001:000369ea       ??$tcscat_s@ABQA_WABIAAPA_W@?$__crt_char_traits@_W@@SAHABQA_WABIAAPA_W@Z 100379ea f i libucrt:assert.obj
 0001:00036a0f       ??$tcscat_s@ABQA_WABIABQB_W@?$__crt_char_traits@_W@@SAHABQA_WABIABQB_W@Z 10037a0f f i libucrt:assert.obj
 0001:00036a34       ??$tcscat_s@ABQA_WABIPB_W@?$__crt_char_traits@_W@@SAHABQA_WABI$$QAPB_W@Z 10037a34 f i libucrt:assert.obj
 0001:00036a59       ??$tcscpy_s@AAY0BAF@DIPBD@?$__crt_char_traits@D@@SAHAAY0BAF@D$$QAI$$QAPBD@Z 10037a59 f i libucrt:assert.obj
 0001:00036a7c       ??$tcscpy_s@AAY0BAF@_WIPB_W@?$__crt_char_traits@_W@@SAHAAY0BAF@_W$$QAI$$QAPB_W@Z 10037a7c f i libucrt:assert.obj
 0001:00036a9f       ??$tcscpy_s@ABQADABIPBD@?$__crt_char_traits@D@@SAHABQADABI$$QAPBD@Z 10037a9f f i libucrt:assert.obj
 0001:00036ac4       ??$tcscpy_s@ABQA_WABIPB_W@?$__crt_char_traits@_W@@SAHABQA_WABI$$QAPB_W@Z 10037ac4 f i libucrt:assert.obj
 0001:00036ae9       ??$tcslen@AAY0BAF@D@?$__crt_char_traits@D@@SAIAAY0BAF@D@Z 10037ae9 f i libucrt:assert.obj
 0001:00036b04       ??$tcslen@AAY0BAF@_W@?$__crt_char_traits@_W@@SAIAAY0BAF@_W@Z 10037b04 f i libucrt:assert.obj
 0001:00036b27       ??$tcslen@ABQAD@?$__crt_char_traits@D@@SAIABQAD@Z 10037b27 f i libucrt:assert.obj
 0001:00036b45       ??$tcslen@ABQA_W@?$__crt_char_traits@_W@@SAIABQA_W@Z 10037b45 f i libucrt:assert.obj
 0001:00036b6a       ??$tcslen@ABQBD@?$__crt_char_traits@D@@SAIABQBD@Z 10037b6a f i libucrt:assert.obj
 0001:00036b88       ??$tcslen@ABQB_W@?$__crt_char_traits@_W@@SAIABQB_W@Z 10037b88 f i libucrt:assert.obj
 0001:00036bad       ??$tcsncat_s@ABQADABIAAPBD$$CBI@?$__crt_char_traits@D@@SAHABQADABIAAPBD$$QBI@Z 10037bad f i libucrt:assert.obj
 0001:00036bd8       ??$tcsncat_s@ABQADABIABQBDABI@?$__crt_char_traits@D@@SAHABQADABIABQBD1@Z 10037bd8 f i libucrt:assert.obj
 0001:00036c03       ??$tcsncat_s@ABQADABIPBD$$CBI@?$__crt_char_traits@D@@SAHABQADABI$$QAPBD$$QBI@Z 10037c03 f i libucrt:assert.obj
 0001:00036c2e       ??$tcsncat_s@ABQA_WABIAAPB_W$$CBI@?$__crt_char_traits@_W@@SAHABQA_WABIAAPB_W$$QBI@Z 10037c2e f i libucrt:assert.obj
 0001:00036c59       ??$tcsncat_s@ABQA_WABIABQB_WABI@?$__crt_char_traits@_W@@SAHABQA_WABIABQB_W1@Z 10037c59 f i libucrt:assert.obj
 0001:00036c84       ??$tcsncat_s@ABQA_WABIPB_W$$CBI@?$__crt_char_traits@_W@@SAHABQA_WABI$$QAPB_W$$QBI@Z 10037c84 f i libucrt:assert.obj
 0001:00036e29       ?has_any_buffer@__crt_stdio_stream@@QBE_NXZ 10037e29 f i libucrt:assert.obj
 0001:00036e3e       ?has_any_of@__crt_stdio_stream@@QBE_NJ@Z 10037e3e f i libucrt:assert.obj
 0001:00036e5a       __assert                   10037e5a f   libucrt:assert.obj
 0001:00036eb4       __invoke_watson_if_error   10037eb4 f i libucrt:assert.obj
 0001:00036ede       __vfwprintf_l              10037ede f i libucrt:assert.obj
 0001:00036f0c       __vswprintf_c_l            10037f0c f i libucrt:assert.obj
 0001:00036f46       __wassert                  10037f46 f   libucrt:assert.obj
 0001:00036fa0       _fwprintf                  10037fa0 f i libucrt:assert.obj
 0001:00037062       _swprintf                  10038062 f i libucrt:assert.obj
 0001:00037087       _realloc                   10038087 f   libucrt:realloc.obj
 0001:00037094       ??$?B$$A6GXPAXK0@Z@__crt_fast_encoded_nullptr_t@@QBEP6GXPAXK0@ZXZ 10038094 f i libucrt:exit.obj
 0001:000370b2       ??$__crt_fast_decode_pointer@P6GXPAXK0@Z@@YAP6GXPAXK0@ZQ6GX0K0@Z@Z 100380b2 f i libucrt:exit.obj
 0001:000370cd       ??$__crt_fast_encode_pointer@P6GXPAXK0@Z@@YAP6GXPAXK0@ZQ6GX0K0@Z@Z 100380cd f i libucrt:exit.obj
 0001:000370f3       ??$__crt_get_proc_address@P6GXI@Z@@YAP6GXI@ZQAUHINSTANCE__@@QBD@Z 100380f3 f i libucrt:exit.obj
 0001:0003710a       ??0?$__crt_unique_handle_t@U__crt_hmodule_traits@@@@QAE@QAUHINSTANCE__@@@Z 1003810a f i libucrt:exit.obj
 0001:0003711e       ??1?$__crt_unique_handle_t@U__crt_hmodule_traits@@@@QAE@XZ 1003811e f i libucrt:exit.obj
 0001:00037151       ?close@?$__crt_unique_handle_t@U__crt_hmodule_traits@@@@QAEXXZ 10038151 f i libucrt:exit.obj
 0001:0003716d       ?close@__crt_hmodule_traits@@SA_NPAUHINSTANCE__@@@Z 1003816d f i libucrt:exit.obj
 0001:00037338       ?get@?$__crt_unique_handle_t@U__crt_hmodule_traits@@@@QBEPAUHINSTANCE__@@XZ 10038338 f i libucrt:exit.obj
 0001:0003733b       ?get_address_of@?$__crt_unique_handle_t@U__crt_hmodule_traits@@@@QAEPAPAUHINSTANCE__@@XZ 1003833b f i libucrt:exit.obj
 0001:0003733e       ?get_invalid_value@__crt_hmodule_traits@@SAPAUHINSTANCE__@@XZ 1003833e f i libucrt:exit.obj
 0001:0003743b       __Exit                     1003843b f   libucrt:exit.obj
 0001:00037456       ___acrt_initialize_thread_local_exit_callback 10038456 f   libucrt:exit.obj
 0001:00037468       __c_exit                   10038468 f   libucrt:exit.obj
 0001:0003747a       __cexit                    1003847a f   libucrt:exit.obj
 0001:0003748c       __exit                     1003848c f   libucrt:exit.obj
 0001:000374a7       __is_c_termination_complete 100384a7 f   libucrt:exit.obj
 0001:000374ad       __register_thread_local_exe_atexit_callback 100384ad f   libucrt:exit.obj
 0001:000374f3       _exit                      100384f3 f   libucrt:exit.obj
 0001:0003750e       _quick_exit                1003850e f   libucrt:exit.obj
 0001:00037530       _strncat                   10038530 f   libucrt:strncat.obj
 0001:000376c0       _strncpy                   100386c0 f   libucrt:strncpy.obj
 0001:0003782d       ?is_in_use@__crt_stdio_stream@@QBE_NXZ 1003882d f i libucrt:fclose.obj
 0001:0003783c       __fclose_nolock            1003883c f   libucrt:fclose.obj
 0001:000378cf       _fclose                    100388cf f   libucrt:fclose.obj
 0001:00037c01       ??$open_file@ABQBDABQBDABHPAU_iobuf@@@?$__crt_char_traits@D@@SAPAU_iobuf@@ABQBD0ABH$$QAPAU1@@Z 10038c01 f i libucrt:fopen.obj
 0001:00037c2c       ??$open_file@ABQB_WABQB_WABHPAU_iobuf@@@?$__crt_char_traits@_W@@SAPAU_iobuf@@ABQB_W0ABH$$QAPAU1@@Z 10038c2c f i libucrt:fopen.obj
 0001:00037c57       ?unlock@__crt_stdio_stream@@QBEXXZ 10038c57 f i libucrt:fopen.obj
 0001:00037c62       __fsopen                   10038c62 f   libucrt:fopen.obj
 0001:00037c6f       __wfopen                   10038c6f f   libucrt:fopen.obj
 0001:00037c8b       __wfopen_s                 10038c8b f   libucrt:fopen.obj
 0001:00037ce3       __wfsopen                  10038ce3 f   libucrt:fopen.obj
 0001:00037cf0       _fopen                     10038cf0 f   libucrt:fopen.obj
 0001:00037d0c       _fopen_s                   10038d0c f   libucrt:fopen.obj
 0001:00037d64       ?set_flags@__crt_stdio_stream@@QBE_NJ@Z 10038d64 f i libucrt:fread.obj
 0001:00037d94       __fread_nolock             10038d94 f   libucrt:fread.obj
 0001:00037db8       __fread_nolock_s           10038db8 f   libucrt:fread.obj
 0001:00037ff7       _fread                     10038ff7 f   libucrt:fread.obj
 0001:0003801b       _fread_s                   1003901b f   libucrt:fread.obj
 0001:00038173       ??$?RV<lambda_11b4f7b0d3157825a5656a18eba1ae27>@@AAV<lambda_b51c0495177f500e782686251704ae76>@@V<lambda_cf89b47920b5017557bfe891e78aca36>@@@?$__crt_seh_guarded_call@I@@QAEI$$QAV<lambda_11b4f7b0d3157825a5656a18eba1ae27>@@AAV<lambda_b51c0495177f500e782686251704ae76>@@$$QAV<lambda_cf89b47920b5017557bfe891e78aca36>@@@Z 10039173 f i libucrt:fwrite.obj
 0001:000381d8       ??$__acrt_lock_stream_and_call@V<lambda_b51c0495177f500e782686251704ae76>@@@@YAIQAU_iobuf@@$$QAV<lambda_b51c0495177f500e782686251704ae76>@@@Z 100391d8 f i libucrt:fwrite.obj
 0001:000382cd       ?has_big_buffer@__crt_stdio_stream@@QBE_NXZ 100392cd f i libucrt:fwrite.obj
 0001:000382de       __fwrite_nolock            100392de f   libucrt:fwrite.obj
 0001:000384b5       _fwrite                    100394b5 f   libucrt:fwrite.obj
 0001:00038523       ??$?R_W@__crt_internal_free_policy@@QBEXQB_W@Z 10039523 f i libucrt:unlink.obj
 0001:00038539       ??0?$__crt_unique_heap_ptr@_WU__crt_internal_free_policy@@@@QAE@QA_W@Z 10039539 f i libucrt:unlink.obj
 0001:0003854d       ??1?$__crt_unique_heap_ptr@_WU__crt_internal_free_policy@@@@QAE@XZ 1003954d f i libucrt:unlink.obj
 0001:00038563       ?get@?$__crt_unique_heap_ptr@_WU__crt_internal_free_policy@@@@QBEPA_WXZ 10039563 f i libucrt:unlink.obj
 0001:00038566       ?get_address_of@?$__crt_unique_heap_ptr@_WU__crt_internal_free_policy@@@@QAEPAPA_WXZ 10039566 f i libucrt:unlink.obj
 0001:00038569       ?release@?$__crt_unique_heap_ptr@_WU__crt_internal_free_policy@@@@QAEXXZ 10039569 f i libucrt:unlink.obj
 0001:0003857f       __unlink                   1003957f f   libucrt:unlink.obj
 0001:0003858c       _remove                    1003958c f   libucrt:unlink.obj
 0001:000385ec       ?__acrt_stdio_reset_buffer@@YAXV__crt_stdio_stream@@@Z 100395ec f i libucrt:rewind.obj
 0001:00038607       ?has_all_of@__crt_stdio_stream@@QBE_NJ@Z 10039607 f i libucrt:rewind.obj
 0001:00038626       ?unset_flags@__crt_stdio_stream@@QBE_NJ@Z 10039626 f i libucrt:rewind.obj
 0001:0003865a       _rewind                    1003965a f   libucrt:rewind.obj
 0001:0003875b       _ldexp                     1003975b f   libucrt:ldexp.obj
 0001:000389bb       __errcode                  100399bb f   libucrt:fpexcept.obj
 0001:000389fc       __except1                  100399fc f   libucrt:fpexcept.obj
 0001:00038afd       __except2                  10039afd f   libucrt:fpexcept.obj
 0001:00038c46       __handle_exc               10039c46 f   libucrt:fpexcept.obj
 0001:00038e9e       __handle_qnan2             10039e9e f   libucrt:fpexcept.obj
 0001:00038eae       __raise_exc                10039eae f   libucrt:fpexcept.obj
 0001:00038ed9       __raise_exc_ex             10039ed9 f   libucrt:fpexcept.obj
 0001:00039286       __raise_excf               1003a286 f   libucrt:fpexcept.obj
 0001:000392b1       __set_errno_from_matherr   1003a2b1 f   libucrt:fpexcept.obj
 0001:000392eb       __umatherr                 1003a2eb f   libucrt:fpexcept.obj
 0001:000393b5       __initterm                 1003a3b5 f   libucrt:initterm.obj
 0001:00039428       __initterm_e               1003a428 f   libucrt:initterm.obj
 0001:000394ab       __seh_filter_dll           1003a4ab f   libucrt:exception_filter.obj
 0001:000394d3       __seh_filter_exe           1003a4d3 f   libucrt:exception_filter.obj
 0001:000396a2       ??$?RE@__crt_internal_free_policy@@QBEXQBE@Z 1003a6a2 f i libucrt:argv_parsing.obj
 0001:000396b8       ??$?RPAD@__crt_internal_free_policy@@QBEXQBQAD@Z 1003a6b8 f i libucrt:argv_parsing.obj
 0001:000396ce       ??$?RPA_W@__crt_internal_free_policy@@QBEXQBQA_W@Z 1003a6ce f i libucrt:argv_parsing.obj
 0001:000399b7       ??$get_module_file_name@$$TAAY0BAF@DH@?$__crt_char_traits@D@@SAK$$QA$$TAAY0BAF@D$$QAH@Z 1003a9b7 f i libucrt:argv_parsing.obj
 0001:000399d7       ??$get_module_file_name@$$TAAY0BAF@_WH@?$__crt_char_traits@_W@@SAK$$QA$$TAAY0BAF@_W$$QAH@Z 1003a9d7 f i libucrt:argv_parsing.obj
 0001:00039db0       ??$set_program_name@PAD@?$__crt_char_traits@D@@SAX$$QAPAD@Z 1003adb0 f i libucrt:argv_parsing.obj
 0001:00039dc5       ??$set_program_name@PA_W@?$__crt_char_traits@_W@@SAX$$QAPA_W@Z 1003adc5 f i libucrt:argv_parsing.obj
 0001:00039e02       ??0?$__crt_unique_heap_ptr@EU__crt_internal_free_policy@@@@QAE@QAE@Z 1003ae02 f i libucrt:argv_parsing.obj
 0001:00039e16       ??0?$__crt_unique_heap_ptr@PADU__crt_internal_free_policy@@@@QAE@QAPAD@Z 1003ae16 f i libucrt:argv_parsing.obj
 0001:00039e2a       ??0?$__crt_unique_heap_ptr@PA_WU__crt_internal_free_policy@@@@QAE@QAPA_W@Z 1003ae2a f i libucrt:argv_parsing.obj
 0001:00039e3e       ??1?$__crt_unique_heap_ptr@EU__crt_internal_free_policy@@@@QAE@XZ 1003ae3e f i libucrt:argv_parsing.obj
 0001:00039e54       ??1?$__crt_unique_heap_ptr@PADU__crt_internal_free_policy@@@@QAE@XZ 1003ae54 f i libucrt:argv_parsing.obj
 0001:00039e6a       ??1?$__crt_unique_heap_ptr@PA_WU__crt_internal_free_policy@@@@QAE@XZ 1003ae6a f i libucrt:argv_parsing.obj
 0001:00039e80       ??B?$__crt_unique_heap_ptr@EU__crt_internal_free_policy@@@@QBE_NXZ 1003ae80 f i libucrt:argv_parsing.obj
 0001:00039ec0       ?detach@?$__crt_unique_heap_ptr@EU__crt_internal_free_policy@@@@QAEPAEXZ 1003aec0 f i libucrt:argv_parsing.obj
 0001:00039ec6       ?detach@?$__crt_unique_heap_ptr@PADU__crt_internal_free_policy@@@@QAEPAPADXZ 1003aec6 f i libucrt:argv_parsing.obj
 0001:00039ecc       ?detach@?$__crt_unique_heap_ptr@PA_WU__crt_internal_free_policy@@@@QAEPAPA_WXZ 1003aecc f i libucrt:argv_parsing.obj
 0001:00039ef2       ?get@?$__crt_unique_heap_ptr@EU__crt_internal_free_policy@@@@QBEPAEXZ 1003aef2 f i libucrt:argv_parsing.obj
 0001:00039ef5       ?get@?$__crt_unique_heap_ptr@PADU__crt_internal_free_policy@@@@QBEPAPADXZ 1003aef5 f i libucrt:argv_parsing.obj
 0001:00039ef8       ?get@?$__crt_unique_heap_ptr@PA_WU__crt_internal_free_policy@@@@QBEPAPA_WXZ 1003aef8 f i libucrt:argv_parsing.obj
 0001:00039efb       ?get_address_of@?$__crt_unique_heap_ptr@PADU__crt_internal_free_policy@@@@QAEPAPAPADXZ 1003aefb f i libucrt:argv_parsing.obj
 0001:00039efe       ?get_address_of@?$__crt_unique_heap_ptr@PA_WU__crt_internal_free_policy@@@@QAEPAPAPA_WXZ 1003aefe f i libucrt:argv_parsing.obj
 0001:00039f19       ?is_valid@?$__crt_unique_heap_ptr@EU__crt_internal_free_policy@@@@QBE_NXZ 1003af19 f i libucrt:argv_parsing.obj
 0001:00039f23       ?release@?$__crt_unique_heap_ptr@EU__crt_internal_free_policy@@@@QAEXXZ 1003af23 f i libucrt:argv_parsing.obj
 0001:00039f39       ?release@?$__crt_unique_heap_ptr@PADU__crt_internal_free_policy@@@@QAEXXZ 1003af39 f i libucrt:argv_parsing.obj
 0001:00039f4f       ?release@?$__crt_unique_heap_ptr@PA_WU__crt_internal_free_policy@@@@QAEXXZ 1003af4f f i libucrt:argv_parsing.obj
 0001:00039f86       ___acrt_allocate_buffer_for_argv 1003af86 f   libucrt:argv_parsing.obj
 0001:00039ff0       __configure_narrow_argv    1003aff0 f   libucrt:argv_parsing.obj
 0001:00039ffd       __configure_wide_argv      1003affd f   libucrt:argv_parsing.obj
 0001:0003a00a       __set_pgmptr               1003b00a f i libucrt:argv_parsing.obj
 0001:0003a01c       __set_wpgmptr              1003b01c f i libucrt:argv_parsing.obj
 0001:0003a4f6       ??$get_environment_from_os@$$$V@?$__crt_char_traits@D@@SAPADXZ 1003b4f6 f i libucrt:environment_initialization.obj
 0001:0003a4fb       ??$get_environment_from_os@$$$V@?$__crt_char_traits@_W@@SAPA_WXZ 1003b4fb f i libucrt:environment_initialization.obj
 0001:0003a635       ??$set_variable_in_environment_nolock@PADH@?$__crt_char_traits@D@@SAH$$QAPAD$$QAH@Z 1003b635 f i libucrt:environment_initialization.obj
 0001:0003a653       ??$set_variable_in_environment_nolock@PA_WH@?$__crt_char_traits@_W@@SAH$$QAPA_W$$QAH@Z 1003b653 f i libucrt:environment_initialization.obj
 0001:0003a671       ??$tcscpy_s@PADABIAAPAD@?$__crt_char_traits@D@@SAH$$QAPADABIAAPAD@Z 1003b671 f i libucrt:environment_initialization.obj
 0001:0003a696       ??$tcscpy_s@PA_WABIAAPA_W@?$__crt_char_traits@_W@@SAH$$QAPA_WABIAAPA_W@Z 1003b696 f i libucrt:environment_initialization.obj
 0001:0003a6bb       ??$tcslen@AAPAD@?$__crt_char_traits@D@@SAIAAPAD@Z 1003b6bb f i libucrt:environment_initialization.obj
 0001:0003a6d9       ??$tcslen@AAPA_W@?$__crt_char_traits@_W@@SAIAAPA_W@Z 1003b6d9 f i libucrt:environment_initialization.obj
 0001:0003a6fe       ??$uninitialize@A6AXAAPAPAD@Z@?$dual_state_global@PAPAD@__crt_state_management@@QAEXA6AXAAPAPAD@Z@Z 1003b6fe f i libucrt:environment_initialization.obj
 0001:0003a74e       ??$uninitialize@A6AXAAPAPA_W@Z@?$dual_state_global@PAPA_W@__crt_state_management@@QAEXA6AXAAPAPA_W@Z@Z 1003b74e f i libucrt:environment_initialization.obj
 0001:0003a7e0       ??B?$__crt_unique_heap_ptr@PADU__crt_internal_free_policy@@@@QBE_NXZ 1003b7e0 f i libucrt:environment_initialization.obj
 0001:0003a7ea       ??B?$__crt_unique_heap_ptr@PA_WU__crt_internal_free_policy@@@@QBE_NXZ 1003b7ea f i libucrt:environment_initialization.obj
 0001:0003a7f4       ??B?$__crt_unique_heap_ptr@_WU__crt_internal_free_policy@@@@QBE_NXZ 1003b7f4 f i libucrt:environment_initialization.obj
 0001:0003a7fe       ?__crt_compute_required_transform_buffer_count@@YAIIQBD@Z 1003b7fe f i libucrt:environment_initialization.obj
 0001:0003a81e       ?__crt_compute_required_transform_buffer_count@@YAIIQB_W@Z 1003b81e f i libucrt:environment_initialization.obj
 0001:0003a841       ?__crt_transform_string@@YAIIQBDQA_WI@Z 1003b841 f i libucrt:environment_initialization.obj
 0001:0003a865       ?__crt_transform_string@@YAIIQB_WQADI@Z 1003b865 f i libucrt:environment_initialization.obj
 0001:0003a88d       ?detach@?$__crt_unique_heap_ptr@DU__crt_internal_free_policy@@@@QAEPADXZ 1003b88d f i libucrt:environment_initialization.obj
 0001:0003a893       ?detach@?$__crt_unique_heap_ptr@_WU__crt_internal_free_policy@@@@QAEPA_WXZ 1003b893 f i libucrt:environment_initialization.obj
 0001:0003a899       ?get_current_state_index@__crt_state_management@@YAIXZ 1003b899 f i libucrt:environment_initialization.obj
 0001:0003a8c0       ?initialize@?$dual_state_global@PAPAD@__crt_state_management@@QAEXQAPAD@Z 1003b8c0 f i libucrt:environment_initialization.obj
 0001:0003a8fd       ?initialize@?$dual_state_global@PAPA_W@__crt_state_management@@QAEXQAPA_W@Z 1003b8fd f i libucrt:environment_initialization.obj
 0001:0003a93a       ?is_valid@?$__crt_unique_heap_ptr@PADU__crt_internal_free_policy@@@@QBE_NXZ 1003b93a f i libucrt:environment_initialization.obj
 0001:0003a944       ?is_valid@?$__crt_unique_heap_ptr@PA_WU__crt_internal_free_policy@@@@QBE_NXZ 1003b944 f i libucrt:environment_initialization.obj
 0001:0003a94e       ?is_valid@?$__crt_unique_heap_ptr@_WU__crt_internal_free_policy@@@@QBE_NXZ 1003b94e f i libucrt:environment_initialization.obj
 0001:0003a95e       ?value@?$dual_state_global@PAPAD@__crt_state_management@@QAEAAPAPADXZ 1003b95e f i libucrt:environment_initialization.obj
 0001:0003a961       ?value@?$dual_state_global@PAPA_W@__crt_state_management@@QAEAAPAPA_WXZ 1003b961 f i libucrt:environment_initialization.obj
 0001:0003a964       ___dcrt_get_or_create_narrow_environment_nolock 1003b964 f   libucrt:environment_initialization.obj
 0001:0003a969       ___dcrt_get_or_create_wide_environment_nolock 1003b969 f   libucrt:environment_initialization.obj
 0001:0003a96e       ___dcrt_uninitialize_environments_nolock 1003b96e f   libucrt:environment_initialization.obj
 0001:0003a9b2       ___p__environ              1003b9b2 f   libucrt:environment_initialization.obj
 0001:0003a9b8       ___p__wenviron             1003b9b8 f   libucrt:environment_initialization.obj
 0001:0003a9be       __get_initial_narrow_environment 1003b9be f   libucrt:environment_initialization.obj
 0001:0003a9d7       __get_initial_wide_environment 1003b9d7 f   libucrt:environment_initialization.obj
 0001:0003a9f0       __initialize_narrow_environment 1003b9f0 f   libucrt:environment_initialization.obj
 0001:0003a9f5       __initialize_wide_environment 1003b9f5 f   libucrt:environment_initialization.obj
 0001:0003a9fa       ??$?BP6AXXZ@__crt_fast_encoded_nullptr_t@@QBEPAP6AXXZXZ 1003b9fa f i libucrt:onexit.obj
 0001:0003aa18       ??$?RP6AXXZ@__crt_internal_free_policy@@QBEXQBQ6AXXZ@Z 1003ba18 f i libucrt:onexit.obj
 0001:0003aa2e       ??$?RV<lambda_800076c951b434888f4765a74a194fcc>@@AAV<lambda_4e60a939b0d047cfe11ddc22648dfba9>@@V<lambda_6dbb1268764f43b569ce7b67e331d33a>@@@?$__crt_seh_guarded_call@H@@QAEH$$QAV<lambda_800076c951b434888f4765a74a194fcc>@@AAV<lambda_4e60a939b0d047cfe11ddc22648dfba9>@@$$QAV<lambda_6dbb1268764f43b569ce7b67e331d33a>@@@Z 1003ba2e f i libucrt:onexit.obj
 0001:0003aa93       ??$?RV<lambda_995298e7d72eb4c2aab26c0585b3abe5>@@AAV<lambda_275893d493268fdec8709772e3fcec0e>@@V<lambda_293819299cbf9a7022e18b56a874bb5c>@@@?$__crt_seh_guarded_call@H@@QAEH$$QAV<lambda_995298e7d72eb4c2aab26c0585b3abe5>@@AAV<lambda_275893d493268fdec8709772e3fcec0e>@@$$QAV<lambda_293819299cbf9a7022e18b56a874bb5c>@@@Z 1003ba93 f i libucrt:onexit.obj
 0001:0003aaf8       ??$__acrt_lock_and_call@V<lambda_275893d493268fdec8709772e3fcec0e>@@@@YAHW4__acrt_lock_id@@$$QAV<lambda_275893d493268fdec8709772e3fcec0e>@@@Z 1003baf8 f i libucrt:onexit.obj
 0001:0003ab2a       ??$__acrt_lock_and_call@V<lambda_4e60a939b0d047cfe11ddc22648dfba9>@@@@YAHW4__acrt_lock_id@@$$QAV<lambda_4e60a939b0d047cfe11ddc22648dfba9>@@@Z 1003bb2a f i libucrt:onexit.obj
 0001:0003ab5c       ??$__crt_fast_encode_pointer@P6AHXZ@@YAP6AHXZQ6AHXZ@Z 1003bb5c f i libucrt:onexit.obj
 0001:0003ac09       ??0?$__crt_unique_heap_ptr@P6AXXZU__crt_internal_free_policy@@@@QAE@QAP6AXXZ@Z 1003bc09 f i libucrt:onexit.obj
 0001:0003ac1d       ??1?$__crt_unique_heap_ptr@P6AXXZU__crt_internal_free_policy@@@@QAE@XZ 1003bc1d f i libucrt:onexit.obj
 0001:0003af58       ?detach@?$__crt_unique_heap_ptr@P6AXXZU__crt_internal_free_policy@@@@QAEPAP6AXXZXZ 1003bf58 f i libucrt:onexit.obj
 0001:0003af5e       ?release@?$__crt_unique_heap_ptr@P6AXXZU__crt_internal_free_policy@@@@QAEXXZ 1003bf5e f i libucrt:onexit.obj
 0001:0003af74       __crt_at_quick_exit        1003bf74 f   libucrt:onexit.obj
 0001:0003af8f       __crt_atexit               1003bf8f f   libucrt:onexit.obj
 0001:0003afaa       __execute_onexit_table     1003bfaa f   libucrt:onexit.obj
 0001:0003afce       __initialize_onexit_table  1003bfce f   libucrt:onexit.obj
 0001:0003b01a       __register_onexit_function 1003c01a f   libucrt:onexit.obj
 0001:0003b181       ?initialize@?$dual_state_global@PAU__crt_locale_data@@@__crt_state_management@@QAEXQAU__crt_locale_data@@@Z 1003c181 f i libucrt:initialization.obj
 0001:0003b1be       ___acrt_initialize         1003c1be f   libucrt:initialization.obj
 0001:0003b1d4       ___acrt_thread_attach      1003c1d4 f   libucrt:initialization.obj
 0001:0003b1e1       ___acrt_thread_detach      1003c1e1 f   libucrt:initialization.obj
 0001:0003b1eb       ___acrt_uninitialize       1003c1eb f   libucrt:initialization.obj
 0001:0003b201       ___acrt_uninitialize_critical 1003c201 f   libucrt:initialization.obj
 0001:0003b232       __get_terminate            1003c232 f   libucrt:terminate.obj
 0001:0003b248       _set_terminate             1003c248 f   libucrt:terminate.obj
 0001:0003b270       _terminate                 1003c270 f   libucrt:terminate.obj
 0001:0003b2bb       ??$__crt_interlocked_exchange_pointer@X$$T@@YAPAXPDSAX$$T@Z 1003c2bb f i libucrt:free_base.obj
 0001:0003b2d3       ___acrt_get_msvcrt_heap_handle 1003c2d3 f   libucrt:free_base.obj
 0001:0003b364       __free_base                1003c364 f   libucrt:free_base.obj
 0001:0003b3ac       __malloc_base              1003c3ac f   libucrt:malloc_base.obj
 0001:0003b47d       _strcpy_s                  1003c47d f   libucrt:strcpy_s.obj
 0001:0003b4ed       __set_abort_behavior       1003c4ed f   libucrt:abort.obj
 0001:0003b516       _abort                     1003c516 f   libucrt:abort.obj
 0001:0003b569       __calloc_base              1003c569 f   libucrt:calloc_base.obj
 0001:0003b5dd       ??$is_overflow_condition@K@__crt_strtox@@YA_NIK@Z 1003c5dd f i libucrt:atox.obj
 0001:0003b61c       ??$is_overflow_condition@_K@__crt_strtox@@YA_NI_K@Z 1003c61c f i libucrt:atox.obj
 0001:0003b66f       ??$make_c_string_character_source@D$$T@__crt_strtox@@YA?AV?$c_string_character_source@D@0@QBD$$T@Z 1003c66f f i libucrt:atox.obj
 0001:0003b690       ??$make_c_string_character_source@_W$$T@__crt_strtox@@YA?AV?$c_string_character_source@_W@0@QB_W$$T@Z 1003c690 f i libucrt:atox.obj
 0001:0003b6b1       ??$parse_integer@KV?$c_string_character_source@D@__crt_strtox@@@__crt_strtox@@YAKQAU__crt_locale_pointers@@V?$c_string_character_source@D@0@H_N@Z 1003c6b1 f i libucrt:atox.obj
 0001:0003b963       ??$parse_integer@KV?$c_string_character_source@_W@__crt_strtox@@@__crt_strtox@@YAKQAU__crt_locale_pointers@@V?$c_string_character_source@_W@0@H_N@Z 1003c963 f i libucrt:atox.obj
 0001:0003c201       ??$parse_integer@_KV?$c_string_character_source@D@__crt_strtox@@@__crt_strtox@@YA_KQAU__crt_locale_pointers@@V?$c_string_character_source@D@0@H_N@Z 1003d201 f i libucrt:atox.obj
 0001:0003c550       ??$parse_integer@_KV?$c_string_character_source@_W@__crt_strtox@@@__crt_strtox@@YA_KQAU__crt_locale_pointers@@V?$c_string_character_source@_W@0@H_N@Z 1003d550 f i libucrt:atox.obj
 0001:0003ccc2       ??$parse_integer_from_string@JD$$T@__crt_strtox@@YAJQBD$$THQAU__crt_locale_pointers@@@Z 1003dcc2 f i libucrt:atox.obj
 0001:0003ccfa       ??$parse_integer_from_string@J_W$$T@__crt_strtox@@YAJQB_W$$THQAU__crt_locale_pointers@@@Z 1003dcfa f i libucrt:atox.obj
 0001:0003cd32       ??$parse_integer_from_string@_JD$$T@__crt_strtox@@YA_JQBD$$THQAU__crt_locale_pointers@@@Z 1003dd32 f i libucrt:atox.obj
 0001:0003cd6a       ??$parse_integer_from_string@_J_W$$T@__crt_strtox@@YA_JQB_W$$THQAU__crt_locale_pointers@@@Z 1003dd6a f i libucrt:atox.obj
 0001:0003cda2       ??0?$c_string_character_source@D@__crt_strtox@@QAE@QBDQAPBD@Z 1003dda2 f i libucrt:atox.obj
 0001:0003cdc5       ??0?$c_string_character_source@_W@__crt_strtox@@QAE@QB_WQAPB_W@Z 1003ddc5 f i libucrt:atox.obj
 0001:0003cde8       ??1?$c_string_character_source@D@__crt_strtox@@QAE@XZ 1003dde8 f i libucrt:atox.obj
 0001:0003cdf7       ??1?$c_string_character_source@_W@__crt_strtox@@QAE@XZ 1003ddf7 f i libucrt:atox.obj
 0001:0003ce06       ?get@?$c_string_character_source@D@__crt_strtox@@QAEDXZ 1003de06 f i libucrt:atox.obj
 0001:0003ce10       ?get@?$c_string_character_source@_W@__crt_strtox@@QAE_WXZ 1003de10 f i libucrt:atox.obj
 0001:0003ce1d       ?is_space@__crt_strtox@@YA_NDQAU__crt_locale_pointers@@@Z 1003de1d f i libucrt:atox.obj
 0001:0003ce43       ?is_space@__crt_strtox@@YA_N_WPAU__crt_locale_pointers@@@Z 1003de43 f i libucrt:atox.obj
 0001:0003ce62       ?maximum_signed_value@__crt_strtox@@YAJK@Z 1003de62 f i libucrt:atox.obj
 0001:0003ce68       ?maximum_signed_value@__crt_strtox@@YA_J_K@Z 1003de68 f i libucrt:atox.obj
 0001:0003ce73       ?minimum_signed_value@__crt_strtox@@YAJK@Z 1003de73 f i libucrt:atox.obj
 0001:0003ce79       ?minimum_signed_value@__crt_strtox@@YA_J_K@Z 1003de79 f i libucrt:atox.obj
 0001:0003ce83       ?parse_digit@__crt_strtox@@YAID@Z 1003de83 f i libucrt:atox.obj
 0001:0003cecb       ?parse_digit@__crt_strtox@@YAI_W@Z 1003decb f i libucrt:atox.obj
 0001:0003d128       ?restore_state@?$c_string_character_source@D@__crt_strtox@@QAE_NQBD@Z 1003e128 f i libucrt:atox.obj
 0001:0003d13c       ?restore_state@?$c_string_character_source@_W@__crt_strtox@@QAE_NQB_W@Z 1003e13c f i libucrt:atox.obj
 0001:0003d150       ?save_state@?$c_string_character_source@D@__crt_strtox@@QBEPBDXZ 1003e150 f i libucrt:atox.obj
 0001:0003d153       ?save_state@?$c_string_character_source@_W@__crt_strtox@@QBEPB_WXZ 1003e153 f i libucrt:atox.obj
 0001:0003d156       ?unget@?$c_string_character_source@D@__crt_strtox@@QAEXD@Z 1003e156 f i libucrt:atox.obj
 0001:0003d188       ?unget@?$c_string_character_source@_W@__crt_strtox@@QAEX_W@Z 1003e188 f i libucrt:atox.obj
 0001:0003d1bf       ?validate@?$c_string_character_source@D@__crt_strtox@@QBE_NXZ 1003e1bf f i libucrt:atox.obj
 0001:0003d1e0       ?validate@?$c_string_character_source@_W@__crt_strtox@@QBE_NXZ 1003e1e0 f i libucrt:atox.obj
 0001:0003d201       ?wide_character_to_digit@__crt_strtox@@YAH_W@Z 1003e201 f i libucrt:atox.obj
 0001:0003d40a       ___acrt_get_locale_data_prefix 1003e40a f i libucrt:atox.obj
 0001:0003d419       __atoi64                   1003e419 f   libucrt:atox.obj
 0001:0003d44d       __atoi64_l                 1003e44d f   libucrt:atox.obj
 0001:0003d482       __atoi_l                   1003e482 f   libucrt:atox.obj
 0001:0003d4b7       __atol_l                   1003e4b7 f   libucrt:atox.obj
 0001:0003d4ec       __atoll_l                  1003e4ec f   libucrt:atox.obj
 0001:0003d521       __chvalidchk_l             1003e521 f i libucrt:atox.obj
 0001:0003d555       __ischartype_l             1003e555 f i libucrt:atox.obj
 0001:0003d594       __wtoi                     1003e594 f   libucrt:atox.obj
 0001:0003d5c8       __wtoi64                   1003e5c8 f   libucrt:atox.obj
 0001:0003d5fc       __wtoi64_l                 1003e5fc f   libucrt:atox.obj
 0001:0003d631       __wtoi_l                   1003e631 f   libucrt:atox.obj
 0001:0003d666       __wtol                     1003e666 f   libucrt:atox.obj
 0001:0003d69a       __wtol_l                   1003e69a f   libucrt:atox.obj
 0001:0003d6cf       __wtoll                    1003e6cf f   libucrt:atox.obj
 0001:0003d703       __wtoll_l                  1003e703 f   libucrt:atox.obj
 0001:0003d738       _atoi                      1003e738 f   libucrt:atox.obj
 0001:0003d76c       _atol                      1003e76c f   libucrt:atox.obj
 0001:0003d7a0       _atoll                     1003e7a0 f   libucrt:atox.obj
 0001:0003d7d4       ??$__crt_fast_decode_pointer@P6AXPB_W00II@Z@@YAP6AXPB_W00II@ZQ6AX000II@Z@Z 1003e7d4 f i libucrt:invalid_parameter.obj
 0001:0003d7ef       ??$__crt_fast_encode_pointer@P6AXPB_W00II@Z@@YAP6AXPB_W00II@ZQ6AX000II@Z@Z 1003e7ef f i libucrt:invalid_parameter.obj
 0001:0003d815       ?initialize@?$dual_state_global@P6AXPB_W00II@Z@__crt_state_management@@QAEXQ6AXPB_W00II@Z@Z 1003e815 f i libucrt:invalid_parameter.obj
 0001:0003d852       ?value@?$dual_state_global@P6AXPB_W00II@Z@__crt_state_management@@QAEAAP6AXPB_W00II@ZXZ 1003e852 f i libucrt:invalid_parameter.obj
 0001:0003d855       ___acrt_call_reportfault   1003e855 f   libucrt:invalid_parameter.obj
 0001:0003d9de       ___acrt_initialize_invalid_parameter_handler 1003e9de f   libucrt:invalid_parameter.obj
 0001:0003d9f7       __get_invalid_parameter_handler 1003e9f7 f   libucrt:invalid_parameter.obj
 0001:0003da0e       __get_thread_local_invalid_parameter_handler 1003ea0e f   libucrt:invalid_parameter.obj
 0001:0003da23       __invalid_parameter        1003ea23 f   libucrt:invalid_parameter.obj
 0001:0003dabc       __invalid_parameter_noinfo 1003eabc f   libucrt:invalid_parameter.obj
 0001:0003dad0       __invalid_parameter_noinfo_noreturn 1003ead0 f   libucrt:invalid_parameter.obj
 0001:0003daf4       __invoke_watson            1003eaf4 f   libucrt:invalid_parameter.obj
 0001:0003db33       __set_invalid_parameter_handler 1003eb33 f   libucrt:invalid_parameter.obj
 0001:0003db6f       __set_thread_local_invalid_parameter_handler 1003eb6f f   libucrt:invalid_parameter.obj
 0001:0003db93       ___acrt_errno_from_os_error 1003eb93 f   libucrt:errno.obj
 0001:0003dbe6       ___acrt_errno_map_os_error 1003ebe6 f   libucrt:errno.obj
 0001:0003dc11       ___doserrno                1003ec11 f   libucrt:errno.obj
 0001:0003dc28       __errno                    1003ec28 f   libucrt:errno.obj
 0001:0003dc3f       __get_doserrno             1003ec3f f   libucrt:errno.obj
 0001:0003dc6d       __get_errno                1003ec6d f   libucrt:errno.obj
 0001:0003dc9b       __set_doserrno             1003ec9b f   libucrt:errno.obj
 0001:0003dcc4       __set_errno                1003ecc4 f   libucrt:errno.obj
 0001:0003dd44       ??$?B$$A6GHPA_WKJ@Z@__crt_fast_encoded_nullptr_t@@QBEP6GHPA_WKJ@ZXZ 1003ed44 f i libucrt:winapi_thunks.obj
 0001:0003dd62       ??$?RV<lambda_9227be29367c048ad7fd93a717dcb1a1>@@AAV<lambda_a463b7b0560cfcaf9b17f27c6ef46564>@@V<lambda_ccea11b5727ccf69be64f5f5d9a08d9f>@@@?$__crt_seh_guarded_call@H@@QAEH$$QAV<lambda_9227be29367c048ad7fd93a717dcb1a1>@@AAV<lambda_a463b7b0560cfcaf9b17f27c6ef46564>@@$$QAV<lambda_ccea11b5727ccf69be64f5f5d9a08d9f>@@@Z 1003ed62 f i libucrt:winapi_thunks.obj
 0001:0003de07       ??$__acrt_lock_and_call@V<lambda_a463b7b0560cfcaf9b17f27c6ef46564>@@@@YAHW4__acrt_lock_id@@$$QAV<lambda_a463b7b0560cfcaf9b17f27c6ef46564>@@@Z 1003ee07 f i libucrt:winapi_thunks.obj
 0001:0003de39       ??$__crt_fast_decode_pointer@P6GHPA_WKJ@Z@@YAP6GHPA_WKJ@ZQ6GH0KJ@Z@Z 1003ee39 f i libucrt:winapi_thunks.obj
 0001:0003de54       ??$__crt_fast_encode_pointer@P6GHPA_WKJ@Z@@YAP6GHPA_WKJ@ZQ6GH0KJ@Z@Z 1003ee54 f i libucrt:winapi_thunks.obj
 0001:0003e581       ___acrt_AreFileApisANSI@0  1003f581 f   libucrt:winapi_thunks.obj
 0001:0003e5e2       ___acrt_CompareStringEx@36 1003f5e2 f   libucrt:winapi_thunks.obj
 0001:0003e673       ___acrt_EnumSystemLocalesEx@16 1003f673 f   libucrt:winapi_thunks.obj
 0001:0003e6fb       ___acrt_FlsAlloc@4         1003f6fb f   libucrt:winapi_thunks.obj
 0001:0003e766       ___acrt_FlsFree@4          1003f766 f   libucrt:winapi_thunks.obj
 0001:0003e7d1       ___acrt_FlsGetValue@4      1003f7d1 f   libucrt:winapi_thunks.obj
 0001:0003e83c       ___acrt_FlsSetValue@8      1003f83c f   libucrt:winapi_thunks.obj
 0001:0003e8ab       ___acrt_GetDateFormatEx@28 1003f8ab f   libucrt:winapi_thunks.obj
 0001:0003e94d       ___acrt_GetEnabledXStateFeatures@0 1003f94d f   libucrt:winapi_thunks.obj
 0001:0003e9af       ___acrt_GetFileInformationByHandleEx@16 1003f9af f   libucrt:winapi_thunks.obj
 0001:0003ea2a       ___acrt_GetLocaleInfoEx@16 1003fa2a f   libucrt:winapi_thunks.obj
 0001:0003eaae       ___acrt_GetSystemTimePreciseAsFileTime@4 1003faae f   libucrt:winapi_thunks.obj
 0001:0003eb19       ___acrt_GetTimeFormatEx@24 1003fb19 f   libucrt:winapi_thunks.obj
 0001:0003eba5       ___acrt_GetUserDefaultLocaleName@8 1003fba5 f   libucrt:winapi_thunks.obj
 0001:0003ec25       ___acrt_GetXStateFeaturesMask@8 1003fc25 f   libucrt:winapi_thunks.obj
 0001:0003ec91       ___acrt_InitializeCriticalSectionEx@12 1003fc91 f   libucrt:winapi_thunks.obj
 0001:0003ed0b       ___acrt_IsValidLocaleName@4 1003fd0b f   libucrt:winapi_thunks.obj
 0001:0003ed86       ___acrt_LCIDToLocaleName@16 1003fd86 f   libucrt:winapi_thunks.obj
 0001:0003ee0a       ___acrt_LCMapStringEx@36   1003fe0a f   libucrt:winapi_thunks.obj
 0001:0003eeb4       ___acrt_LocaleNameToLCID@8 1003feb4 f   libucrt:winapi_thunks.obj
 0001:0003ef27       ___acrt_LocateXStateFeature@12 1003ff27 f   libucrt:winapi_thunks.obj
 0001:0003ef7e       ___acrt_MessageBoxA@16     1003ff7e f   libucrt:winapi_thunks.obj
 0001:0003efd9       ___acrt_MessageBoxW@16     1003ffd9 f   libucrt:winapi_thunks.obj
 0001:0003f034       ___acrt_RoInitialize@4     10040034 f   libucrt:winapi_thunks.obj
 0001:0003f09a       ___acrt_RoUninitialize@0   1004009a f   libucrt:winapi_thunks.obj
 0001:0003f0f5       ___acrt_RtlGenRandom@8     100400f5 f   libucrt:winapi_thunks.obj
 0001:0003f161       ___acrt_SetThreadStackGuarantee@4 10040161 f   libucrt:winapi_thunks.obj
 0001:0003f1c7       ___acrt_can_show_message_box 100401c7 f   libucrt:winapi_thunks.obj
 0001:0003f1e6       ___acrt_can_use_vista_locale_apis 100401e6 f   libucrt:winapi_thunks.obj
 0001:0003f1f5       ___acrt_can_use_xstate_apis 100401f5 f   libucrt:winapi_thunks.obj
 0001:0003f204       ___acrt_get_parent_window  10040204 f   libucrt:winapi_thunks.obj
 0001:0003f2a2       ___acrt_initialize_winapi_thunks 100402a2 f   libucrt:winapi_thunks.obj
 0001:0003f2d1       ___acrt_is_interactive     100402d1 f   libucrt:winapi_thunks.obj
 0001:0003f3a0       ___acrt_is_packaged_app    100403a0 f   libucrt:winapi_thunks.obj
 0001:0003f448       ___acrt_uninitialize_winapi_thunks 10040448 f   libucrt:winapi_thunks.obj
 0001:0003f48b       ??0__crt_stdio_stream@@QAE@QAU__crt_stdio_stream_data@@@Z 1004048b f i libucrt:closeall.obj
 0001:0003f49f       __fcloseall                1004049f f   libucrt:closeall.obj
 0001:0003f567       ___acrt_stdio_flush_nolock 10040567 f   libucrt:fflush.obj
 0001:0003f5e6       __fflush_nolock            100405e6 f   libucrt:fflush.obj
 0001:0003f63e       __flushall                 1004063e f   libucrt:fflush.obj
 0001:0003f757       _fflush                    10040757 f   libucrt:fflush.obj
 0001:0003f7c6       ?has_crt_buffer@__crt_stdio_stream@@QBE_NXZ 100407c6 f i libucrt:_freebuf.obj
 0001:0003f7d5       ___acrt_stdio_free_buffer_nolock 100407d5 f   libucrt:_freebuf.obj
 0001:0003fa12       ___acrt_initialize_lowio   10040a12 f   libucrt:ioinit.obj
 0001:0003fa7d       ___acrt_uninitialize_lowio 10040a7d f   libucrt:ioinit.obj
 0001:0003facf       ___isascii                 10040acf f i libucrt:_ctype.obj
 0001:0003fae5       ___iscsym                  10040ae5 f i libucrt:_ctype.obj
 0001:0003fb0f       ___iscsymf                 10040b0f f i libucrt:_ctype.obj
 0001:0003fb35       ___toascii                 10040b35 f i libucrt:_ctype.obj
 0001:0003fb45       __isalnum_l                10040b45 f i libucrt:_ctype.obj
 0001:0003fb8e       __isalpha_l                10040b8e f i libucrt:_ctype.obj
 0001:0003fbd7       __isblank_l                10040bd7 f i libucrt:_ctype.obj
 0001:0003fc2a       __iscntrl_l                10040c2a f i libucrt:_ctype.obj
 0001:0003fc70       __iscsym_l                 10040c70 f i libucrt:_ctype.obj
 0001:0003fc9b       __iscsymf_l                10040c9b f i libucrt:_ctype.obj
 0001:0003fcc6       __isdigit_l                10040cc6 f i libucrt:_ctype.obj
 0001:0003fd0c       __isgraph_l                10040d0c f i libucrt:_ctype.obj
 0001:0003fd55       __islower_l                10040d55 f i libucrt:_ctype.obj
 0001:0003fd9b       __isprint_l                10040d9b f i libucrt:_ctype.obj
 0001:0003fde4       __ispunct_l                10040de4 f i libucrt:_ctype.obj
 0001:0003fe2a       __isspace_l                10040e2a f i libucrt:_ctype.obj
 0001:0003fe70       __isupper_l                10040e70 f i libucrt:_ctype.obj
 0001:0003feb6       __isxdigit_l               10040eb6 f i libucrt:_ctype.obj
 0001:0003feff       _isalnum                   10040eff f i libucrt:_ctype.obj
 0001:0003ff39       _isalpha                   10040f39 f i libucrt:_ctype.obj
 0001:0003ff73       _isblank                   10040f73 f i libucrt:_ctype.obj
 0001:0003ffb7       _iscntrl                   10040fb7 f i libucrt:_ctype.obj
 0001:0003ffef       _isdigit                   10040fef f i libucrt:_ctype.obj
 0001:00040027       _isgraph                   10041027 f i libucrt:_ctype.obj
 0001:00040061       _islower                   10041061 f i libucrt:_ctype.obj
 0001:00040099       _isprint                   10041099 f i libucrt:_ctype.obj
 0001:000400d3       _ispunct                   100410d3 f i libucrt:_ctype.obj
 0001:0004010b       _isspace                   1004110b f i libucrt:_ctype.obj
 0001:00040143       _isupper                   10041143 f i libucrt:_ctype.obj
 0001:0004017b       _isxdigit                  1004117b f i libucrt:_ctype.obj
 0001:00040573       __tolower                  10041573 f   libucrt:tolower_toupper.obj
 0001:00040583       __tolower_l                10041583 f   libucrt:tolower_toupper.obj
 0001:000405a3       __toupper                  100415a3 f   libucrt:tolower_toupper.obj
 0001:000405b3       __toupper_l                100415b3 f   libucrt:tolower_toupper.obj
 0001:000405d3       _tolower                   100415d3 f   libucrt:tolower_toupper.obj
 0001:0004060f       _toupper                   1004160f f   libucrt:tolower_toupper.obj
 0001:0004064b       ??$make_c_string_character_source@DPAPAD@__crt_strtox@@YA?AV?$c_string_character_source@D@0@QBDQAPAD@Z 1004164b f i libucrt:strtox.obj
 0001:0004066c       ??$make_c_string_character_source@_WPAPA_W@__crt_strtox@@YA?AV?$c_string_character_source@_W@0@QB_WQAPA_W@Z 1004166c f i libucrt:strtox.obj
 0001:0004068d       ??$parse_integer_from_string@JDPAPAD@__crt_strtox@@YAJQBDQAPADHQAU__crt_locale_pointers@@@Z 1004168d f i libucrt:strtox.obj
 0001:000406c5       ??$parse_integer_from_string@J_WPAPA_W@__crt_strtox@@YAJQB_WQAPA_WHQAU__crt_locale_pointers@@@Z 100416c5 f i libucrt:strtox.obj
 0001:000406fd       ??$parse_integer_from_string@KDPAPAD@__crt_strtox@@YAKQBDQAPADHQAU__crt_locale_pointers@@@Z 100416fd f i libucrt:strtox.obj
 0001:00040735       ??$parse_integer_from_string@K_WPAPA_W@__crt_strtox@@YAKQB_WQAPA_WHQAU__crt_locale_pointers@@@Z 10041735 f i libucrt:strtox.obj
 0001:0004076d       ??$parse_integer_from_string@_JDPAPAD@__crt_strtox@@YA_JQBDQAPADHQAU__crt_locale_pointers@@@Z 1004176d f i libucrt:strtox.obj
 0001:000407a5       ??$parse_integer_from_string@_J_WPAPA_W@__crt_strtox@@YA_JQB_WQAPA_WHQAU__crt_locale_pointers@@@Z 100417a5 f i libucrt:strtox.obj
 0001:000407dd       ??$parse_integer_from_string@_KDPAPAD@__crt_strtox@@YA_KQBDQAPADHQAU__crt_locale_pointers@@@Z 100417dd f i libucrt:strtox.obj
 0001:00040815       ??$parse_integer_from_string@_K_WPAPA_W@__crt_strtox@@YA_KQB_WQAPA_WHQAU__crt_locale_pointers@@@Z 10041815 f i libucrt:strtox.obj
 0001:0004084d       __strtoi64                 1004184d f   libucrt:strtox.obj
 0001:00040884       __strtoi64_l               10041884 f   libucrt:strtox.obj
 0001:000408bc       __strtoimax_l              100418bc f   libucrt:strtox.obj
 0001:000408f4       __strtol_l                 100418f4 f   libucrt:strtox.obj
 0001:0004092c       __strtoll_l                1004192c f   libucrt:strtox.obj
 0001:00040964       __strtoui64                10041964 f   libucrt:strtox.obj
 0001:0004099b       __strtoui64_l              1004199b f   libucrt:strtox.obj
 0001:000409d3       __strtoul_l                100419d3 f   libucrt:strtox.obj
 0001:00040a0b       __strtoull_l               10041a0b f   libucrt:strtox.obj
 0001:00040a43       __strtoumax_l              10041a43 f   libucrt:strtox.obj
 0001:00040a7b       __wcstoi64                 10041a7b f   libucrt:strtox.obj
 0001:00040ab2       __wcstoi64_l               10041ab2 f   libucrt:strtox.obj
 0001:00040aea       __wcstoimax_l              10041aea f   libucrt:strtox.obj
 0001:00040b22       __wcstol_l                 10041b22 f   libucrt:strtox.obj
 0001:00040b5a       __wcstoll_l                10041b5a f   libucrt:strtox.obj
 0001:00040b92       __wcstoui64                10041b92 f   libucrt:strtox.obj
 0001:00040bc9       __wcstoui64_l              10041bc9 f   libucrt:strtox.obj
 0001:00040c01       __wcstoul_l                10041c01 f   libucrt:strtox.obj
 0001:00040c39       __wcstoull_l               10041c39 f   libucrt:strtox.obj
 0001:00040c71       __wcstoumax_l              10041c71 f   libucrt:strtox.obj
 0001:00040ca9       _strtoimax                 10041ca9 f   libucrt:strtox.obj
 0001:00040ce0       _strtol                    10041ce0 f   libucrt:strtox.obj
 0001:00040d17       _strtoll                   10041d17 f   libucrt:strtox.obj
 0001:00040d4e       _strtoul                   10041d4e f   libucrt:strtox.obj
 0001:00040d85       _strtoull                  10041d85 f   libucrt:strtox.obj
 0001:00040dbc       _strtoumax                 10041dbc f   libucrt:strtox.obj
 0001:00040df3       _wcstoimax                 10041df3 f   libucrt:strtox.obj
 0001:00040e2a       _wcstol                    10041e2a f   libucrt:strtox.obj
 0001:00040e61       _wcstoll                   10041e61 f   libucrt:strtox.obj
 0001:00040e98       _wcstoul                   10041e98 f   libucrt:strtox.obj
 0001:00040ecf       _wcstoull                  10041ecf f   libucrt:strtox.obj
 0001:00040f06       _wcstoumax                 10041f06 f   libucrt:strtox.obj
 0001:00040f3d       __mbtowc_l                 10041f3d f   libucrt:mbtowc.obj
 0001:00041075       _mbtowc                    10042075 f   libucrt:mbtowc.obj
 0001:00041095       __wctomb_l                 10042095 f   libucrt:wctomb.obj
 0001:000410fc       __wctomb_s_l               100420fc f   libucrt:wctomb.obj
 0001:00041265       _wctomb                    10042265 f   libucrt:wctomb.obj
 0001:000412a6       _wctomb_s                  100422a6 f   libucrt:wctomb.obj
 0001:000419be       ??1?$__crt_simd_cleanup_guard@$00@@QAE@XZ 100429be f i libucrt:strnlen.obj
 0001:000419c2       ??1?$__crt_simd_cleanup_guard@$0A@@@QAE@XZ 100429c2 f i libucrt:strnlen.obj
 0001:000419c3       ?compare_equals@?$__crt_simd_traits@$00E@@SA?AT__m256i@@T2@0@Z 100429c3 f i libucrt:strnlen.obj
 0001:000419c8       ?compare_equals@?$__crt_simd_traits@$00G@@SA?AT__m256i@@T2@0@Z 100429c8 f i libucrt:strnlen.obj
 0001:000419cd       ?compare_equals@?$__crt_simd_traits@$0A@E@@SA?AT__m128i@@T2@0@Z 100429cd f i libucrt:strnlen.obj
 0001:000419d2       ?compare_equals@?$__crt_simd_traits@$0A@G@@SA?AT__m128i@@T2@0@Z 100429d2 f i libucrt:strnlen.obj
 0001:000419d7       ?compute_byte_mask@?$__crt_simd_pack_traits@$00@@SAHT__m256i@@@Z 100429d7 f i libucrt:strnlen.obj
 0001:000419dc       ?compute_byte_mask@?$__crt_simd_pack_traits@$0A@@@SAHT__m128i@@@Z 100429dc f i libucrt:strnlen.obj
 0001:000419e1       ?get_zero_pack@?$__crt_simd_pack_traits@$00@@SA?AT__m256i@@XZ 100429e1 f i libucrt:strnlen.obj
 0001:000419e6       ?get_zero_pack@?$__crt_simd_pack_traits@$0A@@@SA?AT__m128i@@XZ 100429e6 f i libucrt:strnlen.obj
 0001:000419eb       _strnlen                   100429eb f   libucrt:strnlen.obj
 0001:00041b5b       _wcsnlen                   10042b5b f   libucrt:strnlen.obj
 0001:00041d7f       ??$?RU__acrt_ptd@@@__crt_internal_free_policy@@QBEXQBU__acrt_ptd@@@Z 10042d7f f i libucrt:per_thread_data.obj
 0001:00041d95       ??$?RV<lambda_3518db117f0e7cdb002338c5d3c47b6c>@@AAV<lambda_b2ea41f6bbb362cd97d94c6828d90b61>@@V<lambda_abdedf541bb04549bc734292b4a045d4>@@@?$__crt_seh_guarded_call@X@@QAEX$$QAV<lambda_3518db117f0e7cdb002338c5d3c47b6c>@@AAV<lambda_b2ea41f6bbb362cd97d94c6828d90b61>@@$$QAV<lambda_abdedf541bb04549bc734292b4a045d4>@@@Z 10042d95 f i libucrt:per_thread_data.obj
 0001:00041df9       ??$?RV<lambda_51b6e8b1eb166f2a3faf91f424b38130>@@AAV<lambda_6250bd4b2a391816dd638c3bf72b0bcb>@@V<lambda_0b5a4a3e68152e1d9b943535f5f47bed>@@@?$__crt_seh_guarded_call@X@@QAEX$$QAV<lambda_51b6e8b1eb166f2a3faf91f424b38130>@@AAV<lambda_6250bd4b2a391816dd638c3bf72b0bcb>@@$$QAV<lambda_0b5a4a3e68152e1d9b943535f5f47bed>@@@Z 10042df9 f i libucrt:per_thread_data.obj
 0001:00041e72       ??$?RV<lambda_5b71d36f03204c0beab531769a5b5694>@@AAV<lambda_be2b3da3f62db62e9dad5dc70221a656>@@V<lambda_8f9ce462984622f9bf76b59e2aaaf805>@@@?$__crt_seh_guarded_call@X@@QAEX$$QAV<lambda_5b71d36f03204c0beab531769a5b5694>@@AAV<lambda_be2b3da3f62db62e9dad5dc70221a656>@@$$QAV<lambda_8f9ce462984622f9bf76b59e2aaaf805>@@@Z 10042e72 f i libucrt:per_thread_data.obj
 0001:00041ecf       ??$?RV<lambda_9df27f884b057bc3edfc946cb5b7cf47>@@AAV<lambda_e69574bed617af4e071282c136b37893>@@V<lambda_cc0d902bcbbeb830f749456577db4721>@@@?$__crt_seh_guarded_call@X@@QAEX$$QAV<lambda_9df27f884b057bc3edfc946cb5b7cf47>@@AAV<lambda_e69574bed617af4e071282c136b37893>@@$$QAV<lambda_cc0d902bcbbeb830f749456577db4721>@@@Z 10042ecf f i libucrt:per_thread_data.obj
 0001:00041f29       ??$__acrt_lock_and_call@V<lambda_6250bd4b2a391816dd638c3bf72b0bcb>@@@@YAXW4__acrt_lock_id@@$$QAV<lambda_6250bd4b2a391816dd638c3bf72b0bcb>@@@Z 10042f29 f i libucrt:per_thread_data.obj
 0001:00041f5b       ??$__acrt_lock_and_call@V<lambda_b2ea41f6bbb362cd97d94c6828d90b61>@@@@YAXW4__acrt_lock_id@@$$QAV<lambda_b2ea41f6bbb362cd97d94c6828d90b61>@@@Z 10042f5b f i libucrt:per_thread_data.obj
 0001:00041f8d       ??$__acrt_lock_and_call@V<lambda_be2b3da3f62db62e9dad5dc70221a656>@@@@YAXW4__acrt_lock_id@@$$QAV<lambda_be2b3da3f62db62e9dad5dc70221a656>@@@Z 10042f8d f i libucrt:per_thread_data.obj
 0001:00041fbf       ??$__acrt_lock_and_call@V<lambda_e69574bed617af4e071282c136b37893>@@@@YAXW4__acrt_lock_id@@$$QAV<lambda_e69574bed617af4e071282c136b37893>@@@Z 10042fbf f i libucrt:per_thread_data.obj
 0001:000420f8       ??0?$__crt_unique_heap_ptr@U__acrt_ptd@@U__crt_internal_free_policy@@@@QAE@QAU__acrt_ptd@@@Z 100430f8 f i libucrt:per_thread_data.obj
 0001:0004210c       ??0__crt_scoped_get_last_error_reset@@QAE@XZ 1004310c f i libucrt:per_thread_data.obj
 0001:00042121       ??1?$__crt_unique_heap_ptr@U__acrt_ptd@@U__crt_internal_free_policy@@@@QAE@XZ 10043121 f i libucrt:per_thread_data.obj
 0001:00042137       ??1__crt_scoped_get_last_error_reset@@QAE@XZ 10043137 f i libucrt:per_thread_data.obj
 0001:00042142       ??B?$__crt_unique_heap_ptr@U__acrt_ptd@@U__crt_internal_free_policy@@@@QBE_NXZ 10043142 f i libucrt:per_thread_data.obj
 0001:000422b8       ?dangerous_get_state_array@?$dual_state_global@PAU__crt_locale_data@@@__crt_state_management@@QAEPAPAU__crt_locale_data@@XZ 100432b8 f i libucrt:per_thread_data.obj
 0001:000423bc       ?detach@?$__crt_unique_heap_ptr@U__acrt_ptd@@U__crt_internal_free_policy@@@@QAEPAU__acrt_ptd@@XZ 100433bc f i libucrt:per_thread_data.obj
 0001:000423c2       ?get@?$__crt_unique_heap_ptr@U__acrt_ptd@@U__crt_internal_free_policy@@@@QBEPAU__acrt_ptd@@XZ 100433c2 f i libucrt:per_thread_data.obj
 0001:000424d1       ?is_valid@?$__crt_unique_heap_ptr@U__acrt_ptd@@U__crt_internal_free_policy@@@@QBE_NXZ 100434d1 f i libucrt:per_thread_data.obj
 0001:000424db       ?release@?$__crt_unique_heap_ptr@U__acrt_ptd@@U__crt_internal_free_policy@@@@QAEXXZ 100434db f i libucrt:per_thread_data.obj
 0001:00042567       ?value@?$dual_state_global@PAU__crt_locale_data@@@__crt_state_management@@QAEAAPAU__crt_locale_data@@XZ 10043567 f i libucrt:per_thread_data.obj
 0001:0004256a       ___acrt_freeptd            1004356a f   libucrt:per_thread_data.obj
 0001:000425a1       ___acrt_getptd             100435a1 f   libucrt:per_thread_data.obj
 0001:00042646       ___acrt_getptd_noexit      10043646 f   libucrt:per_thread_data.obj
 0001:000426ec       ___acrt_initialize_ptd     100436ec f   libucrt:per_thread_data.obj
 0001:00042723       ___acrt_uninitialize_ptd   10043723 f   libucrt:per_thread_data.obj
 0001:00042743       ___threadhandle            10043743 f   libucrt:per_thread_data.obj
 0001:00042749       ___threadid                10043749 f   libucrt:per_thread_data.obj
 0001:0004274f       ___acrt_update_locale_info 1004374f f   libucrt:locale_update.obj
 0001:00042787       ___acrt_update_multibyte_info 10043787 f   libucrt:locale_update.obj
 0001:000427bf       ?__acrt_fp_classify@@YA?AW4__acrt_fp_class@@ABN@Z 100437bf f i libucrt:cvt.obj
 0001:00042846       ?__acrt_fp_is_negative@@YA_NABN@Z 10043846 f i libucrt:cvt.obj
 0001:000432b9       ?strrchr@@YAPADQADH@Z      100442b9 f i libucrt:cvt.obj
 0001:000432c6       ___acrt_fp_format          100442c6 f   libucrt:cvt.obj
 0001:000434a0       __fputwc_nolock            100444a0 f   libucrt:fputwc.obj
 0001:0004360f       __fputwchar                1004460f f   libucrt:fputwc.obj
 0001:0004362f       __putwc_nolock             1004462f f   libucrt:fputwc.obj
 0001:0004363c       _fputwc                    1004463c f   libucrt:fputwc.obj
 0001:000436d5       _putwc                     100446d5 f   libucrt:fputwc.obj
 0001:000436e2       _putwchar                  100446e2 f   libucrt:fputwc.obj
 0001:000436ef       ?lowio_handle@__crt_stdio_stream@@QBEHXZ 100446ef f i libucrt:fileno.obj
 0001:000436f5       __fileno                   100446f5 f   libucrt:fileno.obj
 0001:00043724       __fputc_nolock             10044724 f   libucrt:fputc.obj
 0001:00043757       __fputchar                 10044757 f   libucrt:fputc.obj
 0001:00043777       __putc_nolock              10044777 f   libucrt:fputc.obj
 0001:00043784       _fputc                     10044784 f   libucrt:fputc.obj
 0001:000438c9       _putc                      100448c9 f   libucrt:fputc.obj
 0001:000438d6       _putchar                   100448d6 f   libucrt:fputc.obj
 0001:000438e3       __get_printf_count_output  100448e3 f   libucrt:printf_count_output.obj
 0001:000438fd       __set_printf_count_output  100448fd f   libucrt:printf_count_output.obj
 0001:00043931       ?has_temporary_buffer@__crt_stdio_stream@@QBE_NXZ 10044931 f i libucrt:_sftbuf.obj
 0001:00043940       ___acrt_stdio_begin_temporary_buffering_nolock 10044940 f   libucrt:_sftbuf.obj
 0001:00043a22       ___acrt_stdio_end_temporary_buffering_nolock 10044a22 f   libucrt:_sftbuf.obj
 0001:00043a6c       ??$?RU__crt_locale_data@@@__crt_internal_free_policy@@QBEXQBU__crt_locale_data@@@Z 10044a6c f i libucrt:wsetlocale.obj
 0001:00043a82       ??$?RU__crt_locale_pointers@@@__crt_internal_free_policy@@QBEXQBU__crt_locale_pointers@@@Z 10044a82 f i libucrt:wsetlocale.obj
 0001:00043a98       ??$?RU__crt_multibyte_data@@@__crt_internal_free_policy@@QBEXQBU__crt_multibyte_data@@@Z 10044a98 f i libucrt:wsetlocale.obj
 0001:00043aae       ??$?RV<lambda_70818de7b02deff9841e8b0962a60ed9>@@AAV<lambda_2af78c5f5901b1372d98f9ab3177dfa6>@@AAV<lambda_f51fe5fd7c79a33db34fc9310f277369>@@@?$__crt_seh_guarded_call@X@@QAEX$$QAV<lambda_70818de7b02deff9841e8b0962a60ed9>@@AAV<lambda_2af78c5f5901b1372d98f9ab3177dfa6>@@AAV<lambda_f51fe5fd7c79a33db34fc9310f277369>@@@Z 10044aae f i libucrt:wsetlocale.obj
 0001:00043af7       ??$?RV<lambda_76aaead6e312921abc834cb00a638bdd>@@AAV<lambda_176e34f99554166dd2fac165c457248c>@@V<lambda_998ee1c9f4290b119b936bcd6215875a>@@@?$__crt_seh_guarded_call@X@@QAEX$$QAV<lambda_76aaead6e312921abc834cb00a638bdd>@@AAV<lambda_176e34f99554166dd2fac165c457248c>@@$$QAV<lambda_998ee1c9f4290b119b936bcd6215875a>@@@Z 10044af7 f i libucrt:wsetlocale.obj
 0001:00043b53       ??$?RV<lambda_c76fdea48760d5f9368b465f31df4405>@@AAV<lambda_e378711a6f6581bf7f0efd7cdf97f5d9>@@V<lambda_e927a58b2a85c081d733e8c6192ae2d2>@@@?$__crt_seh_guarded_call@X@@QAEX$$QAV<lambda_c76fdea48760d5f9368b465f31df4405>@@AAV<lambda_e378711a6f6581bf7f0efd7cdf97f5d9>@@$$QAV<lambda_e927a58b2a85c081d733e8c6192ae2d2>@@@Z 10044b53 f i libucrt:wsetlocale.obj
 0001:00043ba6       ??$?RV<lambda_c9469061b39d205f0f236529d4a41659>@@AAV<lambda_b7fb1a997d3ebc0cc0186c5835178808>@@V<lambda_14b92c79d699846b5cc916cd4cf280e4>@@@?$__crt_seh_guarded_call@X@@QAEX$$QAV<lambda_c9469061b39d205f0f236529d4a41659>@@AAV<lambda_b7fb1a997d3ebc0cc0186c5835178808>@@$$QAV<lambda_14b92c79d699846b5cc916cd4cf280e4>@@@Z 10044ba6 f i libucrt:wsetlocale.obj
 0001:00043c00       ??$__acrt_lock_and_call@V<lambda_176e34f99554166dd2fac165c457248c>@@@@YAXW4__acrt_lock_id@@$$QAV<lambda_176e34f99554166dd2fac165c457248c>@@@Z 10044c00 f i libucrt:wsetlocale.obj
 0001:00043c32       ??$__acrt_lock_and_call@V<lambda_b7fb1a997d3ebc0cc0186c5835178808>@@@@YAXW4__acrt_lock_id@@$$QAV<lambda_b7fb1a997d3ebc0cc0186c5835178808>@@@Z 10044c32 f i libucrt:wsetlocale.obj
 0001:00043c64       ??$__acrt_lock_and_call@V<lambda_e378711a6f6581bf7f0efd7cdf97f5d9>@@@@YAXW4__acrt_lock_id@@$$QAV<lambda_e378711a6f6581bf7f0efd7cdf97f5d9>@@@Z 10044c64 f i libucrt:wsetlocale.obj
 0001:00043c96       ??$__crt_call_and_cleanup@V<lambda_2af78c5f5901b1372d98f9ab3177dfa6>@@V<lambda_f51fe5fd7c79a33db34fc9310f277369>@@@@YAX$$QAV<lambda_2af78c5f5901b1372d98f9ab3177dfa6>@@$$QAV<lambda_f51fe5fd7c79a33db34fc9310f277369>@@@Z 10044c96 f i libucrt:wsetlocale.obj
 0001:00043cb9       ??$__vcrt_va_start_verify_argument_type@H@@YAXXZ 10044cb9 f i libucrt:wsetlocale.obj
 0001:00043dde       ??0?$__crt_unique_heap_ptr@U__crt_locale_data@@U__crt_internal_free_policy@@@@QAE@QAU__crt_locale_data@@@Z 10044dde f i libucrt:wsetlocale.obj
 0001:00043df2       ??0?$__crt_unique_heap_ptr@U__crt_locale_pointers@@U__crt_internal_free_policy@@@@QAE@QAU__crt_locale_pointers@@@Z 10044df2 f i libucrt:wsetlocale.obj
 0001:00043e06       ??0?$__crt_unique_heap_ptr@U__crt_multibyte_data@@U__crt_internal_free_policy@@@@QAE@QAU__crt_multibyte_data@@@Z 10044e06 f i libucrt:wsetlocale.obj
 0001:00043e1a       ??1?$__crt_unique_heap_ptr@U__crt_locale_data@@U__crt_internal_free_policy@@@@QAE@XZ 10044e1a f i libucrt:wsetlocale.obj
 0001:00043e30       ??1?$__crt_unique_heap_ptr@U__crt_locale_pointers@@U__crt_internal_free_policy@@@@QAE@XZ 10044e30 f i libucrt:wsetlocale.obj
 0001:00043e46       ??1?$__crt_unique_heap_ptr@U__crt_multibyte_data@@U__crt_internal_free_policy@@@@QAE@XZ 10044e46 f i libucrt:wsetlocale.obj
 0001:00043e5c       ??B?$__crt_unique_heap_ptr@U__crt_locale_data@@U__crt_internal_free_policy@@@@QBE_NXZ 10044e5c f i libucrt:wsetlocale.obj
 0001:00043e66       ??B?$__crt_unique_heap_ptr@U__crt_locale_pointers@@U__crt_internal_free_policy@@@@QBE_NXZ 10044e66 f i libucrt:wsetlocale.obj
 0001:00043e70       ??B?$__crt_unique_heap_ptr@U__crt_multibyte_data@@U__crt_internal_free_policy@@@@QBE_NXZ 10044e70 f i libucrt:wsetlocale.obj
 0001:00044099       ?detach@?$__crt_unique_heap_ptr@U__crt_locale_data@@U__crt_internal_free_policy@@@@QAEPAU__crt_locale_data@@XZ 10045099 f i libucrt:wsetlocale.obj
 0001:0004409f       ?detach@?$__crt_unique_heap_ptr@U__crt_locale_pointers@@U__crt_internal_free_policy@@@@QAEPAU__crt_locale_pointers@@XZ 1004509f f i libucrt:wsetlocale.obj
 0001:000440a5       ?detach@?$__crt_unique_heap_ptr@U__crt_multibyte_data@@U__crt_internal_free_policy@@@@QAEPAU__crt_multibyte_data@@XZ 100450a5 f i libucrt:wsetlocale.obj
 0001:000440ab       ?get@?$__crt_unique_heap_ptr@U__crt_locale_data@@U__crt_internal_free_policy@@@@QBEPAU__crt_locale_data@@XZ 100450ab f i libucrt:wsetlocale.obj
 0001:000440ae       ?get@?$__crt_unique_heap_ptr@U__crt_locale_pointers@@U__crt_internal_free_policy@@@@QBEPAU__crt_locale_pointers@@XZ 100450ae f i libucrt:wsetlocale.obj
 0001:000440b1       ?get@?$__crt_unique_heap_ptr@U__crt_multibyte_data@@U__crt_internal_free_policy@@@@QBEPAU__crt_multibyte_data@@XZ 100450b1 f i libucrt:wsetlocale.obj
 0001:000440b4       ?is_valid@?$__crt_unique_heap_ptr@U__crt_locale_data@@U__crt_internal_free_policy@@@@QBE_NXZ 100450b4 f i libucrt:wsetlocale.obj
 0001:000440be       ?is_valid@?$__crt_unique_heap_ptr@U__crt_locale_pointers@@U__crt_internal_free_policy@@@@QBE_NXZ 100450be f i libucrt:wsetlocale.obj
 0001:000440c8       ?is_valid@?$__crt_unique_heap_ptr@U__crt_multibyte_data@@U__crt_internal_free_policy@@@@QBE_NXZ 100450c8 f i libucrt:wsetlocale.obj
 0001:000440d2       ?release@?$__crt_unique_heap_ptr@U__crt_locale_data@@U__crt_internal_free_policy@@@@QAEXXZ 100450d2 f i libucrt:wsetlocale.obj
 0001:000440e8       ?release@?$__crt_unique_heap_ptr@U__crt_locale_pointers@@U__crt_internal_free_policy@@@@QAEXXZ 100450e8 f i libucrt:wsetlocale.obj
 0001:000440fe       ?release@?$__crt_unique_heap_ptr@U__crt_multibyte_data@@U__crt_internal_free_policy@@@@QAEXXZ 100450fe f i libucrt:wsetlocale.obj
 0001:00044114       ___acrt_copy_locale_name   10045114 f   libucrt:wsetlocale.obj
 0001:00044193       ___acrt_set_locale_changed 10045193 f   libucrt:wsetlocale.obj
 0001:000441a0       ___acrt_uninitialize_locale 100451a0 f   libucrt:wsetlocale.obj
 0001:00044206       ___lc_lctowcs              10045206 f   libucrt:wsetlocale.obj
 0001:00044292       ___lc_wcstolc              10045292 f   libucrt:wsetlocale.obj
 0001:0004440c       __configthreadlocale       1004540c f   libucrt:wsetlocale.obj
 0001:000444c0       __create_locale            100454c0 f   libucrt:wsetlocale.obj
 0001:0004453d       __expandlocale             1004553d f   libucrt:wsetlocale.obj
 0001:00044991       __free_locale              10045991 f   libucrt:wsetlocale.obj
 0001:00044a77       __get_current_locale       10045a77 f   libucrt:wsetlocale.obj
 0001:00044b10       __wcreate_locale           10045b10 f   libucrt:wsetlocale.obj
 0001:00044c5b       __wcscats                  10045c5b f   libucrt:wsetlocale.obj
 0001:00044cac       __wsetlocale               10045cac f   libucrt:wsetlocale.obj
 0001:000457d2       ___p___mb_cur_max          100467d2 f   libucrt:nlsdata.obj
 0001:000458c9       ___acrt_report_runtime_error 100468c9 f   libucrt:report_runtime_error.obj
 0001:00045a2f       __query_app_type           10046a2f f   libucrt:report_runtime_error.obj
 0001:00045a35       __set_app_type             10046a35 f   libucrt:report_runtime_error.obj
 0001:00045f21       __i64toa                   10046f21 f   libucrt:xtoa.obj
 0001:00045f74       __i64toa_s                 10046f74 f   libucrt:xtoa.obj
 0001:00045fc5       __i64tow                   10046fc5 f   libucrt:xtoa.obj
 0001:00046018       __i64tow_s                 10047018 f   libucrt:xtoa.obj
 0001:00046069       __itoa                     10047069 f   libucrt:xtoa.obj
 0001:000460ad       __itoa_s                   100470ad f   libucrt:xtoa.obj
 0001:000460ef       __itow                     100470ef f   libucrt:xtoa.obj
 0001:00046133       __itow_s                   10047133 f   libucrt:xtoa.obj
 0001:00046175       __ltoa                     10047175 f   libucrt:xtoa.obj
 0001:000461b9       __ltoa_s                   100471b9 f   libucrt:xtoa.obj
 0001:000461fb       __ltow                     100471fb f   libucrt:xtoa.obj
 0001:0004623f       __ltow_s                   1004723f f   libucrt:xtoa.obj
 0001:00046281       __ui64toa                  10047281 f   libucrt:xtoa.obj
 0001:000462ab       __ui64toa_s                100472ab f   libucrt:xtoa.obj
 0001:000462d3       __ui64tow                  100472d3 f   libucrt:xtoa.obj
 0001:000462fd       __ui64tow_s                100472fd f   libucrt:xtoa.obj
 0001:00046325       __ultoa                    10047325 f   libucrt:xtoa.obj
 0001:0004634b       __ultoa_s                  1004734b f   libucrt:xtoa.obj
 0001:0004636f       __ultow                    1004736f f   libucrt:xtoa.obj
 0001:00046395       __ultow_s                  10047395 f   libucrt:xtoa.obj
 0001:000463b9       __set_error_mode           100473b9 f   libucrt:set_error_mode.obj
 0001:00046495       _wcscat_s                  10047495 f   libucrt:wcscat_s.obj
 0001:0004659f       _wcscpy_s                  1004759f f   libucrt:wcscpy_s.obj
 0001:0004673f       _wcsncat_s                 1004773f f   libucrt:wcsncat_s.obj
 0001:000467cf       _strcat_s                  100477cf f   libucrt:strcat_s.obj
 0001:00046956       _strncat_s                 10047956 f   libucrt:strncat_s.obj
 0001:00046b81       ??$message_box@$$TAAPBDAAPBDAAI@?$__crt_char_traits@D@@SAH$$QA$$TAAPBD1AAI@Z 10047b81 f i libucrt:crtmbox.obj
 0001:00046ba9       ??$message_box@$$TAAPB_WAAPB_WAAI@?$__crt_char_traits@_W@@SAH$$QA$$TAAPB_W1AAI@Z 10047ba9 f i libucrt:crtmbox.obj
 0001:00046bd1       ??$message_box@$$TABQBDABQBDK@?$__crt_char_traits@D@@SAH$$QA$$TABQBD1$$QAK@Z 10047bd1 f i libucrt:crtmbox.obj
 0001:00046bf9       ??$message_box@$$TABQB_WABQB_WK@?$__crt_char_traits@_W@@SAH$$QA$$TABQB_W1$$QAK@Z 10047bf9 f i libucrt:crtmbox.obj
 0001:00046c21       ??$message_box@PAUHWND__@@ABQBDABQBDABI@?$__crt_char_traits@D@@SAH$$QAPAUHWND__@@ABQBD1ABI@Z 10047c21 f i libucrt:crtmbox.obj
 0001:00046c49       ??$message_box@PAUHWND__@@ABQB_WABQB_WABI@?$__crt_char_traits@_W@@SAH$$QAPAUHWND__@@ABQB_W1ABI@Z 10047c49 f i libucrt:crtmbox.obj
 0001:00046cc5       ??$output_debug_string@ABQBD@?$__crt_char_traits@D@@SAXABQBD@Z 10047cc5 f i libucrt:crtmbox.obj
 0001:00046cdb       ??$output_debug_string@ABQB_W@?$__crt_char_traits@_W@@SAXABQB_W@Z 10047cdb f i libucrt:crtmbox.obj
 0001:00046cf1       ??0?$__crt_unique_handle_t@U__crt_handle_traits@@@@QAE@QAX@Z 10047cf1 f i libucrt:crtmbox.obj
 0001:00046d05       ??1?$__crt_unique_handle_t@U__crt_handle_traits@@@@QAE@XZ 10047d05 f i libucrt:crtmbox.obj
 0001:00046d21       ??B?$__crt_unique_handle_t@U__crt_handle_traits@@@@QBE_NXZ 10047d21 f i libucrt:crtmbox.obj
 0001:00046d2c       ?close@?$__crt_unique_handle_t@U__crt_handle_traits@@@@QAEXXZ 10047d2c f i libucrt:crtmbox.obj
 0001:00046d48       ?close@__crt_handle_traits@@SA_NPAX@Z 10047d48 f i libucrt:crtmbox.obj
 0001:00046d63       ?get@?$__crt_unique_handle_t@U__crt_handle_traits@@@@QBEPAXXZ 10047d63 f i libucrt:crtmbox.obj
 0001:00046d66       ?get_invalid_value@__crt_handle_traits@@SAPAXXZ 10047d66 f i libucrt:crtmbox.obj
 0001:00046d6a       ?is_valid@?$__crt_unique_handle_t@U__crt_handle_traits@@@@QBE_NXZ 10047d6a f i libucrt:crtmbox.obj
 0001:00046d75       ___acrt_show_narrow_message_box 10047d75 f   libucrt:crtmbox.obj
 0001:00046d82       ___acrt_show_wide_message_box 10047d82 f   libucrt:crtmbox.obj
 0001:00046d8f       ??$?RV<lambda_d92cfe8357b99225085016881b624cb0>@@AAV<lambda_b721fa326cdb32351d23dfa67958c160>@@V<lambda_42d75b0848218ec137fa420c8ba9fdf9>@@@?$__crt_seh_guarded_call@H@@QAEH$$QAV<lambda_d92cfe8357b99225085016881b624cb0>@@AAV<lambda_b721fa326cdb32351d23dfa67958c160>@@$$QAV<lambda_42d75b0848218ec137fa420c8ba9fdf9>@@@Z 10047d8f f i libucrt:setvbuf.obj
 0001:00046df4       ??$__acrt_lock_stream_and_call@V<lambda_b721fa326cdb32351d23dfa67958c160>@@@@YAHQAU_iobuf@@$$QAV<lambda_b721fa326cdb32351d23dfa67958c160>@@@Z 10047df4 f i libucrt:setvbuf.obj
 0001:00046f91       _setvbuf                   10047f91 f   libucrt:setvbuf.obj
 0001:00047024       ??$?B$$A6AXH@Z@__crt_fast_encoded_nullptr_t@@QBEP6AXH@ZXZ 10048024 f i libucrt:signal.obj
 0001:00047042       ??$?RV<lambda_a048d3beccc847880fc8490e18b82769>@@AAV<lambda_ec61778202f4f5fc7e7711acc23c3bca>@@V<lambda_f7496a158712204296dd6628a163878e>@@@?$__crt_seh_guarded_call@P6AXH@Z@@QAEP6AXH@Z$$QAV<lambda_a048d3beccc847880fc8490e18b82769>@@AAV<lambda_ec61778202f4f5fc7e7711acc23c3bca>@@$$QAV<lambda_f7496a158712204296dd6628a163878e>@@@Z 10048042 f i libucrt:signal.obj
 0001:000470b2       ??$__acrt_lock_and_call@V<lambda_ec61778202f4f5fc7e7711acc23c3bca>@@@@YAP6AXH@ZW4__acrt_lock_id@@$$QAV<lambda_ec61778202f4f5fc7e7711acc23c3bca>@@@Z 100480b2 f i libucrt:signal.obj
 0001:000470e4       ??$__crt_fast_decode_pointer@P6AXH@Z@@YAP6AXH@ZQ6AXH@Z@Z 100480e4 f i libucrt:signal.obj
 0001:000470ff       ??$__crt_fast_encode_pointer@P6AXH@Z@@YAP6AXH@ZQ6AXH@Z@Z 100480ff f i libucrt:signal.obj
 0001:000472a9       ?initialize@?$dual_state_global@P6AXH@Z@__crt_state_management@@QAEXQ6AXH@Z@Z 100482a9 f i libucrt:signal.obj
 0001:00047355       ?value@?$dual_state_global@P6AXH@Z@__crt_state_management@@QAEAAP6AXH@ZXZ 10048355 f i libucrt:signal.obj
 0001:00047358       ___acrt_get_sigabrt_handler 10048358 f   libucrt:signal.obj
 0001:00047374       ___acrt_initialize_signal_handlers 10048374 f   libucrt:signal.obj
 0001:000473bd       ___fpecode                 100483bd f   libucrt:signal.obj
 0001:000473c8       ___pxcptinfoptrs           100483c8 f   libucrt:signal.obj
 0001:000473d3       _raise                     100483d3 f   libucrt:signal.obj
 0001:0004765d       _signal                    1004865d f   libucrt:signal.obj
 0001:0004787b       __realloc_base             1004887b f   libucrt:realloc_base.obj
 0001:000478fe       ___acrt_initialize_locks   100488fe f   libucrt:locks.obj
 0001:0004794f       ___acrt_lock               1004894f f   libucrt:locks.obj
 0001:0004796b       ___acrt_uninitialize_locks 1004896b f   libucrt:locks.obj
 0001:000479a8       ___acrt_unlock             100489a8 f   libucrt:locks.obj
 0001:000479c4       __lock_locales             100489c4 f   libucrt:locks.obj
 0001:000479cf       __unlock_locales           100489cf f   libucrt:locks.obj
 0001:000479da       ??$?RV<lambda_123407a5e2ac06da108355a851863b7a>@@AAV<lambda_2fe9b910cf3cbf4a0ab98a02ba45b3ec>@@V<lambda_ae55bdf541ad94d75914d381c370e64d>@@@?$__crt_seh_guarded_call@H@@QAEH$$QAV<lambda_123407a5e2ac06da108355a851863b7a>@@AAV<lambda_2fe9b910cf3cbf4a0ab98a02ba45b3ec>@@$$QAV<lambda_ae55bdf541ad94d75914d381c370e64d>@@@Z 100489da f i libucrt:close.obj
 0001:00047a7c       ??$__acrt_lowio_lock_fh_and_call@V<lambda_2fe9b910cf3cbf4a0ab98a02ba45b3ec>@@@@YAHH$$QAV<lambda_2fe9b910cf3cbf4a0ab98a02ba45b3ec>@@@Z 10048a7c f i libucrt:close.obj
 0001:00047bcf       __close                    10048bcf f   libucrt:close.obj
 0001:00047c6d       __close_nolock             10048c6d f   libucrt:close.obj
 0001:00047d30       ??$?RU__crt_stdio_stream_data@@@__crt_internal_free_policy@@QBEXQBU__crt_stdio_stream_data@@@Z 10048d30 f i libucrt:stream.obj
 0001:00047d46       ??0?$__crt_unique_heap_ptr@U__crt_stdio_stream_data@@U__crt_internal_free_policy@@@@QAE@QAU__crt_stdio_stream_data@@@Z 10048d46 f i libucrt:stream.obj
 0001:00047d5a       ??0__crt_stdio_stream@@QAE@XZ 10048d5a f i libucrt:stream.obj
 0001:00047d60       ??1?$__crt_unique_heap_ptr@U__crt_stdio_stream_data@@U__crt_internal_free_policy@@@@QAE@XZ 10048d60 f i libucrt:stream.obj
 0001:00047d76       ?__acrt_stdio_allocate_stream@@YA?AV__crt_stdio_stream@@XZ 10048d76 f   libucrt:stream.obj
 0001:00047dec       ?__acrt_stdio_free_stream@@YAXV__crt_stdio_stream@@@Z 10048dec f   libucrt:stream.obj
 0001:00047e35       ?deallocate@__crt_stdio_stream@@QAEXXZ 10048e35 f i libucrt:stream.obj
 0001:00047e41       ?detach@?$__crt_unique_heap_ptr@U__crt_stdio_stream_data@@U__crt_internal_free_policy@@@@QAEPAU__crt_stdio_stream_data@@XZ 10048e41 f i libucrt:stream.obj
 0001:00047f3a       ?lock@__crt_stdio_stream@@QBEXXZ 10048f3a f i libucrt:stream.obj
 0001:00047f45       ?release@?$__crt_unique_heap_ptr@U__crt_stdio_stream_data@@U__crt_internal_free_policy@@@@QAEXXZ 10048f45 f i libucrt:stream.obj
 0001:00047f5b       ?try_allocate@__crt_stdio_stream@@QAE_NXZ 10048f5b f i libucrt:stream.obj
 0001:00047f84       ??$__acrt_stdio_parse_mode@D@@YA?AU__acrt_stdio_stream_mode@@QBD@Z 10048f84 f i libucrt:openfile.obj
 0001:00048242       ??$__acrt_stdio_parse_mode@_W@@YA?AU__acrt_stdio_stream_mode@@QB_W@Z 10049242 f i libucrt:openfile.obj
 0001:00048663       ??$tcsncmp@AAPBDAAY02$$CBDI@?$__crt_char_traits@D@@SAHAAPBDAAY02$$CBD$$QAI@Z 10049663 f i libucrt:openfile.obj
 0001:00048686       ??$tcsncmp@AAPB_WAAY02$$CB_WI@?$__crt_char_traits@_W@@SAHAAPB_WAAY02$$CB_W$$QAI@Z 10049686 f i libucrt:openfile.obj
 0001:000486a9       ??$tcsnicmp@AAPBDAAY04$$CBDI@?$__crt_char_traits@D@@SAHAAPBDAAY04$$CBD$$QAI@Z 100496a9 f i libucrt:openfile.obj
 0001:000486cc       ??$tcsnicmp@AAPBDAAY06$$CBDI@?$__crt_char_traits@D@@SAHAAPBDAAY06$$CBD$$QAI@Z 100496cc f i libucrt:openfile.obj
 0001:000486ef       ??$tcsnicmp@AAPBDAAY07$$CBDI@?$__crt_char_traits@D@@SAHAAPBDAAY07$$CBD$$QAI@Z 100496ef f i libucrt:openfile.obj
 0001:00048712       ??$tcsnicmp@AAPB_WAAY04$$CB_WI@?$__crt_char_traits@_W@@SAHAAPB_WAAY04$$CB_W$$QAI@Z 10049712 f i libucrt:openfile.obj
 0001:00048735       ??$tcsnicmp@AAPB_WAAY06$$CB_WI@?$__crt_char_traits@_W@@SAHAAPB_WAAY06$$CB_W$$QAI@Z 10049735 f i libucrt:openfile.obj
 0001:00048758       ??$tcsnicmp@AAPB_WAAY07$$CB_WI@?$__crt_char_traits@_W@@SAHAAPB_WAAY07$$CB_W$$QAI@Z 10049758 f i libucrt:openfile.obj
 0001:0004877b       ??$tsopen_s@PAHABQBDABHABHH@?$__crt_char_traits@D@@SAH$$QAPAHABQBDABH2$$QAH@Z 1004977b f i libucrt:openfile.obj
 0001:000487ad       ??$tsopen_s@PAHABQB_WABHABHH@?$__crt_char_traits@_W@@SAH$$QAPAHABQB_WABH2$$QAH@Z 100497ad f i libucrt:openfile.obj
 0001:000487df       ?__acrt_stdio_parse_mode_D@@YA_NAAU__acrt_stdio_stream_mode@@@Z 100497df f i libucrt:openfile.obj
 0001:00048800       ?__acrt_stdio_parse_mode_N@@YA_NAAU__acrt_stdio_stream_mode@@@Z 10049800 f i libucrt:openfile.obj
 0001:00048816       ?__acrt_stdio_parse_mode_R@@YA_NAAU__acrt_stdio_stream_mode@@AA_N@Z 10049816 f i libucrt:openfile.obj
 0001:0004883b       ?__acrt_stdio_parse_mode_S@@YA_NAAU__acrt_stdio_stream_mode@@AA_N@Z 1004983b f i libucrt:openfile.obj
 0001:00048860       ?__acrt_stdio_parse_mode_T@@YA_NAAU__acrt_stdio_stream_mode@@@Z 10049860 f i libucrt:openfile.obj
 0001:00048886       ?__acrt_stdio_parse_mode_b@@YA_NAAU__acrt_stdio_stream_mode@@@Z 10049886 f i libucrt:openfile.obj
 0001:000488ae       ?__acrt_stdio_parse_mode_c@@YA_NAAU__acrt_stdio_stream_mode@@AA_N@Z 100498ae f i libucrt:openfile.obj
 0001:000488d8       ?__acrt_stdio_parse_mode_n@@YA_NAAU__acrt_stdio_stream_mode@@AA_N@Z 100498d8 f i libucrt:openfile.obj
 0001:00048902       ?__acrt_stdio_parse_mode_plus@@YA_NAAU__acrt_stdio_stream_mode@@AA_N@Z 10049902 f i libucrt:openfile.obj
 0001:00048944       ?__acrt_stdio_parse_mode_t@@YA_NAAU__acrt_stdio_stream_mode@@@Z 10049944 f i libucrt:openfile.obj
 0001:0004896c       __openfile                 1004996c f   libucrt:openfile.obj
 0001:00048979       __wopenfile                10049979 f   libucrt:openfile.obj
 0001:0004901e       __read                     1004a01e f   libucrt:read.obj
 0001:00049175       __read_nolock              1004a175 f   libucrt:read.obj
 0001:00049b0d       ___acrt_stdio_refill_and_read_narrow_nolock 1004ab0d f   libucrt:_filbuf.obj
 0001:00049b1a       ___acrt_stdio_refill_and_read_wide_nolock 1004ab1a f   libucrt:_filbuf.obj
 0001:0004a279       __write                    1004b279 f   libucrt:write.obj
 0001:0004a39e       __write_nolock             1004b39e f   libucrt:write.obj
 0001:0004aae4       ___acrt_stdio_flush_and_write_narrow_nolock 1004bae4 f   libucrt:_flsbuf.obj
 0001:0004aaf1       ___acrt_stdio_flush_and_write_wide_nolock 1004baf1 f   libucrt:_flsbuf.obj
 0001:0004aafe       ___acrt_copy_path_to_wide_string 1004bafe f   libucrt:string_utilities.obj
 0001:0004abf6       ___acrt_copy_to_char       1004bbf6 f   libucrt:string_utilities.obj
 0001:0004ace1       __wremove                  1004bce1 f   libucrt:wunlink.obj
 0001:0004ad13       __wunlink                  1004bd13 f   libucrt:wunlink.obj
 0001:0004b187       __lseek                    1004c187 f   libucrt:lseek.obj
 0001:0004b194       __lseek_nolock             1004c194 f   libucrt:lseek.obj
 0001:0004b1a1       __lseeki64                 1004c1a1 f   libucrt:lseek.obj
 0001:0004b1c2       __lseeki64_nolock          1004c1c2 f   libucrt:lseek.obj
 0001:0004b1e3       __chgsign                  1004c1e3 f   libucrt:ieeemisc.obj
 0001:0004b21d       __chgsignf                 1004c21d f   libucrt:ieeemisc.obj
 0001:0004b248       __copysign                 1004c248 f   libucrt:ieeemisc.obj
 0001:0004b27c       __copysignf                1004c27c f   libucrt:ieeemisc.obj
 0001:0004b2a1       __finite                   1004c2a1 f   libucrt:ieeemisc.obj
 0001:0004b2c1       __fpclass                  1004c2c1 f   libucrt:ieeemisc.obj
 0001:0004b38e       __isnan                    1004c38e f   libucrt:ieeemisc.obj
 0001:0004b3d1       __logb                     1004c3d1 f   libucrt:ieeemisc.obj
 0001:0004b4d6       __nextafter                1004c4d6 f   libucrt:ieeemisc.obj
 0001:0004b4fc       __scalb                    1004c4fc f   libucrt:ieeemisc.obj
 0001:0004b51c       __add_exp                  1004c51c f   libucrt:util.obj
 0001:0004b556       __decomp                   1004c556 f   libucrt:util.obj
 0001:0004b65f       __get_exp                  1004c65f f   libucrt:util.obj
 0001:0004b67e       __set_bexp                 1004c67e f   libucrt:util.obj
 0001:0004b6b1       __set_exp                  1004c6b1 f   libucrt:util.obj
 0001:0004b6eb       __sptype                   1004c6eb f   libucrt:util.obj
 0001:0004b760       ___clrfp_sse2              1004c760 f   libucrt:fpctrl.obj
 0001:0004b789       ___ctrlfp_sse2             1004c789 f   libucrt:fpctrl.obj
 0001:0004b7d2       ___fclrf_sse2              1004c7d2 f   libucrt:fpctrl.obj
 0001:0004b7f8       ___get_fpsr_sse2           1004c7f8 f   libucrt:fpctrl.obj
 0001:0004b81d       ___set_fpsr_sse2           1004c81d f   libucrt:fpctrl.obj
 0001:0004b8b0       ___set_statfp_sse2         1004c8b0 f   libucrt:fpctrl.obj
 0001:0004b8d1       ___statfp_sse2             1004c8d1 f   libucrt:fpctrl.obj
 0001:0004b8eb       __clrfp                    1004c8eb f   libucrt:fpctrl.obj
 0001:0004b902       __ctrlfp                   1004c902 f   libucrt:fpctrl.obj
 0001:0004b939       __set_statfp               1004c939 f   libucrt:fpctrl.obj
 0001:0004b9aa       __statfp                   1004c9aa f   libucrt:fpctrl.obj
 0001:0004b9c0       ??$__crt_fast_decode_pointer@P6AHPAU_exception@@@Z@@YAP6AHPAU_exception@@@ZQ6AH0@Z@Z 1004c9c0 f i libucrt:matherr.obj
 0001:0004b9db       ??$__crt_fast_encode_pointer@P6AHPAU_exception@@@Z@@YAP6AHPAU_exception@@@ZQ6AH0@Z@Z 1004c9db f i libucrt:matherr.obj
 0001:0004ba01       ?initialize@?$dual_state_global@P6AHPAU_exception@@@Z@__crt_state_management@@QAEXQ6AHPAU_exception@@@Z@Z 1004ca01 f i libucrt:matherr.obj
 0001:0004ba3e       ?value@?$dual_state_global@P6AHPAU_exception@@@Z@__crt_state_management@@QAEAAP6AHPAU_exception@@@ZXZ 1004ca3e f i libucrt:matherr.obj
 0001:0004ba41       ___acrt_has_user_matherr   1004ca41 f   libucrt:matherr.obj
 0001:0004ba60       ___acrt_initialize_user_matherr 1004ca60 f   libucrt:matherr.obj
 0001:0004ba79       ___acrt_invoke_user_matherr 1004ca79 f   libucrt:matherr.obj
 0001:0004bad4       ___setusermatherr          1004cad4 f   libucrt:matherr.obj
 0001:0004c4e6       ??$find_first_file_ex@ABQADW4_FINDEX_INFO_LEVELS@@PAU_WIN32_FIND_DATAA@@W4_FINDEX_SEARCH_OPS@@$$TH@?$__crt_char_traits@D@@SAPAXABQAD$$QAW4_FINDEX_INFO_LEVELS@@$$QAPAU_WIN32_FIND_DATAA@@$$QAW4_FINDEX_SEARCH_OPS@@$$QA$$T$$QAH@Z 1004d4e6 f i libucrt:argv_wildcards.obj
 0001:0004c51b       ??$find_first_file_ex@ABQA_WW4_FINDEX_INFO_LEVELS@@PAU_WIN32_FIND_DATAW@@W4_FINDEX_SEARCH_OPS@@$$TH@?$__crt_char_traits@_W@@SAPAXABQA_W$$QAW4_FINDEX_INFO_LEVELS@@$$QAPAU_WIN32_FIND_DATAW@@$$QAW4_FINDEX_SEARCH_OPS@@$$QA$$T$$QAH@Z 1004d51b f i libucrt:argv_wildcards.obj
 0001:0004c550       ??$find_next_file@PAXPAU_WIN32_FIND_DATAA@@@?$__crt_char_traits@D@@SAH$$QAPAX$$QAPAU_WIN32_FIND_DATAA@@@Z 1004d550 f i libucrt:argv_wildcards.obj
 0001:0004c56c       ??$find_next_file@PAXPAU_WIN32_FIND_DATAW@@@?$__crt_char_traits@_W@@SAH$$QAPAX$$QAPAU_WIN32_FIND_DATAW@@@Z 1004d56c f i libucrt:argv_wildcards.obj
 0001:0004c588       ??$tcsncpy_s@AAPADIAAPADABI@?$__crt_char_traits@D@@SAHAAPAD$$QAI0ABI@Z 1004d588 f i libucrt:argv_wildcards.obj
 0001:0004c5b3       ??$tcsncpy_s@AAPA_WIAAPA_WABI@?$__crt_char_traits@_W@@SAHAAPA_W$$QAI0ABI@Z 1004d5b3 f i libucrt:argv_wildcards.obj
 0001:0004c5de       ??$tcsncpy_s@PAD$$CBIABQBDABI@?$__crt_char_traits@D@@SAH$$QAPAD$$QBIABQBDABI@Z 1004d5de f i libucrt:argv_wildcards.obj
 0001:0004c609       ??$tcsncpy_s@PADABIABQBDABI@?$__crt_char_traits@D@@SAH$$QAPADABIABQBD1@Z 1004d609 f i libucrt:argv_wildcards.obj
 0001:0004c634       ??$tcsncpy_s@PA_W$$CBIABQB_WABI@?$__crt_char_traits@_W@@SAH$$QAPA_W$$QBIABQB_WABI@Z 1004d634 f i libucrt:argv_wildcards.obj
 0001:0004c65f       ??$tcsncpy_s@PA_WABIABQB_WABI@?$__crt_char_traits@_W@@SAH$$QAPA_WABIABQB_W1@Z 1004d65f f i libucrt:argv_wildcards.obj
 0001:0004c68a       ??$tcspbrk@AAPADAAY02$$CBD@?$__crt_char_traits@D@@SAPADAAPADAAY02$$CBD@Z 1004d68a f i libucrt:argv_wildcards.obj
 0001:0004c6a5       ??$tcspbrk@AAPA_WAAY02$$CB_W@?$__crt_char_traits@_W@@SAPA_WAAPA_WAAY02$$CB_W@Z 1004d6a5 f i libucrt:argv_wildcards.obj
 0001:0004c6c0       ??0?$__crt_unique_handle_t@U__crt_findfile_traits@@@@QAE@QAX@Z 1004d6c0 f i libucrt:argv_wildcards.obj
 0001:0004c6d4       ??0?$argument_list@D@?A0xb0e4b824@@QAE@XZ 1004d6d4 f i libucrt:argv_wildcards.obj
 0001:0004c6e4       ??0?$argument_list@_W@?A0xb0e4b824@@QAE@XZ 1004d6e4 f i libucrt:argv_wildcards.obj
 0001:0004c6f4       ??1?$__crt_unique_handle_t@U__crt_findfile_traits@@@@QAE@XZ 1004d6f4 f i libucrt:argv_wildcards.obj
 0001:0004c710       ??1?$argument_list@D@?A0xb0e4b824@@QAE@XZ 1004d710 f i libucrt:argv_wildcards.obj
 0001:0004c73e       ??1?$argument_list@_W@?A0xb0e4b824@@QAE@XZ 1004d73e f i libucrt:argv_wildcards.obj
 0001:0004c7cc       ?append@?$argument_list@D@?A0xb0e4b824@@QAEHQAD@Z 1004d7cc f i libucrt:argv_wildcards.obj
 0001:0004c80e       ?append@?$argument_list@_W@?A0xb0e4b824@@QAEHQA_W@Z 1004d80e f i libucrt:argv_wildcards.obj
 0001:0004c850       ?begin@?$argument_list@D@?A0xb0e4b824@@QBEPAPADXZ 1004d850 f i libucrt:argv_wildcards.obj
 0001:0004c853       ?begin@?$argument_list@_W@?A0xb0e4b824@@QBEPAPA_WXZ 1004d853 f i libucrt:argv_wildcards.obj
 0001:0004c856       ?close@?$__crt_unique_handle_t@U__crt_findfile_traits@@@@QAEXXZ 1004d856 f i libucrt:argv_wildcards.obj
 0001:0004c872       ?close@__crt_findfile_traits@@SA_NPAX@Z 1004d872 f i libucrt:argv_wildcards.obj
 0001:0004c88d       ?end@?$argument_list@D@?A0xb0e4b824@@QBEPAPADXZ 1004d88d f i libucrt:argv_wildcards.obj
 0001:0004c891       ?end@?$argument_list@_W@?A0xb0e4b824@@QBEPAPA_WXZ 1004d891 f i libucrt:argv_wildcards.obj
 0001:0004c895       ?expand_if_necessary@?$argument_list@D@?A0xb0e4b824@@AAEHXZ 1004d895 f i libucrt:argv_wildcards.obj
 0001:0004c93d       ?expand_if_necessary@?$argument_list@_W@?A0xb0e4b824@@AAEHXZ 1004d93d f i libucrt:argv_wildcards.obj
 0001:0004c9e5       ?get@?$__crt_unique_handle_t@U__crt_findfile_traits@@@@QBEPAXXZ 1004d9e5 f i libucrt:argv_wildcards.obj
 0001:0004c9e8       ?get_invalid_value@__crt_findfile_traits@@SAPAXXZ 1004d9e8 f i libucrt:argv_wildcards.obj
 0001:0004ca09       ?size@?$argument_list@D@?A0xb0e4b824@@QBEIXZ 1004da09 f i libucrt:argv_wildcards.obj
 0001:0004ca14       ?size@?$argument_list@_W@?A0xb0e4b824@@QBEIXZ 1004da14 f i libucrt:argv_wildcards.obj
 0001:0004ca1f       ?strpbrk@@YAPADQADQBD@Z    1004da1f f i libucrt:argv_wildcards.obj
 0001:0004ca2c       ?wcspbrk@@YAPA_WPA_WPB_W@Z 1004da2c f i libucrt:argv_wildcards.obj
 0001:0004ca39       ___acrt_expand_narrow_argv_wildcards 1004da39 f   libucrt:argv_wildcards.obj
 0001:0004ca46       ___acrt_expand_wide_argv_wildcards 1004da46 f   libucrt:argv_wildcards.obj
 0001:0004ca53       ??$?RV<lambda_978dc153c237d78434369da87b74ff60>@@AAV<lambda_ad1ced32f4ac17aa236e5ef05d6b3b7c>@@V<lambda_4a8533e2866a575feecb8298ce776b0d>@@@?$__crt_seh_guarded_call@X@@QAEX$$QAV<lambda_978dc153c237d78434369da87b74ff60>@@AAV<lambda_ad1ced32f4ac17aa236e5ef05d6b3b7c>@@$$QAV<lambda_4a8533e2866a575feecb8298ce776b0d>@@@Z 1004da53 f i libucrt:mbctype.obj
 0001:0004caa6       ??$__acrt_lock_and_call@V<lambda_ad1ced32f4ac17aa236e5ef05d6b3b7c>@@@@YAXW4__acrt_lock_id@@$$QAV<lambda_ad1ced32f4ac17aa236e5ef05d6b3b7c>@@@Z 1004daa6 f i libucrt:mbctype.obj
 0001:0004d0b7       ___acrt_initialize_multibyte 1004e0b7 f   libucrt:mbctype.obj
 0001:0004d0dc       ___acrt_update_thread_multibyte_data 1004e0dc f   libucrt:mbctype.obj
 0001:0004d1a6       ___p__mbcasemap            1004e1a6 f   libucrt:mbctype.obj
 0001:0004d1ac       ___p__mbctype              1004e1ac f   libucrt:mbctype.obj
 0001:0004d1b2       __getmbcp                  1004e1b2 f   libucrt:mbctype.obj
 0001:0004d1f5       __setmbcp                  1004e1f5 f   libucrt:mbctype.obj
 0001:0004d20c       __setmbcp_nolock           1004e20c f   libucrt:mbctype.obj
 0001:0004d589       __ismbbalnum               1004e589 f   libucrt:ismbbyte.obj
 0001:0004d5aa       __ismbbalnum_l             1004e5aa f   libucrt:ismbbyte.obj
 0001:0004d5cd       __ismbbalpha               1004e5cd f   libucrt:ismbbyte.obj
 0001:0004d5ee       __ismbbalpha_l             1004e5ee f   libucrt:ismbbyte.obj
 0001:0004d611       __ismbbblank               1004e611 f   libucrt:ismbbyte.obj
 0001:0004d63c       __ismbbblank_l             1004e63c f   libucrt:ismbbyte.obj
 0001:0004d669       __ismbbgraph               1004e669 f   libucrt:ismbbyte.obj
 0001:0004d68a       __ismbbgraph_l             1004e68a f   libucrt:ismbbyte.obj
 0001:0004d6ad       __ismbbkalnum              1004e6ad f   libucrt:ismbbyte.obj
 0001:0004d6cb       __ismbbkalnum_l            1004e6cb f   libucrt:ismbbyte.obj
 0001:0004d6ea       __ismbbkana                1004e6ea f   libucrt:ismbbyte.obj
 0001:0004d701       __ismbbkana_l              1004e701 f   libucrt:ismbbyte.obj
 0001:0004d766       __ismbbkprint              1004e766 f   libucrt:ismbbyte.obj
 0001:0004d784       __ismbbkprint_l            1004e784 f   libucrt:ismbbyte.obj
 0001:0004d7a3       __ismbbkpunct              1004e7a3 f   libucrt:ismbbyte.obj
 0001:0004d7c1       __ismbbkpunct_l            1004e7c1 f   libucrt:ismbbyte.obj
 0001:0004d7e0       __ismbblead                1004e7e0 f   libucrt:ismbbyte.obj
 0001:0004d7fe       __ismbblead_l              1004e7fe f   libucrt:ismbbyte.obj
 0001:0004d81d       __ismbbprint               1004e81d f   libucrt:ismbbyte.obj
 0001:0004d83e       __ismbbprint_l             1004e83e f   libucrt:ismbbyte.obj
 0001:0004d861       __ismbbpunct               1004e861 f   libucrt:ismbbyte.obj
 0001:0004d87f       __ismbbpunct_l             1004e87f f   libucrt:ismbbyte.obj
 0001:0004d89e       __ismbbtrail               1004e89e f   libucrt:ismbbyte.obj
 0001:0004d8bc       __ismbbtrail_l             1004e8bc f   libucrt:ismbbyte.obj
 0001:0004d8db       ___acrt_initialize_command_line 1004e8db f   libucrt:argv_data.obj
 0001:0004d8fa       ___acrt_uninitialize_command_line 1004e8fa f   libucrt:argv_data.obj
 0001:0004d8fd       ___p___argc                1004e8fd f   libucrt:argv_data.obj
 0001:0004d903       ___p___argv                1004e903 f   libucrt:argv_data.obj
 0001:0004d909       ___p___wargv               1004e909 f   libucrt:argv_data.obj
 0001:0004d90f       ___p__acmdln               1004e90f f   libucrt:argv_data.obj
 0001:0004d915       ___p__pgmptr               1004e915 f   libucrt:argv_data.obj
 0001:0004d91b       ___p__wcmdln               1004e91b f   libucrt:argv_data.obj
 0001:0004d921       ___p__wpgmptr              1004e921 f   libucrt:argv_data.obj
 0001:0004d927       __get_pgmptr               1004e927 f   libucrt:argv_data.obj
 0001:0004d964       __get_wpgmptr              1004e964 f   libucrt:argv_data.obj
 0001:0004d9a1       ??0?$__crt_unique_handle_t@Uenvironment_strings_traits@?A0x588e5281@@@@QAE@QA_W@Z 1004e9a1 f i libucrt:get_environment_from_os.obj
 0001:0004d9b5       ??1?$__crt_unique_handle_t@Uenvironment_strings_traits@?A0x588e5281@@@@QAE@XZ 1004e9b5 f i libucrt:get_environment_from_os.obj
 0001:0004d9d1       ??B?$__crt_unique_handle_t@Uenvironment_strings_traits@?A0x588e5281@@@@QBE_NXZ 1004e9d1 f i libucrt:get_environment_from_os.obj
 0001:0004d9db       ?close@?$__crt_unique_handle_t@Uenvironment_strings_traits@?A0x588e5281@@@@QAEXXZ 1004e9db f i libucrt:get_environment_from_os.obj
 0001:0004d9f7       ?close@environment_strings_traits@?A0x588e5281@@SA_NPA_W@Z 1004e9f7 f i libucrt:get_environment_from_os.obj
 0001:0004da51       ?get@?$__crt_unique_handle_t@Uenvironment_strings_traits@?A0x588e5281@@@@QBEPA_WXZ 1004ea51 f i libucrt:get_environment_from_os.obj
 0001:0004da54       ?get_invalid_value@environment_strings_traits@?A0x588e5281@@SAPA_WXZ 1004ea54 f i libucrt:get_environment_from_os.obj
 0001:0004da57       ?is_valid@?$__crt_unique_handle_t@Uenvironment_strings_traits@?A0x588e5281@@@@QBE_NXZ 1004ea57 f i libucrt:get_environment_from_os.obj
 0001:0004da61       ___dcrt_get_narrow_environment_from_os 1004ea61 f   libucrt:get_environment_from_os.obj
 0001:0004db04       ___dcrt_get_wide_environment_from_os 1004eb04 f   libucrt:get_environment_from_os.obj
 0001:0004e39c       ??$get_or_create_environment_nolock@$$$V@?$__crt_char_traits@D@@SAPAPADXZ 1004f39c f i libucrt:setenv.obj
 0001:0004e3a1       ??$get_or_create_environment_nolock@$$$V@?$__crt_char_traits@_W@@SAPAPA_WXZ 1004f3a1 f i libucrt:setenv.obj
 0001:0004e3a6       ??$set_environment_variable@ABQADQAD@?$__crt_char_traits@D@@SAHABQAD$$QBQAD@Z 1004f3a6 f i libucrt:setenv.obj
 0001:0004e3c2       ??$set_environment_variable@ABQA_WQA_W@?$__crt_char_traits@_W@@SAHABQA_W$$QBQA_W@Z 1004f3c2 f i libucrt:setenv.obj
 0001:0004e3de       ??$tcschr@ABQADD@?$__crt_char_traits@D@@SAPADABQAD$$QAD@Z 1004f3de f i libucrt:setenv.obj
 0001:0004e3fe       ??$tcschr@ABQA_WD@?$__crt_char_traits@_W@@SAPA_WABQA_W$$QAD@Z 1004f3fe f i libucrt:setenv.obj
 0001:0004e423       ??$tcscpy_s@AAPADABIAAPAD@?$__crt_char_traits@D@@SAHAAPADABI0@Z 1004f423 f i libucrt:setenv.obj
 0001:0004e448       ??$tcscpy_s@AAPA_WABIAAPA_W@?$__crt_char_traits@_W@@SAHAAPA_WABI0@Z 1004f448 f i libucrt:setenv.obj
 0001:0004e46d       ??$tcscpy_s@ABQADABIABQAD@?$__crt_char_traits@D@@SAHABQADABI0@Z 1004f46d f i libucrt:setenv.obj
 0001:0004e492       ??$tcscpy_s@ABQA_WABIABQA_W@?$__crt_char_traits@_W@@SAHABQA_WABI0@Z 1004f492 f i libucrt:setenv.obj
 0001:0004e4b7       ??$tcsnicoll@ABQBDAAPADABI@?$__crt_char_traits@D@@SAHABQBDAAPADABI@Z 1004f4b7 f i libucrt:setenv.obj
 0001:0004e4dc       ??$tcsnicoll@ABQB_WAAPA_WABI@?$__crt_char_traits@_W@@SAHABQB_WAAPA_WABI@Z 1004f4dc f i libucrt:setenv.obj
 0001:0004e525       ?strchr@@YAPADQADH@Z       1004f525 f i libucrt:setenv.obj
 0001:0004e532       ?wcschr@@YAPA_WPA_W_W@Z    1004f532 f i libucrt:setenv.obj
 0001:0004e53f       ___dcrt_set_variable_in_narrow_environment_nolock 1004f53f f   libucrt:setenv.obj
 0001:0004e54c       ___dcrt_set_variable_in_wide_environment_nolock 1004f54c f   libucrt:setenv.obj
 0001:0004e559       __recalloc                 1004f559 f   libucrt:recalloc.obj
 0001:0004e566       __recalloc_base            1004f566 f   libucrt:recalloc.obj
 0001:0004e5ee       ___acrt_getheap            1004f5ee f   libucrt:heap_handle.obj
 0001:0004e5f4       ___acrt_initialize_heap    1004f5f4 f   libucrt:heap_handle.obj
 0001:0004e609       ___acrt_uninitialize_heap  1004f609 f   libucrt:heap_handle.obj
 0001:0004e615       __get_heap_handle          1004f615 f   libucrt:heap_handle.obj
 0001:0004e61b       ___acrt_execute_initializers 1004f61b f   libucrt:shared_initialization.obj
 0001:0004e6be       ___acrt_execute_uninitializers 1004f6be f   libucrt:shared_initialization.obj
 0001:0004e71e       ??$?B$$A6AHI@Z@__crt_fast_encoded_nullptr_t@@QBEP6AHI@ZXZ 1004f71e f i libucrt:new_handler.obj
 0001:0004e73c       ??$__crt_fast_decode_pointer@P6AHI@Z@@YAP6AHI@ZQ6AHI@Z@Z 1004f73c f i libucrt:new_handler.obj
 0001:0004e757       ??$__crt_fast_encode_pointer@P6AHI@Z@@YAP6AHI@ZQ6AHI@Z@Z 1004f757 f i libucrt:new_handler.obj
 0001:0004e77d       ?_set_new_handler@@YAP6AHI@ZH@Z 1004f77d f   libucrt:new_handler.obj
 0001:0004e7a3       ?initialize@?$dual_state_global@P6AHI@Z@__crt_state_management@@QAEXQ6AHI@Z@Z 1004f7a3 f i libucrt:new_handler.obj
 0001:0004e7e0       ?value@?$dual_state_global@P6AHI@Z@__crt_state_management@@QAEAAP6AHI@ZXZ 1004f7e0 f i libucrt:new_handler.obj
 0001:0004e7e3       ___acrt_initialize_new_handler 1004f7e3 f   libucrt:new_handler.obj
 0001:0004e7fc       __callnewh                 1004f7fc f   libucrt:new_handler.obj
 0001:0004e851       __query_new_handler        1004f851 f   libucrt:new_handler.obj
 0001:0004e8b7       __set_new_handler          1004f8b7 f   libucrt:new_handler.obj
 0001:0004e92f       ?value@?$dual_state_global@J@__crt_state_management@@QAEAAJXZ 1004f92f f i libucrt:new_mode.obj
 0001:0004e932       __query_new_mode           1004f932 f   libucrt:new_mode.obj
 0001:0004e938       __set_new_mode             1004f938 f   libucrt:new_mode.obj
 0001:0004e972       ___pctype_func             1004f972 f   libucrt:ctype.obj
 0001:0004e9a1       ___pwctype_func            1004f9a1 f   libucrt:ctype.obj
 0001:0004e9a7       __iswctype_l               1004f9a7 f   libucrt:iswctype.obj
 0001:0004e9c0       _iswctype                  1004f9c0 f   libucrt:iswctype.obj
 0001:0004ea36       __isctype                  1004fa36 f   libucrt:isctype.obj
 0001:0004ea73       __isctype_l                1004fa73 f   libucrt:isctype.obj
 0001:0004ed3a       ___acrt_DownlevelLCIDToLocaleName 1004fd3a f   libucrt:lcidtoname_downlevel.obj
 0001:0004ee0e       ___acrt_DownlevelLocaleNameToLCID 1004fe0e f   libucrt:lcidtoname_downlevel.obj
 0001:0004ee45       ??$?RV<lambda_61cee617f5178ae960314fd4d05640a0>@@AAV<lambda_6978c1fb23f02e42e1d9e99668cc68aa>@@V<lambda_9cd88cf8ad10232537feb2133f08c833>@@@?$__crt_seh_guarded_call@H@@QAEH$$QAV<lambda_61cee617f5178ae960314fd4d05640a0>@@AAV<lambda_6978c1fb23f02e42e1d9e99668cc68aa>@@$$QAV<lambda_9cd88cf8ad10232537feb2133f08c833>@@@Z 1004fe45 f i libucrt:commit.obj
 0001:0004ef03       ??$__acrt_lowio_lock_fh_and_call@V<lambda_6978c1fb23f02e42e1d9e99668cc68aa>@@@@YAHH$$QAV<lambda_6978c1fb23f02e42e1d9e99668cc68aa>@@@Z 1004ff03 f i libucrt:commit.obj
 0001:0004eff5       __commit                   1004fff5 f   libucrt:commit.obj
 0001:0004f07f       ??$?RU__crt_lowio_handle_data@@@__crt_internal_free_policy@@QBEXQBU__crt_lowio_handle_data@@@Z 1005007f f i libucrt:osfinfo.obj
 0001:0004f095       ??0?$__crt_unique_heap_ptr@U__crt_lowio_handle_data@@U__crt_internal_free_policy@@@@QAE@QAU__crt_lowio_handle_data@@@Z 10050095 f i libucrt:osfinfo.obj
 0001:0004f0a9       ??1?$__crt_unique_heap_ptr@U__crt_lowio_handle_data@@U__crt_internal_free_policy@@@@QAE@XZ 100500a9 f i libucrt:osfinfo.obj
 0001:0004f0bf       ??B?$__crt_unique_heap_ptr@U__crt_lowio_handle_data@@U__crt_internal_free_policy@@@@QBE_NXZ 100500bf f i libucrt:osfinfo.obj
 0001:0004f0c9       ?detach@?$__crt_unique_heap_ptr@U__crt_lowio_handle_data@@U__crt_internal_free_policy@@@@QAEPAU__crt_lowio_handle_data@@XZ 100500c9 f i libucrt:osfinfo.obj
 0001:0004f0cf       ?get@?$__crt_unique_heap_ptr@U__crt_lowio_handle_data@@U__crt_internal_free_policy@@@@QBEPAU__crt_lowio_handle_data@@XZ 100500cf f i libucrt:osfinfo.obj
 0001:0004f0d2       ?is_valid@?$__crt_unique_heap_ptr@U__crt_lowio_handle_data@@U__crt_internal_free_policy@@@@QBE_NXZ 100500d2 f i libucrt:osfinfo.obj
 0001:0004f0dc       ?release@?$__crt_unique_heap_ptr@U__crt_lowio_handle_data@@U__crt_internal_free_policy@@@@QAEXXZ 100500dc f i libucrt:osfinfo.obj
 0001:0004f0f2       ___acrt_lowio_create_handle_array 100500f2 f   libucrt:osfinfo.obj
 0001:0004f18a       ___acrt_lowio_destroy_handle_array 1005018a f   libucrt:osfinfo.obj
 0001:0004f1cc       ___acrt_lowio_ensure_fh_exists 100501cc f   libucrt:osfinfo.obj
 0001:0004f28a       ___acrt_lowio_lock_fh      1005028a f   libucrt:osfinfo.obj
 0001:0004f2b5       ___acrt_lowio_set_os_handle 100502b5 f   libucrt:osfinfo.obj
 0001:0004f36e       ___acrt_lowio_unlock_fh    1005036e f   libucrt:osfinfo.obj
 0001:0004f399       __alloc_osfhnd             10050399 f   libucrt:osfinfo.obj
 0001:0004f4ef       __free_osfhnd              100504ef f   libucrt:osfinfo.obj
 0001:0004f5a4       __get_osfhandle            100505a4 f   libucrt:osfinfo.obj
 0001:0004f628       __open_osfhandle           10050628 f   libucrt:osfinfo.obj
 0001:0004f779       ___iswcsym                 10050779 f i libucrt:_wctype.obj
 0001:0004f7a8       ___iswcsymf                100507a8 f i libucrt:_wctype.obj
 0001:0004f7d7       __isleadbyte_l             100507d7 f i libucrt:_wctype.obj
 0001:0004f81e       __iswalnum_l               1005081e f i libucrt:_wctype.obj
 0001:0004f839       __iswalpha_l               10050839 f i libucrt:_wctype.obj
 0001:0004f854       __iswblank_l               10050854 f i libucrt:_wctype.obj
 0001:0004f878       __iswcntrl_l               10050878 f i libucrt:_wctype.obj
 0001:0004f88f       __iswcsym_l                1005088f f i libucrt:_wctype.obj
 0001:0004f8be       __iswcsymf_l               100508be f i libucrt:_wctype.obj
 0001:0004f8ed       __iswdigit_l               100508ed f i libucrt:_wctype.obj
 0001:0004f904       __iswgraph_l               10050904 f i libucrt:_wctype.obj
 0001:0004f91f       __iswlower_l               1005091f f i libucrt:_wctype.obj
 0001:0004f936       __iswprint_l               10050936 f i libucrt:_wctype.obj
 0001:0004f951       __iswpunct_l               10050951 f i libucrt:_wctype.obj
 0001:0004f968       __iswspace_l               10050968 f i libucrt:_wctype.obj
 0001:0004f97f       __iswupper_l               1005097f f i libucrt:_wctype.obj
 0001:0004f996       __iswxdigit_l              10050996 f i libucrt:_wctype.obj
 0001:0004f9b1       _isleadbyte                100509b1 f i libucrt:_wctype.obj
 0001:0004f9c8       _iswalnum                  100509c8 f i libucrt:_wctype.obj
 0001:0004f9e3       _iswalpha                  100509e3 f i libucrt:_wctype.obj
 0001:0004f9fe       _iswascii                  100509fe f i libucrt:_wctype.obj
 0001:0004fa17       _iswblank                  10050a17 f i libucrt:_wctype.obj
 0001:0004fa3b       _iswcntrl                  10050a3b f i libucrt:_wctype.obj
 0001:0004fa52       _iswdigit                  10050a52 f i libucrt:_wctype.obj
 0001:0004fa69       _iswgraph                  10050a69 f i libucrt:_wctype.obj
 0001:0004fa84       _iswlower                  10050a84 f i libucrt:_wctype.obj
 0001:0004fa9b       _iswprint                  10050a9b f i libucrt:_wctype.obj
 0001:0004fab6       _iswpunct                  10050ab6 f i libucrt:_wctype.obj
 0001:0004facd       _iswspace                  10050acd f i libucrt:_wctype.obj
 0001:0004fae4       _iswupper                  10050ae4 f i libucrt:_wctype.obj
 0001:0004fafb       _iswxdigit                 10050afb f i libucrt:_wctype.obj
 0001:0004fb16       ??0?$__crt_scoped_stack_ptr@_W@@QAE@U?$__crt_scoped_stack_ptr_tag@_W@@@Z 10050b16 f i libucrt:lcmapstringa.obj
 0001:0004fb2a       ??0?$__crt_scoped_stack_ptr_tag@_W@@QAE@QA_W@Z 10050b2a f i libucrt:lcmapstringa.obj
 0001:0004fb3e       ??1?$__crt_scoped_stack_ptr@_W@@QAE@XZ 10050b3e f i libucrt:lcmapstringa.obj
 0001:0004fb49       ??B?$__crt_scoped_stack_ptr@_W@@QBE_NXZ 10050b49 f i libucrt:lcmapstringa.obj
 0001:0004fdf7       ?get@?$__crt_scoped_stack_ptr@_W@@QBEPA_WXZ 10050df7 f i libucrt:lcmapstringa.obj
 0001:0004fdfa       __MallocaComputeSize       10050dfa f i libucrt:lcmapstringa.obj
 0001:0004fe11       __MarkAllocaS              10050e11 f i libucrt:lcmapstringa.obj
 0001:0004fe2c       ___acrt_LCMapStringA       10050e2c f   libucrt:lcmapstringa.obj
 0001:0004fe89       __freea_crt                10050e89 f i libucrt:lcmapstringa.obj
 0001:0004feb1       ??$?RG@__crt_internal_free_policy@@QBEXQBG@Z 10050eb1 f i libucrt:initctype.obj
 0001:0004fec7       ??$?RJ@__crt_internal_free_policy@@QBEXQBJ@Z 10050ec7 f i libucrt:initctype.obj
 0001:0004fedd       ??0?$__crt_unique_heap_ptr@GU__crt_internal_free_policy@@@@QAE@QAG@Z 10050edd f i libucrt:initctype.obj
 0001:0004fef1       ??0?$__crt_unique_heap_ptr@JU__crt_internal_free_policy@@@@QAE@QAJ@Z 10050ef1 f i libucrt:initctype.obj
 0001:0004ff05       ??1?$__crt_unique_heap_ptr@GU__crt_internal_free_policy@@@@QAE@XZ 10050f05 f i libucrt:initctype.obj
 0001:0004ff1b       ??1?$__crt_unique_heap_ptr@JU__crt_internal_free_policy@@@@QAE@XZ 10050f1b f i libucrt:initctype.obj
 0001:0004ff31       ?detach@?$__crt_unique_heap_ptr@GU__crt_internal_free_policy@@@@QAEPAGXZ 10050f31 f i libucrt:initctype.obj
 0001:0004ff37       ?detach@?$__crt_unique_heap_ptr@JU__crt_internal_free_policy@@@@QAEPAJXZ 10050f37 f i libucrt:initctype.obj
 0001:0004ff3d       ?release@?$__crt_unique_heap_ptr@GU__crt_internal_free_policy@@@@QAEXXZ 10050f3d f i libucrt:initctype.obj
 0001:0004ff53       ?release@?$__crt_unique_heap_ptr@JU__crt_internal_free_policy@@@@QAEXXZ 10050f53 f i libucrt:initctype.obj
 0001:0004ff69       ____lc_codepage_func       10050f69 f   libucrt:initctype.obj
 0001:0004ff99       ____lc_collate_cp_func     10050f99 f   libucrt:initctype.obj
 0001:0004ffc9       ____lc_locale_name_func    10050fc9 f   libucrt:initctype.obj
 0001:0004fffc       ____mb_cur_max_func        10050ffc f   libucrt:initctype.obj
 0001:0005002c       ____mb_cur_max_l_func      1005102c f   libucrt:initctype.obj
 0001:0005004b       ___acrt_locale_initialize_ctype 1005104b f   libucrt:initctype.obj
 0001:000504d0       ___acrt_add_locale_ref     100514d0 f   libucrt:locale_refcounting.obj
 0001:0005056c       ___acrt_free_locale        1005156c f   libucrt:locale_refcounting.obj
 0001:00050708       ___acrt_locale_add_lc_time_reference 10051708 f   libucrt:locale_refcounting.obj
 0001:0005073b       ___acrt_locale_free_lc_time_if_unreferenced 1005173b f   libucrt:locale_refcounting.obj
 0001:00050777       ___acrt_locale_release_lc_time_reference 10051777 f   libucrt:locale_refcounting.obj
 0001:000507aa       ___acrt_release_locale_ref 100517aa f   libucrt:locale_refcounting.obj
 0001:0005084b       ___acrt_update_thread_locale_data 1005184b f   libucrt:locale_refcounting.obj
 0001:000508df       __updatetlocinfoEx_nolock  100518df f   libucrt:locale_refcounting.obj
 0001:00050943       ___acrt_fp_strflt_to_string 10051943 f   libucrt:_fptostr.obj
 0001:00052170       ??0big_integer@__crt_strtox@@QAE@ABU01@@Z 10053170 f i libucrt:cfout.obj
 0001:000521b0       ??0big_integer@__crt_strtox@@QAE@XZ 100531b0 f i libucrt:cfout.obj
 0001:000521bb       ??0scoped_fp_state_reset@?A0x48fbfdd4@@QAE@XZ 100531bb f i libucrt:cfout.obj
 0001:000521ef       ??1scoped_fp_state_reset@?A0x48fbfdd4@@QAE@XZ 100531ef f i libucrt:cfout.obj
 0001:00052200       ??4big_integer@__crt_strtox@@QAEAAU01@ABU01@@Z 10053200 f i libucrt:cfout.obj
 0001:00052240       ??8__crt_strtox@@YA_NABUbig_integer@0@0@Z 10053240 f i libucrt:cfout.obj
 0001:00052290       ??9__crt_strtox@@YA_NABUbig_integer@0@0@Z 10053290 f i libucrt:cfout.obj
 0001:000522f0       ?add_carry@__crt_strtox@@YAIAAIII@Z 100532f0 f i libucrt:cfout.obj
 0001:00052320       ?add_multiply_carry@__crt_strtox@@YAIAAIIII@Z 10053320 f i libucrt:cfout.obj
 0001:00052350       ?bit_scan_reverse@__crt_strtox@@YAII@Z 10053350 f i libucrt:cfout.obj
 0001:00052380       ?count_sequential_high_zeroes@__crt_strtox@@YAII@Z 10053380 f i libucrt:cfout.obj
 0001:000523b0       ?divide@__crt_strtox@@YA_KAAUbig_integer@1@ABU21@@Z 100533b0 f i libucrt:cfout.obj
 0001:00052990       ?is_zero@__crt_strtox@@YA_NABUbig_integer@1@@Z 10053990 f i libucrt:cfout.obj
 0001:000529b0       ?make_big_integer@__crt_strtox@@YA?AUbig_integer@1@_K@Z 100539b0 f i libucrt:cfout.obj
 0001:000529e0       ?make_big_integer_power_of_two@__crt_strtox@@YA?AUbig_integer@1@I@Z 100539e0 f i libucrt:cfout.obj
 0001:00052a40       ?multiply@__crt_strtox@@YA_NAAUbig_integer@1@ABU21@@Z 10053a40 f i libucrt:cfout.obj
 0001:00052ef0       ?multiply@__crt_strtox@@YA_NAAUbig_integer@1@I@Z 10053ef0 f i libucrt:cfout.obj
 0001:00052ff0       ?multiply_64_32@__crt_strtox@@YA_K_KI@Z 10053ff0 f i libucrt:cfout.obj
 0001:00053010       ?multiply_by_power_of_ten@__crt_strtox@@YA_NAAUbig_integer@1@I@Z 10054010 f i libucrt:cfout.obj
 0001:00053710       ?multiply_core@__crt_strtox@@YAIQAIII@Z 10054710 f i libucrt:cfout.obj
 0001:00053760       ?shift_left@__crt_strtox@@YA_NAAUbig_integer@1@I@Z 10054760 f i libucrt:cfout.obj
 0001:00053902       ___acrt_fltout             10054902 f   libucrt:cfout.obj
 0001:00055226       __isatty                   10056226 f   libucrt:isatty.obj
 0001:00055291       ??$?RUlconv@@@__crt_internal_free_policy@@QBEXQBUlconv@@@Z 10056291 f i libucrt:initmon.obj
 0001:000552a7       ??0?$__crt_unique_heap_ptr@Ulconv@@U__crt_internal_free_policy@@@@QAE@QAUlconv@@@Z 100562a7 f i libucrt:initmon.obj
 0001:000552bb       ??1?$__crt_unique_heap_ptr@Ulconv@@U__crt_internal_free_policy@@@@QAE@XZ 100562bb f i libucrt:initmon.obj
 0001:000552d1       ?detach@?$__crt_unique_heap_ptr@Ulconv@@U__crt_internal_free_policy@@@@QAEPAUlconv@@XZ 100562d1 f i libucrt:initmon.obj
 0001:000552d7       ?release@?$__crt_unique_heap_ptr@Ulconv@@U__crt_internal_free_policy@@@@QAEXXZ 100562d7 f i libucrt:initmon.obj
 0001:000552ed       ___acrt_locale_free_monetary 100562ed f   libucrt:initmon.obj
 0001:0005542a       ___acrt_locale_initialize_monetary 1005642a f   libucrt:initmon.obj
 0001:0005591d       ___acrt_locale_free_numeric 1005691d f   libucrt:initnum.obj
 0001:000559a0       ___acrt_locale_initialize_numeric 100569a0 f   libucrt:initnum.obj
 0001:00055c8b       ??$?RU__crt_lc_time_data@@@__crt_internal_free_policy@@QBEXQBU__crt_lc_time_data@@@Z 10056c8b f i libucrt:inittime.obj
 0001:00055d2b       ??0?$__crt_unique_heap_ptr@U__crt_lc_time_data@@U__crt_internal_free_policy@@@@QAE@QAU__crt_lc_time_data@@@Z 10056d2b f i libucrt:inittime.obj
 0001:00055d3f       ??1?$__crt_unique_heap_ptr@U__crt_lc_time_data@@U__crt_internal_free_policy@@@@QAE@XZ 10056d3f f i libucrt:inittime.obj
 0001:00055d55       ??B?$__crt_unique_heap_ptr@U__crt_lc_time_data@@U__crt_internal_free_policy@@@@QBE_NXZ 10056d55 f i libucrt:inittime.obj
 0001:00055d5f       ?detach@?$__crt_unique_heap_ptr@U__crt_lc_time_data@@U__crt_internal_free_policy@@@@QAEPAU__crt_lc_time_data@@XZ 10056d5f f i libucrt:inittime.obj
 0001:00055db0       ?get@?$__crt_unique_heap_ptr@U__crt_lc_time_data@@U__crt_internal_free_policy@@@@QBEPAU__crt_lc_time_data@@XZ 10056db0 f i libucrt:inittime.obj
 0001:00056148       ?is_valid@?$__crt_unique_heap_ptr@U__crt_lc_time_data@@U__crt_internal_free_policy@@@@QBE_NXZ 10057148 f i libucrt:inittime.obj
 0001:00056152       ?release@?$__crt_unique_heap_ptr@U__crt_lc_time_data@@U__crt_internal_free_policy@@@@QAEXXZ 10057152 f i libucrt:inittime.obj
 0001:00056168       ___acrt_locale_free_time   10057168 f   libucrt:inittime.obj
 0001:00056285       ___acrt_locale_initialize_time 10057285 f   libucrt:inittime.obj
 0001:00056423       _wcsncpy_s                 10057423 f   libucrt:wcsncpy_s.obj
 0001:00056430       _wcscspn                   10057430 f   libucrt:wcscspn.obj
 0001:00056494       _wcsncmp                   10057494 f   libucrt:wcsncmp.obj
 0001:000564dc       _wcspbrk                   100574dc f   libucrt:wcspbrk.obj
 0001:00056532       ___acrt_GetStringTypeA     10057532 f   libucrt:getstringtypea.obj
 0001:00056fa6       ___acrt_get_qualified_locale 10057fa6 f   libucrt:get_qualified_locale.obj
 0001:00057b4d       ___acrt_get_qualified_locale_downlevel 10058b4d f   libucrt:getqloc_downlevel.obj
 0001:00057dd5       _localeconv                10058dd5 f   libucrt:localeconv.obj
 0001:00057e09       __wcsnicmp                 10058e09 f   libucrt:wcsnicmp.obj
 0001:00057eef       __wcsnicmp_l               10058eef f   libucrt:wcsnicmp.obj
 0001:00058030       _strncmp                   10059030 f   libucrt:strncmp.obj
 0001:000580c6       __strnicmp                 100590c6 f   libucrt:strnicmp.obj
 0001:0005814d       __strnicmp_l               1005914d f   libucrt:strnicmp.obj
 0001:00058231       ??$__vcrt_va_start_verify_argument_type@$$CBH@@YAXXZ 10059231 f i libucrt:open.obj
 0001:000585e8       ??$tsopen_nolock@PAHABQAHABQBDABHABHABHABH@?$__crt_char_traits@D@@SAH$$QAPAHABQAHABQBDABH333@Z 100595e8 f i libucrt:open.obj
 0001:00058626       ??$tsopen_nolock@PAHABQAHABQB_WABHABHABHABH@?$__crt_char_traits@_W@@SAH$$QAPAHABQAHABQB_WABH333@Z 10059626 f i libucrt:open.obj
 0001:00058664       ??$tsopen_nolock@PAHPAHABQBDABHHABHH@?$__crt_char_traits@D@@SAH$$QAPAH0ABQBDABH$$QAH23@Z 10059664 f i libucrt:open.obj
 0001:000586a2       ??$tsopen_nolock@PAHPAHABQB_WABHHABHH@?$__crt_char_traits@_W@@SAH$$QAPAH0ABQB_WABH$$QAH23@Z 100596a2 f i libucrt:open.obj
 0001:00058e70       __open                     10059e70 f   libucrt:open.obj
 0001:00058e8e       __sopen                    10059e8e f   libucrt:open.obj
 0001:00058ed0       __sopen_dispatch           10059ed0 f   libucrt:open.obj
 0001:00058edd       __sopen_nolock             10059edd f   libucrt:open.obj
 0001:00058f42       __sopen_s                  10059f42 f   libucrt:open.obj
 0001:00058f6a       __wopen                    10059f6a f   libucrt:open.obj
 0001:00058f88       __wsopen                   10059f88 f   libucrt:open.obj
 0001:00058fca       __wsopen_dispatch          10059fca f   libucrt:open.obj
 0001:00058fd7       __wsopen_nolock            10059fd7 f   libucrt:open.obj
 0001:000593ca       __wsopen_s                 1005a3ca f   libucrt:open.obj
 0001:000593f2       ___p__commode              1005a3f2 f   libucrt:ncommode.obj
 0001:000593f8       ___acrt_stdio_allocate_buffer_nolock 1005a3f8 f   libucrt:_getbuf.obj
 0001:0005946c       ??$?RV<lambda_4980db0136e49a56f91ef52c46ca659a>@@AAV<lambda_6e3e78bb6855d1e4040e022c1b427e22>@@V<lambda_9c074eaf62197b4fd0274ed9e7824161>@@@?$__crt_seh_guarded_call@G@@QAEG$$QAV<lambda_4980db0136e49a56f91ef52c46ca659a>@@AAV<lambda_6e3e78bb6855d1e4040e022c1b427e22>@@$$QAV<lambda_9c074eaf62197b4fd0274ed9e7824161>@@@Z 1005a46c f i libucrt:putwch.obj
 0001:000594e1       ??$__acrt_lock_and_call@V<lambda_6e3e78bb6855d1e4040e022c1b427e22>@@@@YAGW4__acrt_lock_id@@$$QAV<lambda_6e3e78bb6855d1e4040e022c1b427e22>@@@Z 1005a4e1 f i libucrt:putwch.obj
 0001:00059579       __putwch                   1005a579 f   libucrt:putwch.obj
 0001:0005959d       __putwch_nolock            1005a59d f   libucrt:putwch.obj
 0001:000595f3       _nextafter                 1005a5f3 f   libucrt:nextafter.obj
 0001:00059619       ??1scoped_global_state_reset@__crt_state_management@@QAE@XZ 1005a619 f i libucrt:qsort.obj
 0001:00059730       _qsort                     1005a730 f   libucrt:qsort.obj
 0001:00059c8d       _strncpy_s                 1005ac8d f   libucrt:strncpy_s.obj
 0001:00059ca0       _strpbrk                   1005aca0 f   libucrt:strpbrk.obj
 0001:00059cf0       __mbsdec                   1005acf0 f   libucrt:mbsdec.obj
 0001:00059d0c       __mbsdec_l                 1005ad0c f   libucrt:mbsdec.obj
 0001:00059dce       __wcsnicoll                1005adce f   libucrt:wcsnicol.obj
 0001:00059ed2       __wcsnicoll_l              1005aed2 f   libucrt:wcsnicol.obj
 0001:0005a04a       __strnicoll                1005b04a f   libucrt:strnicol.obj
 0001:0005a07d       __strnicoll_l              1005b07d f   libucrt:strnicol.obj
 0001:0005a1b8       __msize                    1005b1b8 f   libucrt:msize.obj
 0001:0005a1f7       ___strncnt                 1005b1f7 f   libucrt:strncnt.obj
 0001:0005a353       ___acrt_GetLocaleInfoA     1005b353 f   libucrt:getlocaleinfoa.obj
 0001:0005a571       _fegetenv                  1005b571 f   libucrt:fegetenv.obj
 0001:0005a595       _fesetenv                  1005b595 f   libucrt:fesetenv.obj
 0001:0005a5f0       _feholdexcept              1005b5f0 f   libucrt:feholdexcept.obj
 0001:0005a660       _log10                     1005b660 f   libucrt:log10.obj
 0001:0005a6a0       __CIlog10                  1005b6a0 f   libucrt:log10.obj
 0001:0005a6db       __CIlog10_default          1005b6db f   libucrt:log10.obj
 0001:0005a6ef       __log10_default            1005b6ef     libucrt:log10.obj
 0001:0005a810       _ceil                      1005b810 f   libucrt:ceil_pentium4.obj
 0001:0005a850       __ceil_pentium4            1005b850 f   libucrt:ceil_pentium4.obj
 0001:0005a974       __wcsicmp                  1005b974 f   libucrt:wcsicmp.obj
 0001:0005aa2e       __wcsicmp_l                1005ba2e f   libucrt:wcsicmp.obj
 0001:0005ab46       __towlower_l               1005bb46 f   libucrt:towlower.obj
 0001:0005ac41       _towlower                  1005bc41 f   libucrt:towlower.obj
 0001:0005ac60       ___ascii_strnicmp          1005bc60 f   libucrt:_strnicm.obj
 0001:0005acd9       ??$__crt_interlocked_read@H@@YAHPDH@Z 1005bcd9 f i libucrt:setmode.obj
 0001:0005ace8       __get_fmode                1005bce8 f   libucrt:setmode.obj
 0001:0005ad1f       __set_fmode                1005bd1f f   libucrt:setmode.obj
 0001:0005ad6b       __setmode                  1005bd6b f   libucrt:setmode.obj
 0001:0005aebc       __setmode_nolock           1005bebc f   libucrt:setmode.obj
 0001:0005afc1       ??$?RV<lambda_4cfda81533ccf5a03113a1ca40a30445>@@AAV<lambda_1cffa78e445b1da5fba1a2e0e533226f>@@V<lambda_68c952aa1b860373b2109ef12d0bba9d>@@@?$__crt_seh_guarded_call@H@@QAEH$$QAV<lambda_4cfda81533ccf5a03113a1ca40a30445>@@AAV<lambda_1cffa78e445b1da5fba1a2e0e533226f>@@$$QAV<lambda_68c952aa1b860373b2109ef12d0bba9d>@@@Z 1005bfc1 f i libucrt:chsize.obj
 0001:0005b06b       ??$__acrt_lowio_lock_fh_and_call@V<lambda_1cffa78e445b1da5fba1a2e0e533226f>@@@@YAHH$$QAV<lambda_1cffa78e445b1da5fba1a2e0e533226f>@@@Z 1005c06b f i libucrt:chsize.obj
 0001:0005b14d       __chsize                   1005c14d f   libucrt:chsize.obj
 0001:0005b170       __chsize_nolock            1005c170 f   libucrt:chsize.obj
 0001:0005b365       __chsize_s                 1005c365 f   libucrt:chsize.obj
 0001:0005b426       __umask                    1005c426 f   libucrt:umask.obj
 0001:0005b454       __umask_s                  1005c454 f   libucrt:umask.obj
 0001:0005b49d       ___dcrt_lowio_initialize_console_output 1005c49d f   libucrt:initcon.obj
 0001:0005b4c3       ___dcrt_terminate_console_output 1005c4c3 f   libucrt:initcon.obj
 0001:0005b4df       _nexttoward                1005c4df f   libucrt:nexttoward.obj
 0001:0005b690       ___acrt_CompareStringW     1005c690 f   libucrt:comparestringw.obj
 0001:0005ba64       ___acrt_CompareStringA     1005ca64 f   libucrt:comparestringa.obj
 0001:0005babe       ___acrt_fenv_get_fp_status_word_from_exception_mask 1005cabe f   libucrt:_fenvutils.obj
 0001:0005bf01       __getfpcontrolword         1005cf01 f   libucrt:_fenvutils.obj
 0001:0005bf54       __getfpstatusword          1005cf54 f   libucrt:_fenvutils.obj
 0001:0005c026       __setfpcontrolword         1005d026 f   libucrt:_fenvutils.obj
 0001:0005c0c6       __setfpstatusword          1005d0c6 f   libucrt:_fenvutils.obj
 0001:0005c2fc       ___control87_2             1005d2fc f   libucrt:ieee87.obj
 0001:0005c8d0       ___fpreset_sse2            1005d8d0 f   libucrt:ieee87.obj
 0001:0005cb23       __clearfp                  1005db23 f   libucrt:ieee87.obj
 0001:0005cc38       __control87                1005dc38 f   libucrt:ieee87.obj
 0001:0005cffa       __controlfp                1005dffa f   libucrt:ieee87.obj
 0001:0005d01a       __fpreset                  1005e01a f   libucrt:ieee87.obj
 0001:0005d117       __set_controlfp            1005e117 f   libucrt:ieee87.obj
 0001:0005d1ad       __statusfp                 1005e1ad f   libucrt:ieee87.obj
 0001:0005d270       __statusfp2                1005e270 f   libucrt:ieee87.obj
 0001:0005d2ed       ___acrt_initialize_sse2    1005e2ed f   libucrt:mathfcns.obj
 0001:0005d2ff       __set_SSE2_enable          1005e2ff f   libucrt:mathfcns.obj
 0001:0005d330       __CIlog10_pentium4         1005e330 f   libucrt:log10_pentium4.obj
 0001:0005d348       __log10_pentium4           1005e348     libucrt:log10_pentium4.obj
 0001:0005d681       __fFEXP                    1005e681     libucrt:87tran.obj
 0001:0005d6d8       __rtinfpopse               1005e6d8     libucrt:87tran.obj
 0001:0005d6da       __rtinfnpopse              1005e6da     libucrt:87tran.obj
 0001:0005d6ea       __fFLN                     1005e6ea     libucrt:87tran.obj
 0001:0005d79f       __rtinfpop                 1005e79f     libucrt:87tran.obj
 0001:0005d7a1       __rtinfnpop                1005e7a1     libucrt:87tran.obj
 0001:0005d7be       __ffexpm1                  1005e7be     libucrt:87tran.obj
 0001:0005d8f0       __trandisp1                1005e8f0 f   libucrt:87disp.obj
 0001:0005d957       __trandisp2                1005e957 f   libucrt:87disp.obj
 0001:0005d9e3       __rttospopde               1005e9e3     libucrt:87disp.obj
 0001:0005d9e8       __rttospop                 1005e9e8     libucrt:87disp.obj
 0001:0005d9ea       __rtnospop                 1005e9ea     libucrt:87disp.obj
 0001:0005d9ec       __rttosnpop                1005e9ec     libucrt:87disp.obj
 0001:0005d9ed       __rtnospopde               1005e9ed     libucrt:87disp.obj
 0001:0005d9f4       __rtzeropop                1005e9f4     libucrt:87disp.obj
 0001:0005d9f6       __rtzeronpop               1005e9f6     libucrt:87disp.obj
 0001:0005d9fb       __rtzerospop               1005e9fb     libucrt:87disp.obj
 0001:0005da08       __rtonepop                 1005ea08     libucrt:87disp.obj
 0001:0005da0a       __rtonenpop                1005ea0a     libucrt:87disp.obj
 0001:0005da0f       __tosnan1                  1005ea0f     libucrt:87disp.obj
 0001:0005da3a       __nosnan2                  1005ea3a     libucrt:87disp.obj
 0001:0005da3c       __tosnan2                  1005ea3c     libucrt:87disp.obj
 0001:0005da64       __nan2                     1005ea64     libucrt:87disp.obj
 0001:0005daa3       __rtindfpop                1005eaa3     libucrt:87disp.obj
 0001:0005daa5       __rtindfnpop               1005eaa5     libucrt:87disp.obj
 0001:0005dab6       __rttosnpopde              1005eab6     libucrt:87disp.obj
 0001:0005dac0       __rtatan2inf               1005eac0     libucrt:87disp.obj
 0001:0005dadd       __rtchsifneg               1005eadd     libucrt:87disp.obj
 0001:0005db61       ___setfflag                1005eb61 f   libucrt:fp_flags.obj
 0001:0005db80       __twoToTOS                 1005eb80 f   libucrt:common.obj
 0001:0005db95       __load_CW                  1005eb95 f   libucrt:common.obj
 0001:0005dbac       __convertTOStoQNaN         1005ebac f   libucrt:common.obj
 0001:0005dbc5       __fload_withFB             1005ebc5 f   libucrt:common.obj
 0001:0005dc08       __checkTOS_withFB          1005ec08 f   libucrt:common.obj
 0001:0005dc1e       __fast_exit                1005ec1e f   libucrt:common.obj
 0001:0005dc2b       __math_exit                1005ec2b f   libucrt:common.obj
 0001:0005dc55       __check_overflow_exit      1005ec55 f   libucrt:common.obj
 0001:0005dc69       __check_range_exit         1005ec69 f   libucrt:common.obj
 0001:0005dd70       __startTwoArgErrorHandling 1005ed70 f   libucrt:genexcep.obj
 0001:0005dd87       __startOneArgErrorHandling 1005ed87 f   libucrt:genexcep.obj
 0001:0005ddd7       ___libm_error_support      1005edd7 f   libucrt:libm_error.obj
 0001:0005e075       ___libm_setusermatherr     1005f075 f   libucrt:libm_error.obj
 0001:0005e0ae       __ceil_default             1005f0ae f   libucrt:ceil.obj
 0001:0005e195       ___acrt_LCMapStringW       1005f195 f   libucrt:lcmapstringw.obj
 0001:0005e1e2       ___p__fmode                1005f1e2 f   libucrt:txtmode.obj
 0001:0005e1e8       __d_int                    1005f1e8 f   libucrt:_test.obj
 0001:0005e330       __dtest                    1005f330 f   libucrt:_test.obj
 0001:0005e3ad       __fd_int                   1005f3ad f   libucrt:_test.obj
 0001:0005e4af       __fdtest                   1005f4af f   libucrt:_test.obj
 0001:0005e510       __fperrraise               1005f510 f   libucrt:_test.obj
 0001:0005e53b       __ld_int                   1005f53b f   libucrt:_test.obj
 0001:0005e548       __ldtest                   1005f548 f   libucrt:_test.obj
 0001:0005e5ed       __controlfp_s              1005f5ed f   libucrt:contrlfp.obj
 0001:0005e663       __d_inttype                1005f663 f   libucrt:powhlp.obj
 0001:0005e6e7       __powhlp                   1005f6e7 f   libucrt:powhlp.obj
 0001:0005e85c       __87except                 1005f85c f   libucrt:87except.obj
 0001:0005e9a9       __frnd                     1005f9a9 f   libucrt:frnd.obj
 0001:0005e9c4       _fegetexceptflag           1005f9c4 f   libucrt:fegetexceptflag.obj
 0001:0005ea01       _fesetexceptflag           1005fa01 f   libucrt:fesetexceptflag.obj
 0001:0005ea62       _fetestexcept              1005fa62 f   libucrt:fetestexcept.obj
 0001:0005ea90       __FindPESection            1005fa90 f   LIBCMT:pesect.obj
 0001:0005eaf0       __IsNonwritableInCurrentImage 1005faf0 f   LIBCMT:pesect.obj
 0001:0005ebe0       __ValidateImageBase        1005fbe0 f   LIBCMT:pesect.obj
 0001:0005ec20       __aulldvrm                 1005fc20 f   LIBCMT:ulldvrm.obj
 0001:0005ecda       ??1type_info@@UAE@XZ       1005fcda f   LIBCMT:std_type_info_static.obj
 0001:0005ece1       ??_Gtype_info@@UAEPAXI@Z   1005fce1 f i LIBCMT:std_type_info_static.obj
 0001:0005ece1       ??_Etype_info@@UAEPAXI@Z   1005fce1 f i LIBCMT:std_type_info_static.obj
 0001:0005ed10       __SEH_prolog4_GS           1005fd10 f   LIBCMT:_sehprolg4gs_.obj
 0001:0005ed59       __SEH_epilog4_GS           1005fd59 f   LIBCMT:_sehprolg4gs_.obj
 0001:0005ed80       __allmul                   1005fd80 f   LIBCMT:llmul.obj
 0001:0005edd0       __alldvrm                  1005fdd0 f   LIBCMT:lldvrm.obj
 0001:0005eef0       __aullshr                  1005fef0 f   LIBCMT:ullshr.obj
 0001:0005ef20       __alloca_probe             1005ff20 f   LIBCMT:chkstk.obj
 0001:0005ef20       __chkstk                   1005ff20 f   LIBCMT:chkstk.obj
 0001:0005ef60       __alloca_probe_16          1005ff60 f   LIBCMT:alloca16.obj
 0001:0005ef76       __alloca_probe_8           1005ff76     LIBCMT:alloca16.obj
 0001:0005efa0       __allshl                   1005ffa0 f   LIBCMT:llshl.obj
 0001:0005efd0       __ftol2_sse                1005ffd0 f   LIBCMT:_ftol2_.obj
 0001:0005efd9       __ftol2_pentium4           1005ffd9 f   LIBCMT:_ftol2_.obj
 0001:0005efec       __ftol2_sse_excpt          1005ffec f   LIBCMT:_ftol2_.obj
 0001:0005f010       __ftol2                    10060010 f   LIBCMT:_ftol2_.obj
 0001:0005f0b2       __initialize_default_precision 100600b2 f   LIBCMT:default_precision.obj
 0001:0005f0db       ??3@YAXPAXI@Z              100600db f   LIBCMT:delete_scalar_size.obj
 0001:0005f0ec       ??3@YAXPAX@Z               100600ec f   LIBCMT:delete_scalar.obj
 0001:0005f0f2       _InterlockedPushEntrySList@8 100600f2 f   kernel32:KERNEL32.dll
 0001:0005f0f8       _InterlockedFlushSList@4   100600f8 f   kernel32:KERNEL32.dll
 0001:0005f0fe       _RtlUnwind@16              100600fe f   kernel32:KERNEL32.dll
 0001:0005f104       _GetLastError@0            10060104 f   kernel32:KERNEL32.dll
 0001:0005f10a       _SetLastError@4            1006010a f   kernel32:KERNEL32.dll
 0001:0005f110       _EnterCriticalSection@4    10060110 f   kernel32:KERNEL32.dll
 0001:0005f116       _LeaveCriticalSection@4    10060116 f   kernel32:KERNEL32.dll
 0001:0005f11c       _DeleteCriticalSection@4   1006011c f   kernel32:KERNEL32.dll
 0001:0005f122       _InitializeCriticalSectionAndSpinCount@8 10060122 f   kernel32:KERNEL32.dll
 0001:0005f128       _TlsAlloc@0                10060128 f   kernel32:KERNEL32.dll
 0001:0005f12e       _TlsGetValue@4             1006012e f   kernel32:KERNEL32.dll
 0001:0005f134       _TlsSetValue@8             10060134 f   kernel32:KERNEL32.dll
 0001:0005f13a       _TlsFree@4                 1006013a f   kernel32:KERNEL32.dll
 0001:0005f140       _FreeLibrary@4             10060140 f   kernel32:KERNEL32.dll
 0001:0005f146       _LoadLibraryExW@12         10060146 f   kernel32:KERNEL32.dll
 0001:0005f14c       _GetStdHandle@4            1006014c f   kernel32:KERNEL32.dll
 0001:0005f152       _GetFileType@4             10060152 f   kernel32:KERNEL32.dll
 0001:0005f158       _GetModuleFileNameA@12     10060158 f   kernel32:KERNEL32.dll
 0001:0005f15e       _GetModuleFileNameW@12     1006015e f   kernel32:KERNEL32.dll
 0001:0005f164       _GetModuleHandleExW@12     10060164 f   kernel32:KERNEL32.dll
 0001:0005f16a       _WriteConsoleW@20          1006016a f   kernel32:KERNEL32.dll
 0001:0005f170       _ExitProcess@4             10060170 f   kernel32:KERNEL32.dll
 0001:0005f176       _RaiseException@16         10060176 f   kernel32:KERNEL32.dll
 0001:0005f17c       _MultiByteToWideChar@24    1006017c f   kernel32:KERNEL32.dll
 0001:0005f182       _WideCharToMultiByte@32    10060182 f   kernel32:KERNEL32.dll
 0001:0005f188       _HeapFree@12               10060188 f   kernel32:KERNEL32.dll
 0001:0005f18e       _HeapAlloc@12              1006018e f   kernel32:KERNEL32.dll
 0001:0005f194       _GetDateFormatW@24         10060194 f   kernel32:KERNEL32.dll
 0001:0005f19a       _GetTimeFormatW@24         1006019a f   kernel32:KERNEL32.dll
 0001:0005f1a0       _CompareStringW@24         100601a0 f   kernel32:KERNEL32.dll
 0001:0005f1a6       _LCMapStringW@24           100601a6 f   kernel32:KERNEL32.dll
 0001:0005f1ac       _GetLocaleInfoW@16         100601ac f   kernel32:KERNEL32.dll
 0001:0005f1b2       _IsValidLocale@8           100601b2 f   kernel32:KERNEL32.dll
 0001:0005f1b8       _GetUserDefaultLCID@0      100601b8 f   kernel32:KERNEL32.dll
 0001:0005f1be       _EnumSystemLocalesW@8      100601be f   kernel32:KERNEL32.dll
 0001:0005f1c4       _GetCurrentThread@0        100601c4 f   kernel32:KERNEL32.dll
 0001:0005f1ca       _GetACP@0                  100601ca f   kernel32:KERNEL32.dll
 0001:0005f1d0       _WriteFile@20              100601d0 f   kernel32:KERNEL32.dll
 0001:0005f1d6       _OutputDebugStringA@4      100601d6 f   kernel32:KERNEL32.dll
 0001:0005f1dc       _OutputDebugStringW@4      100601dc f   kernel32:KERNEL32.dll
 0001:0005f1e2       _CloseHandle@4             100601e2 f   kernel32:KERNEL32.dll
 0001:0005f1e8       _WaitForSingleObjectEx@12  100601e8 f   kernel32:KERNEL32.dll
 0001:0005f1ee       _CreateThread@24           100601ee f   kernel32:KERNEL32.dll
 0001:0005f1f4       _SetConsoleCtrlHandler@8   100601f4 f   kernel32:KERNEL32.dll
 0001:0005f1fa       _HeapReAlloc@16            100601fa f   kernel32:KERNEL32.dll
 0001:0005f200       _ReadFile@20               10060200 f   kernel32:KERNEL32.dll
 0001:0005f206       _GetConsoleMode@8          10060206 f   kernel32:KERNEL32.dll
 0001:0005f20c       _ReadConsoleW@20           1006020c f   kernel32:KERNEL32.dll
 0001:0005f212       _GetConsoleCP@0            10060212 f   kernel32:KERNEL32.dll
 0001:0005f218       _DeleteFileW@4             10060218 f   kernel32:KERNEL32.dll
 0001:0005f21e       _SetFilePointerEx@20       1006021e f   kernel32:KERNEL32.dll
 0001:0005f224       _FindClose@4               10060224 f   kernel32:KERNEL32.dll
 0001:0005f22a       _FindFirstFileExA@24       1006022a f   kernel32:KERNEL32.dll
 0001:0005f230       _FindFirstFileExW@24       10060230 f   kernel32:KERNEL32.dll
 0001:0005f236       _FindNextFileA@8           10060236 f   kernel32:KERNEL32.dll
 0001:0005f23c       _FindNextFileW@8           1006023c f   kernel32:KERNEL32.dll
 0001:0005f242       _IsValidCodePage@4         10060242 f   kernel32:KERNEL32.dll
 0001:0005f248       _GetOEMCP@0                10060248 f   kernel32:KERNEL32.dll
 0001:0005f24e       _GetCPInfo@8               1006024e f   kernel32:KERNEL32.dll
 0001:0005f254       _GetCommandLineA@0         10060254 f   kernel32:KERNEL32.dll
 0001:0005f25a       _GetCommandLineW@0         1006025a f   kernel32:KERNEL32.dll
 0001:0005f260       _GetEnvironmentStringsW@0  10060260 f   kernel32:KERNEL32.dll
 0001:0005f266       _FreeEnvironmentStringsW@4 10060266 f   kernel32:KERNEL32.dll
 0001:0005f26c       _SetEnvironmentVariableA@8 1006026c f   kernel32:KERNEL32.dll
 0001:0005f272       _SetEnvironmentVariableW@8 10060272 f   kernel32:KERNEL32.dll
 0001:0005f278       _GetProcessHeap@0          10060278 f   kernel32:KERNEL32.dll
 0001:0005f27e       _GetStringTypeW@16         1006027e f   kernel32:KERNEL32.dll
 0001:0005f284       _FlushFileBuffers@4        10060284 f   kernel32:KERNEL32.dll
 0001:0005f28a       _SetStdHandle@8            1006028a f   kernel32:KERNEL32.dll
 0001:0005f290       _CreateFileW@28            10060290 f   kernel32:KERNEL32.dll
 0001:0005f296       _HeapSize@12               10060296 f   kernel32:KERNEL32.dll
 0001:0005f29c       _SetEndOfFile@4            1006029c f   kernel32:KERNEL32.dll
 0001:0005f2a2       _EncodePointer@4           100602a2 f   kernel32:KERNEL32.dll
 0001:0005f2a8       _DecodePointer@4           100602a8 f   kernel32:KERNEL32.dll
 0001:0005f2b0       _strrchr                   100602b0 f   libvcruntime:strrchr.obj
 0001:0005f597       _memcmp                    10060597 f   libvcruntime:_memcmp_.obj
 0001:0006307f       _wcschr                    1006407f f   libvcruntime:wcschr.obj
 0002:00000000       ___xc_a                    10065000     LIBCMT:initializers.obj
 0002:00000104       ___xc_z                    10065104     LIBCMT:initializers.obj
 0002:00000208       ___xi_a                    10065208     LIBCMT:initializers.obj
 0002:0000030c       ___acrt_stdio_initializer  1006530c     libucrt:stdio_initializer.obj
 0002:00000310       ___acrt_multibyte_initializer 10065310     libucrt:multibyte_initializer.obj
 0002:00000314       ___acrt_tran_sse2_initializer 10065314     libucrt:sse2_initializer.obj
 0002:0000041c       ___xi_z                    1006541c     LIBCMT:initializers.obj
 0002:00000520       ___xp_a                    10065520     LIBCMT:initializers.obj
 0002:00000624       ___acrt_locale_terminator  10065624     libucrt:locale_initializer.obj
 0002:00000628       ___dcrt_console_output_terminator 10065628     libucrt:console_output_initializer.obj
 0002:00000730       ___acrt_stdio_terminator   10065730     libucrt:stdio_initializer.obj
 0002:00000834       ___xp_z                    10065834     LIBCMT:initializers.obj
 0002:00000938       ___xt_a                    10065938     LIBCMT:initializers.obj
 0002:00000a3c       ___xt_z                    10065a3c     LIBCMT:initializers.obj
 0002:00000b40       ??_C@_08INHBMDAJ@Setpoint?$AA@ 10065b40     dc_motor_encoder_hardware_simulated.obj
 0002:00000b4c       ??_C@_0N@HEKJLKAN@Error?5Signal?$AA@ 10065b4c     dc_motor_encoder_hardware_simulated.obj
 0002:00000b5c       ??_C@_0P@HGGDJAMI@Motor?5Position?$AA@ 10065b5c     dc_motor_encoder_hardware_simulated.obj
 0002:00000b70       ??_C@_0DB@PDLLCKGK@dc_motor_encoder_hardware_simula@ 10065b70     dc_motor_encoder_hardware_simulated.obj
 0002:00000bac       ??_C@_0DE@MGCIIPFO@dc_motor_encoder_hardware_simula@ 10065bac     dc_motor_encoder_hardware_simulated.obj
 0002:00000bec       ??_C@_0DB@PNLHGEHI@dc_motor_encoder_hardware_simula@ 10065bec     dc_motor_encoder_hardware_simulated.obj
 0002:00000c28       _dc_motor_encoder_hardware_simulated_M 10065c28     dc_motor_encoder_hardware_simulated.obj
 0002:00000ca4       ??_C@_0BI@PEBACBDB@Error?5creating?5scope?53?6?$AA@ 10065ca4     dc_motor_encoder_hardware_simulated.obj
 0002:00000cc0       ??_C@_07PFAGFFFO@Gain?1s1?$AA@ 10065cc0     dc_motor_encoder_hardware_simulated.obj
 0002:00000ccc       ??_C@_07NOCLAGJN@Gain?1s2?$AA@ 10065ccc     dc_motor_encoder_hardware_simulated.obj
 0002:00000cd8       ??_C@_07MHDADHNM@Gain?1s3?$AA@ 10065cd8     dc_motor_encoder_hardware_simulated.obj
 0002:00000ce4       ??_C@_0BG@HCGNMBDA@Setpoint?5?5?5?5?5?5?5?5?$CF3?42f?$AA@ 10065ce4     dc_motor_encoder_hardware_simulated.obj
 0002:00000d00       ??_C@_0BG@KBNMBNLJ@Motor?5Position?5?5?$CF3?42f?$AA@ 10065d00     dc_motor_encoder_hardware_simulated.obj
 0002:00000d1c       ??_C@_0BG@OKNLFNOK@Error?5Signal?5?5?5?5?$CF3?42f?$AA@ 10065d1c     dc_motor_encoder_hardware_simulated.obj
 0002:00000d38       ??_C@_0BI@PFNCELAG@Error?5creating?5scope?52?6?$AA@ 10065d38     dc_motor_encoder_hardware_simulated.obj
 0002:00000d54       ??_C@_04JMNNLCJG@Sum1?$AA@ 10065d54     dc_motor_encoder_hardware_simulated.obj
 0002:00000d5c       ??_C@_0BI@PDBJIJON@Error?5creating?5scope?57?6?$AA@ 10065d5c     dc_motor_encoder_hardware_simulated.obj
 0002:00000d78       ??_C@_0BF@IJDKOOBM@switching?5logic?1Sum2?$AA@ 10065d78     dc_motor_encoder_hardware_simulated.obj
 0002:00000d94       ??_C@_0BI@PHJEPFFP@Error?5creating?5scope?51?6?$AA@ 10065d94     dc_motor_encoder_hardware_simulated.obj
 0002:00000db0       ??_C@_04CNCNIFFP@gain?$AA@ 10065db0     dc_motor_encoder_hardware_simulated.obj
 0002:00000db8       ??_C@_04CMIMOENB@ode3?$AA@ 10065db8     dc_motor_encoder_hardware_simulated.obj
 0002:00000dc0       ??_C@_04EPKDLPPB@tout?$AA@ 10065dc0     dc_motor_encoder_hardware_simulated.obj
 0002:00000dc6       ??_C@_00CNPNBAHC@?$AA@     10065dc6     dc_motor_encoder_hardware_simulated.obj
 0002:00000dc8       ??_C@_03HBFGMJOD@rt_?$AA@  10065dc8     dc_motor_encoder_hardware_simulated.obj
 0002:00000dcc       ??_C@_04LHDDHLEA@yout?$AA@ 10065dcc     dc_motor_encoder_hardware_simulated.obj
 0002:00000dd4       ??_C@_0BO@FGDALDHL@Channel?50?5of?5?6Encoder?5Inputs?5?$AA@ 10065dd4     dc_motor_encoder_hardware_simulated.obj
 0002:00000df8       ??_C@_0EN@IKJJKIPM@dc_motor_encoder_hardware_simula@ 10065df8     dc_motor_encoder_hardware_simulated.obj
 0002:00000e54       ??_C@_0DH@LFMGCAGH@Channel?50?5?9Control?5signal?5to?5?6mo@ 10065e54     dc_motor_encoder_hardware_simulated.obj
 0002:00000e98       ??_C@_0GG@BIKDCAA@dc_motor_encoder_hardware_simula@ 10065e98     dc_motor_encoder_hardware_simulated.obj
 0002:00000f18       __real@3f50624dd2f1a9fc    10065f18     dc_motor_encoder_hardware_simulated.obj
 0002:00000f28       __real@3fcc71c71c71c71c    10065f28     dc_motor_encoder_hardware_simulated.obj
 0002:00000f38       __real@3fd5555555555555    10065f38     dc_motor_encoder_hardware_simulated.obj
 0002:00000f48       __real@3fdc71c71c71c71c    10065f48     dc_motor_encoder_hardware_simulated.obj
 0002:00000f58       __real@3fe0000000000000    10065f58     dc_motor_encoder_hardware_simulated.obj
 0002:00000f68       __real@3fe8000000000000    10065f68     dc_motor_encoder_hardware_simulated.obj
 0002:00000f78       __real@3ff0000000000000    10065f78     dc_motor_encoder_hardware_simulated.obj
 0002:00000f88       __real@4008000000000000    10065f88     dc_motor_encoder_hardware_simulated.obj
 0002:00000f98       __real@4024000000000000    10065f98     dc_motor_encoder_hardware_simulated.obj
 0002:00000fa8       __real@4065400000000000    10065fa8     dc_motor_encoder_hardware_simulated.obj
 0002:00000fb8       __real@4066800000000000    10065fb8     dc_motor_encoder_hardware_simulated.obj
 0002:00000fc8       __real@4069000000000000    10065fc8     dc_motor_encoder_hardware_simulated.obj
 0002:00000fd8       __real@407f400000000000    10065fd8     dc_motor_encoder_hardware_simulated.obj
 0002:00000fe8       __real@41f0000000000000    10065fe8     dc_motor_encoder_hardware_simulated.obj
 0002:00000ff8       __real@bff0000000000000    10065ff8     dc_motor_encoder_hardware_simulated.obj
 0002:00001008       __real@c066800000000000    10066008     dc_motor_encoder_hardware_simulated.obj
 0002:00001020       __xmm@00000054000000200000002f00000002 10066020     dc_motor_encoder_hardware_simulated.obj
 0002:00001040       __xmm@3f50624dd2f1a9fc0000000000000000 10066040     dc_motor_encoder_hardware_simulated.obj
 0002:00001060       __xmm@41f00000000000000000000000000000 10066060     dc_motor_encoder_hardware_simulated.obj
 0002:00001080       __xmm@7fffffffffffffff7fffffffffffffff 10066080     dc_motor_encoder_hardware_simulated.obj
 0002:00001098       __real@3cb0000000000000    10066098     rt_matrx.obj
 0002:00001a24       ??_C@_03LCFCCKMA@Abs?$AA@  10066a24     dc_motor_encoder_hardware_simulated_capi.obj
 0002:00001a28       ??_C@_0M@BBMKJJKL@Derivative1?$AA@ 10066a28     dc_motor_encoder_hardware_simulated_capi.obj
 0002:00001a38       ??_C@_04OMOMKKFL@Gain?$AA@ 10066a38     dc_motor_encoder_hardware_simulated_capi.obj
 0002:00001a40       ??_C@_02HNOAOKGP@Kd?$AA@   10066a40     dc_motor_encoder_hardware_simulated_capi.obj
 0002:00001a44       ??_C@_02MIEOJECC@Ki?$AA@   10066a44     dc_motor_encoder_hardware_simulated_capi.obj
 0002:00001a48       ??_C@_02FDEODNDK@Kp?$AA@   10066a48     dc_motor_encoder_hardware_simulated_capi.obj
 0002:00001a4c       ??_C@_0M@FOFKEGEP@Integrator1?$AA@ 10066a4c     dc_motor_encoder_hardware_simulated_capi.obj
 0002:00001a5c       ??_C@_05DIANJFID@Merge?$AA@ 10066a5c     dc_motor_encoder_hardware_simulated_capi.obj
 0002:00001a64       ??_C@_04OBKKEGND@Sum4?$AA@ 10066a64     dc_motor_encoder_hardware_simulated_capi.obj
 0002:00001a6c       ??_C@_0BI@PCCEFFPK@If?5Action?5Subsystem?1In1?$AA@ 10066a6c     dc_motor_encoder_hardware_simulated_capi.obj
 0002:00001a88       ??_C@_0BJ@OOGMCHOJ@If?5Action?5Subsystem1?1In1?$AA@ 10066a88     dc_motor_encoder_hardware_simulated_capi.obj
 0002:00001aa8       ??_C@_0EN@BAAEGADN@Real?5motor?1angular_position?5?$DN?5?5?$FL@ 10066aa8     dc_motor_encoder_hardware_simulated_capi.obj
 0002:00001b04       ??_C@_0BG@IEJBBPNL@Real?5motor?1Saturation?$AA@ 10066b04     dc_motor_encoder_hardware_simulated_capi.obj
 0002:00001b20       ??_C@_0CJ@GBFCCONM@Real?5motor?1Channel?50?5of?5?5Encoder@ 10066b20     dc_motor_encoder_hardware_simulated_capi.obj
 0002:00001b54       ??_C@_0BN@JFKEALAE@Simulated?5motor?1Back?5emf?5Ke1?$AA@ 10066b54     dc_motor_encoder_hardware_simulated_capi.obj
 0002:00001b78       ??_C@_0BL@JFAIANOE@Simulated?5motor?1Damping?5b1?$AA@ 10066b78     dc_motor_encoder_hardware_simulated_capi.obj
 0002:00001b98       ??_C@_0BJ@JADIAMI@Simulated?5motor?1Gain?5Kt2?$AA@ 10066b98     dc_motor_encoder_hardware_simulated_capi.obj
 0002:00001bb8       ??_C@_0BJ@BABILBIJ@Simulated?5motor?1Gain?5Kt3?$AA@ 10066bb8     dc_motor_encoder_hardware_simulated_capi.obj
 0002:00001bd8       ??_C@_0BL@GGHHPFCL@Simulated?5motor?1Inductance?$AA@ 10066bd8     dc_motor_encoder_hardware_simulated_capi.obj
 0002:00001bf8       ??_C@_0BO@KPGEGBOH@Simulated?5motor?1Resistance?5R1?$AA@ 10066bf8     dc_motor_encoder_hardware_simulated_capi.obj
 0002:00001c1c       ??_C@_0BM@HPJMPEDA@Simulated?5motor?1Integrator1?$AA@ 10066c1c     dc_motor_encoder_hardware_simulated_capi.obj
 0002:00001c40       ??_C@_0BM@BLPADBDE@Simulated?5motor?1Integrator5?$AA@ 10066c40     dc_motor_encoder_hardware_simulated_capi.obj
 0002:00001c64       ??_C@_0BM@DANNGCPH@Simulated?5motor?1Integrator6?$AA@ 10066c64     dc_motor_encoder_hardware_simulated_capi.obj
 0002:00001c88       ??_C@_0BF@MILJHLKE@Simulated?5motor?1Sum1?$AA@ 10066c88     dc_motor_encoder_hardware_simulated_capi.obj
 0002:00001ca4       ??_C@_0BF@ODJECIGH@Simulated?5motor?1Sum2?$AA@ 10066ca4     dc_motor_encoder_hardware_simulated_capi.obj
 0002:00001cc0       ??_C@_0DA@JPBADGKG@input?5side?5switching?5logic?1compl@ 10066cc0     dc_motor_encoder_hardware_simulated_capi.obj
 0002:00001cfc       ??_C@_0CD@MBHAIBOH@input?5side?5switching?5logic?1Produ@ 10066cfc     dc_motor_encoder_hardware_simulated_capi.obj
 0002:00001d28       ??_C@_0CE@PIPCAAOI@input?5side?5switching?5logic?1Produ@ 10066d28     dc_motor_encoder_hardware_simulated_capi.obj
 0002:00001d54       ??_C@_0CG@LEACHJAL@switching?5logic?1complement?5the?5i@ 10066d54     dc_motor_encoder_hardware_simulated_capi.obj
 0002:00001d84       ??_C@_0BJ@NAFHJMMA@switching?5logic?1Product2?$AA@ 10066d84     dc_motor_encoder_hardware_simulated_capi.obj
 0002:00001da4       ??_C@_0BJ@MJEMKNIB@switching?5logic?1Product3?$AA@ 10066da4     dc_motor_encoder_hardware_simulated_capi.obj
 0002:00001dc4       ??_C@_0CL@DBFIMAMP@1?5?9?5Use?5simulated?5motor?50?5?9?5Use?5@ 10066dc4     dc_motor_encoder_hardware_simulated_capi.obj
 0002:00001df8       ??_C@_05LPIJGKJ@Value?$AA@ 10066df8     dc_motor_encoder_hardware_simulated_capi.obj
 0002:00001e00       ??_C@_08CHMPKCOC@Constant?$AA@ 10066e00     dc_motor_encoder_hardware_simulated_capi.obj
 0002:00001e0c       ??_C@_06DGFMLKGB@Degree?$AA@ 10066e0c     dc_motor_encoder_hardware_simulated_capi.obj
 0002:00001e14       ??_C@_0BB@CFEOEMDC@InitialCondition?$AA@ 10066e14     dc_motor_encoder_hardware_simulated_capi.obj
 0002:00001e28       ??_C@_0L@FBCGKKEN@UpperLimit?$AA@ 10066e28     dc_motor_encoder_hardware_simulated_capi.obj
 0002:00001e38       ??_C@_0L@DGFJOHKP@LowerLimit?$AA@ 10066e38     dc_motor_encoder_hardware_simulated_capi.obj
 0002:00001e48       ??_C@_0EC@LJCFPBCG@Real?5motor?1Channel?50?5?9Control?5si@ 10066e48     dc_motor_encoder_hardware_simulated_capi.obj
 0002:00001e98       ??_C@_02KKFPAPOP@P1?$AA@   10066e98     dc_motor_encoder_hardware_simulated_capi.obj
 0002:00001e9c       ??_C@_02IBHCFMCM@P2?$AA@   10066e9c     dc_motor_encoder_hardware_simulated_capi.obj
 0002:00001ea0       ??_C@_02JIGJGNGN@P3?$AA@   10066ea0     dc_motor_encoder_hardware_simulated_capi.obj
 0002:00001ea4       ??_C@_02NHCIPLKK@P4?$AA@   10066ea4     dc_motor_encoder_hardware_simulated_capi.obj
 0002:00001ea8       ??_C@_02MODDMKOL@P5?$AA@   10066ea8     dc_motor_encoder_hardware_simulated_capi.obj
 0002:00001eac       ??_C@_02OFBOJJCI@P6?$AA@   10066eac     dc_motor_encoder_hardware_simulated_capi.obj
 0002:00001eb0       ??_C@_02PMAFKIGJ@P7?$AA@   10066eb0     dc_motor_encoder_hardware_simulated_capi.obj
 0002:00001eb4       ??_C@_02HLJNLEKG@P8?$AA@   10066eb4     dc_motor_encoder_hardware_simulated_capi.obj
 0002:00001eb8       ??_C@_02GCIGIFOH@P9?$AA@   10066eb8     dc_motor_encoder_hardware_simulated_capi.obj
 0002:00001ebc       ??_C@_03OPFJJGBF@P10?$AA@  10066ebc     dc_motor_encoder_hardware_simulated_capi.obj
 0002:00001ec0       ??_C@_03PGECKHFE@P11?$AA@  10066ec0     dc_motor_encoder_hardware_simulated_capi.obj
 0002:00001ec4       ??_C@_03NNGPPEJH@P12?$AA@  10066ec4     dc_motor_encoder_hardware_simulated_capi.obj
 0002:00001ec8       ??_C@_06BNJCAIGJ@double?$AA@ 10066ec8     dc_motor_encoder_hardware_simulated_capi.obj
 0002:00001ed0       ??_C@_06CNMIJIPB@real_T?$AA@ 10066ed0     dc_motor_encoder_hardware_simulated_capi.obj
 0002:00001ed8       ??_C@_0O@PPAIJIHF@unsigned?5char?$AA@ 10066ed8     dc_motor_encoder_hardware_simulated_capi.obj
 0002:00001ee8       ??_C@_09JBMFCIMO@boolean_T?$AA@ 10066ee8     dc_motor_encoder_hardware_simulated_capi.obj
 0002:00001ef4       ??_C@_05KNFBNCOH@float?$AA@ 10066ef4     dc_motor_encoder_hardware_simulated_capi.obj
 0002:00001efc       _serialfifoground          10066efc     xpc_datatype_ground.obj
 0002:00001f08       _bcmsg1553ground           10066f08     xpc_datatype_ground.obj
 0002:00001f18       _bcstatground              10066f18     xpc_datatype_ground.obj
 0002:00001f30       _bmmsg1553ground           10066f30     xpc_datatype_ground.obj
 0002:00001f6c       ??_C@_0BI@INNPNFJN@Memory?5Allocation?5Error?$AA@ 10066f6c     rtw_modelmap_utils.obj
 0002:00001f88       ??_C@_1HC@IFMGIDHA@?$AAC?$AA?3?$AA?2?$AAP?$AAR?$AAO?$AAG?$AAR?$AAA?$AA?$HO?$AA1?$AA?2?$AAM?$AAA?$AAT?$AAL?$AAA?$AAB?$AA?2?$AAR?$AA2?$AA0?$AA1?$AA7?$AAa?$AA?2?$AAr?$AAt?$AAw?$AA?2?$AAc?$AA?2@ 10066f88     rtw_modelmap_utils.obj
 0002:00002010       ??_C@_1CI@OEAJCJND@?$AAj?$AA?5?$AA?$DN?$AA?$DN?$AA?5?$AAe?$AAn?$AAc?$AAo?$AAd?$AAe?$AAd?$AAP?$AAa?$AAt?$AAh?$AAL?$AAe?$AAn?$AA?$AA@ 10067010     rtw_modelmap_utils.obj
 0002:00002040       ??_C@_1DC@NFAOIFKB@?$AAe?$AAn?$AAc?$AAo?$AAd?$AAe?$AAd?$AAP?$AAa?$AAt?$AAh?$AA?$FL?$AAj?$AA?9?$AA1?$AA?$FN?$AA?5?$AA?$DN?$AA?$DN?$AA?5?$AA?8?$AA?2?$AA0?$AA?8?$AA?$AA@ 10067040     rtw_modelmap_utils.obj
 0002:0000207c       ??_C@_1DI@FLNJGPEE@?$AAs?$AAi?$AAg?$AAC?$AAo?$AAm?$AAp?$AAl?$AAe?$AAx?$AAi?$AAt?$AAy?$AA?$FL?$AA?$CK?$AAs?$AAi?$AAg?$AAI?$AAd?$AAx?$AA?$FN?$AA?5?$AA?$CB?$AA?$DN?$AA?5?$AA1?$AA?$AA@ 1006707c     rtw_modelmap_utils.obj
 0002:000020c0       ??_C@_1KI@OFELMGBG@?$AA?$CI?$AA?$CI?$AA?$CI?$AAd?$AAa?$AAt?$AAa?$AAT?$AAy?$AAp?$AAe?$AAM?$AAa?$AAp?$AA?$CJ?$AA?$FL?$AA?$CI?$AA?$CI?$AA?$CI?$AAs?$AAt?$AAa?$AAt?$AAe?$AAs?$AA?$CJ?$AA?$FL?$AA?$CI?$AAi?$AA?$CJ?$AA?$FN?$AA?4@ 100670c0     rtw_modelmap_utils.obj
 0002:0000218c       ??_C@_1DA@ILCMPHNE@?$AAf?$AAu?$AAl?$AAl?$AAP?$AAa?$AAt?$AAh?$AA?5?$AA?$CB?$AA?$DN?$AA?5?$AA?$CI?$AA?$CI?$AAv?$AAo?$AAi?$AAd?$AA?5?$AA?$CK?$AA?$CJ?$AA0?$AA?$CJ?$AA?$AA@ 1006718c     rtw_modelmap_utils.obj
 0002:000021c8       ??_C@_1CI@OEPPFCCA@?$AAp?$AAa?$AAt?$AAh?$AA?5?$AA?$CB?$AA?$DN?$AA?5?$AA?$CI?$AA?$CI?$AAv?$AAo?$AAi?$AAd?$AA?5?$AA?$CK?$AA?$CJ?$AA0?$AA?$CJ?$AA?$AA@ 100671c8     rtw_modelmap_utils.obj
 0002:000021f8       ??_C@_1FK@GLJIMFHB@?$AA?$CI?$AA?$CI?$AAm?$AAm?$AAi?$AA?$CJ?$AA?9?$AA?$DO?$AAI?$AAn?$AAs?$AAt?$AAa?$AAn?$AAc?$AAe?$AAM?$AAa?$AAp?$AA?4?$AAf?$AAu?$AAl?$AAl?$AAP?$AAa?$AAt?$AAh?$AA?$CJ?$AA?5?$AA?$DN?$AA?$DN@ 100671f8     rtw_modelmap_utils.obj
 0002:00002264       ??_C@_1DG@HPCJGNCE@?$AAm?$AAm?$AAi?$AAP?$AAa?$AAt?$AAh?$AA?$FL?$AAp?$AAa?$AAt?$AAh?$AAL?$AAe?$AAn?$AA?9?$AA1?$AA?$FN?$AA?5?$AA?$DN?$AA?$DN?$AA?5?$AA?8?$AA?2?$AA0?$AA?8?$AA?$AA@ 10067264     rtw_modelmap_utils.obj
 0002:000022a4       ??_C@_1DM@DBAOGGOO@?$AAm?$AAm?$AAi?$AAP?$AAa?$AAt?$AAh?$AA?$FL?$AAm?$AAm?$AAi?$AAP?$AAa?$AAt?$AAh?$AAL?$AAe?$AAn?$AA?9?$AA1?$AA?$FN?$AA?5?$AA?$DN?$AA?$DN?$AA?5?$AA?8?$AA?2?$AA0?$AA?8?$AA?$AA@ 100672a4     rtw_modelmap_utils.obj
 0002:000022ec       ??_C@_1DC@LHIAKAFE@?$AAb?$AAl?$AAo?$AAc?$AAk?$AAP?$AAa?$AAt?$AAh?$AA?5?$AA?$CB?$AA?$DN?$AA?5?$AA?$CI?$AA?$CI?$AAv?$AAo?$AAi?$AAd?$AA?5?$AA?$CK?$AA?$CJ?$AA0?$AA?$CJ?$AA?$AA@ 100672ec     rtw_modelmap_utils.obj
 0002:00002328       ??_C@_1GI@KIEJKPGC@?$AAf?$AAu?$AAl?$AAl?$AAS?$AAt?$AAa?$AAt?$AAe?$AAB?$AAl?$AAo?$AAc?$AAk?$AAP?$AAa?$AAt?$AAh?$AA?$FL?$AAf?$AAu?$AAl?$AAl?$AAS?$AAt?$AAa?$AAt?$AAe?$AAB?$AAl?$AAo?$AAc@ 10067328     rtw_modelmap_utils.obj
 0002:000023a8       ??_C@_1EE@DNPIBJHC@?$AA?$CI?$AA?$CI?$AAd?$AAi?$AAm?$AAM?$AAa?$AAp?$AA?$CJ?$AA?$FL?$AA?$CI?$AAm?$AAa?$AAp?$AAI?$AAd?$AAx?$AA?$CJ?$AA?$FN?$AA?4?$AAn?$AAu?$AAm?$AAD?$AAi?$AAm?$AAs?$AA?$CJ?$AA?5?$AA?$DN?$AA?$DN?$AA?5@ 100673a8     rtw_modelmap_utils.obj
 0002:000023fc       ??_C@_06JFOKFOED@CSTATE?$AA@ 100673fc     rtw_modelmap_utils.obj
 0002:00002404       ??_C@_06FAENGAMN@DSTATE?$AA@ 10067404     rtw_modelmap_utils.obj
 0002:0000240c       ??_C@_1BI@LEBJNOGG@?$AAc?$AAs?$AAv?$AAI?$AAd?$AAx?$AA?5?$AA?$DO?$AA?$DN?$AA?5?$AA0?$AA?$AA@ 1006740c     rtw_modelmap_utils.obj
 0002:00002428       ??_C@_1BA@KDMGHCHP@?$AAT?$AAI?$AAD?$AA?$DN?$AA?$DN?$AA?9?$AA1?$AA?$AA@ 10067428     rtw_modelmap_utils.obj
 0002:0000243c       ??_C@_1DM@DHGKBPCE@?$AAs?$AAi?$AAg?$AAP?$AAa?$AAt?$AAh?$AA?$FL?$AAs?$AAi?$AAg?$AAP?$AAa?$AAt?$AAh?$AAL?$AAe?$AAn?$AA?9?$AA1?$AA?$FN?$AA?5?$AA?$DN?$AA?$DN?$AA?5?$AA?8?$AA?2?$AA0?$AA?8?$AA?$AA@ 1006743c     rtw_modelmap_utils.obj
 0002:00002ce8       ??_C@_0DJ@FHKINPLE@Unexpected?5itemKind?5?$DN?5DATA_ITEM?5@ 10067ce8     rt_logging.obj
 0002:00002d2c       ??_C@_0DA@IEHFPFCJ@Unexpected?5itemKind?$DN?$CFd?5in?5rt_Pro@ 10067d2c     rt_logging.obj
 0002:00002d68       ??_C@_0DA@IFLHJPBO@Unexpected?5itemKind?$DN?$CFd?5in?5rt_Pro@ 10067d68     rt_logging.obj
 0002:00002da4       ??_C@_0DA@IAPIIJJL@Unexpected?5itemKind?$DN?$CFd?5in?5rt_Pro@ 10067da4     rt_logging.obj
 0002:00002de0       ??_C@_0BE@LCIGPJIG@MATLAB?55?40?5MAT?9file?$AA@ 10067de0     rt_logging.obj
 0002:00002df8       ??_C@_0FB@PCJEAJIB@?$CK?$CK?$CK?5Log?5variable?5?$CFs?5has?5wrapped?5@ 10067df8     rt_logging.obj
 0002:00002e60       ??_C@_0MG@NKMLMOGF@?$CK?$CK?$CK?5To?5avoid?5wrapping?0?5explicitl@ 10067e60     rt_logging.obj
 0002:00002f50       ??_C@_0N@IPAEOLLP@_rtw_tmw?4tmw?$AA@ 10067f50     rt_logging.obj
 0002:00002f60       ??_C@_04HDOCAJNK@?$CFs?$CFs?$AA@ 10067f60     rt_logging.obj
 0002:00002f68       ??_C@_03ELIABIOC@w?$CLb?$AA@ 10067f68     rt_logging.obj
 0002:00002f6c       ??_C@_0BF@JPILDDFA@?$CK?$CK?$CK?5Error?5opening?5?$CFs?$AA@ 10067f6c     rt_logging.obj
 0002:00002f88       ??_C@_0BK@EEMDELA@unable?5to?5open?5data?5file?6?$AA@ 10067f88     rt_logging.obj
 0002:00002fa8       ??_C@_04CGFJFPFD@none?$AA@ 10067fa8     rt_logging.obj
 0002:00002fb0       ??_C@_0EE@LCGFPNON@?$CK?$CK?$CK?5Error?5creating?5signals?5struc@ 10067fb0     rt_logging.obj
 0002:00003004       ??_C@_0CE@NHECEDMK@?$CK?$CK?$CK?5Error?5creating?5log?5variable?5@ 10068004     rt_logging.obj
 0002:00003030       ??_C@_0DB@IOCGKAGH@?$CK?$CK?$CK?5Errors?5occurred?5when?5startin@ 10068030     rt_logging.obj
 0002:0000306c       ??_C@_0BO@BBLOGEBK@?$CK?$CK?$CK?5Memory?5allocation?5error?4?6?$AA@ 1006806c     rt_logging.obj
 0002:00003090       ??_C@_0N@LGFBAGEL@?5?$CIreal?5part?$CJ?$AA@ 10068090     rt_logging.obj
 0002:000030a0       ??_C@_0KH@CGNMHNFE@?5?5?5?5varName?5?5?5?5?5?5?5?5?5?5?$DN?5?$CFs?$CFs?6?5?5?5?5@ 100680a0     rt_logging.obj
 0002:00003168       ??_C@_0LE@OALKKEFM@?5?5?5?5varName?5?5?5?5?5?5?5?5?5?5?$DN?5?$CFs?5?$CIcompl@ 10068168     rt_logging.obj
 0002:00003240       ??_C@_0KF@JDDLEOKO@?5?5?5?5varName?5?5?5?5?5?5?5?5?5?5?$DN?5?$CFs?6?5?5?5?5nR@ 10068240     rt_logging.obj
 0002:00003308       ??_C@_0DP@HPDMIOFM@?$CK?$CK?$CK?5Using?5a?5default?5buffer?5of?5si@ 10068308     rt_logging.obj
 0002:00003358       ??_C@_0KE@JEFOLKNF@?6?$CK?$CK?$CK?5Memory?5required?5to?5log?5vari@ 10068358     rt_logging.obj
 0002:00003420       ??_C@_0JP@DKLMHCBI@?$CK?$CK?$CK?5Details?3?6?5?5?5?5?5?5?5varName?5?5?5?5?5@ 10068420     rt_logging.obj
 0002:000034e0       ??_C@_0CM@CAMILBED@?$CK?$CK?$CK?5Error?5allocating?5memory?5for?5@ 100684e0     rt_logging.obj
 0002:00003514       ??_C@_0DF@BBCNMOPM@?$CK?$CK?$CK?5Error?5allocating?5memory?5for?5@ 10068514     rt_logging.obj
 0002:00003558       ??_C@_0JP@DBCLPCCI@?$CK?$CK?$CK?5Details?3?6?5?5?5?5?5?5?5varName?5?5?5?5?5@ 10068558     rt_logging.obj
 0002:00003618       ??_C@_0FK@DPGAOBGA@?$CK?$CK?$CK?5Error?5allocating?5memory?5for?5@ 10068618     rt_logging.obj
 0002:00003684       ??_C@_0BI@GGDNPHLJ@?$CK?$CK?$CK?5Error?5writing?5to?5?$CFs?$AA@ 10068684     rt_logging.obj
 0002:000036a0       ??_C@_0CB@IBGJGELG@?$CK?$CK?$CK?5Error?5writing?5?$CFs?5due?5to?3?5?$CFs?6@ 100686a0     rt_logging.obj
 0002:000036c8       ??_C@_0CN@FLMCHCPB@?$CK?$CK?$CK?5Error?5writing?5log?5variable?5?$CF@ 100686c8     rt_logging.obj
 0002:00003700       ??_C@_0DH@GAJCNOJP@?$CK?$CK?$CK?5Error?5writing?5structure?5log?5@ 10068700     rt_logging.obj
 0002:00003744       ??_C@_0BD@POEALECL@?$CK?$CK?5created?5?$CFs?5?$CK?$CK?6?6?$AA@ 10068744     rt_logging.obj
 0002:00003760       __real@0000000000000000    10068760     rt_logging.obj
 0002:00003770       __real@4020000000000000    10068770     rt_logging.obj
 0002:00003780       __real@41dfffffffc00000    10068780     rt_logging.obj
 0002:00003790       __real@41efffffffe00000    10068790     rt_logging.obj
 0002:000037a0       __real@4330000000000000    100687a0     rt_logging.obj
 0002:000037b0       __real@8000000000000000    100687b0     rt_logging.obj
 0002:000037c0       __real@bfbf9add3afd2773    100687c0     rt_logging.obj
 0002:000037d0       __real@c000000000000000    100687d0     rt_logging.obj
 0002:000037e0       __xmm@20202020202020202020202020202020 100687e0     rt_logging.obj
 0002:000037f4       ??_C@_0CE@NCNPFGND@dc_motor_encoder_hardware_simula@ 100687f4     xpctarget.obj
 0002:00003820       _ptsetfilename             10068820     xpctarget.obj
 0002:00003824       _xmlfile                   10068824     xpctarget.obj
 0002:0000382c       ??_C@_0L@CHBJKKFC@xpceSetVar?$AA@ 1006882c     xpctarget.obj
 0002:0000383c       ??_C@_03LADEHNAB@6?46?$AA@ 1006883c     xpctarget.obj
 0002:00003840       __real@3fb999999999999a    10068840     xpctarget.obj
 0002:00003850       __real@408f400000000000    10068850     xpctarget.obj
 0002:00003860       _dc_motor_encoder_hardware_simulated_BIOMAP 10068860     appmappingData.obj
 0002:00003a08       _dc_motor_encoder_hardware_simulated_LBLMAP 10068a08     appmappingData.obj
 0002:00003bb0       _dc_motor_encoder_hardware_simulated_SIDMAP 10068bb0     appmappingData.obj
 0002:00003d58       _dc_motor_encoder_hardware_simulated_SBIO 10068d58     appmappingData.obj
 0002:00003de8       _dc_motor_encoder_hardware_simulated_SLBL 10068de8     appmappingData.obj
 0002:00003e78       _dc_motor_encoder_hardware_simulated_PTIDSMAP 10068e78     appmappingData.obj
 0002:00003fd0       _dc_motor_encoder_hardware_simulated_PTNAMESMAP 10068fd0     appmappingData.obj
 0002:00004128       _dc_motor_encoder_hardware_simulated_SPTMAP 10069128     appmappingData.obj
 0002:000041d4       _dc_motor_encoder_hardware_simulated_dtmap 100691d4     appmappingData.obj
 0002:000041f0       _appInfo                   100691f0     appmappingData.obj
 0002:00004434       ??_C@_0CC@FIFFDAB@?$CFd?5input?5args?5expected?0?5?$CFd?5passe@ 10069434     daquanserq8.obj
 0002:0000445c       ??_C@_0L@GPCJJFPH@Quanser?5Q8?$AA@ 1006945c     daquanserq8.obj
 0002:0000446c       ??_C@_0L@MDJMNKPL@Quanser?5Q4?$AA@ 1006946c     daquanserq8.obj
 0002:0000447c       ??_C@_0BI@IHCNPKCM@No?5?$CFs?5at?5bus?5?$CFd?5slot?5?$CFd?$AA@ 1006947c     daquanserq8.obj
 0002:00004498       ??_C@_0BK@DJPPGIA@Bad?5channel?5in?5?$CFs?5D?1A?3?5?$CFn?$AA@ 10069498     daquanserq8.obj
 0002:000044b8       ??_C@_0BI@OLGKMIEO@Bad?5range?5in?5?$CFs?5D?1A?3?5?$CFd?$AA@ 100694b8     daquanserq8.obj
 0002:000044d8       __real@4014000000000000    100694d8     daquanserq8.obj
 0002:000044e8       __real@406999999999999a    100694e8     daquanserq8.obj
 0002:000044f8       __real@407999999999999a    100694f8     daquanserq8.obj
 0002:00004504       ??_C@_0BL@NBOIGMKP@Q8?1Q4?5encoder?5error?5?$CFx?5?$CFx?6?$AA@ 10069504     encquanserq8.obj
 0002:00004524       ??_C@_0CC@DMFKNLL@VendorId?5?$DN?50x?$CFx?0?5DeviceId?5?$DN?50x?$CFx@ 10069524     xpcruntime:xpcimports.obj
 0002:0000454c       ??_C@_0DH@OHCBLNMG@Subsystem?5Device?5ID?5?$DN?50x?$CFx?6Subsy@ 1006954c     xpcruntime:xpcimports.obj
 0002:00004590       ??_C@_0BD@MMMMEFCM@Class?5Code?5?$DN?50x?$CFx?6?$AA@ 10069590     xpcruntime:xpcimports.obj
 0002:000045a8       ??_C@_0BE@OLDDDNHM@InterruptLine?5?$DN?5?$CFd?6?$AA@ 100695a8     xpcruntime:xpcimports.obj
 0002:000045c0       ??_C@_0BF@OLKLEKBD@bus?5?$DN?5?$CFd?0?5slot?5?$DN?5?$CFd?6?$AA@ 100695c0     xpcruntime:xpcimports.obj
 0002:000045dc       ??_C@_0CE@DGLLGDFH@?5?5?5?5Phys?5?5?5Virtual?5?5?5Length?5IO?1M@ 100695dc     xpcruntime:xpcimports.obj
 0002:00004608       ??_C@_0BI@FEOPLEMG@?$CF08x?5?$CF08x?5?$CF08x?5?5?5?5?5?5?$CFc?6?$AA@ 10069608     xpcruntime:xpcimports.obj
 0002:00004624       ??_C@_0BB@BNNCEDPC@rl32eScopeExists?$AA@ 10069624     xpcruntime:xpcimports.obj
 0002:00004638       ??_C@_0BM@FJBFEGFG@rl32eScopeExists?5not?5found?6?$AA@ 10069638     xpcruntime:xpcimports.obj
 0002:0000465c       ??_C@_0O@BNNGKJEA@rl32eDefScope?$AA@ 1006965c     xpcruntime:xpcimports.obj
 0002:0000466c       ??_C@_0BJ@CDNOENKA@rl32eDefScope?5not?5found?6?$AA@ 1006966c     xpcruntime:xpcimports.obj
 0002:0000468c       ??_C@_0P@CKNKILDP@rl32eAddSignal?$AA@ 1006968c     xpcruntime:xpcimports.obj
 0002:000046a0       ??_C@_0BK@GMJAJBAI@rl32eAddSignal?5not?5found?6?$AA@ 100696a0     xpcruntime:xpcimports.obj
 0002:000046c0       ??_C@_0BB@LDMIHGCE@rl32eGetSignalNo?$AA@ 100696c0     xpcruntime:xpcimports.obj
 0002:000046d4       ??_C@_0BM@LGAMBAID@rl32eGetSignalNo?5not?5found?6?$AA@ 100696d4     xpcruntime:xpcimports.obj
 0002:000046f8       ??_C@_0O@CFDGALBP@rl32eSetScope?$AA@ 100696f8     xpcruntime:xpcimports.obj
 0002:00004708       ??_C@_0BJ@JCLHHIN@rl32eSetScope?5not?5found?6?$AA@ 10069708     xpcruntime:xpcimports.obj
 0002:00004728       ??_C@_0P@IKMCBMHH@xpceFSScopeSet?$AA@ 10069728     xpcruntime:xpcimports.obj
 0002:0000473c       ??_C@_0BK@JODJPNNH@xpceFSScopeSet?5not?5found?6?$AA@ 1006973c     xpcruntime:xpcimports.obj
 0002:0000475c       ??_C@_0BE@DLACEEJM@rl32eSetTargetScope?$AA@ 1006975c     xpcruntime:xpcimports.obj
 0002:00004774       ??_C@_0BP@JCHFMKPJ@rl32eSetTargetScope?5not?5found?6?$AA@ 10069774     xpcruntime:xpcimports.obj
 0002:0000479c       ??_C@_0BJ@LIDLNDHC@rl32eSetTargetScopeSigFt?$AA@ 1006979c     xpcruntime:xpcimports.obj
 0002:000047bc       ??_C@_0CE@JLGHCFHI@rl32eSetTargetScopeSigFt?5not?5fou@ 100697bc     xpcruntime:xpcimports.obj
 0002:000047e8       ??_C@_0BI@JAPOIDNG@rl32eRestartAcquisition?$AA@ 100697e8     xpcruntime:xpcimports.obj
 0002:00004804       ??_C@_0CD@LLBEFFBO@rl32eRestartAcquisition?5not?5foun@ 10069804     xpcruntime:xpcimports.obj
 0002:00004830       ??_C@_0P@IEIIADJB@xpceScopeAcqOK?$AA@ 10069830     xpcruntime:xpcimports.obj
 0002:00004844       ??_C@_0BK@NJCKNFPN@xpceScopeAcqOK?5not?5found?6?$AA@ 10069844     xpcruntime:xpcimports.obj
 0002:00004864       ??_C@_0BA@IJINKAHF@xpceRegisterISR?$AA@ 10069864     xpcruntime:xpcimports.obj
 0002:00004878       ??_C@_0BL@NNDLOEJE@xpceRegisterISR?5not?5found?6?$AA@ 10069878     xpcruntime:xpcimports.obj
 0002:00004898       ??_C@_0BC@NLBADGKF@xpceDeRegisterISR?$AA@ 10069898     xpcruntime:xpcimports.obj
 0002:000048b0       ??_C@_0BN@DCAIKFFD@xpceDeRegisterISR?5not?5found?6?$AA@ 100698b0     xpcruntime:xpcimports.obj
 0002:000048d4       ??_C@_07JPMEPILD@xpcInpB?$AA@ 100698d4     xpcruntime:xpcimports.obj
 0002:000048e0       ??_C@_0BD@PGABEJOL@xpcInpB?5not?5found?6?$AA@ 100698e0     xpcruntime:xpcimports.obj
 0002:000048f8       ??_C@_07KIHBBOKH@xpcInpW?$AA@ 100698f8     xpcruntime:xpcimports.obj
 0002:00004904       ??_C@_0BD@FPCJFMCC@xpcInpW?5not?5found?6?$AA@ 10069904     xpcruntime:xpcimports.obj
 0002:0000491c       ??_C@_08KDIAJBOP@xpcInpDW?$AA@ 1006991c     xpcruntime:xpcimports.obj
 0002:00004928       ??_C@_0BE@PIELDNIL@xpcInpDW?5not?5found?6?$AA@ 10069928     xpcruntime:xpcimports.obj
 0002:00004940       ??_C@_08PJFMOIGO@xpcOutpB?$AA@ 10069940     xpcruntime:xpcimports.obj
 0002:0000494c       ??_C@_0BE@HCKNCEKF@xpcOutpB?5not?5found?6?$AA@ 1006994c     xpcruntime:xpcimports.obj
 0002:00004964       ??_C@_08MOOJAOHK@xpcOutpW?$AA@ 10069964     xpcruntime:xpcimports.obj
 0002:00004970       ??_C@_0BE@NLIFDBGM@xpcOutpW?5not?5found?6?$AA@ 10069970     xpcruntime:xpcimports.obj
 0002:00004988       ??_C@_09FLIEKHJG@xpcOutpDW?$AA@ 10069988     xpcruntime:xpcimports.obj
 0002:00004994       ??_C@_0BF@GJKLPNHB@xpcOutpDW?5not?5found?6?$AA@ 10069994     xpcruntime:xpcimports.obj
 0002:000049b0       ??_C@_0BH@EHOLELHH@xpcReserveMemoryRegion?$AA@ 100699b0     xpcruntime:xpcimports.obj
 0002:000049cc       ??_C@_0CC@KAAAGPI@xpcReserveMemoryRegion?5not?5found@ 100699cc     xpcruntime:xpcimports.obj
 0002:000049f4       ??_C@_0BA@JGPMHGAF@rl32eShowPCIDev?$AA@ 100699f4     xpcruntime:xpcimports.obj
 0002:00004a08       ??_C@_0BL@DDFFLNHI@rl32eShowPCIDev?5not?5found?6?$AA@ 10069a08     xpcruntime:xpcimports.obj
 0002:00004a28       ??_C@_0BB@KBCOJPFB@rl32eShowPCIInfo?$AA@ 10069a28     xpcruntime:xpcimports.obj
 0002:00004a3c       ??_C@_0BM@IFDMAGLO@rl32eShowPCIInfo?5not?5found?6?$AA@ 10069a3c     xpcruntime:xpcimports.obj
 0002:00004a60       ??_C@_0BA@BGPAADB@rl32eGetPCIInfo?$AA@ 10069a60     xpcruntime:xpcimports.obj
 0002:00004a74       ??_C@_0BL@IGOMLDCK@rl32eGetPCIInfo?5not?5found?6?$AA@ 10069a74     xpcruntime:xpcimports.obj
 0002:00004a94       ??_C@_0BG@NJPFKFDP@rl32eGetPCIInfoAtSlot?$AA@ 10069a94     xpcruntime:xpcimports.obj
 0002:00004ab0       ??_C@_0CB@BBKIPMLA@rl32eGetPCIInfoAtSlot?5not?5found?6@ 10069ab0     xpcruntime:xpcimports.obj
 0002:00004ad8       ??_C@_0BH@OKBOPNFG@xpceAssignPCIInterrupt?$AA@ 10069ad8     xpcruntime:xpcimports.obj
 0002:00004af4       ??_C@_0CC@CDNDNJBJ@xpceAssignPCIInterrupt?5not?5found@ 10069af4     xpcruntime:xpcimports.obj
 0002:00004b1c       ??_C@_0BD@PCKOKHO@xpceGetSignalValue?$AA@ 10069b1c     xpcruntime:xpcimports.obj
 0002:00004b34       ??_C@_0BO@GCBDJHMB@xpceGetSignalValue?5not?5found?6?$AA@ 10069b34     xpcruntime:xpcimports.obj
 0002:00004b58       ??_C@_0BB@BJONJAGA@xpceSetParameter?$AA@ 10069b58     xpcruntime:xpcimports.obj
 0002:00004b6c       ??_C@_0BM@BJIKDLHA@xpceSetParameter?5not?5found?6?$AA@ 10069b6c     xpcruntime:xpcimports.obj
 0002:00004b90       ??_C@_0BB@GNFDFMCM@xpceGetParameter?$AA@ 10069b90     xpcruntime:xpcimports.obj
 0002:00004ba4       ??_C@_0BM@POHNKBC@xpceGetParameter?5not?5found?6?$AA@ 10069ba4     xpcruntime:xpcimports.obj
 0002:00004bc8       ??_C@_0BB@CEIJLFCD@xpceGetParamDims?$AA@ 10069bc8     xpcruntime:xpcimports.obj
 0002:00004bdc       ??_C@_0BM@OABDBKAO@xpceGetParamDims?5not?5found?6?$AA@ 10069bdc     xpcruntime:xpcimports.obj
 0002:00004c00       ??_C@_0L@OCBLLHBM@xpceGetTET?$AA@ 10069c00     xpcruntime:xpcimports.obj
 0002:00004c10       ??_C@_0BG@HNOFBOB@xpceGetTET?5not?5found?6?$AA@ 10069c10     xpcruntime:xpcimports.obj
 0002:00004c2c       ??_C@_0P@OKGNGAGH@xpcIsModelInit?$AA@ 10069c2c     xpcruntime:xpcimports.obj
 0002:00004c40       ??_C@_0BK@DHEMLBIM@xpcIsModelInit?5not?5found?6?$AA@ 10069c40     xpcruntime:xpcimports.obj
 0002:00004c60       ??_C@_0BH@KJJLCAOJ@xpcAllocPhysicalMemory?$AA@ 10069c60     xpcruntime:xpcimports.obj
 0002:00004c7c       ??_C@_0CC@MOJPNHKL@xpcAllocPhysicalMemory?5not?5found@ 10069c7c     xpcruntime:xpcimports.obj
 0002:00004ca4       ??_C@_0BG@CBNPGAEL@xpcFreePhysicalMemory?$AA@ 10069ca4     xpcruntime:xpcimports.obj
 0002:00004cc0       ??_C@_0CB@PKJEBPOG@xpcFreePhysicalMemory?5not?5found?6@ 10069cc0     xpcruntime:xpcimports.obj
 0002:00004ce8       ??_C@_0BC@JGKNLICL@xpcGetElapsedTime?$AA@ 10069ce8     xpcruntime:xpcimports.obj
 0002:00004d00       ??_C@_0BN@OEOAHCIO@xpcGetElapsedTime?5not?5found?6?$AA@ 10069d00     xpcruntime:xpcimports.obj
 0002:00004d24       ??_C@_0M@ICBLMODA@xpcBusyWait?$AA@ 10069d24     xpcruntime:xpcimports.obj
 0002:00004d34       ??_C@_0BH@FBOPECBI@xpcBusyWait?5not?5found?6?$AA@ 10069d34     xpcruntime:xpcimports.obj
 0002:00004d50       ??_C@_0N@LKKJEKKA@TBCreateSpin?$AA@ 10069d50     xpcruntime:xpcimports.obj
 0002:00004d60       ??_C@_0BI@FHKMLKOE@TBCreateSpin?5not?5found?6?$AA@ 10069d60     xpcruntime:xpcimports.obj
 0002:00004d7c       ??_C@_0N@HOAJHNBD@TBDeleteSpin?$AA@ 10069d7c     xpcruntime:xpcimports.obj
 0002:00004d8c       ??_C@_0BI@BKCPAAG@TBDeleteSpin?5not?5found?6?$AA@ 10069d8c     xpcruntime:xpcimports.obj
 0002:00004da8       ??_C@_0P@DAHDDBJG@TBTakeSpinFast?$AA@ 10069da8     xpcruntime:xpcimports.obj
 0002:00004dbc       ??_C@_0BK@NKAIBHGB@TBTakeSpinFast?5not?5found?6?$AA@ 10069dbc     xpcruntime:xpcimports.obj
 0002:00004ddc       ??_C@_0P@FKNAAELA@TBGiveSpinFast?$AA@ 10069ddc     xpcruntime:xpcimports.obj
 0002:00004df0       ??_C@_0BK@KGPJBJND@TBGiveSpinFast?5not?5found?6?$AA@ 10069df0     xpcruntime:xpcimports.obj
 0002:00004e10       ??_C@_0BE@IIGBFDHK@xpceCreateSemaphore?$AA@ 10069e10     xpcruntime:xpcimports.obj
 0002:00004e28       ??_C@_0BP@KFBAFFKJ@xpceCreateSemaphore?5not?5found?6?$AA@ 10069e28     xpcruntime:xpcimports.obj
 0002:00004e50       ??_C@_0BC@IFNIONKJ@xpceWaitSemaphore?$AA@ 10069e50     xpcruntime:xpcimports.obj
 0002:00004e68       ??_C@_0BN@NMFAADIO@xpceWaitSemaphore?5not?5found?6?$AA@ 10069e68     xpcruntime:xpcimports.obj
 0002:00004e8c       ??_C@_0BE@NNDIOBKE@xpceSignalSemaphore?$AA@ 10069e8c     xpcruntime:xpcimports.obj
 0002:00004ea4       ??_C@_0BP@LBANMHJP@xpceSignalSemaphore?5not?5found?6?$AA@ 10069ea4     xpcruntime:xpcimports.obj
 0002:00004ecc       ??_C@_0BE@MEBEKOIM@xpceDeleteSemaphore?$AA@ 10069ecc     xpcruntime:xpcimports.obj
 0002:00004ee4       ??_C@_0BP@OFNCKOJH@xpceDeleteSemaphore?5not?5found?6?$AA@ 10069ee4     xpcruntime:xpcimports.obj
 0002:00004f0c       ??_C@_0BD@MFNDMBOF@FindUsbVideoDevice?$AA@ 10069f0c     xpcruntime:xpcimports.obj
 0002:00004f24       ??_C@_0BO@POKLDHMI@FindUsbVideoDevice?5not?5found?6?$AA@ 10069f24     xpcruntime:xpcimports.obj
 0002:00004f48       ??_C@_0BA@PLPAPNAB@GetVideoConfigs?$AA@ 10069f48     xpcruntime:xpcimports.obj
 0002:00004f5c       ??_C@_0BL@DALDHKHC@GetVideoConfigs?5not?5found?6?$AA@ 10069f5c     xpcruntime:xpcimports.obj
 0002:00004f7c       ??_C@_0L@GBAEMHMH@StartVideo?$AA@ 10069f7c     xpcruntime:xpcimports.obj
 0002:00004f8c       ??_C@_0BG@HDCELEBP@StartVideo?5not?5found?6?$AA@ 10069f8c     xpcruntime:xpcimports.obj
 0002:00004fa8       ??_C@_0BA@FDNPOCLN@ReadFrameBuffer?$AA@ 10069fa8     xpcruntime:xpcimports.obj
 0002:00004fbc       ??_C@_0BL@JHGHPNBI@ReadFrameBuffer?5not?5found?6?$AA@ 10069fbc     xpcruntime:xpcimports.obj
 0002:00004fdc       ??_C@_09FAHCLKAG@StopVideo?$AA@ 10069fdc     xpcruntime:xpcimports.obj
 0002:00004fe8       ??_C@_0BF@NKGKKADL@StopVideo?5not?5found?6?$AA@ 10069fe8     xpcruntime:xpcimports.obj
 0002:00005004       ??_C@_0O@MCPKDLLL@ConvertUImage?$AA@ 1006a004     xpcruntime:xpcimports.obj
 0002:00005014       ??_C@_0BJ@PHJKOAFL@ConvertUImage?5not?5found?6?$AA@ 1006a014     xpcruntime:xpcimports.obj
 0002:00005034       ??_C@_0BD@NKCBPBJJ@CreateVideoDisplay?$AA@ 1006a034     xpcruntime:xpcimports.obj
 0002:0000504c       ??_C@_0BO@HPPLLNFP@CreateVideoDisplay?5not?5found?6?$AA@ 1006a04c     xpcruntime:xpcimports.obj
 0002:00005070       ??_C@_0BE@KJCKGPHA@DestroyVideoDisplay?$AA@ 1006a070     xpcruntime:xpcimports.obj
 0002:00005088       ??_C@_0BP@FMGLJAIJ@DestroyVideoDisplay?5not?5found?6?$AA@ 1006a088     xpcruntime:xpcimports.obj
 0002:000050b0       ??_C@_0BC@HCMIMIDN@StartVideoDisplay?$AA@ 1006a0b0     xpcruntime:xpcimports.obj
 0002:000050c8       ??_C@_0BN@EFIEBGOO@StartVideoDisplay?5not?5found?6?$AA@ 1006a0c8     xpcruntime:xpcimports.obj
 0002:000050ec       ??_C@_0BB@JBBLMILG@StopVideoDisplay?$AA@ 1006a0ec     xpcruntime:xpcimports.obj
 0002:00005100       ??_C@_0BM@DBJBPLEL@StopVideoDisplay?5not?5found?6?$AA@ 1006a100     xpcruntime:xpcimports.obj
 0002:00005124       ??_C@_0M@MFJEGMHC@StreamVideo?$AA@ 1006a124     xpcruntime:xpcimports.obj
 0002:00005134       ??_C@_0BH@OINCDMLA@StreamVideo?5not?5found?6?$AA@ 1006a134     xpcruntime:xpcimports.obj
 0002:00005150       ??_C@_0N@IGGLCIGE@xpceaddEvent?$AA@ 1006a150     xpcruntime:xpcimports.obj
 0002:00005160       ??_C@_0BI@NHJNFMKH@xpceaddEvent?5not?5found?6?$AA@ 1006a160     xpcruntime:xpcimports.obj
 0002:0000517c       ??_C@_0BB@HDPOIJAB@xpceDAQPostEvent?$AA@ 1006a17c     xpcruntime:xpcimports.obj
 0002:00005190       ??_C@_0BM@IHANBKGN@xpceDAQPostEvent?5not?5found?6?$AA@ 1006a190     xpcruntime:xpcimports.obj
 0002:000051b4       ??_C@_0BH@MBACMOD@xpceDAQUpdateTimeStamp?$AA@ 1006a1b4     xpcruntime:xpcimports.obj
 0002:000051d0       ??_C@_0CC@DAKBBINL@xpceDAQUpdateTimeStamp?5not?5found@ 1006a1d0     xpcruntime:xpcimports.obj
 0002:000051f8       ??_C@_0BN@HJOHIFOM@xpceGetIntTimerGranularityNS?$AA@ 1006a1f8     xpcruntime:xpcimports.obj
 0002:0000521c       ??_C@_0CI@OADDPMKB@xpceGetIntTimerGranularityNS?5not@ 1006a21c     xpcruntime:xpcimports.obj
 0002:0000524c       ??_C@_0BG@CCHICKPN@slrteSetStepSizeDelta?$AA@ 1006a24c     xpcruntime:xpcimports.obj
 0002:00005268       ??_C@_0CB@MKHINEIJ@slrteSetStepSizeDelta?5not?5found?6@ 1006a268     xpcruntime:xpcimports.obj
 0002:00005290       ??_C@_0BI@CLNBLDKJ@slrteGetCurrentStepSize?$AA@ 1006a290     xpcruntime:xpcimports.obj
 0002:000052ac       ??_C@_0CD@GIOJPGJA@slrteGetCurrentStepSize?5not?5foun@ 1006a2ac     xpcruntime:xpcimports.obj
 0002:000052d8       ??_C@_0BE@FCLCBOC@registerPTPTimeRead?$AA@ 1006a2d8     xpcruntime:xpcimports.obj
 0002:000052f0       ??_C@_0BP@LHPKAJIP@registerPTPTimeRead?5not?5found?6?$AA@ 1006a2f0     xpcruntime:xpcimports.obj
 0002:00005318       ??_C@_0BG@KIGCDDJI@unRegisterPTPTimeRead?$AA@ 1006a318     xpcruntime:xpcimports.obj
 0002:00005334       ??_C@_0CB@MLFFBFCM@unRegisterPTPTimeRead?5not?5found?6@ 1006a334     xpcruntime:xpcimports.obj
 0002:0000535c       ??_C@_0BB@IPMDDBHK@slTestInitialize?$AA@ 1006a35c     xpcruntime:xpcimports.obj
 0002:00005370       ??_C@_0BM@LAJFCCJH@slTestInitialize?5not?5found?6?$AA@ 1006a370     xpcruntime:xpcimports.obj
 0002:00005394       ??_C@_0BF@OOMPMEBC@slTestLogAssessments?$AA@ 1006a394     xpcruntime:xpcimports.obj
 0002:000053b0       ??_C@_0CA@FGJCEBAG@slTestLogAssessments?5not?5found?6?$AA@ 1006a3b0     xpcruntime:xpcimports.obj
 0002:000053d8       ??_C@_0BB@HJHKONHO@slTestEvalOnFail?$AA@ 1006a3d8     xpcruntime:xpcimports.obj
 0002:000053ec       ??_C@_0BM@JIKCFFNJ@slTestEvalOnFail?5not?5found?6?$AA@ 1006a3ec     xpcruntime:xpcimports.obj
 0002:00005410       ??_C@_0BA@LBHLABFP@slTestTerminate?$AA@ 1006a410     xpcruntime:xpcimports.obj
 0002:00005424       ??_C@_0BL@EMFGKAPA@slTestTerminate?5not?5found?6?$AA@ 1006a424     xpcruntime:xpcimports.obj
 0002:00005444       ??_C@_0BE@JPNPBBEO@slTestRegAssessment?$AA@ 1006a444     xpcruntime:xpcimports.obj
 0002:0000545c       ??_C@_0BP@FBDEJJJH@slTestRegAssessment?5not?5found?6?$AA@ 1006a45c     xpcruntime:xpcimports.obj
 0002:00005484       ??_C@_0O@NCLGDNIB@slrteSetupMSI?$AA@ 1006a484     xpcruntime:xpcimports.obj
 0002:00005494       ??_C@_0BJ@HEFMECLM@slrteSetupMSI?5not?5found?6?$AA@ 1006a494     xpcruntime:xpcimports.obj
 0002:000054b4       ??_C@_0BH@BPOLALHD@slrtGetCRBScratchSpace?$AA@ 1006a4b4     xpcruntime:xpcimports.obj
 0002:000054d0       ??_C@_0CC@KCKAJKKJ@slrtGetCRBScratchSpace?5not?5found@ 1006a4d0     xpcruntime:xpcimports.obj
 0002:000054f8       ??_C@_0BC@MKFDAKOL@slrtGetSgCRBSpace?$AA@ 1006a4f8     xpcruntime:xpcimports.obj
 0002:00005510       ??_C@_0BN@JDPHPLHL@slrtGetSgCRBSpace?5not?5found?6?$AA@ 1006a510     xpcruntime:xpcimports.obj
 0002:00005534       ??_C@_0P@EPAPKLIF@slrtfsOpenFile?$AA@ 1006a534     xpcruntime:xpcimports.obj
 0002:00005548       ??_C@_0BK@FIHCBOHG@slrtfsOpenFile?5not?5found?6?$AA@ 1006a548     xpcruntime:xpcimports.obj
 0002:00005568       ??_C@_0BA@LILAFDDL@slrtfsCloseFile?$AA@ 1006a568     xpcruntime:xpcimports.obj
 0002:0000557c       ??_C@_0BL@DEGHJFIB@slrtfsCloseFile?5not?5found?6?$AA@ 1006a57c     xpcruntime:xpcimports.obj
 0002:0000559c       ??_C@_0BC@OKMJDIEH@slrtfsWriteToFile?$AA@ 1006a59c     xpcruntime:xpcimports.obj
 0002:000055b4       ??_C@_0BN@KCFLCLAH@slrtfsWriteToFile?5not?5found?6?$AA@ 1006a5b4     xpcruntime:xpcimports.obj
 0002:000055d8       ??_C@_0BK@GIPNFFFF@slrtfsGetFileErrorMessage?$AA@ 1006a5d8     xpcruntime:xpcimports.obj
 0002:000055f8       ??_C@_0CF@BCBLMKLE@slrtfsGetFileErrorMessage?5not?5fo@ 1006a5f8     xpcruntime:xpcimports.obj
 0002:00005624       ??_C@_0BD@ICBOKMK@slrtfsGetFileError?$AA@ 1006a624     xpcruntime:xpcimports.obj
 0002:0000563c       ??_C@_0BO@FNBANAE@slrtfsGetFileError?5not?5found?6?$AA@ 1006a63c     xpcruntime:xpcimports.obj
 0002:00005660       ??_C@_0BE@PPAJMHJP@slrtfsOpenFileAsync?$AA@ 1006a660     xpcruntime:xpcimports.obj
 0002:00005678       ??_C@_0BP@HKBMMJOK@slrtfsOpenFileAsync?5not?5found?6?$AA@ 1006a678     xpcruntime:xpcimports.obj
 0002:000056a0       ??_C@_0BF@IGNDIBPF@slrtfsCloseFileAsync?$AA@ 1006a6a0     xpcruntime:xpcimports.obj
 0002:000056bc       ??_C@_0CA@GJPFDBKN@slrtfsCloseFileAsync?5not?5found?6?$AA@ 1006a6bc     xpcruntime:xpcimports.obj
 0002:000056e4       ??_C@_0BE@IOLEBNB@slrtfsGetFileStatus?$AA@ 1006a6e4     xpcruntime:xpcimports.obj
 0002:000056fc       ??_C@_0BP@PEFHDGHL@slrtfsGetFileStatus?5not?5found?6?$AA@ 1006a6fc     xpcruntime:xpcimports.obj
 0002:00005724       ??_C@_0M@HKIJIMG@slrtfsFread?$AA@ 1006a724     xpcruntime:xpcimports.obj
 0002:00005734       ??_C@_0BH@OOKBGONO@slrtfsFread?5not?5found?6?$AA@ 1006a734     xpcruntime:xpcimports.obj
 0002:00005750       ??_C@_0BE@OGCMPLAP@slrtGetDefaultDrive?$AA@ 1006a750     xpcruntime:xpcimports.obj
 0002:00005768       ??_C@_0BP@HKFGLHOE@slrtGetDefaultDrive?5not?5found?6?$AA@ 1006a768     xpcruntime:xpcimports.obj
 0002:00005790       ??_C@_0N@NAJIKFFI@slrtLogEvent?$AA@ 1006a790     xpcruntime:xpcimports.obj
 0002:000057a0       ??_C@_0BI@NKCEACND@slrtLogEvent?5not?5found?6?$AA@ 1006a7a0     xpcruntime:xpcimports.obj
 0002:000057bc       ??_C@_0N@IDKFJOHI@getlasterror?$AA@ 1006a7bc     xpcruntime:xpcimports.obj
 0002:000057cc       ??_C@_0BI@MIHMCHGL@getlasterror?5not?5found?6?$AA@ 1006a7cc     xpcruntime:xpcimports.obj
 0002:000057e8       ??_C@_0P@OKHGKJKN@geterrorstring?$AA@ 1006a7e8     xpcruntime:xpcimports.obj
 0002:000057fc       ??_C@_0BK@NOHFDMLP@geterrorstring?5not?5found?6?$AA@ 1006a7fc     xpcruntime:xpcimports.obj
 0002:0000581c       ??_C@_0BD@HNFFKMGJ@slrtGetCPUTCelsius?$AA@ 1006a81c     xpcruntime:xpcimports.obj
 0002:00005834       ??_C@_0BO@LHBFKLIH@slrtGetCPUTCelsius?5not?5found?6?$AA@ 1006a834     xpcruntime:xpcimports.obj
 0002:00005858       ??_C@_0M@OONCNCLM@slrtWarning?$AA@ 1006a858     xpcruntime:xpcimports.obj
 0002:00005868       ??_C@_0BH@ICKGIEMB@slrtWarning?5not?5found?6?$AA@ 1006a868     xpcruntime:xpcimports.obj
 0002:00005884       ??_C@_0N@EAAOMIIE@isUsedByRTIP?$AA@ 1006a884     xpcruntime:xpcimports.obj
 0002:00005894       ??_C@_0BI@GNHHHICK@isUsedByRTIP?5not?5found?6?$AA@ 1006a894     xpcruntime:xpcimports.obj
 0002:000058b0       ??_C@_0BC@HLDKJAG@SetIPTASKPriority?$AA@ 1006a8b0     xpcruntime:xpcimports.obj
 0002:000058c8       ??_C@_0BN@OGKMHHAE@SetIPTASKPriority?5not?5found?6?$AA@ 1006a8c8     xpcruntime:xpcimports.obj
 0002:000058ec       ??_C@_0O@LHENMBDD@OpenInterface?$AA@ 1006a8ec     xpcruntime:xpcimports.obj
 0002:000058fc       ??_C@_0BJ@PFGDBKHB@OpenInterface?5not?5found?6?$AA@ 1006a8fc     xpcruntime:xpcimports.obj
 0002:0000591c       ??_C@_0P@IINFELKD@CloseInterface?$AA@ 1006a91c     xpcruntime:xpcimports.obj
 0002:00005930       ??_C@_0BK@PAPDNDBK@CloseInterface?5not?5found?6?$AA@ 1006a930     xpcruntime:xpcimports.obj
 0002:00005950       ??_C@_05LEFIAAOI@SetIP?$AA@ 1006a950     xpcruntime:xpcimports.obj
 0002:00005958       ??_C@_0BB@CGLIBAMM@SetIP?5not?5found?6?$AA@ 1006a958     xpcruntime:xpcimports.obj
 0002:0000596c       ??_C@_0BA@HIJJHHMD@AddGatewayRoute?$AA@ 1006a96c     xpcruntime:xpcimports.obj
 0002:00005980       ??_C@_0BL@BFCFMDMN@AddGatewayRoute?5not?5found?6?$AA@ 1006a980     xpcruntime:xpcimports.obj
 0002:000059a0       ??_C@_0M@PHMABFPI@DeleteRoute?$AA@ 1006a9a0     xpcruntime:xpcimports.obj
 0002:000059b0       ??_C@_0BH@JPJGLLID@DeleteRoute?5not?5found?6?$AA@ 1006a9b0     xpcruntime:xpcimports.obj
 0002:000059cc       ??_C@_0BA@FCDIMKIJ@GetHostTarIPAdd?$AA@ 1006a9cc     xpcruntime:xpcimports.obj
 0002:000059e0       ??_C@_0BL@MBKDGKBO@GetHostTarIPAdd?5not?5found?6?$AA@ 1006a9e0     xpcruntime:xpcimports.obj
 0002:00005a00       ??_C@_0M@HPMIPIBI@GetDCUUsage?$AA@ 1006aa00     xpcruntime:xpcimports.obj
 0002:00005a10       ??_C@_0BH@EBLJKCJC@GetDCUUsage?5not?5found?6?$AA@ 1006aa10     xpcruntime:xpcimports.obj
 0002:00005a2c       ??_C@_06MPKMECK@accept?$AA@ 1006aa2c     xpcruntime:xpcimports.obj
 0002:00005a34       ??_C@_0BC@GBGIEMNO@accept?5not?5found?6?$AA@ 1006aa34     xpcruntime:xpcimports.obj
 0002:00005a4c       ??_C@_04NPNJNMMP@bind?$AA@ 1006aa4c     xpcruntime:xpcimports.obj
 0002:00005a54       ??_C@_0BA@DAJNENLO@bind?5not?5found?6?$AA@ 1006aa54     xpcruntime:xpcimports.obj
 0002:00005a68       ??_C@_0L@CKHNIFCM@setsockopt?$AA@ 1006aa68     xpcruntime:xpcimports.obj
 0002:00005a78       ??_C@_0BG@MFIIOMFE@setsockopt?5not?5found?6?$AA@ 1006aa78     xpcruntime:xpcimports.obj
 0002:00005a94       ??_C@_0M@ODDJDCDK@closesocket?$AA@ 1006aa94     xpcruntime:xpcimports.obj
 0002:00005aa4       ??_C@_0BH@JHGHMIL@closesocket?5not?5found?6?$AA@ 1006aaa4     xpcruntime:xpcimports.obj
 0002:00005ac0       ??_C@_07KAIBNCHO@connect?$AA@ 1006aac0     xpcruntime:xpcimports.obj
 0002:00005acc       ??_C@_0BD@MKLLMBM@connect?5not?5found?6?$AA@ 1006aacc     xpcruntime:xpcimports.obj
 0002:00005ae4       ??_C@_0M@PBPOCKDG@ioctlsocket?$AA@ 1006aae4     xpcruntime:xpcimports.obj
 0002:00005af4       ??_C@_0BH@NFCNHHIH@ioctlsocket?5not?5found?6?$AA@ 1006aaf4     xpcruntime:xpcimports.obj
 0002:00005b10       ??_C@_06OODDLKLE@listen?$AA@ 1006ab10     xpcruntime:xpcimports.obj
 0002:00005b18       ??_C@_0BC@NHBILEKI@listen?5not?5found?6?$AA@ 1006ab18     xpcruntime:xpcimports.obj
 0002:00005b30       ??_C@_08HMBBGFHE@recvfrom?$AA@ 1006ab30     xpcruntime:xpcimports.obj
 0002:00005b3c       ??_C@_0BE@BJAJFFLF@recvfrom?5not?5found?6?$AA@ 1006ab3c     xpcruntime:xpcimports.obj
 0002:00005b54       ??_C@_06MEPBGKEC@sendto?$AA@ 1006ab54     xpcruntime:xpcimports.obj
 0002:00005b5c       ??_C@_0BC@BHPIMDJO@sendto?5not?5found?6?$AA@ 1006ab5c     xpcruntime:xpcimports.obj
 0002:00005b74       ??_C@_09JKBDEEOB@inet_addr?$AA@ 1006ab74     xpcruntime:xpcimports.obj
 0002:00005b80       ??_C@_0BF@HKJPGECN@inet_addr?5not?5found?6?$AA@ 1006ab80     xpcruntime:xpcimports.obj
 0002:00005b9c       ??_C@_06HBELJPBO@socket?$AA@ 1006ab9c     xpcruntime:xpcimports.obj
 0002:00005ba4       ??_C@_0BC@NAGFFJGA@socket?5not?5found?6?$AA@ 1006aba4     xpcruntime:xpcimports.obj
 0002:00005bbc       ??_C@_09ICJIFGNC@GetSocket?$AA@ 1006abbc     xpcruntime:xpcimports.obj
 0002:00005bc8       ??_C@_0BF@KDBCKMOJ@GetSocket?5not?5found?6?$AA@ 1006abc8     xpcruntime:xpcimports.obj
 0002:00005be4       ??_C@_0P@KJEGJMJI@GetSocketState?$AA@ 1006abe4     xpcruntime:xpcimports.obj
 0002:00005bf8       ??_C@_0BK@IALBJHEB@GetSocketState?5not?5found?6?$AA@ 1006abf8     xpcruntime:xpcimports.obj
 0002:00005c18       ??_C@_0L@MEAJHNHB@SocketSend?$AA@ 1006ac18     xpcruntime:xpcimports.obj
 0002:00005c28       ??_C@_0BG@EOCMBFJA@SocketSend?5not?5found?6?$AA@ 1006ac28     xpcruntime:xpcimports.obj
 0002:00005c44       ??_C@_0O@PFPCLEMF@SocketReceive?$AA@ 1006ac44     xpcruntime:xpcimports.obj
 0002:00005c54       ??_C@_0BJ@HIBADDFO@SocketReceive?5not?5found?6?$AA@ 1006ac54     xpcruntime:xpcimports.obj
 0002:00005c74       ??_C@_0BD@OOGFNAIK@CreateServerSocket?$AA@ 1006ac74     xpcruntime:xpcimports.obj
 0002:00005c8c       ??_C@_0BO@GKIJHIPH@CreateServerSocket?5not?5found?6?$AA@ 1006ac8c     xpcruntime:xpcimports.obj
 0002:00005cb0       ??_C@_0BB@KGHJGFFO@OpenServerListen?$AA@ 1006acb0     xpcruntime:xpcimports.obj
 0002:00005cc4       ??_C@_0BM@NFMMLIO@OpenServerListen?5not?5found?6?$AA@ 1006acc4     xpcruntime:xpcimports.obj
 0002:00005ce8       ??_C@_0BE@BAJLDJAH@ConnectServerSocket?$AA@ 1006ace8     xpcruntime:xpcimports.obj
 0002:00005d00       ??_C@_0BP@KJNODIKE@ConnectServerSocket?5not?5found?6?$AA@ 1006ad00     xpcruntime:xpcimports.obj
 0002:00005d28       ??_C@_0BC@PLKKJDIM@CloseServerSocket?$AA@ 1006ad28     xpcruntime:xpcimports.obj
 0002:00005d40       ??_C@_0BN@KEJEPNMB@CloseServerSocket?5not?5found?6?$AA@ 1006ad40     xpcruntime:xpcimports.obj
 0002:00005d64       ??_C@_0BD@MCLPKCPP@CreateClientSocket?$AA@ 1006ad64     xpcruntime:xpcimports.obj
 0002:00005d7c       ??_C@_0BO@DILAGPFN@CreateClientSocket?5not?5found?6?$AA@ 1006ad7c     xpcruntime:xpcimports.obj
 0002:00005da0       ??_C@_0BB@DAPKNNLG@BindClientSocket?$AA@ 1006ada0     xpcruntime:xpcimports.obj
 0002:00005db4       ??_C@_0BM@LLLMMDFN@BindClientSocket?5not?5found?6?$AA@ 1006adb4     xpcruntime:xpcimports.obj
 0002:00005dd8       ??_C@_0BE@DMEBELHC@ConnectClientSocket?$AA@ 1006add8     xpcruntime:xpcimports.obj
 0002:00005df0       ??_C@_0BP@PLOHCPAO@ConnectClientSocket?5not?5found?6?$AA@ 1006adf0     xpcruntime:xpcimports.obj
 0002:00005e18       ??_C@_0BC@NHHAOBPJ@CloseClientSocket?$AA@ 1006ae18     xpcruntime:xpcimports.obj
 0002:00005e30       ??_C@_0BN@PGKNOKGL@CloseClientSocket?5not?5found?6?$AA@ 1006ae30     xpcruntime:xpcimports.obj
 0002:00005f08       __pDefaultRawDllMain       1006af08     LIBCMT:dll_dllmain.obj
 0002:00005f08       __pRawDllMain              1006af08     LIBCMT:dll_dllmain.obj
 0002:00005f20       ??_C@_1BC@DNHGCMLG@?$AAa?$AAd?$AAv?$AAa?$AAp?$AAi?$AA3?$AA2?$AA?$AA@ 1006af20     libvcruntime:winapi_downlevel.obj
 0002:00005f38       ??_C@_1DM@KHCHBNEB@?$AAa?$AAp?$AAi?$AA?9?$AAm?$AAs?$AA?9?$AAw?$AAi?$AAn?$AA?9?$AAc?$AAo?$AAr?$AAe?$AA?9?$AAf?$AAi?$AAb?$AAe?$AAr?$AAs?$AA?9?$AAl?$AA1?$AA?9?$AA1?$AA?9?$AA1?$AA?$AA@ 1006af38     libvcruntime:winapi_downlevel.obj
 0002:00005f80       ??_C@_1DK@LPPGFMPP@?$AAa?$AAp?$AAi?$AA?9?$AAm?$AAs?$AA?9?$AAw?$AAi?$AAn?$AA?9?$AAc?$AAo?$AAr?$AAe?$AA?9?$AAs?$AAy?$AAn?$AAc?$AAh?$AA?9?$AAl?$AA1?$AA?9?$AA2?$AA?9?$AA0?$AA?$AA@ 1006af80     libvcruntime:winapi_downlevel.obj
 0002:00005fc8       ??_C@_1BC@GDMECMAK@?$AAk?$AAe?$AAr?$AAn?$AAe?$AAl?$AA3?$AA2?$AA?$AA@ 1006afc8     libvcruntime:winapi_downlevel.obj
 0002:00005fe4       ??_C@_0O@BAMBGLIE@EventRegister?$AA@ 1006afe4     libvcruntime:winapi_downlevel.obj
 0002:00005ff8       ??_C@_0BE@BJEEGHGK@EventSetInformation?$AA@ 1006aff8     libvcruntime:winapi_downlevel.obj
 0002:00006014       ??_C@_0BA@FAKLIPIC@EventUnregister?$AA@ 1006b014     libvcruntime:winapi_downlevel.obj
 0002:0000602c       ??_C@_0BD@PKLHJPHD@EventWriteTransfer?$AA@ 1006b02c     libvcruntime:winapi_downlevel.obj
 0002:00006050       ??_C@_08KNHFBNJ@FlsAlloc?$AA@ 1006b050     libvcruntime:winapi_downlevel.obj
 0002:00006068       ??_C@_07PEJMOBNF@FlsFree?$AA@ 1006b068     libvcruntime:winapi_downlevel.obj
 0002:00006080       ??_C@_0M@GDNOONDI@FlsGetValue?$AA@ 1006b080     libvcruntime:winapi_downlevel.obj
 0002:0000609c       ??_C@_0M@JCPCPOEF@FlsSetValue?$AA@ 1006b09c     libvcruntime:winapi_downlevel.obj
 0002:000060b8       ??_C@_0BM@HCFOFFN@InitializeCriticalSectionEx?$AA@ 1006b0b8     libvcruntime:winapi_downlevel.obj
 0002:000062c0       ??_C@_08EHJDFFNH@__based?$CI?$AA@ 1006b2c0     libvcruntime:undname.obj
 0002:000062cc       ??_C@_07KOLFKCDI@__cdecl?$AA@ 1006b2cc     libvcruntime:undname.obj
 0002:000062d8       ??_C@_08GHMPAG@__pascal?$AA@ 1006b2d8     libvcruntime:undname.obj
 0002:000062e4       ??_C@_09IFJBGAPI@__stdcall?$AA@ 1006b2e4     libvcruntime:undname.obj
 0002:000062f0       ??_C@_0L@NPHFGOKO@__thiscall?$AA@ 1006b2f0     libvcruntime:undname.obj
 0002:00006300       ??_C@_0L@JMKHOMEK@__fastcall?$AA@ 1006b300     libvcruntime:undname.obj
 0002:00006310       ??_C@_0N@BCKKPABJ@__vectorcall?$AA@ 1006b310     libvcruntime:undname.obj
 0002:00006320       ??_C@_09HIJEGCPM@__clrcall?$AA@ 1006b320     libvcruntime:undname.obj
 0002:0000632c       ??_C@_06GHPCKEAG@__eabi?$AA@ 1006b32c     libvcruntime:undname.obj
 0002:00006334       ??_C@_07JOMMBBKO@__ptr64?$AA@ 1006b334     libvcruntime:undname.obj
 0002:00006340       ??_C@_0L@PILCLIHE@__restrict?$AA@ 1006b340     libvcruntime:undname.obj
 0002:00006350       ??_C@_0M@GFIIJFMG@__unaligned?$AA@ 1006b350     libvcruntime:undname.obj
 0002:00006360       ??_C@_09DHDLOLLB@restrict?$CI?$AA@ 1006b360     libvcruntime:undname.obj
 0002:0000636c       ??_C@_04NIHEBCM@?5new?$AA@ 1006b36c     libvcruntime:undname.obj
 0002:00006374       ??_C@_07FPCDHGMM@?5delete?$AA@ 1006b374     libvcruntime:undname.obj
 0002:00006380       ??_C@_01NEMOKFLO@?$DN?$AA@ 1006b380     libvcruntime:undname.obj
 0002:00006384       ??_C@_02GPIOPFAK@?$DO?$DO?$AA@ 1006b384     libvcruntime:undname.obj
 0002:00006388       ??_C@_02FODMEDOG@?$DM?$DM?$AA@ 1006b388     libvcruntime:undname.obj
 0002:0000638c       ??_C@_01DCLJPIOD@?$CB?$AA@ 1006b38c     libvcruntime:undname.obj
 0002:00006390       ??_C@_02EGOFBIJA@?$DN?$DN?$AA@ 1006b390     libvcruntime:undname.obj
 0002:00006394       ??_C@_02FDNJECIE@?$CB?$DN?$AA@ 1006b394     libvcruntime:undname.obj
 0002:00006398       ??_C@_02GPECMEKF@?$FL?$FN?$AA@ 1006b398     libvcruntime:undname.obj
 0002:0000639c       ??_C@_08LHJFAFGD@operator?$AA@ 1006b39c     libvcruntime:undname.obj
 0002:000063a8       ??_C@_02HBOOOICD@?9?$DO?$AA@ 1006b3a8     libvcruntime:undname.obj
 0002:000063ac       ??_C@_01NBENCBCI@?$CK?$AA@ 1006b3ac     libvcruntime:undname.obj
 0002:000063b0       ??_C@_02ECNGHCIF@?$CL?$CL?$AA@ 1006b3b0     libvcruntime:undname.obj
 0002:000063b4       ??_C@_02BAABKJLB@?9?9?$AA@ 1006b3b4     libvcruntime:undname.obj
 0002:000063b8       ??_C@_01JOAMLHOP@?9?$AA@   1006b3b8     libvcruntime:undname.obj
 0002:000063bc       ??_C@_01MIFGBAGJ@?$CL?$AA@ 1006b3bc     libvcruntime:undname.obj
 0002:000063c0       ??_C@_01HNPIGOCE@?$CG?$AA@ 1006b3c0     libvcruntime:undname.obj
 0002:000063c4       ??_C@_03MNHNFDLC@?9?$DO?$CK?$AA@ 1006b3c4     libvcruntime:undname.obj
 0002:000063c8       ??_C@_01KMDKNFGN@?1?$AA@   1006b3c8     libvcruntime:undname.obj
 0002:000063cc       ??_C@_01FGNFDNOH@?$CF?$AA@ 1006b3cc     libvcruntime:undname.obj
 0002:000063d0       ??_C@_01MNNFJEPP@?$DM?$AA@ 1006b3d0     libvcruntime:undname.obj
 0002:000063d4       ??_C@_02EHCHHCKH@?$DM?$DN?$AA@ 1006b3d4     libvcruntime:undname.obj
 0002:000063d8       ??_C@_01PPODPGHN@?$DO?$AA@ 1006b3d8     libvcruntime:undname.obj
 0002:000063dc       ??_C@_02EEKDKGMJ@?$DO?$DN?$AA@ 1006b3dc     libvcruntime:undname.obj
 0002:000063e0       ??_C@_01IHBHIGKO@?0?$AA@   1006b3e0     libvcruntime:undname.obj
 0002:000063e4       ??_C@_02HCKGKOFO@?$CI?$CJ?$AA@ 1006b3e4     libvcruntime:undname.obj
 0002:000063e8       ??_C@_01PJKLJHI@?$HO?$AA@  1006b3e8     libvcruntime:undname.obj
 0002:000063ec       ??_C@_01JKBOJNNK@?$FO?$AA@ 1006b3ec     libvcruntime:undname.obj
 0002:000063f0       ??_C@_01DNKMNLPK@?$HM?$AA@ 1006b3f0     libvcruntime:undname.obj
 0002:000063f4       ??_C@_02PPKAJPJL@?$CG?$CG?$AA@ 1006b3f4     libvcruntime:undname.obj
 0002:000063f8       ??_C@_02NONPIBCD@?$HM?$HM?$AA@ 1006b3f8     libvcruntime:undname.obj
 0002:000063fc       ??_C@_02FPIMKNGF@?$CK?$DN?$AA@ 1006b3fc     libvcruntime:undname.obj
 0002:00006400       ??_C@_02FOEOMHFC@?$CL?$DN?$AA@ 1006b400     libvcruntime:undname.obj
 0002:00006404       ??_C@_02FKMDLLOA@?9?$DN?$AA@ 1006b404     libvcruntime:undname.obj
 0002:00006408       ??_C@_02FJEHGPIO@?1?$DN?$AA@ 1006b408     libvcruntime:undname.obj
 0002:0000640c       ??_C@_02FENAOKFI@?$CF?$DN?$AA@ 1006b40c     libvcruntime:undname.obj
 0002:00006410       ??_C@_03IKFCCPFF@?$DO?$DO?$DN?$AA@ 1006b410     libvcruntime:undname.obj
 0002:00006414       ??_C@_03CDNPDDLA@?$DM?$DM?$DN?$AA@ 1006b414     libvcruntime:undname.obj
 0002:00006418       ??_C@_02FGJGFEAB@?$CG?$DN?$AA@ 1006b418     libvcruntime:undname.obj
 0002:0000641c       ??_C@_02DHLNPPGH@?$HM?$DN?$AA@ 1006b41c     libvcruntime:undname.obj
 0002:00006420       ??_C@_02MHEGNOJ@?$FO?$DN?$AA@ 1006b420     libvcruntime:undname.obj
 0002:00006424       ??_C@_09IFPLHPGF@?$GAvftable?8?$AA@ 1006b424     libvcruntime:undname.obj
 0002:00006430       ??_C@_09BLBHBJP@?$GAvbtable?8?$AA@ 1006b430     libvcruntime:undname.obj
 0002:0000643c       ??_C@_07FEEIOKP@?$GAvcall?8?$AA@ 1006b43c     libvcruntime:undname.obj
 0002:00006448       ??_C@_08LLFFHHDJ@?$GAtypeof?8?$AA@ 1006b448     libvcruntime:undname.obj
 0002:00006454       ??_C@_0BF@KDPPACIK@?$GAlocal?5static?5guard?8?$AA@ 1006b454     libvcruntime:undname.obj
 0002:00006470       ??_C@_08OBABFOLI@?$GAstring?8?$AA@ 1006b470     libvcruntime:undname.obj
 0002:0000647c       ??_C@_0BD@JDLKDPAB@?$GAvbase?5destructor?8?$AA@ 1006b47c     libvcruntime:undname.obj
 0002:00006494       ??_C@_0BN@DEGPLNFK@?$GAvector?5deleting?5destructor?8?$AA@ 1006b494     libvcruntime:undname.obj
 0002:000064b8       ??_C@_0BO@OBMKPJIG@?$GAdefault?5constructor?5closure?8?$AA@ 1006b4b8     libvcruntime:undname.obj
 0002:000064dc       ??_C@_0BN@IMDCHIKM@?$GAscalar?5deleting?5destructor?8?$AA@ 1006b4dc     libvcruntime:undname.obj
 0002:00006500       ??_C@_0BO@PFGOCPJJ@?$GAvector?5constructor?5iterator?8?$AA@ 1006b500     libvcruntime:undname.obj
 0002:00006524       ??_C@_0BN@LFPFMEDL@?$GAvector?5destructor?5iterator?8?$AA@ 1006b524     libvcruntime:undname.obj
 0002:00006548       ??_C@_0CE@IKBNEHA@?$GAvector?5vbase?5constructor?5iterat@ 1006b548     libvcruntime:undname.obj
 0002:00006574       ??_C@_0BL@NILFHHPC@?$GAvirtual?5displacement?5map?8?$AA@ 1006b574     libvcruntime:undname.obj
 0002:00006594       ??_C@_0CB@JONCMFFK@?$GAeh?5vector?5constructor?5iterator?8@ 1006b594     libvcruntime:undname.obj
 0002:000065bc       ??_C@_0CA@GCEOPDGL@?$GAeh?5vector?5destructor?5iterator?8?$AA@ 1006b5bc     libvcruntime:undname.obj
 0002:000065e4       ??_C@_0CH@OOJPLCPH@?$GAeh?5vector?5vbase?5constructor?5ite@ 1006b5e4     libvcruntime:undname.obj
 0002:00006614       ??_C@_0BL@LLKPOHJI@?$GAcopy?5constructor?5closure?8?$AA@ 1006b614     libvcruntime:undname.obj
 0002:00006634       ??_C@_0BA@KBCDOMBN@?$GAudt?5returning?8?$AA@ 1006b634     libvcruntime:undname.obj
 0002:00006648       ??_C@_03KLGMFNMG@?$GAEH?$AA@ 1006b648     libvcruntime:undname.obj
 0002:0000664c       ??_C@_05KHLCHHI@?$GARTTI?$AA@ 1006b64c     libvcruntime:undname.obj
 0002:00006654       ??_C@_0BA@KKLDJDLB@?$GAlocal?5vftable?8?$AA@ 1006b654     libvcruntime:undname.obj
 0002:00006668       ??_C@_0CE@IIHCMGGL@?$GAlocal?5vftable?5constructor?5closu@ 1006b668     libvcruntime:undname.obj
 0002:00006694       ??_C@_06FHBGPFGH@?5new?$FL?$FN?$AA@ 1006b694     libvcruntime:undname.obj
 0002:0000669c       ??_C@_09LBNFPBCA@?5delete?$FL?$FN?$AA@ 1006b69c     libvcruntime:undname.obj
 0002:000066a8       ??_C@_0P@HJKNJFNN@?$GAomni?5callsig?8?$AA@ 1006b6a8     libvcruntime:undname.obj
 0002:000066bc       ??_C@_0BL@CNOONJFP@?$GAplacement?5delete?5closure?8?$AA@ 1006b6bc     libvcruntime:undname.obj
 0002:000066dc       ??_C@_0BN@CKNJLHMB@?$GAplacement?5delete?$FL?$FN?5closure?8?$AA@ 1006b6dc     libvcruntime:undname.obj
 0002:00006700       ??_C@_0CG@CFDHKGGD@?$GAmanaged?5vector?5constructor?5iter@ 1006b700     libvcruntime:undname.obj
 0002:00006730       ??_C@_0CF@IMGKMJNO@?$GAmanaged?5vector?5destructor?5itera@ 1006b730     libvcruntime:undname.obj
 0002:0000675c       ??_C@_0CG@HLDDJMAG@?$GAeh?5vector?5copy?5constructor?5iter@ 1006b75c     libvcruntime:undname.obj
 0002:0000678c       ??_C@_0CM@FCBBDIGB@?$GAeh?5vector?5vbase?5copy?5constructo@ 1006b78c     libvcruntime:undname.obj
 0002:000067c0       ??_C@_0BL@CLIPGLGB@?$GAdynamic?5initializer?5for?5?8?$AA@ 1006b7c0     libvcruntime:undname.obj
 0002:000067e0       ??_C@_0CB@PDBIFEP@?$GAdynamic?5atexit?5destructor?5for?5?8@ 1006b7e0     libvcruntime:undname.obj
 0002:00006808       ??_C@_0CD@CGAJBKEJ@?$GAvector?5copy?5constructor?5iterato@ 1006b808     libvcruntime:undname.obj
 0002:00006834       ??_C@_0CJ@GJELGAMM@?$GAvector?5vbase?5copy?5constructor?5i@ 1006b834     libvcruntime:undname.obj
 0002:00006868       ??_C@_0CL@FGIJHLCE@?$GAmanaged?5vector?5copy?5constructor@ 1006b868     libvcruntime:undname.obj
 0002:0000689c       ??_C@_0BM@PMGGMLDN@?$GAlocal?5static?5thread?5guard?8?$AA@ 1006b89c     libvcruntime:undname.obj
 0002:000068c0       ??_C@_0N@BDNMDMOL@operator?5?$CC?$CC?5?$AA@ 1006b8c0     libvcruntime:undname.obj
 0002:000068d0       ??_C@_0BC@DAFEJGAK@?5Type?5Descriptor?8?$AA@ 1006b8d0     libvcruntime:undname.obj
 0002:000068e8       ??_C@_0BM@LDKODKLH@?5Base?5Class?5Descriptor?5at?5?$CI?$AA@ 1006b8e8     libvcruntime:undname.obj
 0002:0000690c       ??_C@_0BD@LGICGFMM@?5Base?5Class?5Array?8?$AA@ 1006b90c     libvcruntime:undname.obj
 0002:00006924       ??_C@_0BN@MECKDCOJ@?5Class?5Hierarchy?5Descriptor?8?$AA@ 1006b924     libvcruntime:undname.obj
 0002:00006948       ??_C@_0BK@CFCOFLF@?5Complete?5Object?5Locator?8?$AA@ 1006b948     libvcruntime:undname.obj
 0002:00006968       ??_C@_04HEJADOOB@CV?3?5?$AA@ 1006b968     libvcruntime:undname.obj
 0002:00006970       ??_C@_02MOLJINC@?3?3?$AA@  1006b970     libvcruntime:undname.obj
 0002:00006974       ??_C@_0BE@JAEOCHPE@template?9parameter?9?$AA@ 1006b974     libvcruntime:undname.obj
 0002:0000698c       ??_C@_0O@KHGCOMHP@generic?9type?9?$AA@ 1006b98c     libvcruntime:undname.obj
 0002:0000699c       ??_C@_01NLNLIGKH@?$GA?$AA@ 1006b99c     libvcruntime:undname.obj
 0002:000069a0       ??_C@_01GEODFPGF@?8?$AA@   1006b9a0     libvcruntime:undname.obj
 0002:000069a4       ??_C@_0BG@JNJLAMPM@?$GAanonymous?5namespace?8?$AA@ 1006b9a4     libvcruntime:undname.obj
 0002:000069c0       ??_C@_02OHHJMEON@?8?8?$AA@ 1006b9c0     libvcruntime:undname.obj
 0002:000069c4       ??_C@_0BN@IBLMMFAP@?$GAnon?9type?9template?9parameter?$AA@ 1006b9c4     libvcruntime:undname.obj
 0002:000069e8       ??_C@_04GKJNKENE@void?$AA@ 1006b9e8     libvcruntime:undname.obj
 0002:000069f0       ??_C@_0BE@EODMJLIF@?$GAtemplate?9parameter?$AA@ 1006b9f0     libvcruntime:undname.obj
 0002:00006a08       ??_C@_03KHICJKCI@?4?4?4?$AA@ 1006ba08     libvcruntime:undname.obj
 0002:00006a0c       ??_C@_04HIBGFPH@NULL?$AA@  1006ba0c     libvcruntime:undname.obj
 0002:00006a14       ??_C@_02DPKJAMEF@?$CFd?$AA@ 1006ba14     libvcruntime:undname.obj
 0002:00006a18       ??_C@_0BK@IHCCFNEL@?$GAtemplate?9type?9parameter?9?$AA@ 1006ba18     libvcruntime:undname.obj
 0002:00006a38       ??_C@_0BK@OFCNNNKO@?$GAgeneric?9class?9parameter?9?$AA@ 1006ba38     libvcruntime:undname.obj
 0002:00006a58       ??_C@_0BL@NGJBLFIL@?$GAgeneric?9method?9parameter?9?$AA@ 1006ba58     libvcruntime:undname.obj
 0002:00006a78       ??_C@_03OPGICMGF@?$HN?8?5?$AA@ 1006ba78     libvcruntime:undname.obj
 0002:00006a7c       ??_C@_02IGFCGPIL@?$HN?8?$AA@ 1006ba7c     libvcruntime:undname.obj
 0002:00006a80       ??_C@_01CLKCMJKC@?5?$AA@   1006ba80     libvcruntime:undname.obj
 0002:00006a84       ??_C@_0N@CBHHHENL@?$GAvtordispex?$HL?$AA@ 1006ba84     libvcruntime:undname.obj
 0002:00006a94       ??_C@_0L@GHPFDFH@?$GAvtordisp?$HL?$AA@ 1006ba94     libvcruntime:undname.obj
 0002:00006aa4       ??_C@_0L@HNGCOGAE@?$GAadjustor?$HL?$AA@ 1006baa4     libvcruntime:undname.obj
 0002:00006ab4       ??_C@_0CB@KJDOOODE@?$GAlocal?5static?5destructor?5helper?8@ 1006bab4     libvcruntime:undname.obj
 0002:00006adc       ??_C@_0DB@ILEFOCIJ@?$GAtemplate?5static?5data?5member?5con@ 1006badc     libvcruntime:undname.obj
 0002:00006b18       ??_C@_0DA@HGFJFBBE@?$GAtemplate?5static?5data?5member?5des@ 1006bb18     libvcruntime:undname.obj
 0002:00006b54       ??_C@_07PGOEDBHP@static?5?$AA@ 1006bb54     libvcruntime:undname.obj
 0002:00006b60       ??_C@_08NIEOINHE@virtual?5?$AA@ 1006bb60     libvcruntime:undname.obj
 0002:00006b6c       ??_C@_09LAPHOOG@private?3?5?$AA@ 1006bb6c     libvcruntime:undname.obj
 0002:00006b78       ??_C@_0M@GAIFPFIP@protected?3?5?$AA@ 1006bb78     libvcruntime:undname.obj
 0002:00006b88       ??_C@_08GPDDCMKI@public?3?5?$AA@ 1006bb88     libvcruntime:undname.obj
 0002:00006b94       ??_C@_08KJLFOPNE@?$FLthunk?$FN?3?$AA@ 1006bb94     libvcruntime:undname.obj
 0002:00006ba0       ??_C@_0M@DHNBOJMP@extern?5?$CCC?$CC?5?$AA@ 1006bba0     libvcruntime:undname.obj
 0002:00006bb0       ??_C@_02KCKGHPCA@?$CJ?5?$AA@ 1006bbb0     libvcruntime:undname.obj
 0002:00006bb4       ??_C@_05CIHEBHNO@char?5?$AA@ 1006bbb4     libvcruntime:undname.obj
 0002:00006bbc       ??_C@_06EHJMALKF@short?5?$AA@ 1006bbbc     libvcruntime:undname.obj
 0002:00006bc4       ??_C@_04LAHKHJMA@int?5?$AA@ 1006bbc4     libvcruntime:undname.obj
 0002:00006bcc       ??_C@_05CJIMAING@long?5?$AA@ 1006bbcc     libvcruntime:undname.obj
 0002:00006bd4       ??_C@_09EBBEKKIH@unsigned?5?$AA@ 1006bbd4     libvcruntime:undname.obj
 0002:00006be0       ??_C@_05BEFAKPML@void?5?$AA@ 1006bbe0     libvcruntime:undname.obj
 0002:00006be8       ??_C@_08PABEKFH@volatile?$AA@ 1006bbe8     libvcruntime:undname.obj
 0002:00006bf4       ??_C@_0BA@LKIJLKPP@std?3?3nullptr_t?5?$AA@ 1006bbf4     libvcruntime:undname.obj
 0002:00006c08       ??_C@_0P@GCOCNKDM@std?3?3nullptr_t?$AA@ 1006bc08     libvcruntime:undname.obj
 0002:00006c1c       ??_C@_0L@EGPHHEKN@?$DMellipsis?$DO?$AA@ 1006bc1c     libvcruntime:undname.obj
 0002:00006c2c       ??_C@_04EENFHACM@?0?4?4?4?$AA@ 1006bc2c     libvcruntime:undname.obj
 0002:00006c34       ??_C@_0M@ELJOJFFH@?0?$DMellipsis?$DO?$AA@ 1006bc34     libvcruntime:undname.obj
 0002:00006c44       ??_C@_07HDJPLPEK@?5throw?$CI?$AA@ 1006bc44     libvcruntime:undname.obj
 0002:00006c50       ??_C@_03PBJBJNON@cpu?$AA@  1006bc50     libvcruntime:undname.obj
 0002:00006c54       ??_C@_03DCBBJBAA@amp?$AA@  1006bc54     libvcruntime:undname.obj
 0002:00006c58       ??_C@_02KEGNLNML@?0?5?$AA@ 1006bc58     libvcruntime:undname.obj
 0002:00006c5c       ??_C@_04ENMBGAPA@char?$AA@ 1006bc5c     libvcruntime:undname.obj
 0002:00006c64       ??_C@_05BFKKPKCG@short?$AA@ 1006bc64     libvcruntime:undname.obj
 0002:00006c6c       ??_C@_03JBIPMCLC@int?$AA@  1006bc6c     libvcruntime:undname.obj
 0002:00006c70       ??_C@_04GOKPGOLB@long?$AA@ 1006bc70     libvcruntime:undname.obj
 0002:00006c78       ??_C@_04DDKJGDCM@bool?$AA@ 1006bc78     libvcruntime:undname.obj
 0002:00006c80       ??_C@_06EBGKOKIG@__int8?$AA@ 1006bc80     libvcruntime:undname.obj
 0002:00006c88       ??_C@_07ICFHOGAF@__int16?$AA@ 1006bc88     libvcruntime:undname.obj
 0002:00006c94       ??_C@_07OFLPPHGP@__int32?$AA@ 1006bc94     libvcruntime:undname.obj
 0002:00006ca0       ??_C@_07LFCOJCAC@__int64?$AA@ 1006bca0     libvcruntime:undname.obj
 0002:00006cac       ??_C@_08GAHOLHEO@__int128?$AA@ 1006bcac     libvcruntime:undname.obj
 0002:00006cb8       ??_C@_09EEKGDCPH@?$DMunknown?$DO?$AA@ 1006bcb8     libvcruntime:undname.obj
 0002:00006cc4       ??_C@_08HBIPOFJB@char16_t?$AA@ 1006bcc4     libvcruntime:undname.obj
 0002:00006cd0       ??_C@_08IECNCBKG@char32_t?$AA@ 1006bcd0     libvcruntime:undname.obj
 0002:00006cdc       ??_C@_07CLGGIAMF@wchar_t?$AA@ 1006bcdc     libvcruntime:undname.obj
 0002:00006ce8       ??_C@_06GCICPBLB@__w64?5?$AA@ 1006bce8     libvcruntime:undname.obj
 0002:00006cf0       ??_C@_07NFANNNEC@UNKNOWN?$AA@ 1006bcf0     libvcruntime:undname.obj
 0002:00006cfc       ??_C@_07EDHNAJHC@signed?5?$AA@ 1006bcfc     libvcruntime:undname.obj
 0002:00006d08       ??_C@_05BNCCCJPP@const?$AA@ 1006bd08     libvcruntime:undname.obj
 0002:00006d10       ??_C@_09EFNPDFFP@?5volatile?$AA@ 1006bd10     libvcruntime:undname.obj
 0002:00006d1c       ??_C@_0P@GCIFDJCJ@?$GAunknown?5ecsu?8?$AA@ 1006bd1c     libvcruntime:undname.obj
 0002:00006d30       ??_C@_06MOJHIBMG@union?5?$AA@ 1006bd30     libvcruntime:undname.obj
 0002:00006d38       ??_C@_07DIBCDNGL@struct?5?$AA@ 1006bd38     libvcruntime:undname.obj
 0002:00006d44       ??_C@_06LJBABKPM@class?5?$AA@ 1006bd44     libvcruntime:undname.obj
 0002:00006d4c       ??_C@_08KOFANOFK@coclass?5?$AA@ 1006bd4c     libvcruntime:undname.obj
 0002:00006d58       ??_C@_0N@DLIEFKNA@cointerface?5?$AA@ 1006bd58     libvcruntime:undname.obj
 0002:00006d68       ??_C@_05LJGMCFOG@enum?5?$AA@ 1006bd68     libvcruntime:undname.obj
 0002:00006d70       ??_C@_09GAIEOBLP@volatile?5?$AA@ 1006bd70     libvcruntime:undname.obj
 0002:00006d7c       ??_C@_06LIJLOJAG@const?5?$AA@ 1006bd7c     libvcruntime:undname.obj
 0002:00006d84       ??_C@_02KJPKDIBN@?$CG?5?$AA@ 1006bd84     libvcruntime:undname.obj
 0002:00006d88       ??_C@_03PCKGMOPB@?$CG?$CG?5?$AA@ 1006bd88     libvcruntime:undname.obj
 0002:00006d8c       ??_C@_0M@EALIELKG@cli?3?3array?$DM?$AA@ 1006bd8c     libvcruntime:undname.obj
 0002:00006d9c       ??_C@_0O@GKABPPIF@cli?3?3pin_ptr?$DM?$AA@ 1006bd9c     libvcruntime:undname.obj
 0002:00006dac       ??_C@_02GOGNNPBN@?$CJ?$FL?$AA@ 1006bdac     libvcruntime:undname.obj
 0002:00006db0       ??_C@_06EEGAIFAK@?$HLflat?$HN?$AA@ 1006bdb0     libvcruntime:undname.obj
 0002:00006db8       ??_C@_05JIBOFOHK@?$HLfor?5?$AA@ 1006bdb8     libvcruntime:undname.obj
 0002:00006dc0       ??_C@_02MDINNEEG@s?5?$AA@  1006bdc0     libvcruntime:undname.obj
 0002:00006dc8       ??_7DNameNode@@6B@         1006bdc8     libvcruntime:undname.obj
 0002:00006ddc       ??_7charNode@@6B@          1006bddc     libvcruntime:undname.obj
 0002:00006df0       ??_7pcharNode@@6B@         1006bdf0     libvcruntime:undname.obj
 0002:00006e04       ??_7pDNameNode@@6B@        1006be04     libvcruntime:undname.obj
 0002:00006e18       ??_7DNameStatusNode@@6B@   1006be18     libvcruntime:undname.obj
 0002:00006e2c       ??_7pairNode@@6B@          1006be2c     libvcruntime:undname.obj
 0002:00006e3c       ??_C@_04OKOHEJBO@?5?$DP?$DP?5?$AA@ 1006be3c     libvcruntime:undname.obj
 0002:00006e48       _standard_lookup_table     1006be48     libucrt:output.obj
 0002:00006eb8       _format_validation_lookup_table 1006beb8     libucrt:output.obj
 0002:00006f28       ??_C@_06OJHGLDPL@?$CInull?$CJ?$AA@ 1006bf28     libucrt:output.obj
 0002:00006f30       ??_C@_1O@CEDCILHN@?$AA?$CI?$AAn?$AAu?$AAl?$AAl?$AA?$CJ?$AA?$AA@ 1006bf30     libucrt:output.obj
 0002:00006f40       ??_C@_0CF@GOGNBNAK@Microsoft?5Visual?5C?$CL?$CL?5Runtime?5Lib@ 1006bf40     libucrt:assert.obj
 0002:00006f70       ??_C@_1EK@MBDPDCGA@?$AAM?$AAi?$AAc?$AAr?$AAo?$AAs?$AAo?$AAf?$AAt?$AA?5?$AAV?$AAi?$AAs?$AAu?$AAa?$AAl?$AA?5?$AAC?$AA?$CL?$AA?$CL?$AA?5?$AAR?$AAu?$AAn?$AAt?$AAi?$AAm?$AAe?$AA?5?$AAL?$AAi?$AAb@ 1006bf70     libucrt:assert.obj
 0002:00006fc8       ??_C@_0CK@CFPGFGGO@Assertion?5failed?3?5?$CFTs?0?5file?5?$CFTs?0@ 1006bfc8     libucrt:assert.obj
 0002:00007000       ??_C@_1FE@LHBLIKM@?$AAA?$AAs?$AAs?$AAe?$AAr?$AAt?$AAi?$AAo?$AAn?$AA?5?$AAf?$AAa?$AAi?$AAl?$AAe?$AAd?$AA?3?$AA?5?$AA?$CF?$AAT?$AAs?$AA?0?$AA?5?$AAf?$AAi?$AAl?$AAe?$AA?5?$AA?$CF?$AAT?$AAs?$AA?0@ 1006c000     libucrt:assert.obj
 0002:00007064       ??_C@_0BC@LAIDCHCH@Assertion?5failed?$CB?$AA@ 1006c064     libucrt:assert.obj
 0002:0000707c       ??_C@_1CE@OJBNHDMO@?$AAA?$AAs?$AAs?$AAe?$AAr?$AAt?$AAi?$AAo?$AAn?$AA?5?$AAf?$AAa?$AAi?$AAl?$AAe?$AAd?$AA?$CB?$AA?$AA@ 1006c07c     libucrt:assert.obj
 0002:000070a8       ??_C@_09KLGCKDOD@Program?3?5?$AA@ 1006c0a8     libucrt:assert.obj
 0002:000070b4       ??_C@_1BE@PHKBBGE@?$AAP?$AAr?$AAo?$AAg?$AAr?$AAa?$AAm?$AA?3?$AA?5?$AA?$AA@ 1006c0b4     libucrt:assert.obj
 0002:000070cc       ??_C@_06IGPBOHMJ@File?3?5?$AA@ 1006c0cc     libucrt:assert.obj
 0002:000070d4       ??_C@_1O@HEMHKNDC@?$AAF?$AAi?$AAl?$AAe?$AA?3?$AA?5?$AA?$AA@ 1006c0d4     libucrt:assert.obj
 0002:000070e4       ??_C@_06FIEBOLOH@Line?3?5?$AA@ 1006c0e4     libucrt:assert.obj
 0002:000070ec       ??_C@_1O@KCAFKHJE@?$AAL?$AAi?$AAn?$AAe?$AA?3?$AA?5?$AA?$AA@ 1006c0ec     libucrt:assert.obj
 0002:000070fc       ??_C@_0N@MEECIJGN@Expression?3?5?$AA@ 1006c0fc     libucrt:assert.obj
 0002:0000710c       ??_C@_1BK@PEDCIPMA@?$AAE?$AAx?$AAp?$AAr?$AAe?$AAs?$AAs?$AAi?$AAo?$AAn?$AA?3?$AA?5?$AA?$AA@ 1006c10c     libucrt:assert.obj
 0002:00007130       ??_C@_0HA@OJHAGA@For?5information?5on?5how?5your?5prog@ 1006c130     libucrt:assert.obj
 0002:000071b8       ??_C@_1OA@EGMLFBHJ@?$AAF?$AAo?$AAr?$AA?5?$AAi?$AAn?$AAf?$AAo?$AAr?$AAm?$AAa?$AAt?$AAi?$AAo?$AAn?$AA?5?$AAo?$AAn?$AA?5?$AAh?$AAo?$AAw?$AA?5?$AAy?$AAo?$AAu?$AAr?$AA?5?$AAp?$AAr?$AAo?$AAg@ 1006c1b8     libucrt:assert.obj
 0002:000072c4       ??_C@_0DN@EBBNMLME@?$CIPress?5Retry?5to?5debug?5the?5applic@ 1006c2c4     libucrt:assert.obj
 0002:00007310       ??_C@_1HK@POCJMFGK@?$AA?$CI?$AAP?$AAr?$AAe?$AAs?$AAs?$AA?5?$AAR?$AAe?$AAt?$AAr?$AAy?$AA?5?$AAt?$AAo?$AA?5?$AAd?$AAe?$AAb?$AAu?$AAg?$AA?5?$AAt?$AAh?$AAe?$AA?5?$AAa?$AAp?$AAp?$AAl?$AAi?$AAc@ 1006c310     libucrt:assert.obj
 0002:000073a4       ??_C@_17LGKOMLJ@?$AA?4?$AA?4?$AA?4?$AA?$AA@ 1006c3a4     libucrt:assert.obj
 0002:000073b0       ??_C@_01EEMJAFIK@?6?$AA@   1006c3b0     libucrt:assert.obj
 0002:000073b4       ??_C@_13LBAGMAIH@?$AA?6?$AA?$AA@ 1006c3b4     libucrt:assert.obj
 0002:000073b8       ??_C@_02PHMGELLB@?6?6?$AA@ 1006c3b8     libucrt:assert.obj
 0002:000073bc       ??_C@_15IABLJNFO@?$AA?6?$AA?6?$AA?$AA@ 1006c3bc     libucrt:assert.obj
 0002:000073c4       ??_C@_0BH@DNAGHKFM@?$DMprogram?5name?5unknown?$DO?$AA@ 1006c3c4     libucrt:assert.obj
 0002:000073e0       ??_C@_1CO@EAEJAADC@?$AA?$DM?$AAp?$AAr?$AAo?$AAg?$AAr?$AAa?$AAm?$AA?5?$AAn?$AAa?$AAm?$AAe?$AA?5?$AAu?$AAn?$AAk?$AAn?$AAo?$AAw?$AAn?$AA?$DO?$AA?$AA@ 1006c3e0     libucrt:assert.obj
 0002:00007418       _RtlNtPathSeperatorString  1006c418     libucrt:exit.obj
 0002:00007424       ??_C@_13FPGAJAPJ@?$AA?2?$AA?$AA@ 1006c424     libucrt:exit.obj
 0002:00007428       _RtlDosPathSeperatorsString 1006c428     libucrt:exit.obj
 0002:00007434       ??_C@_15MNCACJLI@?$AA?2?$AA?1?$AA?$AA@ 1006c434     libucrt:exit.obj
 0002:0000743c       _RtlAlternateDosPathSeperatorString 1006c43c     libucrt:exit.obj
 0002:00007448       ??_C@_13CGOKJPIL@?$AA?1?$AA?$AA@ 1006c448     libucrt:exit.obj
 0002:0000744c       ??_C@_1BI@BGOHAHKC@?$AAm?$AAs?$AAc?$AAo?$AAr?$AAe?$AAe?$AA?4?$AAd?$AAl?$AAl?$AA?$AA@ 1006c44c     libucrt:exit.obj
 0002:00007468       ??_C@_0P@MIGLKIOC@CorExitProcess?$AA@ 1006c468     libucrt:exit.obj
 0002:0000747c       ??_C@_04FJHINJAO@tanh?$AA@ 1006c47c     libucrt:fpexcept.obj
 0002:00007484       ??_C@_04FIHNOPOL@asin?$AA@ 1006c484     libucrt:fpexcept.obj
 0002:0000748c       ??_C@_04PDIFKINK@acos?$AA@ 1006c48c     libucrt:fpexcept.obj
 0002:00007494       ??_C@_04MLLJIGOK@atan?$AA@ 1006c494     libucrt:fpexcept.obj
 0002:0000749c       ??_C@_05KNGEOGJB@atan2?$AA@ 1006c49c     libucrt:fpexcept.obj
 0002:000074a4       ??_C@_04EIAKFFMI@sqrt?$AA@ 1006c4a4     libucrt:fpexcept.obj
 0002:000074ac       ??_C@_03BLEJJJBH@sin?$AA@  1006c4ac     libucrt:fpexcept.obj
 0002:000074b0       ??_C@_03LALBNOCG@cos?$AA@  1006c4b0     libucrt:fpexcept.obj
 0002:000074b4       ??_C@_03IIINPABG@tan?$AA@  1006c4b4     libucrt:fpexcept.obj
 0002:000074b8       ??_C@_04GFPJNGEK@ceil?$AA@ 1006c4b8     libucrt:fpexcept.obj
 0002:000074c0       ??_C@_05PBJFFIGL@floor?$AA@ 1006c4c0     libucrt:fpexcept.obj
 0002:000074c8       ??_C@_04ODHECPBC@fabs?$AA@ 1006c4c8     libucrt:fpexcept.obj
 0002:000074d0       ??_C@_04EHEDPDJG@modf?$AA@ 1006c4d0     libucrt:fpexcept.obj
 0002:000074d8       ??_C@_05CEJMAHNP@ldexp?$AA@ 1006c4d8     libucrt:fpexcept.obj
 0002:000074e0       ??_C@_05KBKMEMPO@_cabs?$AA@ 1006c4e0     libucrt:fpexcept.obj
 0002:000074e8       ??_C@_06MEIMCGCF@_hypot?$AA@ 1006c4e8     libucrt:fpexcept.obj
 0002:000074f0       ??_C@_04KEPJIHGP@fmod?$AA@ 1006c4f0     libucrt:fpexcept.obj
 0002:000074f8       ??_C@_05GKKHEGJL@frexp?$AA@ 1006c4f8     libucrt:fpexcept.obj
 0002:00007500       ??_C@_03MJLDFKDL@_y0?$AA@  1006c500     libucrt:fpexcept.obj
 0002:00007504       ??_C@_03NAKIGLHK@_y1?$AA@  1006c504     libucrt:fpexcept.obj
 0002:00007508       ??_C@_03ONILCKOB@_yn?$AA@  1006c508     libucrt:fpexcept.obj
 0002:0000750c       ??_C@_05JGDBENOH@_logb?$AA@ 1006c50c     libucrt:fpexcept.obj
 0002:00007514       ??_C@_0L@KDOEJCKC@_nextafter?$AA@ 1006c514     libucrt:fpexcept.obj
 0002:00007640       ??_C@_03KHJOGHMM@exp?$AA@  1006c640     libucrt:fpexcept.obj
 0002:00007644       ??_C@_03JGHBODFD@pow?$AA@  1006c644     libucrt:fpexcept.obj
 0002:00007648       ??_C@_03MGHMBJCF@log?$AA@  1006c648     libucrt:fpexcept.obj
 0002:0000764c       ??_C@_05HGHHAHAP@log10?$AA@ 1006c64c     libucrt:fpexcept.obj
 0002:00007654       ??_C@_04COOMCNPB@sinh?$AA@ 1006c654     libucrt:fpexcept.obj
 0002:0000765c       ??_C@_04HPJJNFIM@cosh?$AA@ 1006c65c     libucrt:fpexcept.obj
 0002:00007668       ___acrt_exception_action_table 1006c668     libucrt:exception_filter.obj
 0002:00007714       ___acrt_signal_action_table_count 1006c714     libucrt:exception_filter.obj
 0002:00007718       ___acrt_signal_action_table_size 1006c718     libucrt:exception_filter.obj
 0002:0000771c       ___acrt_signal_action_first_fpe_index 1006c71c     libucrt:exception_filter.obj
 0002:00007720       ___acrt_signal_action_fpe_count 1006c720     libucrt:exception_filter.obj
 0002:000077b8       ??_C@_1BG@HHIFPOEK@?$AAm?$AAs?$AAv?$AAc?$AAr?$AAt?$AA?4?$AAd?$AAl?$AAl?$AA?$AA@ 1006c7b8     libucrt:free_base.obj
 0002:000077d4       __Fenv0                    1006c7d4     libucrt:atox.obj
 0002:000079f0       ??_C@_1EG@CNNIPFIM@?$AAa?$AAp?$AAi?$AA?9?$AAm?$AAs?$AA?9?$AAw?$AAi?$AAn?$AA?9?$AAa?$AAp?$AAp?$AAm?$AAo?$AAd?$AAe?$AAl?$AA?9?$AAr?$AAu?$AAn?$AAt?$AAi?$AAm?$AAe?$AA?9?$AAl?$AA1?$AA?9?$AA1@ 1006c9f0     libucrt:winapi_thunks.obj
 0002:00007a48       ??_C@_1EA@JGEFHKEI@?$AAa?$AAp?$AAi?$AA?9?$AAm?$AAs?$AA?9?$AAw?$AAi?$AAn?$AA?9?$AAc?$AAo?$AAr?$AAe?$AA?9?$AAd?$AAa?$AAt?$AAe?$AAt?$AAi?$AAm?$AAe?$AA?9?$AAl?$AA1?$AA?9?$AA1?$AA?9?$AA1?$AA?$AA@ 1006ca48     libucrt:winapi_thunks.obj
 0002:00007a94       ??_C@_1DI@GCIAAENM@?$AAa?$AAp?$AAi?$AA?9?$AAm?$AAs?$AA?9?$AAw?$AAi?$AAn?$AA?9?$AAc?$AAo?$AAr?$AAe?$AA?9?$AAf?$AAi?$AAl?$AAe?$AA?9?$AAl?$AA2?$AA?9?$AA1?$AA?9?$AA1?$AA?$AA@ 1006ca94     libucrt:winapi_thunks.obj
 0002:00007ad8       ??_C@_1EI@MPIAOHOC@?$AAa?$AAp?$AAi?$AA?9?$AAm?$AAs?$AA?9?$AAw?$AAi?$AAn?$AA?9?$AAc?$AAo?$AAr?$AAe?$AA?9?$AAl?$AAo?$AAc?$AAa?$AAl?$AAi?$AAz?$AAa?$AAt?$AAi?$AAo?$AAn?$AA?9?$AAl?$AA1?$AA?9@ 1006cad8     libucrt:winapi_thunks.obj
 0002:00007b30       ??_C@_1FK@FPHCKFIE@?$AAa?$AAp?$AAi?$AA?9?$AAm?$AAs?$AA?9?$AAw?$AAi?$AAn?$AA?9?$AAc?$AAo?$AAr?$AAe?$AA?9?$AAl?$AAo?$AAc?$AAa?$AAl?$AAi?$AAz?$AAa?$AAt?$AAi?$AAo?$AAn?$AA?9?$AAo?$AAb?$AAs@ 1006cb30     libucrt:winapi_thunks.obj
 0002:00007ba0       ??_C@_1EM@DILCGIIO@?$AAa?$AAp?$AAi?$AA?9?$AAm?$AAs?$AA?9?$AAw?$AAi?$AAn?$AA?9?$AAc?$AAo?$AAr?$AAe?$AA?9?$AAp?$AAr?$AAo?$AAc?$AAe?$AAs?$AAs?$AAt?$AAh?$AAr?$AAe?$AAa?$AAd?$AAs?$AA?9?$AAl@ 1006cba0     libucrt:winapi_thunks.obj
 0002:00007bfc       ??_C@_1DM@LNCGDDPN@?$AAa?$AAp?$AAi?$AA?9?$AAm?$AAs?$AA?9?$AAw?$AAi?$AAn?$AA?9?$AAc?$AAo?$AAr?$AAe?$AA?9?$AAs?$AAt?$AAr?$AAi?$AAn?$AAg?$AA?9?$AAl?$AA1?$AA?9?$AA1?$AA?9?$AA0?$AA?$AA@ 1006cbfc     libucrt:winapi_thunks.obj
 0002:00007c44       ??_C@_1DO@FPAPJEMD@?$AAa?$AAp?$AAi?$AA?9?$AAm?$AAs?$AA?9?$AAw?$AAi?$AAn?$AA?9?$AAc?$AAo?$AAr?$AAe?$AA?9?$AAs?$AAy?$AAs?$AAi?$AAn?$AAf?$AAo?$AA?9?$AAl?$AA1?$AA?9?$AA2?$AA?9?$AA1?$AA?$AA@ 1006cc44     libucrt:winapi_thunks.obj
 0002:00007c90       ??_C@_1DK@NDHNAHIO@?$AAa?$AAp?$AAi?$AA?9?$AAm?$AAs?$AA?9?$AAw?$AAi?$AAn?$AA?9?$AAc?$AAo?$AAr?$AAe?$AA?9?$AAw?$AAi?$AAn?$AAr?$AAt?$AA?9?$AAl?$AA1?$AA?9?$AA1?$AA?9?$AA0?$AA?$AA@ 1006cc90     libucrt:winapi_thunks.obj
 0002:00007cd8       ??_C@_1DM@KGHDGBCM@?$AAa?$AAp?$AAi?$AA?9?$AAm?$AAs?$AA?9?$AAw?$AAi?$AAn?$AA?9?$AAc?$AAo?$AAr?$AAe?$AA?9?$AAx?$AAs?$AAt?$AAa?$AAt?$AAe?$AA?9?$AAl?$AA2?$AA?9?$AA1?$AA?9?$AA0?$AA?$AA@ 1006ccd8     libucrt:winapi_thunks.obj
 0002:00007d20       ??_C@_1EO@IJIOEFOH@?$AAa?$AAp?$AAi?$AA?9?$AAm?$AAs?$AA?9?$AAw?$AAi?$AAn?$AA?9?$AAr?$AAt?$AAc?$AAo?$AAr?$AAe?$AA?9?$AAn?$AAt?$AAu?$AAs?$AAe?$AAr?$AA?9?$AAw?$AAi?$AAn?$AAd?$AAo?$AAw?$AA?9@ 1006cd20     libucrt:winapi_thunks.obj
 0002:00007d80       ??_C@_1FG@HHGEKANL@?$AAa?$AAp?$AAi?$AA?9?$AAm?$AAs?$AA?9?$AAw?$AAi?$AAn?$AA?9?$AAs?$AAe?$AAc?$AAu?$AAr?$AAi?$AAt?$AAy?$AA?9?$AAs?$AAy?$AAs?$AAt?$AAe?$AAm?$AAf?$AAu?$AAn?$AAc?$AAt?$AAi@ 1006cd80     libucrt:winapi_thunks.obj
 0002:00007de8       ??_C@_1FG@NCKKOLKO@?$AAe?$AAx?$AAt?$AA?9?$AAm?$AAs?$AA?9?$AAw?$AAi?$AAn?$AA?9?$AAk?$AAe?$AAr?$AAn?$AAe?$AAl?$AA3?$AA2?$AA?9?$AAp?$AAa?$AAc?$AAk?$AAa?$AAg?$AAe?$AA?9?$AAc?$AAu?$AAr?$AAr@ 1006cde8     libucrt:winapi_thunks.obj
 0002:00007e50       ??_C@_1EG@DBIOJECG@?$AAe?$AAx?$AAt?$AA?9?$AAm?$AAs?$AA?9?$AAw?$AAi?$AAn?$AA?9?$AAn?$AAt?$AAu?$AAs?$AAe?$AAr?$AA?9?$AAd?$AAi?$AAa?$AAl?$AAo?$AAg?$AAb?$AAo?$AAx?$AA?9?$AAl?$AA1?$AA?9?$AA1@ 1006ce50     libucrt:winapi_thunks.obj
 0002:00007ea8       ??_C@_1EO@FIHMJCLF@?$AAe?$AAx?$AAt?$AA?9?$AAm?$AAs?$AA?9?$AAw?$AAi?$AAn?$AA?9?$AAn?$AAt?$AAu?$AAs?$AAe?$AAr?$AA?9?$AAw?$AAi?$AAn?$AAd?$AAo?$AAw?$AAs?$AAt?$AAa?$AAt?$AAi?$AAo?$AAn?$AA?9@ 1006cea8     libucrt:winapi_thunks.obj
 0002:00007f08       ??_C@_1O@BCCLBEOE@?$AAu?$AAs?$AAe?$AAr?$AA3?$AA2?$AA?$AA@ 1006cf08     libucrt:winapi_thunks.obj
 0002:00007f1c       ??_C@_0BA@FHFNEAED@AreFileApisANSI?$AA@ 1006cf1c     libucrt:winapi_thunks.obj
 0002:00007f3c       ??_C@_0BA@IHGNDAEB@CompareStringEx?$AA@ 1006cf3c     libucrt:winapi_thunks.obj
 0002:00007f5c       ??_C@_0BE@LJANKFHF@EnumSystemLocalesEx?$AA@ 1006cf5c     libucrt:winapi_thunks.obj
 0002:00007fb0       ??_C@_0BA@HNOPNCHB@GetActiveWindow?$AA@ 1006cfb0     libucrt:winapi_thunks.obj
 0002:00007fd0       ??_C@_0BE@JOGNEJCI@GetCurrentPackageId?$AA@ 1006cfd0     libucrt:winapi_thunks.obj
 0002:00007ff4       ??_C@_0BA@EPCJIIPD@GetDateFormatEx?$AA@ 1006cff4     libucrt:winapi_thunks.obj
 0002:00008014       ??_C@_0BJ@DIBIJBHA@GetEnabledXStateFeatures?$AA@ 1006d014     libucrt:winapi_thunks.obj
 0002:00008040       ??_C@_0BN@NEEHBBPO@GetFileInformationByHandleEx?$AA@ 1006d040     libucrt:winapi_thunks.obj
 0002:00008070       ??_C@_0BD@HHGDFDBJ@GetLastActivePopup?$AA@ 1006d070     libucrt:winapi_thunks.obj
 0002:00008094       ??_C@_0BA@ONOKGCMP@GetLocaleInfoEx?$AA@ 1006d094     libucrt:winapi_thunks.obj
 0002:000080b4       ??_C@_0BI@DFKBFLJE@GetProcessWindowStation?$AA@ 1006d0b4     libucrt:winapi_thunks.obj
 0002:000080d4       ??_C@_0BP@FPNJPEJC@GetSystemTimePreciseAsFileTime?$AA@ 1006d0d4     libucrt:winapi_thunks.obj
 0002:00008108       ??_C@_0BA@CIJJKCJJ@GetTimeFormatEx?$AA@ 1006d108     libucrt:winapi_thunks.obj
 0002:00008128       ??_C@_0BJ@PBCCBIPI@GetUserDefaultLocaleName?$AA@ 1006d128     libucrt:winapi_thunks.obj
 0002:00008154       ??_C@_0BK@DEKFELLI@GetUserObjectInformationW?$AA@ 1006d154     libucrt:winapi_thunks.obj
 0002:00008180       ??_C@_0BG@IKLDMBLM@GetXStateFeaturesMask?$AA@ 1006d180     libucrt:winapi_thunks.obj
 0002:000081b4       ??_C@_0BC@CELBKLLA@IsValidLocaleName?$AA@ 1006d1b4     libucrt:winapi_thunks.obj
 0002:000081d8       ??_C@_0O@KKBNKAPF@LCMapStringEx?$AA@ 1006d1d8     libucrt:winapi_thunks.obj
 0002:000081f4       ??_C@_0BB@CDHDDLLP@LCIDToLocaleName?$AA@ 1006d1f4     libucrt:winapi_thunks.obj
 0002:00008214       ??_C@_0BB@HBDEELFH@LocaleNameToLCID?$AA@ 1006d214     libucrt:winapi_thunks.obj
 0002:00008234       ??_C@_0BE@KINNKFDA@LocateXStateFeature?$AA@ 1006d234     libucrt:winapi_thunks.obj
 0002:00008258       ??_C@_0M@CHKKJDAI@MessageBoxA?$AA@ 1006d258     libucrt:winapi_thunks.obj
 0002:00008274       ??_C@_0M@DLDCCGNP@MessageBoxW?$AA@ 1006d274     libucrt:winapi_thunks.obj
 0002:00008288       ??_C@_0N@PPOMPGGK@RoInitialize?$AA@ 1006d288     libucrt:winapi_thunks.obj
 0002:0000829c       ??_C@_0P@LLFHBIJD@RoUninitialize?$AA@ 1006d29c     libucrt:winapi_thunks.obj
 0002:000082bc       ??_C@_0BI@BKLFFAPO@SetThreadStackGuarantee?$AA@ 1006d2bc     libucrt:winapi_thunks.obj
 0002:000082e4       ??_C@_0BC@JEAENNKH@SystemFunction036?$AA@ 1006d2e4     libucrt:winapi_thunks.obj
 0002:000082fc       ??_C@_03OEIAHPBN@INF?$AA@  1006d2fc     libucrt:cvt.obj
 0002:00008300       ??_C@_03OJHLLCGB@inf?$AA@  1006d300     libucrt:cvt.obj
 0002:00008304       ??_C@_03LKNCIKJB@NAN?$AA@  1006d304     libucrt:cvt.obj
 0002:00008308       ??_C@_03LHCJEHON@nan?$AA@  1006d308     libucrt:cvt.obj
 0002:0000830c       ??_C@_09OFJJIMPC@NAN?$CISNAN?$CJ?$AA@ 1006d30c     libucrt:cvt.obj
 0002:00008318       ??_C@_09IPFBKMDL@nan?$CIsnan?$CJ?$AA@ 1006d318     libucrt:cvt.obj
 0002:00008324       ??_C@_08IKHNHAJ@NAN?$CIIND?$CJ?$AA@ 1006d324     libucrt:cvt.obj
 0002:00008330       ??_C@_08OFCDMILK@nan?$CIind?$CJ?$AA@ 1006d330     libucrt:cvt.obj
 0002:0000833c       ??_C@_05KLBDPFGC@e?$CL000?$AA@ 1006d33c     libucrt:cvt.obj
 0002:00008348       ___lc_category             1006d348     libucrt:wsetlocale.obj
 0002:000083a0       ??_C@_1O@GIFLHMA@?$AAL?$AAC?$AA_?$AAA?$AAL?$AAL?$AA?$AA@ 1006d3a0     libucrt:wsetlocale.obj
 0002:000083b0       ??_C@_1BG@PPOMIBNJ@?$AAL?$AAC?$AA_?$AAC?$AAO?$AAL?$AAL?$AAA?$AAT?$AAE?$AA?$AA@ 1006d3b0     libucrt:wsetlocale.obj
 0002:000083cc       ??_C@_1BC@FFJGAPJM@?$AAL?$AAC?$AA_?$AAC?$AAT?$AAY?$AAP?$AAE?$AA?$AA@ 1006d3cc     libucrt:wsetlocale.obj
 0002:000083e4       ??_C@_1BI@PCKFNJFB@?$AAL?$AAC?$AA_?$AAM?$AAO?$AAN?$AAE?$AAT?$AAA?$AAR?$AAY?$AA?$AA@ 1006d3e4     libucrt:wsetlocale.obj
 0002:00008400       ??_C@_1BG@ENIEDKID@?$AAL?$AAC?$AA_?$AAN?$AAU?$AAM?$AAE?$AAR?$AAI?$AAC?$AA?$AA@ 1006d400     libucrt:wsetlocale.obj
 0002:0000841c       ??_C@_1BA@HAAOMIIG@?$AAL?$AAC?$AA_?$AAT?$AAI?$AAM?$AAE?$AA?$AA@ 1006d41c     libucrt:wsetlocale.obj
 0002:000084c8       ??_C@_15NBPDDFIP@?$AA?$DN?$AA?$DL?$AA?$AA@ 1006d4c8     libucrt:wsetlocale.obj
 0002:000084d0       ??_C@_13PJJBFPED@?$AA?$DL?$AA?$AA@ 1006d4d0     libucrt:wsetlocale.obj
 0002:000084d4       ??_C@_13NMPKAAJP@?$AA?$DN?$AA?$AA@ 1006d4d4     libucrt:wsetlocale.obj
 0002:000084d8       ??_C@_13FHBKNHDA@?$AAC?$AA?$AA@ 1006d4d8     libucrt:wsetlocale.obj
 0002:000084dc       ??_C@_17MBJJLFDM@?$AA_?$AA?4?$AA?0?$AA?$AA@ 1006d4dc     libucrt:wsetlocale.obj
 0002:000084e8       ??_C@_13ENNFDPBH@?$AA_?$AA?$AA@ 1006d4e8     libucrt:wsetlocale.obj
 0002:000084ec       ??_C@_13JOFGPIOO@?$AA?4?$AA?$AA@ 1006d4ec     libucrt:wsetlocale.obj
 0002:000084f0       ??_C@_03KOEHGMDN@Sun?$AA@  1006d4f0     libucrt:nlsdata.obj
 0002:000084f4       ??_C@_03PDAGKDH@Mon?$AA@   1006d4f4     libucrt:nlsdata.obj
 0002:000084f8       ??_C@_03NAGEINEP@Tue?$AA@  1006d4f8     libucrt:nlsdata.obj
 0002:000084fc       ??_C@_03MHOMLAJA@Wed?$AA@  1006d4fc     libucrt:nlsdata.obj
 0002:00008500       ??_C@_03IOFIKPDN@Thu?$AA@  1006d500     libucrt:nlsdata.obj
 0002:00008504       ??_C@_03IDIOELNC@Fri?$AA@  1006d504     libucrt:nlsdata.obj
 0002:00008508       ??_C@_03FEFJNEK@Sat?$AA@   1006d508     libucrt:nlsdata.obj
 0002:0000850c       ??_C@_06OOPIFAJ@Sunday?$AA@ 1006d50c     libucrt:nlsdata.obj
 0002:00008514       ??_C@_06JLEDEDGH@Monday?$AA@ 1006d514     libucrt:nlsdata.obj
 0002:0000851c       ??_C@_07BAAGCFCM@Tuesday?$AA@ 1006d51c     libucrt:nlsdata.obj
 0002:00008528       ??_C@_09DLIGFAKA@Wednesday?$AA@ 1006d528     libucrt:nlsdata.obj
 0002:00008534       ??_C@_08HACCIKIA@Thursday?$AA@ 1006d534     libucrt:nlsdata.obj
 0002:00008540       ??_C@_06JECMNKMI@Friday?$AA@ 1006d540     libucrt:nlsdata.obj
 0002:00008548       ??_C@_08INBOOONO@Saturday?$AA@ 1006d548     libucrt:nlsdata.obj
 0002:00008554       ??_C@_03JIHJHPIE@Jan?$AA@  1006d554     libucrt:nlsdata.obj
 0002:00008558       ??_C@_03HJBDCHOM@Feb?$AA@  1006d558     libucrt:nlsdata.obj
 0002:0000855c       ??_C@_03ODNJBKGA@Mar?$AA@  1006d55c     libucrt:nlsdata.obj
 0002:00008560       ??_C@_03LEOLGMJP@Apr?$AA@  1006d560     libucrt:nlsdata.obj
 0002:00008564       ??_C@_03CNMDKL@May?$AA@    1006d564     libucrt:nlsdata.obj
 0002:00008568       ??_C@_03IDFGHECI@Jun?$AA@  1006d568     libucrt:nlsdata.obj
 0002:0000856c       ??_C@_03LBGABGKK@Jul?$AA@  1006d56c     libucrt:nlsdata.obj
 0002:00008570       ??_C@_03IFJFEIGA@Aug?$AA@  1006d570     libucrt:nlsdata.obj
 0002:00008574       ??_C@_03GGCAPAJC@Sep?$AA@  1006d574     libucrt:nlsdata.obj
 0002:00008578       ??_C@_03BMAOKBAD@Oct?$AA@  1006d578     libucrt:nlsdata.obj
 0002:0000857c       ??_C@_03JPJOFNIA@Nov?$AA@  1006d57c     libucrt:nlsdata.obj
 0002:00008580       ??_C@_03MKABNOCG@Dec?$AA@  1006d580     libucrt:nlsdata.obj
 0002:00008584       ??_C@_07CGJPFGJA@January?$AA@ 1006d584     libucrt:nlsdata.obj
 0002:00008590       ??_C@_08GNJGEPFN@February?$AA@ 1006d590     libucrt:nlsdata.obj
 0002:0000859c       ??_C@_05HPCKOFNC@March?$AA@ 1006d59c     libucrt:nlsdata.obj
 0002:000085a4       ??_C@_05DMJDNLEJ@April?$AA@ 1006d5a4     libucrt:nlsdata.obj
 0002:000085ac       ??_C@_04CNLMGBGM@June?$AA@ 1006d5ac     libucrt:nlsdata.obj
 0002:000085b4       ??_C@_04MIEPOIFP@July?$AA@ 1006d5b4     libucrt:nlsdata.obj
 0002:000085bc       ??_C@_06LBBHFDDG@August?$AA@ 1006d5bc     libucrt:nlsdata.obj
 0002:000085c4       ??_C@_09BHHEALKD@September?$AA@ 1006d5c4     libucrt:nlsdata.obj
 0002:000085d0       ??_C@_07JJNFCEND@October?$AA@ 1006d5d0     libucrt:nlsdata.obj
 0002:000085dc       ??_C@_08HCHEGEOA@November?$AA@ 1006d5dc     libucrt:nlsdata.obj
 0002:000085e8       ??_C@_08EDHMEBNP@December?$AA@ 1006d5e8     libucrt:nlsdata.obj
 0002:000085f4       ??_C@_02DEDBPAFC@AM?$AA@   1006d5f4     libucrt:nlsdata.obj
 0002:000085f8       ??_C@_02CJNFDJBF@PM?$AA@   1006d5f8     libucrt:nlsdata.obj
 0002:000085fc       ??_C@_08BPBNCDIB@MM?1dd?1yy?$AA@ 1006d5fc     libucrt:nlsdata.obj
 0002:00008608       ??_C@_0BE@CKGJFCPC@dddd?0?5MMMM?5dd?0?5yyyy?$AA@ 1006d608     libucrt:nlsdata.obj
 0002:00008620       ??_C@_08JCCMCCIL@HH?3mm?3ss?$AA@ 1006d620     libucrt:nlsdata.obj
 0002:0000862c       ??_C@_17MBGCMIPB@?$AAS?$AAu?$AAn?$AA?$AA@ 1006d62c     libucrt:nlsdata.obj
 0002:00008638       ??_C@_17KBOMKBF@?$AAM?$AAo?$AAn?$AA?$AA@ 1006d638     libucrt:nlsdata.obj
 0002:00008644       ??_C@_17BMKGEGOJ@?$AAT?$AAu?$AAe?$AA?$AA@ 1006d644     libucrt:nlsdata.obj
 0002:00008650       ??_C@_17CJEDCEPE@?$AAW?$AAe?$AAd?$AA?$AA@ 1006d650     libucrt:nlsdata.obj
 0002:0000865c       ??_C@_17PDPHAADD@?$AAT?$AAh?$AAu?$AA?$AA@ 1006d65c     libucrt:nlsdata.obj
 0002:00008668       ??_C@_17HFOLPPLP@?$AAF?$AAr?$AAi?$AA?$AA@ 1006d668     libucrt:nlsdata.obj
 0002:00008674       ??_C@_17GGIBDPIH@?$AAS?$AAa?$AAt?$AA?$AA@ 1006d674     libucrt:nlsdata.obj
 0002:00008680       ??_C@_1O@IHNHDHPB@?$AAS?$AAu?$AAn?$AAd?$AAa?$AAy?$AA?$AA@ 1006d680     libucrt:nlsdata.obj
 0002:00008690       ??_C@_1O@MMNBFLIA@?$AAM?$AAo?$AAn?$AAd?$AAa?$AAy?$AA?$AA@ 1006d690     libucrt:nlsdata.obj
 0002:000086a0       ??_C@_1BA@ENFBFFEK@?$AAT?$AAu?$AAe?$AAs?$AAd?$AAa?$AAy?$AA?$AA@ 1006d6a0     libucrt:nlsdata.obj
 0002:000086b4       ??_C@_1BE@EBOGMDOH@?$AAW?$AAe?$AAd?$AAn?$AAe?$AAs?$AAd?$AAa?$AAy?$AA?$AA@ 1006d6b4     libucrt:nlsdata.obj
 0002:000086cc       ??_C@_1BC@HHMNLIHE@?$AAT?$AAh?$AAu?$AAr?$AAs?$AAd?$AAa?$AAy?$AA?$AA@ 1006d6cc     libucrt:nlsdata.obj
 0002:000086e4       ??_C@_1O@PDICJHAG@?$AAF?$AAr?$AAi?$AAd?$AAa?$AAy?$AA?$AA@ 1006d6e4     libucrt:nlsdata.obj
 0002:000086f4       ??_C@_1BC@ENMNNPAJ@?$AAS?$AAa?$AAt?$AAu?$AAr?$AAd?$AAa?$AAy?$AA?$AA@ 1006d6f4     libucrt:nlsdata.obj
 0002:0000870c       ??_C@_17DKNBKCHM@?$AAJ?$AAa?$AAn?$AA?$AA@ 1006d70c     libucrt:nlsdata.obj
 0002:00008718       ??_C@_17LMDJEKJN@?$AAF?$AAe?$AAb?$AA?$AA@ 1006d718     libucrt:nlsdata.obj
 0002:00008724       ??_C@_17CKNLEDEC@?$AAM?$AAa?$AAr?$AA?$AA@ 1006d724     libucrt:nlsdata.obj
 0002:00008730       ??_C@_17LFPOIHDD@?$AAA?$AAp?$AAr?$AA?$AA@ 1006d730     libucrt:nlsdata.obj
 0002:0000873c       ??_C@_17PNNKMEED@?$AAM?$AAa?$AAy?$AA?$AA@ 1006d73c     libucrt:nlsdata.obj
 0002:00008748       ??_C@_17KCJGOCPB@?$AAJ?$AAu?$AAn?$AA?$AA@ 1006d748     libucrt:nlsdata.obj
 0002:00008754       ??_C@_17IJPCKHK@?$AAJ?$AAu?$AAl?$AA?$AA@ 1006d754     libucrt:nlsdata.obj
 0002:00008760       ??_C@_17ICPELBCN@?$AAA?$AAu?$AAg?$AA?$AA@ 1006d760     libucrt:nlsdata.obj
 0002:0000876c       ??_C@_17HCHCOKMG@?$AAS?$AAe?$AAp?$AA?$AA@ 1006d76c     libucrt:nlsdata.obj
 0002:00008778       ??_C@_17FNLKOI@?$AAO?$AAc?$AAt?$AA?$AA@ 1006d778     libucrt:nlsdata.obj
 0002:00008784       ??_C@_17BBDMLCIG@?$AAN?$AAo?$AAv?$AA?$AA@ 1006d784     libucrt:nlsdata.obj
 0002:00008790       ??_C@_17EGKACKIF@?$AAD?$AAe?$AAc?$AA?$AA@ 1006d790     libucrt:nlsdata.obj
 0002:0000879c       ??_C@_1BA@EFMEIEBA@?$AAJ?$AAa?$AAn?$AAu?$AAa?$AAr?$AAy?$AA?$AA@ 1006d79c     libucrt:nlsdata.obj
 0002:000087b0       ??_C@_1BC@JGDDFFAM@?$AAF?$AAe?$AAb?$AAr?$AAu?$AAa?$AAr?$AAy?$AA?$AA@ 1006d7b0     libucrt:nlsdata.obj
 0002:000087c8       ??_C@_1M@IKEENEDF@?$AAM?$AAa?$AAr?$AAc?$AAh?$AA?$AA@ 1006d7c8     libucrt:nlsdata.obj
 0002:000087d8       ??_C@_1M@GJNLMHFD@?$AAA?$AAp?$AAr?$AAi?$AAl?$AA?$AA@ 1006d7d8     libucrt:nlsdata.obj
 0002:000087e8       ??_C@_19EPFLPGAP@?$AAJ?$AAu?$AAn?$AAe?$AA?$AA@ 1006d7e8     libucrt:nlsdata.obj
 0002:000087f4       ??_C@_19BIFMLPCD@?$AAJ?$AAu?$AAl?$AAy?$AA?$AA@ 1006d7f4     libucrt:nlsdata.obj
 0002:00008800       ??_C@_1O@PAHLKOAC@?$AAA?$AAu?$AAg?$AAu?$AAs?$AAt?$AA?$AA@ 1006d800     libucrt:nlsdata.obj
 0002:00008810       ??_C@_1BE@DKAAMBJL@?$AAS?$AAe?$AAp?$AAt?$AAe?$AAm?$AAb?$AAe?$AAr?$AA?$AA@ 1006d810     libucrt:nlsdata.obj
 0002:00008828       ??_C@_1BA@EPANDLNG@?$AAO?$AAc?$AAt?$AAo?$AAb?$AAe?$AAr?$AA?$AA@ 1006d828     libucrt:nlsdata.obj
 0002:0000883c       ??_C@_1BC@BGLIFPF@?$AAN?$AAo?$AAv?$AAe?$AAm?$AAb?$AAe?$AAr?$AA?$AA@ 1006d83c     libucrt:nlsdata.obj
 0002:00008854       ??_C@_1BC@FEMKIFH@?$AAD?$AAe?$AAc?$AAe?$AAm?$AAb?$AAe?$AAr?$AA?$AA@ 1006d854     libucrt:nlsdata.obj
 0002:0000886c       ??_C@_15ODEHAHHF@?$AAA?$AAM?$AA?$AA@ 1006d86c     libucrt:nlsdata.obj
 0002:00008874       ??_C@_15CLMNNGEL@?$AAP?$AAM?$AA?$AA@ 1006d874     libucrt:nlsdata.obj
 0002:0000887c       ??_C@_1BC@IEBCMHCM@?$AAM?$AAM?$AA?1?$AAd?$AAd?$AA?1?$AAy?$AAy?$AA?$AA@ 1006d87c     libucrt:nlsdata.obj
 0002:00008894       ??_C@_1CI@KNAKOEBC@?$AAd?$AAd?$AAd?$AAd?$AA?0?$AA?5?$AAM?$AAM?$AAM?$AAM?$AA?5?$AAd?$AAd?$AA?0?$AA?5?$AAy?$AAy?$AAy?$AAy?$AA?$AA@ 1006d894     libucrt:nlsdata.obj
 0002:000088c4       ??_C@_1BC@GDGBMEMK@?$AAH?$AAH?$AA?3?$AAm?$AAm?$AA?3?$AAs?$AAs?$AA?$AA@ 1006d8c4     libucrt:nlsdata.obj
 0002:000088dc       ??_C@_1M@BMHNFIME@?$AAe?$AAn?$AA?9?$AAU?$AAS?$AA?$AA@ 1006d8dc     libucrt:nlsdata.obj
 0002:000088f0       ___lc_time_c               1006d8f0     libucrt:nlsdata.obj
 0002:00008a9c       ??_C@_1DE@JNGNBFGO@?$AAR?$AAu?$AAn?$AAt?$AAi?$AAm?$AAe?$AA?5?$AAE?$AAr?$AAr?$AAo?$AAr?$AA?$CB?$AA?6?$AA?6?$AAP?$AAr?$AAo?$AAg?$AAr?$AAa?$AAm?$AA?3?$AA?5?$AA?$AA@ 1006da9c     libucrt:report_runtime_error.obj
 0002:00008adc       ?ccs@?BL@???$__acrt_stdio_parse_mode@D@@YA?AU__acrt_stdio_stream_mode@@QBD@Z@4QBDB 1006dadc     libucrt:openfile.obj
 0002:00008ae0       ?utf8_encoding@?BL@???$__acrt_stdio_parse_mode@D@@YA?AU__acrt_stdio_stream_mode@@QBD@Z@4QBDB 1006dae0     libucrt:openfile.obj
 0002:00008ae8       ?utf16_encoding@?BL@???$__acrt_stdio_parse_mode@D@@YA?AU__acrt_stdio_stream_mode@@QBD@Z@4QBDB 1006dae8     libucrt:openfile.obj
 0002:00008af4       ?unicode_encoding@?BL@???$__acrt_stdio_parse_mode@D@@YA?AU__acrt_stdio_stream_mode@@QBD@Z@4QBDB 1006daf4     libucrt:openfile.obj
 0002:00008afc       ?ccs@?BL@???$__acrt_stdio_parse_mode@_W@@YA?AU__acrt_stdio_stream_mode@@QB_W@Z@4QB_WB 1006dafc     libucrt:openfile.obj
 0002:00008b04       ?utf8_encoding@?BL@???$__acrt_stdio_parse_mode@_W@@YA?AU__acrt_stdio_stream_mode@@QB_W@Z@4QB_WB 1006db04     libucrt:openfile.obj
 0002:00008b10       ?utf16_encoding@?BL@???$__acrt_stdio_parse_mode@_W@@YA?AU__acrt_stdio_stream_mode@@QB_W@Z@4QB_WB 1006db10     libucrt:openfile.obj
 0002:00008b24       ?unicode_encoding@?BL@???$__acrt_stdio_parse_mode@_W@@YA?AU__acrt_stdio_stream_mode@@QB_W@Z@4QB_WB 1006db24     libucrt:openfile.obj
 0002:00008b38       __d_inf                    1006db38     libucrt:util.obj
 0002:00008b48       __d_ind                    1006db48     libucrt:util.obj
 0002:00008b58       __d_max                    1006db58     libucrt:util.obj
 0002:00008b68       __d_min                    1006db68     libucrt:util.obj
 0002:00008b78       __d_mzero                  1006db78     libucrt:util.obj
 0002:00008bb8       ??_C@_1M@HPNHIDJI@?$AAj?$AAa?$AA?9?$AAJ?$AAP?$AA?$AA@ 1006dbb8     libucrt:mbctype.obj
 0002:00008bc8       ??_C@_1M@BIBDDEMK@?$AAz?$AAh?$AA?9?$AAC?$AAN?$AA?$AA@ 1006dbc8     libucrt:mbctype.obj
 0002:00008bd8       ??_C@_1M@JLOOOEGK@?$AAk?$AAo?$AA?9?$AAK?$AAR?$AA?$AA@ 1006dbd8     libucrt:mbctype.obj
 0002:00008be8       ??_C@_1M@CLNBBOPM@?$AAz?$AAh?$AA?9?$AAT?$AAW?$AA?$AA@ 1006dbe8     libucrt:mbctype.obj
 0002:00008bf8       __wctype                   1006dbf8     libucrt:ctype.obj
 0002:00008e68       ___newctype                1006de68     libucrt:ctype.obj
 0002:00009208       ___newclmap                1006e208     libucrt:ctype.obj
 0002:000093d8       ___newcumap                1006e3d8     libucrt:ctype.obj
 0002:00009e34       ??_C@_15EMKDOKLE@?$AAa?$AAr?$AA?$AA@ 1006ee34     libucrt:lcidtoname_downlevel.obj
 0002:00009e3c       ??_C@_15KNPADPLH@?$AAb?$AAg?$AA?$AA@ 1006ee3c     libucrt:lcidtoname_downlevel.obj
 0002:00009e44       ??_C@_15EDMHLDMO@?$AAc?$AAa?$AA?$AA@ 1006ee44     libucrt:lcidtoname_downlevel.obj
 0002:00009e4c       ??_C@_1O@BPEAJADD@?$AAz?$AAh?$AA?9?$AAC?$AAH?$AAS?$AA?$AA@ 1006ee4c     libucrt:lcidtoname_downlevel.obj
 0002:00009e5c       ??_C@_15LJNHCMNK@?$AAc?$AAs?$AA?$AA@ 1006ee5c     libucrt:lcidtoname_downlevel.obj
 0002:00009e64       ??_C@_15FOMCIDHG@?$AAd?$AAa?$AA?$AA@ 1006ee64     libucrt:lcidtoname_downlevel.obj
 0002:00009e6c       ??_C@_15NBKABECB@?$AAd?$AAe?$AA?$AA@ 1006ee6c     libucrt:lcidtoname_downlevel.obj
 0002:00009e74       ??_C@_15GHPEIIAO@?$AAe?$AAl?$AA?$AA@ 1006ee74     libucrt:lcidtoname_downlevel.obj
 0002:00009e7c       ??_C@_15MNPNEAIF@?$AAe?$AAn?$AA?$AA@ 1006ee7c     libucrt:lcidtoname_downlevel.obj
 0002:00009e84       ??_C@_15GPIOMPMH@?$AAe?$AAs?$AA?$AA@ 1006ee84     libucrt:lcidtoname_downlevel.obj
 0002:00009e8c       ??_C@_15NGLOAKJC@?$AAf?$AAi?$AA?$AA@ 1006ee8c     libucrt:lcidtoname_downlevel.obj
 0002:00009e94       ??_C@_15FBKGNKAM@?$AAf?$AAr?$AA?$AA@ 1006ee94     libucrt:lcidtoname_downlevel.obj
 0002:00009e9c       ??_C@_15KGGCNEFK@?$AAh?$AAe?$AA?$AA@ 1006ee9c     libucrt:lcidtoname_downlevel.obj
 0002:00009ea4       ??_C@_15PGHLIDMF@?$AAh?$AAu?$AA?$AA@ 1006eea4     libucrt:lcidtoname_downlevel.obj
 0002:00009eac       ??_C@_15BIEMAPLM@?$AAi?$AAs?$AA?$AA@ 1006eeac     libucrt:lcidtoname_downlevel.obj
 0002:00009eb4       ??_C@_15IFJLDHAF@?$AAi?$AAt?$AA?$AA@ 1006eeb4     libucrt:lcidtoname_downlevel.obj
 0002:00009ebc       ??_C@_15GEMIOCAG@?$AAj?$AAa?$AA?$AA@ 1006eebc     libucrt:lcidtoname_downlevel.obj
 0002:00009ec4       ??_C@_15EPELEGJA@?$AAk?$AAo?$AA?$AA@ 1006eec4     libucrt:lcidtoname_downlevel.obj
 0002:00009ecc       ??_C@_15NDDHIMN@?$AAn?$AAl?$AA?$AA@ 1006eecc     libucrt:lcidtoname_downlevel.obj
 0002:00009ed4       ??_C@_15BPIGNHCD@?$AAn?$AAo?$AA?$AA@ 1006eed4     libucrt:lcidtoname_downlevel.obj
 0002:00009edc       ??_C@_15DEOPBLCG@?$AAp?$AAl?$AA?$AA@ 1006eedc     libucrt:lcidtoname_downlevel.obj
 0002:00009ee4       ??_C@_15KBECGEFG@?$AAp?$AAt?$AA?$AA@ 1006eee4     libucrt:lcidtoname_downlevel.obj
 0002:00009eec       ??_C@_15GLJCBFMD@?$AAr?$AAo?$AA?$AA@ 1006eeec     libucrt:lcidtoname_downlevel.obj
 0002:00009ef4       ??_C@_15FEDGKCDI@?$AAr?$AAu?$AA?$AA@ 1006eef4     libucrt:lcidtoname_downlevel.obj
 0002:00009efc       ??_C@_15GLKMLLHM@?$AAh?$AAr?$AA?$AA@ 1006eefc     libucrt:lcidtoname_downlevel.obj
 0002:00009f04       ??_C@_15CPKMFBDB@?$AAs?$AAk?$AA?$AA@ 1006ef04     libucrt:lcidtoname_downlevel.obj
 0002:00009f0c       ??_C@_15BAAIOGMK@?$AAs?$AAq?$AA?$AA@ 1006ef0c     libucrt:lcidtoname_downlevel.obj
 0002:00009f14       ??_C@_15INNPNOHD@?$AAs?$AAv?$AA?$AA@ 1006ef14     libucrt:lcidtoname_downlevel.obj
 0002:00009f1c       ??_C@_15CABMMOGH@?$AAt?$AAh?$AA?$AA@ 1006ef1c     libucrt:lcidtoname_downlevel.obj
 0002:00009f24       ??_C@_15BPLIHJJM@?$AAt?$AAr?$AA?$AA@ 1006ef24     libucrt:lcidtoname_downlevel.obj
 0002:00009f2c       ??_C@_15NEOEKKDJ@?$AAu?$AAr?$AA?$AA@ 1006ef2c     libucrt:lcidtoname_downlevel.obj
 0002:00009f34       ??_C@_15NFICGAJK@?$AAi?$AAd?$AA?$AA@ 1006ef34     libucrt:lcidtoname_downlevel.obj
 0002:00009f3c       ??_C@_15PJPFLCCM@?$AAu?$AAk?$AA?$AA@ 1006ef3c     libucrt:lcidtoname_downlevel.obj
 0002:00009f44       ??_C@_15HPJPHDM@?$AAb?$AAe?$AA?$AA@ 1006ef44     libucrt:lcidtoname_downlevel.obj
 0002:00009f4c       ??_C@_15LCHLGJII@?$AAs?$AAl?$AA?$AA@ 1006ef4c     libucrt:lcidtoname_downlevel.obj
 0002:00009f54       ??_C@_15PCFJPHHO@?$AAe?$AAt?$AA?$AA@ 1006ef54     libucrt:lcidtoname_downlevel.obj
 0002:00009f5c       ??_C@_15HPFPGODN@?$AAl?$AAv?$AA?$AA@ 1006ef5c     libucrt:lcidtoname_downlevel.obj
 0002:00009f64       ??_C@_15NFFGKGLG@?$AAl?$AAt?$AA?$AA@ 1006ef64     libucrt:lcidtoname_downlevel.obj
 0002:00009f6c       ??_C@_15BDAKCCHN@?$AAf?$AAa?$AA?$AA@ 1006ef6c     libucrt:lcidtoname_downlevel.obj
 0002:00009f74       ??_C@_15NFGIAIAJ@?$AAv?$AAi?$AA?$AA@ 1006ef74     libucrt:lcidtoname_downlevel.obj
 0002:00009f7c       ??_C@_15LMKNDMHN@?$AAh?$AAy?$AA?$AA@ 1006ef7c     libucrt:lcidtoname_downlevel.obj
 0002:00009f84       ??_C@_15IJBHMCFL@?$AAa?$AAz?$AA?$AA@ 1006ef84     libucrt:lcidtoname_downlevel.obj
 0002:00009f8c       ??_C@_15EKOFJABL@?$AAe?$AAu?$AA?$AA@ 1006ef8c     libucrt:lcidtoname_downlevel.obj
 0002:00009f94       ??_C@_15BGHADCNK@?$AAm?$AAk?$AA?$AA@ 1006ef94     libucrt:lcidtoname_downlevel.obj
 0002:00009f9c       ??_C@_15JDNICKHM@?$AAa?$AAf?$AA?$AA@ 1006ef9c     libucrt:lcidtoname_downlevel.obj
 0002:00009fa4       ??_C@_15KPJEDBKD@?$AAk?$AAa?$AA?$AA@ 1006efa4     libucrt:lcidtoname_downlevel.obj
 0002:00009fac       ??_C@_15PDNFFFEO@?$AAf?$AAo?$AA?$AA@ 1006efac     libucrt:lcidtoname_downlevel.obj
 0002:00009fb4       ??_C@_15OMLEGLOC@?$AAh?$AAi?$AA?$AA@ 1006efb4     libucrt:lcidtoname_downlevel.obj
 0002:00009fbc       ??_C@_15IDNNENKK@?$AAm?$AAs?$AA?$AA@ 1006efbc     libucrt:lcidtoname_downlevel.obj
 0002:00009fc4       ??_C@_15MACJNBMH@?$AAk?$AAk?$AA?$AA@ 1006efc4     libucrt:lcidtoname_downlevel.obj
 0002:00009fcc       ??_C@_15DKDJEOND@?$AAk?$AAy?$AA?$AA@ 1006efcc     libucrt:lcidtoname_downlevel.obj
 0002:00009fd4       ??_C@_15DFGDLJBG@?$AAs?$AAw?$AA?$AA@ 1006efd4     libucrt:lcidtoname_downlevel.obj
 0002:00009fdc       ??_C@_15BBFAICNG@?$AAu?$AAz?$AA?$AA@ 1006efdc     libucrt:lcidtoname_downlevel.obj
 0002:00009fe4       ??_C@_15DKNDCGEA@?$AAt?$AAt?$AA?$AA@ 1006efe4     libucrt:lcidtoname_downlevel.obj
 0002:00009fec       ??_C@_15MGIFMDPL@?$AAp?$AAa?$AA?$AA@ 1006efec     libucrt:lcidtoname_downlevel.obj
 0002:00009ff4       ??_C@_15HCNDBBA@?$AAg?$AAu?$AA?$AA@ 1006eff4     libucrt:lcidtoname_downlevel.obj
 0002:00009ffc       ??_C@_15FNBEIBON@?$AAt?$AAa?$AA?$AA@ 1006effc     libucrt:lcidtoname_downlevel.obj
 0002:0000a004       ??_C@_15NCHGBGLK@?$AAt?$AAe?$AA?$AA@ 1006f004     libucrt:lcidtoname_downlevel.obj
 0002:0000a00c       ??_C@_15PHPHCBPF@?$AAk?$AAn?$AA?$AA@ 1006f00c     libucrt:lcidtoname_downlevel.obj
 0002:0000a014       ??_C@_15DLGBCKMP@?$AAm?$AAr?$AA?$AA@ 1006f014     libucrt:lcidtoname_downlevel.obj
 0002:0000a01c       ??_C@_15EABBLBFF@?$AAs?$AAa?$AA?$AA@ 1006f01c     libucrt:lcidtoname_downlevel.obj
 0002:0000a024       ??_C@_15CBKOMCOI@?$AAm?$AAn?$AA?$AA@ 1006f024     libucrt:lcidtoname_downlevel.obj
 0002:0000a02c       ??_C@_15CKDMCJAF@?$AAg?$AAl?$AA?$AA@ 1006f02c     libucrt:lcidtoname_downlevel.obj
 0002:0000a034       ??_C@_17CNJFBPG@?$AAk?$AAo?$AAk?$AA?$AA@ 1006f034     libucrt:lcidtoname_downlevel.obj
 0002:0000a040       ??_C@_17FFBJICPL@?$AAs?$AAy?$AAr?$AA?$AA@ 1006f040     libucrt:lcidtoname_downlevel.obj
 0002:0000a04c       ??_C@_17KPNDCPAF@?$AAd?$AAi?$AAv?$AA?$AA@ 1006f04c     libucrt:lcidtoname_downlevel.obj
 0002:0000a058       ??_C@_11LOCGONAA@?$AA?$AA@ 1006f058     libucrt:lcidtoname_downlevel.obj
 0002:0000a05c       ??_C@_1M@OKAHONE@?$AAa?$AAr?$AA?9?$AAS?$AAA?$AA?$AA@ 1006f05c     libucrt:lcidtoname_downlevel.obj
 0002:0000a06c       ??_C@_1M@FFFIGIGK@?$AAb?$AAg?$AA?9?$AAB?$AAG?$AA?$AA@ 1006f06c     libucrt:lcidtoname_downlevel.obj
 0002:0000a07c       ??_C@_1M@BJNKEDC@?$AAc?$AAa?$AA?9?$AAE?$AAS?$AA?$AA@ 1006f07c     libucrt:lcidtoname_downlevel.obj
 0002:0000a08c       ??_C@_1M@IJJHFJHA@?$AAc?$AAs?$AA?9?$AAC?$AAZ?$AA?$AA@ 1006f08c     libucrt:lcidtoname_downlevel.obj
 0002:0000a09c       ??_C@_1M@CLPEOBGI@?$AAd?$AAa?$AA?9?$AAD?$AAK?$AA?$AA@ 1006f09c     libucrt:lcidtoname_downlevel.obj
 0002:0000a0ac       ??_C@_1M@MCMADGCB@?$AAd?$AAe?$AA?9?$AAD?$AAE?$AA?$AA@ 1006f0ac     libucrt:lcidtoname_downlevel.obj
 0002:0000a0bc       ??_C@_1M@OOCKEMAM@?$AAe?$AAl?$AA?9?$AAG?$AAR?$AA?$AA@ 1006f0bc     libucrt:lcidtoname_downlevel.obj
 0002:0000a0cc       ??_C@_1M@DDNJFGID@?$AAf?$AAi?$AA?9?$AAF?$AAI?$AA?$AA@ 1006f0cc     libucrt:lcidtoname_downlevel.obj
 0002:0000a0dc       ??_C@_1M@GLIPPMAC@?$AAf?$AAr?$AA?9?$AAF?$AAR?$AA?$AA@ 1006f0dc     libucrt:lcidtoname_downlevel.obj
 0002:0000a0ec       ??_C@_1M@GFMCHPE@?$AAh?$AAe?$AA?9?$AAI?$AAL?$AA?$AA@ 1006f0ec     libucrt:lcidtoname_downlevel.obj
 0002:0000a0fc       ??_C@_1M@MHLPGNKM@?$AAh?$AAu?$AA?9?$AAH?$AAU?$AA?$AA@ 1006f0fc     libucrt:lcidtoname_downlevel.obj
 0002:0000a10c       ??_C@_1M@LPDDNNPN@?$AAi?$AAs?$AA?9?$AAI?$AAS?$AA?$AA@ 1006f10c     libucrt:lcidtoname_downlevel.obj
 0002:0000a11c       ??_C@_1M@MADIPODN@?$AAi?$AAt?$AA?9?$AAI?$AAT?$AA?$AA@ 1006f11c     libucrt:lcidtoname_downlevel.obj
 0002:0000a12c       ??_C@_1M@IHBJJGG@?$AAn?$AAl?$AA?9?$AAN?$AAL?$AA?$AA@ 1006f12c     libucrt:lcidtoname_downlevel.obj
 0002:0000a13c       ??_C@_1M@EANAGDL@?$AAn?$AAb?$AA?9?$AAN?$AAO?$AA?$AA@ 1006f13c     libucrt:lcidtoname_downlevel.obj
 0002:0000a14c       ??_C@_1M@NEIEMEGP@?$AAp?$AAl?$AA?9?$AAP?$AAL?$AA?$AA@ 1006f14c     libucrt:lcidtoname_downlevel.obj
 0002:0000a15c       ??_C@_1M@BOCFIGEP@?$AAp?$AAt?$AA?9?$AAB?$AAR?$AA?$AA@ 1006f15c     libucrt:lcidtoname_downlevel.obj
 0002:0000a16c       ??_C@_1M@IMPFOPBG@?$AAr?$AAo?$AA?9?$AAR?$AAO?$AA?$AA@ 1006f16c     libucrt:lcidtoname_downlevel.obj
 0002:0000a17c       ??_C@_1M@IDNNEJMM@?$AAr?$AAu?$AA?9?$AAR?$AAU?$AA?$AA@ 1006f17c     libucrt:lcidtoname_downlevel.obj
 0002:0000a18c       ??_C@_1M@LILEEOGM@?$AAh?$AAr?$AA?9?$AAH?$AAR?$AA?$AA@ 1006f18c     libucrt:lcidtoname_downlevel.obj
 0002:0000a19c       ??_C@_1M@FKIFEHPB@?$AAs?$AAk?$AA?9?$AAS?$AAK?$AA?$AA@ 1006f19c     libucrt:lcidtoname_downlevel.obj
 0002:0000a1ac       ??_C@_1M@LJMAMNPJ@?$AAs?$AAq?$AA?9?$AAA?$AAL?$AA?$AA@ 1006f1ac     libucrt:lcidtoname_downlevel.obj
 0002:0000a1bc       ??_C@_1M@GIAKDKJK@?$AAs?$AAv?$AA?9?$AAS?$AAE?$AA?$AA@ 1006f1bc     libucrt:lcidtoname_downlevel.obj
 0002:0000a1cc       ??_C@_1M@MKJKIKCL@?$AAt?$AAh?$AA?9?$AAT?$AAH?$AA?$AA@ 1006f1cc     libucrt:lcidtoname_downlevel.obj
 0002:0000a1dc       ??_C@_1M@MFLCCMPB@?$AAt?$AAr?$AA?9?$AAT?$AAR?$AA?$AA@ 1006f1dc     libucrt:lcidtoname_downlevel.obj
 0002:0000a1ec       ??_C@_1M@OIJHDKJN@?$AAu?$AAr?$AA?9?$AAP?$AAK?$AA?$AA@ 1006f1ec     libucrt:lcidtoname_downlevel.obj
 0002:0000a1fc       ??_C@_1M@LHIPCIEK@?$AAi?$AAd?$AA?9?$AAI?$AAD?$AA?$AA@ 1006f1fc     libucrt:lcidtoname_downlevel.obj
 0002:0000a20c       ??_C@_1M@MFMOBGI@?$AAu?$AAk?$AA?9?$AAU?$AAA?$AA?$AA@ 1006f20c     libucrt:lcidtoname_downlevel.obj
 0002:0000a21c       ??_C@_1M@OBGLJIPL@?$AAb?$AAe?$AA?9?$AAB?$AAY?$AA?$AA@ 1006f21c     libucrt:lcidtoname_downlevel.obj
 0002:0000a22c       ??_C@_1M@BCFAJEAD@?$AAs?$AAl?$AA?9?$AAS?$AAI?$AA?$AA@ 1006f22c     libucrt:lcidtoname_downlevel.obj
 0002:0000a23c       ??_C@_1M@FKFFEDDN@?$AAe?$AAt?$AA?9?$AAE?$AAE?$AA?$AA@ 1006f23c     libucrt:lcidtoname_downlevel.obj
 0002:0000a24c       ??_C@_1M@KGKKAACI@?$AAl?$AAv?$AA?9?$AAL?$AAV?$AA?$AA@ 1006f24c     libucrt:lcidtoname_downlevel.obj
 0002:0000a25c       ??_C@_1M@IFGBIJO@?$AAl?$AAt?$AA?9?$AAL?$AAT?$AA?$AA@ 1006f25c     libucrt:lcidtoname_downlevel.obj
 0002:0000a26c       ??_C@_1M@FGEAHEDM@?$AAf?$AAa?$AA?9?$AAI?$AAR?$AA?$AA@ 1006f26c     libucrt:lcidtoname_downlevel.obj
 0002:0000a27c       ??_C@_1M@KBMAIBFN@?$AAv?$AAi?$AA?9?$AAV?$AAN?$AA?$AA@ 1006f27c     libucrt:lcidtoname_downlevel.obj
 0002:0000a28c       ??_C@_1M@GPCBKDJK@?$AAh?$AAy?$AA?9?$AAA?$AAM?$AA?$AA@ 1006f28c     libucrt:lcidtoname_downlevel.obj
 0002:0000a29c       ??_C@_1BG@BECMDDJB@?$AAa?$AAz?$AA?9?$AAA?$AAZ?$AA?9?$AAL?$AAa?$AAt?$AAn?$AA?$AA@ 1006f29c     libucrt:lcidtoname_downlevel.obj
 0002:0000a2b8       ??_C@_1M@MAOFCAEA@?$AAe?$AAu?$AA?9?$AAE?$AAS?$AA?$AA@ 1006f2b8     libucrt:lcidtoname_downlevel.obj
 0002:0000a2c8       ??_C@_1M@IGHABKPI@?$AAm?$AAk?$AA?9?$AAM?$AAK?$AA?$AA@ 1006f2c8     libucrt:lcidtoname_downlevel.obj
 0002:0000a2d8       ??_C@_1M@IAIGNEJG@?$AAt?$AAn?$AA?9?$AAZ?$AAA?$AA?$AA@ 1006f2d8     libucrt:lcidtoname_downlevel.obj
 0002:0000a2e8       ??_C@_1M@IIJCOJFA@?$AAx?$AAh?$AA?9?$AAZ?$AAA?$AA?$AA@ 1006f2e8     libucrt:lcidtoname_downlevel.obj
 0002:0000a2f8       ??_C@_1M@LGPJHNJH@?$AAz?$AAu?$AA?9?$AAZ?$AAA?$AA?$AA@ 1006f2f8     libucrt:lcidtoname_downlevel.obj
 0002:0000a308       ??_C@_1M@HOKAOIO@?$AAa?$AAf?$AA?9?$AAZ?$AAA?$AA?$AA@ 1006f308     libucrt:lcidtoname_downlevel.obj
 0002:0000a318       ??_C@_1M@DPCLHLIE@?$AAk?$AAa?$AA?9?$AAG?$AAE?$AA?$AA@ 1006f318     libucrt:lcidtoname_downlevel.obj
 0002:0000a328       ??_C@_1M@BLKMHJBI@?$AAf?$AAo?$AA?9?$AAF?$AAO?$AA?$AA@ 1006f328     libucrt:lcidtoname_downlevel.obj
 0002:0000a338       ??_C@_1M@LGGJAPPB@?$AAh?$AAi?$AA?9?$AAI?$AAN?$AA?$AA@ 1006f338     libucrt:lcidtoname_downlevel.obj
 0002:0000a348       ??_C@_1M@FIKPIHFE@?$AAm?$AAt?$AA?9?$AAM?$AAT?$AA?$AA@ 1006f348     libucrt:lcidtoname_downlevel.obj
 0002:0000a358       ??_C@_1M@HEGGPBFA@?$AAs?$AAe?$AA?9?$AAN?$AAO?$AA?$AA@ 1006f358     libucrt:lcidtoname_downlevel.obj
 0002:0000a368       ??_C@_1M@EIBJEEPA@?$AAm?$AAs?$AA?9?$AAM?$AAY?$AA?$AA@ 1006f368     libucrt:lcidtoname_downlevel.obj
 0002:0000a378       ??_C@_1M@FHLBGMPP@?$AAk?$AAk?$AA?9?$AAK?$AAZ?$AA?$AA@ 1006f378     libucrt:lcidtoname_downlevel.obj
 0002:0000a388       ??_C@_1M@NGJJLCGI@?$AAk?$AAy?$AA?9?$AAK?$AAG?$AA?$AA@ 1006f388     libucrt:lcidtoname_downlevel.obj
 0002:0000a398       ??_C@_1M@GIENNBFC@?$AAs?$AAw?$AA?9?$AAK?$AAE?$AA?$AA@ 1006f398     libucrt:lcidtoname_downlevel.obj
 0002:0000a3a8       ??_C@_1BG@NDGMJIMJ@?$AAu?$AAz?$AA?9?$AAU?$AAZ?$AA?9?$AAL?$AAa?$AAt?$AAn?$AA?$AA@ 1006f3a8     libucrt:lcidtoname_downlevel.obj
 0002:0000a3c4       ??_C@_1M@IDCCIHBC@?$AAt?$AAt?$AA?9?$AAR?$AAU?$AA?$AA@ 1006f3c4     libucrt:lcidtoname_downlevel.obj
 0002:0000a3d4       ??_C@_1M@LOICPMOJ@?$AAb?$AAn?$AA?9?$AAI?$AAN?$AA?$AA@ 1006f3d4     libucrt:lcidtoname_downlevel.obj
 0002:0000a3e4       ??_C@_1M@KPKKNEAH@?$AAp?$AAa?$AA?9?$AAI?$AAN?$AA?$AA@ 1006f3e4     libucrt:lcidtoname_downlevel.obj
 0002:0000a3f4       ??_C@_1M@PJGPPBOG@?$AAg?$AAu?$AA?9?$AAI?$AAN?$AA?$AA@ 1006f3f4     libucrt:lcidtoname_downlevel.obj
 0002:0000a404       ??_C@_1M@KMKMOPHI@?$AAt?$AAa?$AA?9?$AAI?$AAN?$AA?$AA@ 1006f404     libucrt:lcidtoname_downlevel.obj
 0002:0000a414       ??_C@_1M@KFEHEPAC@?$AAt?$AAe?$AA?9?$AAI?$AAN?$AA?$AA@ 1006f414     libucrt:lcidtoname_downlevel.obj
 0002:0000a424       ??_C@_1M@CDCLMGHI@?$AAk?$AAn?$AA?9?$AAI?$AAN?$AA?$AA@ 1006f424     libucrt:lcidtoname_downlevel.obj
 0002:0000a434       ??_C@_1M@MIODLDKF@?$AAm?$AAl?$AA?9?$AAI?$AAN?$AA?$AA@ 1006f434     libucrt:lcidtoname_downlevel.obj
 0002:0000a444       ??_C@_1M@PBIEACPO@?$AAm?$AAr?$AA?9?$AAI?$AAN?$AA?$AA@ 1006f444     libucrt:lcidtoname_downlevel.obj
 0002:0000a454       ??_C@_1M@NIDEAGPH@?$AAs?$AAa?$AA?9?$AAI?$AAN?$AA?$AA@ 1006f454     libucrt:lcidtoname_downlevel.obj
 0002:0000a464       ??_C@_1M@FHIHCBIO@?$AAm?$AAn?$AA?9?$AAM?$AAN?$AA?$AA@ 1006f464     libucrt:lcidtoname_downlevel.obj
 0002:0000a474       ??_C@_1M@JAIJPENP@?$AAc?$AAy?$AA?9?$AAG?$AAB?$AA?$AA@ 1006f474     libucrt:lcidtoname_downlevel.obj
 0002:0000a484       ??_C@_1M@PHGFBEPN@?$AAg?$AAl?$AA?9?$AAE?$AAS?$AA?$AA@ 1006f484     libucrt:lcidtoname_downlevel.obj
 0002:0000a494       ??_C@_1O@KPIPDNCP@?$AAk?$AAo?$AAk?$AA?9?$AAI?$AAN?$AA?$AA@ 1006f494     libucrt:lcidtoname_downlevel.obj
 0002:0000a4a4       ??_C@_1O@KNHJLDJA@?$AAs?$AAy?$AAr?$AA?9?$AAS?$AAY?$AA?$AA@ 1006f4a4     libucrt:lcidtoname_downlevel.obj
 0002:0000a4b4       ??_C@_1O@MKEKBLAH@?$AAd?$AAi?$AAv?$AA?9?$AAM?$AAV?$AA?$AA@ 1006f4b4     libucrt:lcidtoname_downlevel.obj
 0002:0000a4c4       ??_C@_1O@OHDCKDDF@?$AAq?$AAu?$AAz?$AA?9?$AAB?$AAO?$AA?$AA@ 1006f4c4     libucrt:lcidtoname_downlevel.obj
 0002:0000a4d4       ??_C@_1M@LEPJNLFD@?$AAn?$AAs?$AA?9?$AAZ?$AAA?$AA?$AA@ 1006f4d4     libucrt:lcidtoname_downlevel.obj
 0002:0000a4e4       ??_C@_1M@OMLEIIJB@?$AAm?$AAi?$AA?9?$AAN?$AAZ?$AA?$AA@ 1006f4e4     libucrt:lcidtoname_downlevel.obj
 0002:0000a4f4       ??_C@_1M@PMPEAILG@?$AAa?$AAr?$AA?9?$AAI?$AAQ?$AA?$AA@ 1006f4f4     libucrt:lcidtoname_downlevel.obj
 0002:0000a504       ??_C@_1M@CNKPNOEE@?$AAd?$AAe?$AA?9?$AAC?$AAH?$AA?$AA@ 1006f504     libucrt:lcidtoname_downlevel.obj
 0002:0000a514       ??_C@_1M@LKMGMLKO@?$AAe?$AAn?$AA?9?$AAG?$AAB?$AA?$AA@ 1006f514     libucrt:lcidtoname_downlevel.obj
 0002:0000a524       ??_C@_1M@PGKJFFGL@?$AAe?$AAs?$AA?9?$AAM?$AAX?$AA?$AA@ 1006f524     libucrt:lcidtoname_downlevel.obj
 0002:0000a534       ??_C@_1M@DNNANBDC@?$AAf?$AAr?$AA?9?$AAB?$AAE?$AA?$AA@ 1006f534     libucrt:lcidtoname_downlevel.obj
 0002:0000a544       ??_C@_1M@HLGMDFHM@?$AAi?$AAt?$AA?9?$AAC?$AAH?$AA?$AA@ 1006f544     libucrt:lcidtoname_downlevel.obj
 0002:0000a554       ??_C@_1M@CLLBGJH@?$AAn?$AAl?$AA?9?$AAB?$AAE?$AA?$AA@ 1006f554     libucrt:lcidtoname_downlevel.obj
 0002:0000a564       ??_C@_1M@BODBOGLF@?$AAn?$AAn?$AA?9?$AAN?$AAO?$AA?$AA@ 1006f564     libucrt:lcidtoname_downlevel.obj
 0002:0000a574       ??_C@_1M@HFFAHKAD@?$AAp?$AAt?$AA?9?$AAP?$AAT?$AA?$AA@ 1006f574     libucrt:lcidtoname_downlevel.obj
 0002:0000a584       ??_C@_1BG@LNOAKHIE@?$AAs?$AAr?$AA?9?$AAS?$AAP?$AA?9?$AAL?$AAa?$AAt?$AAn?$AA?$AA@ 1006f584     libucrt:lcidtoname_downlevel.obj
 0002:0000a5a0       ??_C@_1M@HBMHBGAK@?$AAs?$AAv?$AA?9?$AAF?$AAI?$AA?$AA@ 1006f5a0     libucrt:lcidtoname_downlevel.obj
 0002:0000a5b0       ??_C@_1BG@DGCJGJBE@?$AAa?$AAz?$AA?9?$AAA?$AAZ?$AA?9?$AAC?$AAy?$AAr?$AAl?$AA?$AA@ 1006f5b0     libucrt:lcidtoname_downlevel.obj
 0002:0000a5cc       ??_C@_1M@KEJDAAHB@?$AAs?$AAe?$AA?9?$AAS?$AAE?$AA?$AA@ 1006f5cc     libucrt:lcidtoname_downlevel.obj
 0002:0000a5dc       ??_C@_1M@HEIBJJAD@?$AAm?$AAs?$AA?9?$AAB?$AAN?$AA?$AA@ 1006f5dc     libucrt:lcidtoname_downlevel.obj
 0002:0000a5ec       ??_C@_1BG@PBGJMCEM@?$AAu?$AAz?$AA?9?$AAU?$AAZ?$AA?9?$AAC?$AAy?$AAr?$AAl?$AA?$AA@ 1006f5ec     libucrt:lcidtoname_downlevel.obj
 0002:0000a608       ??_C@_1O@LAOBCMDF@?$AAq?$AAu?$AAz?$AA?9?$AAE?$AAC?$AA?$AA@ 1006f608     libucrt:lcidtoname_downlevel.obj
 0002:0000a618       ??_C@_1M@POEEMAIO@?$AAa?$AAr?$AA?9?$AAE?$AAG?$AA?$AA@ 1006f618     libucrt:lcidtoname_downlevel.obj
 0002:0000a628       ??_C@_1M@EFAKDEDL@?$AAz?$AAh?$AA?9?$AAH?$AAK?$AA?$AA@ 1006f628     libucrt:lcidtoname_downlevel.obj
 0002:0000a638       ??_C@_1M@HKKIJHGI@?$AAd?$AAe?$AA?9?$AAA?$AAT?$AA?$AA@ 1006f638     libucrt:lcidtoname_downlevel.obj
 0002:0000a648       ??_C@_1M@KBFBEHJF@?$AAe?$AAn?$AA?9?$AAA?$AAU?$AA?$AA@ 1006f648     libucrt:lcidtoname_downlevel.obj
 0002:0000a658       ??_C@_1M@MNPLFAAH@?$AAe?$AAs?$AA?9?$AAE?$AAS?$AA?$AA@ 1006f658     libucrt:lcidtoname_downlevel.obj
 0002:0000a668       ??_C@_1M@HJOOJFMA@?$AAf?$AAr?$AA?9?$AAC?$AAA?$AA?$AA@ 1006f668     libucrt:lcidtoname_downlevel.obj
 0002:0000a678       ??_C@_1BG@JPOFPNAB@?$AAs?$AAr?$AA?9?$AAS?$AAP?$AA?9?$AAC?$AAy?$AAr?$AAl?$AA?$AA@ 1006f678     libucrt:lcidtoname_downlevel.obj
 0002:0000a694       ??_C@_1M@LNFOCMOB@?$AAs?$AAe?$AA?9?$AAF?$AAI?$AA?$AA@ 1006f694     libucrt:lcidtoname_downlevel.obj
 0002:0000a6a4       ??_C@_1O@MGJBOAMB@?$AAq?$AAu?$AAz?$AA?9?$AAP?$AAE?$AA?$AA@ 1006f6a4     libucrt:lcidtoname_downlevel.obj
 0002:0000a6b4       ??_C@_1M@GJINLBOK@?$AAa?$AAr?$AA?9?$AAL?$AAY?$AA?$AA@ 1006f6b4     libucrt:lcidtoname_downlevel.obj
 0002:0000a6c4       ??_C@_1M@GGMNHJNL@?$AAz?$AAh?$AA?9?$AAS?$AAG?$AA?$AA@ 1006f6c4     libucrt:lcidtoname_downlevel.obj
 0002:0000a6d4       ??_C@_1M@HOIKODND@?$AAd?$AAe?$AA?9?$AAL?$AAU?$AA?$AA@ 1006f6d4     libucrt:lcidtoname_downlevel.obj
 0002:0000a6e4       ??_C@_1M@DDOCCGFG@?$AAe?$AAn?$AA?9?$AAC?$AAA?$AA?$AA@ 1006f6e4     libucrt:lcidtoname_downlevel.obj
 0002:0000a6f4       ??_C@_1M@BNOEMJLF@?$AAe?$AAs?$AA?9?$AAG?$AAT?$AA?$AA@ 1006f6f4     libucrt:lcidtoname_downlevel.obj
 0002:0000a704       ??_C@_1M@EOGNKEK@?$AAf?$AAr?$AA?9?$AAC?$AAH?$AA?$AA@ 1006f704     libucrt:lcidtoname_downlevel.obj
 0002:0000a714       ??_C@_1M@FLIDJFHL@?$AAh?$AAr?$AA?9?$AAB?$AAA?$AA?$AA@ 1006f714     libucrt:lcidtoname_downlevel.obj
 0002:0000a724       ??_C@_1O@FMCELNAJ@?$AAs?$AAm?$AAj?$AA?9?$AAN?$AAO?$AA?$AA@ 1006f724     libucrt:lcidtoname_downlevel.obj
 0002:0000a734       ??_C@_1M@JHGLJMGJ@?$AAa?$AAr?$AA?9?$AAD?$AAZ?$AA?$AA@ 1006f734     libucrt:lcidtoname_downlevel.obj
 0002:0000a744       ??_C@_1M@JKKFDCNP@?$AAz?$AAh?$AA?9?$AAM?$AAO?$AA?$AA@ 1006f744     libucrt:lcidtoname_downlevel.obj
 0002:0000a754       ??_C@_1M@GEEFALPE@?$AAd?$AAe?$AA?9?$AAL?$AAI?$AA?$AA@ 1006f754     libucrt:lcidtoname_downlevel.obj
 0002:0000a764       ??_C@_1M@IGEOFBG@?$AAe?$AAn?$AA?9?$AAN?$AAZ?$AA?$AA@ 1006f764     libucrt:lcidtoname_downlevel.obj
 0002:0000a774       ??_C@_1M@KDBONEHP@?$AAe?$AAs?$AA?9?$AAC?$AAR?$AA?$AA@ 1006f774     libucrt:lcidtoname_downlevel.obj
 0002:0000a784       ??_C@_1M@FHMDOHNN@?$AAf?$AAr?$AA?9?$AAL?$AAU?$AA?$AA@ 1006f784     libucrt:lcidtoname_downlevel.obj
 0002:0000a794       ??_C@_1BG@NFKKMAFG@?$AAb?$AAs?$AA?9?$AAB?$AAA?$AA?9?$AAL?$AAa?$AAt?$AAn?$AA?$AA@ 1006f794     libucrt:lcidtoname_downlevel.obj
 0002:0000a7b0       ??_C@_1O@IMNBEMCI@?$AAs?$AAm?$AAj?$AA?9?$AAS?$AAE?$AA?$AA@ 1006f7b0     libucrt:lcidtoname_downlevel.obj
 0002:0000a7c0       ??_C@_1M@DHHMBNDP@?$AAa?$AAr?$AA?9?$AAM?$AAA?$AA?$AA@ 1006f7c0     libucrt:lcidtoname_downlevel.obj
 0002:0000a7d0       ??_C@_1M@BNBLJCGH@?$AAe?$AAn?$AA?9?$AAI?$AAE?$AA?$AA@ 1006f7d0     libucrt:lcidtoname_downlevel.obj
 0002:0000a7e0       ??_C@_1M@GEPAFMDL@?$AAe?$AAs?$AA?9?$AAP?$AAA?$AA?$AA@ 1006f7e0     libucrt:lcidtoname_downlevel.obj
 0002:0000a7f0       ??_C@_1M@OJONDMDL@?$AAf?$AAr?$AA?9?$AAM?$AAC?$AA?$AA@ 1006f7f0     libucrt:lcidtoname_downlevel.obj
 0002:0000a800       ??_C@_1BG@OBCNFJB@?$AAs?$AAr?$AA?9?$AAB?$AAA?$AA?9?$AAL?$AAa?$AAt?$AAn?$AA?$AA@ 1006f800     libucrt:lcidtoname_downlevel.obj
 0002:0000a81c       ??_C@_1O@KEMEEGPO@?$AAs?$AAm?$AAa?$AA?9?$AAN?$AAO?$AA?$AA@ 1006f81c     libucrt:lcidtoname_downlevel.obj
 0002:0000a82c       ??_C@_1M@ELMGFODK@?$AAa?$AAr?$AA?9?$AAT?$AAN?$AA?$AA@ 1006f82c     libucrt:lcidtoname_downlevel.obj
 0002:0000a83c       ??_C@_1M@BHDLHFAF@?$AAe?$AAn?$AA?9?$AAZ?$AAA?$AA?$AA@ 1006f83c     libucrt:lcidtoname_downlevel.obj
 0002:0000a84c       ??_C@_1M@BMGIGLIF@?$AAe?$AAs?$AA?9?$AAD?$AAO?$AA?$AA@ 1006f84c     libucrt:lcidtoname_downlevel.obj
 0002:0000a85c       ??_C@_1BG@CMBHIPBE@?$AAs?$AAr?$AA?9?$AAB?$AAA?$AA?9?$AAC?$AAy?$AAr?$AAl?$AA?$AA@ 1006f85c     libucrt:lcidtoname_downlevel.obj
 0002:0000a878       ??_C@_1O@HEDBLHNP@?$AAs?$AAm?$AAa?$AA?9?$AAS?$AAE?$AA?$AA@ 1006f878     libucrt:lcidtoname_downlevel.obj
 0002:0000a888       ??_C@_1M@DAGCADIM@?$AAa?$AAr?$AA?9?$AAO?$AAM?$AA?$AA@ 1006f888     libucrt:lcidtoname_downlevel.obj
 0002:0000a898       ??_C@_1M@FODLMICG@?$AAe?$AAn?$AA?9?$AAJ?$AAM?$AA?$AA@ 1006f898     libucrt:lcidtoname_downlevel.obj
 0002:0000a8a8       ??_C@_1M@DNMLCIHB@?$AAe?$AAs?$AA?9?$AAV?$AAE?$AA?$AA@ 1006f8a8     libucrt:lcidtoname_downlevel.obj
 0002:0000a8b8       ??_C@_1O@EOKHMKJK@?$AAs?$AAm?$AAs?$AA?9?$AAF?$AAI?$AA?$AA@ 1006f8b8     libucrt:lcidtoname_downlevel.obj
 0002:0000a8c8       ??_C@_1M@CAFJMKOF@?$AAa?$AAr?$AA?9?$AAY?$AAE?$AA?$AA@ 1006f8c8     libucrt:lcidtoname_downlevel.obj
 0002:0000a8d8       ??_C@_1M@CBFHIJLI@?$AAe?$AAn?$AA?9?$AAC?$AAB?$AA?$AA@ 1006f8d8     libucrt:lcidtoname_downlevel.obj
 0002:0000a8e8       ??_C@_1M@BGNFLDN@?$AAe?$AAs?$AA?9?$AAC?$AAO?$AA?$AA@ 1006f8e8     libucrt:lcidtoname_downlevel.obj
 0002:0000a8f8       ??_C@_1O@JMPHMAMC@?$AAs?$AAm?$AAn?$AA?9?$AAF?$AAI?$AA?$AA@ 1006f8f8     libucrt:lcidtoname_downlevel.obj
 0002:0000a908       ??_C@_1M@JLANABKE@?$AAa?$AAr?$AA?9?$AAS?$AAY?$AA?$AA@ 1006f908     libucrt:lcidtoname_downlevel.obj
 0002:0000a918       ??_C@_1M@HPKGCFGN@?$AAe?$AAn?$AA?9?$AAB?$AAZ?$AA?$AA@ 1006f918     libucrt:lcidtoname_downlevel.obj
 0002:0000a928       ??_C@_1M@OLJCMLGM@?$AAe?$AAs?$AA?9?$AAP?$AAE?$AA?$AA@ 1006f928     libucrt:lcidtoname_downlevel.obj
 0002:0000a938       ??_C@_1M@MKKGFKLE@?$AAa?$AAr?$AA?9?$AAJ?$AAO?$AA?$AA@ 1006f938     libucrt:lcidtoname_downlevel.obj
 0002:0000a948       ??_C@_1M@EKPGLDNI@?$AAe?$AAn?$AA?9?$AAT?$AAT?$AA?$AA@ 1006f948     libucrt:lcidtoname_downlevel.obj
 0002:0000a958       ??_C@_1M@OONGHFHE@?$AAe?$AAs?$AA?9?$AAA?$AAR?$AA?$AA@ 1006f958     libucrt:lcidtoname_downlevel.obj
 0002:0000a968       ??_C@_1M@OOJFGBHE@?$AAa?$AAr?$AA?9?$AAL?$AAB?$AA?$AA@ 1006f968     libucrt:lcidtoname_downlevel.obj
 0002:0000a978       ??_C@_1M@GCEJHNEG@?$AAe?$AAn?$AA?9?$AAZ?$AAW?$AA?$AA@ 1006f978     libucrt:lcidtoname_downlevel.obj
 0002:0000a988       ??_C@_1M@JNOCAHJI@?$AAe?$AAs?$AA?9?$AAE?$AAC?$AA?$AA@ 1006f988     libucrt:lcidtoname_downlevel.obj
 0002:0000a998       ??_C@_1M@JEFHPGGB@?$AAa?$AAr?$AA?9?$AAK?$AAW?$AA?$AA@ 1006f998     libucrt:lcidtoname_downlevel.obj
 0002:0000a9a8       ??_C@_1M@MLKIBJOJ@?$AAe?$AAn?$AA?9?$AAP?$AAH?$AA?$AA@ 1006f9a8     libucrt:lcidtoname_downlevel.obj
 0002:0000a9b8       ??_C@_1M@BDNIPEND@?$AAe?$AAs?$AA?9?$AAC?$AAL?$AA?$AA@ 1006f9b8     libucrt:lcidtoname_downlevel.obj
 0002:0000a9c8       ??_C@_1M@MPNMEKBD@?$AAa?$AAr?$AA?9?$AAA?$AAE?$AA?$AA@ 1006f9c8     libucrt:lcidtoname_downlevel.obj
 0002:0000a9d8       ??_C@_1M@KBJALCPI@?$AAe?$AAs?$AA?9?$AAU?$AAY?$AA?$AA@ 1006f9d8     libucrt:lcidtoname_downlevel.obj
 0002:0000a9e8       ??_C@_1M@LLCCOAGA@?$AAa?$AAr?$AA?9?$AAB?$AAH?$AA?$AA@ 1006f9e8     libucrt:lcidtoname_downlevel.obj
 0002:0000a9f8       ??_C@_1M@PBFNCDEL@?$AAe?$AAs?$AA?9?$AAP?$AAY?$AA?$AA@ 1006f9f8     libucrt:lcidtoname_downlevel.obj
 0002:0000aa08       ??_C@_1M@EDGINPNP@?$AAa?$AAr?$AA?9?$AAQ?$AAA?$AA?$AA@ 1006fa08     libucrt:lcidtoname_downlevel.obj
 0002:0000aa18       ??_C@_1M@MKDBIIJI@?$AAe?$AAs?$AA?9?$AAB?$AAO?$AA?$AA@ 1006fa18     libucrt:lcidtoname_downlevel.obj
 0002:0000aa28       ??_C@_1M@CPKKEBLD@?$AAe?$AAs?$AA?9?$AAS?$AAV?$AA?$AA@ 1006fa28     libucrt:lcidtoname_downlevel.obj
