 PIDcontrol_slrt

 Timestamp is 5acfd147 (Thu Apr 12 17:36:07 2018)

 Preferred load address is 10000000

 Start         Length     Name                   Class
 0001:00000000 00062e68H .text$mn                CODE
 0002:00000000 00000104H .CRT$XCA                DATA
 0002:00000104 00000104H .CRT$XCZ                DATA
 0002:00000208 00000104H .CRT$XIA                DATA
 0002:0000030c 00000110H .CRT$XIC                DATA
 0002:0000041c 00000104H .CRT$XIZ                DATA
 0002:00000520 00000104H .CRT$XPA                DATA
 0002:00000624 0000010cH .CRT$XPX                DATA
 0002:00000730 00000104H .CRT$XPXA               DATA
 0002:00000834 00000104H .CRT$XPZ                DATA
 0002:00000938 00000104H .CRT$XTA                DATA
 0002:00000a3c 00000104H .CRT$XTZ                DATA
 0002:00000b40 0000db78H .rdata                  DATA
 0002:0000e6b8 00000398H .rdata$r                DATA
 0002:0000ea50 00000110H .rdata$sxdata           DATA
 0002:0000eb60 000001b4H .rdata$zzzdbg           DATA
 0002:0000ed14 00000104H .rtc$IAA                DATA
 0002:0000ee18 00000104H .rtc$IZZ                DATA
 0002:0000ef1c 00000104H .rtc$TAA                DATA
 0002:0000f020 00000108H .rtc$TZZ                DATA
 0002:0000f128 00000ac8H .xdata$x                DATA
 0002:0000fbf0 000001e4H .edata                  DATA
 0003:00000000 00001310H .data                   DATA
 0003:00001310 000001f0H .data$r                 DATA
 0003:00001500 00014120H .bss                    DATA
 0004:00000000 000001d4H .idata$5                DATA
 0004:000001d4 00000014H .idata$2                DATA
 0004:000001e8 00000014H .idata$3                DATA
 0004:000001fc 000001d4H .idata$4                DATA
 0004:000003d0 00000843H .idata$6                DATA
 0005:00000000 00000224H .gfids$x                DATA
 0005:00000224 000001a5H .gfids$y                DATA
 0006:00000000 00000104H .00cfg                  DATA

  Address         Publics by Value              Rva+Base       Lib:Object

 0000:00000000       ___guard_fids_count        00000000     <absolute>
 0000:00000000       __except_list              00000000     <absolute>
 0000:00000000       ___guard_longjmp_count     00000000     <absolute>
 0000:00000000       ___dynamic_value_reloc_table 00000000     <absolute>
 0000:00000000       ___guard_iat_table         00000000     <absolute>
 0000:00000000       ___guard_fids_table        00000000     <absolute>
 0000:00000000       ___guard_longjmp_table     00000000     <absolute>
 0000:00000000       ___guard_iat_count         00000000     <absolute>
 0000:00000003       ___safe_se_handler_count   00000003     <absolute>
 0000:00000100       ___guard_flags             00000100     <absolute>
 0000:00000000       ___ImageBase               10000000     <linker-defined>
 0001:00005f20       _MdlInitialize             10006f20 f   PIDcontrol.obj
 0001:00005f30       _MdlInitializeSampleTimes  10006f30 f   PIDcontrol.obj
 0001:00005f40       _MdlInitializeSizes        10006f40 f   PIDcontrol.obj
 0001:00005f50       _MdlOutputs                10006f50 f   PIDcontrol.obj
 0001:00005f60       _MdlStart                  10006f60 f   PIDcontrol.obj
 0001:00005f70       _MdlTerminate              10006f70 f   PIDcontrol.obj
 0001:00005fa0       _MdlUpdate                 10006fa0 f   PIDcontrol.obj
 0001:00005fb0       _PIDcontrol                10006fb0 f   PIDcontrol.obj
 0001:00006a50       _PIDcontrol_If1Subsystem   10007a50 f   PIDcontrol.obj
 0001:00006a70       _PIDcontrol_derivatives    10007a70 f   PIDcontrol.obj
 0001:00006a90       _PIDcontrol_initialize     10007a90 f   PIDcontrol.obj
 0001:00007310       _PIDcontrol_output         10008310 f   PIDcontrol.obj
 0001:00007910       _PIDcontrol_terminate      10008910 f   PIDcontrol.obj
 0001:00007940       _PIDcontrol_update         10008940 f   PIDcontrol.obj
 0001:00007a90       ___local_stdio_printf_options 10008a90 f i PIDcontrol.obj
 0001:00007aa0       __vfprintf_l               10008aa0 f i PIDcontrol.obj
 0001:00007ad0       _printf                    10008ad0 f i PIDcontrol.obj
 0001:00007b10       _rt_ODECreateIntegrationData 10008b10 f   PIDcontrol.obj
 0001:00007b20       _rt_ODEDestroyIntegrationData 10008b20 f   PIDcontrol.obj
 0001:00007b30       _rt_ODEUpdateContinuousStates 10008b30 f   PIDcontrol.obj
 0001:00007d50       _rt_mxCreateCharMatrixFromStrings 10008d50 f   rt_matrx.obj
 0001:00007eb0       _rt_mxCreateDoubleMatrix   10008eb0 f   rt_matrx.obj
 0001:00007f10       _rt_mxCreateNumericArray   10008f10 f   rt_matrx.obj
 0001:00007f90       _rt_mxCreateString         10008f90 f   rt_matrx.obj
 0001:00008020       _rt_mxDuplicateArray       10009020 f   rt_matrx.obj
 0001:00008080       _rt_mxGetDimensions        10009080 f   rt_matrx.obj
 0001:000080c0       _rt_mxGetEps               100090c0 f   rt_matrx.obj
 0001:000080d0       _rt_mxGetString            100090d0 f   rt_matrx.obj
 0001:00008150       _rtPrintfNoOp              10009150 f   rt_printf.obj
 0001:00008160       _PIDcontrol_GetCAPIStaticMap 10009160 f   PIDcontrol_capi.obj
 0001:00008170       _PIDcontrol_InitializeDataMapInfo 10009170 f   PIDcontrol_capi.obj
 0001:00008200       _rtGetInf                  10009200 f   rtGetInf.obj
 0001:00008230       _rtGetInfF                 10009230 f   rtGetInf.obj
 0001:00008250       _rtGetMinusInf             10009250 f   rtGetInf.obj
 0001:00008280       _rtGetMinusInfF            10009280 f   rtGetInf.obj
 0001:000082a0       _rtGetNaN                  100092a0 f   rtGetNaN.obj
 0001:000082d0       _rtGetNaNF                 100092d0 f   rtGetNaN.obj
 0001:000082f0       _rtIsInf                   100092f0 f   rt_nonfinite.obj
 0001:00008330       _rtIsInfF                  10009330 f   rt_nonfinite.obj
 0001:00008370       _rtIsNaN                   10009370 f   rt_nonfinite.obj
 0001:00008390       _rtIsNaNF                  10009390 f   rt_nonfinite.obj
 0001:000083b0       _rt_InitInfAndNaN          100093b0 f   rt_nonfinite.obj
 0001:00008410       _rt_CleanUpForStateLogWithMMI 10009410 f   rt_logging_mmi.obj
 0001:00008520       _rt_FillStateSigInfoFromMMI 10009520 f   rt_logging_mmi.obj
 0001:000088c0       _rtwCAPI_CountSysRan       100098c0 f   rtw_modelmap_utils.obj
 0001:00008960       _rtwCAPI_EncodePath        10009960 f   rtw_modelmap_utils.obj
 0001:00008a60       _rtwCAPI_FillSysRan        10009a60 f   rtw_modelmap_utils.obj
 0001:00008b50       _rtwCAPI_FreeFullPaths     10009b50 f   rtw_modelmap_utils.obj
 0001:00008be0       _rtwCAPI_GetFullStateBlockPath 10009be0 f   rtw_modelmap_utils.obj
 0001:00008d90       _rtwCAPI_GetNumContStateRecords 10009d90 f   rtw_modelmap_utils.obj
 0001:00008e50       _rtwCAPI_GetNumSigLogRecords 10009e50 f   rtw_modelmap_utils.obj
 0001:00008ea0       _rtwCAPI_GetNumSigLogRecordsForRTWLogging 10009ea0 f   rtw_modelmap_utils.obj
 0001:00008f40       _rtwCAPI_GetNumStateRecords 10009f40 f   rtw_modelmap_utils.obj
 0001:00008f90       _rtwCAPI_GetNumStateRecordsForRTWLogging 10009f90 f   rtw_modelmap_utils.obj
 0001:00009030       _rtwCAPI_GetSigAddrFromMap 1000a030 f   rtw_modelmap_utils.obj
 0001:000090f0       _rtwCAPI_GetSigLogRecordInfo 1000a0f0 f   rtw_modelmap_utils.obj
 0001:00009520       _rtwCAPI_GetStateRecordInfo 1000a520 f   rtw_modelmap_utils.obj
 0001:000099d0       _rtwCAPI_GetStateWidth     1000a9d0 f   rtw_modelmap_utils.obj
 0001:00009a30       _rtwCAPI_HasStates         1000aa30 f   rtw_modelmap_utils.obj
 0001:00009aa0       _rtwCAPI_UpdateFullPaths   1000aaa0 f   rtw_modelmap_utils.obj
 0001:00009c80       __vsnprintf_l              1000ac80 f i rt_logging.obj
 0001:00009cc0       __vsprintf_l               1000acc0 f i rt_logging.obj
 0001:00009d00       _fprintf                   1000ad00 f i rt_logging.obj
 0001:0000a610       _rt_CreateLogVar           1000b610 f   rt_logging.obj
 0001:0000a6a0       _rt_CreateLogVarWithConvert 1000b6a0 f   rt_logging.obj
 0001:0000b020       _rt_CreateStructLogVar     1000c020 f   rt_logging.obj
 0001:0000bd80       _rt_GetMxIdFromDTypeId     1000cd80 f   rt_logging.obj
 0001:0000bdb0       _rt_GetMxIdFromDTypeIdForRSim 1000cdb0 f   rt_logging.obj
 0001:0000e680       _rt_StartDataLogging       1000f680 f   rt_logging.obj
 0001:0000eb40       _rt_StartDataLoggingWithStartTime 1000fb40 f   rt_logging.obj
 0001:0000f4a0       _rt_StopDataLogging        100104a0 f   rt_logging.obj
 0001:0000f4c0       _rt_StopDataLoggingImpl    100104c0 f   rt_logging.obj
 0001:0000f7f0       _rt_UpdateLogVar           100107f0 f   rt_logging.obj
 0001:00010910       _rt_UpdateStructLogVar     10011910 f   rt_logging.obj
 0001:000109a0       _rt_UpdateTXXFYLogVars     100119a0 f   rt_logging.obj
 0001:00010cd0       _rt_UpdateTXYLogVars       10011cd0 f   rt_logging.obj
 0001:00010f20       _sprintf                   10011f20 f i rt_logging.obj
 0001:00010f60       _DllMain@12                10011f60 f   xpctarget.obj
 0001:00010f70       _PIDcontrol_ChangeStepSize 10011f70 f   xpctarget.obj
 0001:00010fe0       _SLRTSetErrorStatus        10011fe0 f   xpctarget.obj
 0001:00011000       _changeStepSize            10012000 f   xpctarget.obj
 0001:00011070       _getDLMVersion             10012070 f   xpctarget.obj
 0001:00011080       _getRefMdlPath             10012080 f   xpctarget.obj
 0001:00011100       _getRefMdlSignalNumber     10012100 f   xpctarget.obj
 0001:000111b0       _getrlmdlinfo              100121b0 f   xpctarget.obj
 0001:00011390       _updateDiscreteEvents      10012390 f   xpctarget.obj
 0001:000113a0       _getNumRef                 100123a0 f   appmappingData.obj
 0001:000113b0       _vprintf                   100123b0 f i legacy_stdio.obj
 0001:000113f0       _daquanserq8               100123f0 f   daquanserq8.obj
 0001:00011d60       _encquanserq8              10012d60 f   encquanserq8.obj
 0001:000128a0       _GetPCIDeviceFull          100138a0 f   xpcruntime:xpcimports.obj
 0001:000128e0       _ShowPCIDevice             100138e0 f   xpcruntime:xpcimports.obj
 0001:000130a0       _xpcGetPciConfigAtSlot     100140a0 f   xpcruntime:xpcimports.obj
 0001:000133b0       _xpcInitProcs              100143b0 f   xpcruntime:xpcimports.obj
 0001:00014710       _xpceuploadevent           10015710 f   xpcruntime:xpcimports.obj
 0001:00014720       __ftoui3                   10015720 f   LIBCMT:_ftol3_.obj
 0001:0001472f       __ftoul3                   1001572f f   LIBCMT:_ftol3_.obj
 0001:0001473e       __ftol3                    1001573e f   LIBCMT:_ftol3_.obj
 0001:0001474b       __ftol3_NaN                1001574b f   LIBCMT:_ftol3_.obj
 0001:00014763       __ftol3_work               10015763 f   LIBCMT:_ftol3_.obj
 0001:000147e9       __ftol3_common             100157e9 f   LIBCMT:_ftol3_.obj
 0001:000148ab       __ftol3_arg_error          100158ab f   LIBCMT:_ftol3_.obj
 0001:000148bd       __ftol3_except             100158bd f   LIBCMT:_ftol3_.obj
 0001:00014901       __dtoui3                   10015901 f   LIBCMT:_ftol3_.obj
 0001:00014910       __dtoul3                   10015910 f   LIBCMT:_ftol3_.obj
 0001:0001491f       __dtol3                    1001591f f   LIBCMT:_ftol3_.obj
 0001:0001492c       __dtol3_NaN                1001592c f   LIBCMT:_ftol3_.obj
 0001:00014949       __dtol3_work               10015949 f   LIBCMT:_ftol3_.obj
 0001:00014a30       __ultod3                   10015a30 f   LIBCMT:_ftol3_.obj
 0001:00014a70       __ltod3                    10015a70 f   LIBCMT:_ftol3_.obj
 0001:00014b74       ___raise_securityfailure   10015b74 f   LIBCMT:gs_report.obj
 0001:00014ba6       ___report_gsfailure        10015ba6 f   LIBCMT:gs_report.obj
 0001:00014cdf       ___report_rangecheckfailure 10015cdf f   LIBCMT:gs_report.obj
 0001:00014cee       ___report_securityfailure  10015cee f   LIBCMT:gs_report.obj
 0001:00014df2       ___report_securityfailureEx 10015df2 f   LIBCMT:gs_report.obj
 0001:00014f4d       @__security_check_cookie@4 10015f4d f   LIBCMT:_secchk_.obj
 0001:00014f62       ___isa_available_init      10015f62 f   LIBCMT:_cpu_disp_.obj
 0001:0001552a       __CRT_INIT@12              1001652a f   LIBCMT:dll_dllmain.obj
 0001:00015535       __DllMainCRTStartup@12     10016535 f   LIBCMT:dll_dllmain.obj
 0001:00015560       ??$__crt_fast_decode_pointer@PAP6AXXZ@@YAPAP6AXXZQAP6AXXZ@Z 10016560 f i LIBCMT:utility.obj
 0001:00015579       ??$__crt_fast_encode_pointer@PAP6AXXZ@@YAPAP6AXXZQAP6AXXZ@Z 10016579 f i LIBCMT:utility.obj
 0001:0001559d       ?__crt_rotate_pointer_value@@YAIIH@Z 1001659d f i LIBCMT:utility.obj
 0001:000155ad       ?configure_argv@__scrt_narrow_argv_policy@@SAHXZ 100165ad f i LIBCMT:utility.obj
 0001:00015651       _NtCurrentTeb              10016651 f i LIBCMT:utility.obj
 0001:00015658       ___scrt_acquire_startup_lock 10016658 f   LIBCMT:utility.obj
 0001:0001569a       ___scrt_dllmain_after_initialize_c 1001669a f   LIBCMT:utility.obj
 0001:000156cf       ___scrt_dllmain_before_initialize_c 100166cf f   LIBCMT:utility.obj
 0001:000156e0       ___scrt_dllmain_crt_thread_attach 100166e0 f   LIBCMT:utility.obj
 0001:00015706       ___scrt_dllmain_crt_thread_detach 10016706 f   LIBCMT:utility.obj
 0001:00015716       ___scrt_dllmain_exception_filter 10016716 f   LIBCMT:utility.obj
 0001:00015755       ___scrt_dllmain_uninitialize_c 10016755 f   LIBCMT:utility.obj
 0001:00015780       ___scrt_dllmain_uninitialize_critical 10016780 f   LIBCMT:utility.obj
 0001:00015790       ___scrt_initialize_crt     10016790 f   LIBCMT:utility.obj
 0001:000157d7       ___scrt_initialize_onexit_tables 100167d7 f   LIBCMT:utility.obj
 0001:00015893       ___scrt_is_nonwritable_in_current_image 10016893 f   LIBCMT:utility.obj
 0001:0001593f       ___scrt_release_startup_lock 1001693f f   LIBCMT:utility.obj
 0001:00015963       ___scrt_uninitialize_crt   10016963 f   LIBCMT:utility.obj
 0001:00015995       __onexit                   10016995 f   LIBCMT:utility.obj
 0001:000159de       _at_quick_exit             100169de f   LIBCMT:utility.obj
 0001:00015a1b       _atexit                    10016a1b f   LIBCMT:utility.obj
 0001:00015a35       ___security_init_cookie    10016a35 f   LIBCMT:gs_support.obj
 0001:00015af8       ?__scrt_initialize_type_info@@YAXXZ 10016af8 f   LIBCMT:tncleanup.obj
 0001:00015b07       ?__scrt_uninitialize_type_info@@YAXXZ 10016b07 f   LIBCMT:tncleanup.obj
 0001:00015b16       ___local_stdio_scanf_options 10016b16 f i LIBCMT:default_local_stdio_options.obj
 0001:00015b1c       ___scrt_initialize_default_local_stdio_options 10016b1c f   LIBCMT:default_local_stdio_options.obj
 0001:00015b40       ___scrt_get_dyn_tls_init_callback 10016b40 f   LIBCMT:dyn_tls_init.obj
 0001:00015b46       ___scrt_fastfail           10016b46 f   LIBCMT:utility_desktop.obj
 0001:00015ca7       ___scrt_get_show_window_mode 10016ca7 f   LIBCMT:utility_desktop.obj
 0001:00015ce6       ___scrt_initialize_winrt   10016ce6 f   LIBCMT:utility_desktop.obj
 0001:00015ce9       ___scrt_is_managed_app     10016ce9 f   LIBCMT:utility_desktop.obj
 0001:00015d3e       ___scrt_set_unhandled_exception_filter 10016d3e f   LIBCMT:utility_desktop.obj
 0001:00015d4d       ___scrt_unhandled_exception_filter@4 10016d4d f   LIBCMT:utility_desktop.obj
 0001:00015d9e       __crt_debugger_hook        10016d9e f   LIBCMT:utility_desktop.obj
 0001:00015da8       __RTC_Initialize           10016da8 f   LIBCMT:_initsect_.obj
 0001:00015ddd       __RTC_Terminate            10016ddd f   LIBCMT:_initsect_.obj
 0001:00015e12       @_guard_check_icall@4      10016e12 f i LIBCMT:checkcfg.obj
 0001:00015e20       __SEH_prolog4              10016e20 f   LIBCMT:_sehprolg4_.obj
 0001:00015e66       __SEH_epilog4              10016e66 f   LIBCMT:_sehprolg4_.obj
 0001:00015e91       __get_startup_argv_mode    10016e91 f   LIBCMT:argv_mode.obj
 0001:00015e95       ___scrt_is_ucrt_dll_in_use 10016e95 f   LIBCMT:ucrt_detection.obj
 0001:00015ea4       @_guard_check_icall_nop@4  10016ea4 f i LIBCMT:guard_support.obj
 0001:00015ea5       __guard_icall_checks_enforced 10016ea5 f i LIBCMT:guard_support.obj
 0001:00015ebc       _GetModuleHandleA@4        10016ebc f   kernel32:KERNEL32.dll
 0001:00015ec2       _GetProcAddress@8          10016ec2 f   kernel32:KERNEL32.dll
 0001:00015ec8       _UnhandledExceptionFilter@4 10016ec8 f   kernel32:KERNEL32.dll
 0001:00015ece       _SetUnhandledExceptionFilter@4 10016ece f   kernel32:KERNEL32.dll
 0001:00015ed4       _GetCurrentProcess@0       10016ed4 f   kernel32:KERNEL32.dll
 0001:00015eda       _TerminateProcess@8        10016eda f   kernel32:KERNEL32.dll
 0001:00015ee0       _IsProcessorFeaturePresent@4 10016ee0 f   kernel32:KERNEL32.dll
 0001:00015ee6       _QueryPerformanceCounter@4 10016ee6 f   kernel32:KERNEL32.dll
 0001:00015eec       _GetCurrentProcessId@0     10016eec f   kernel32:KERNEL32.dll
 0001:00015ef2       _GetCurrentThreadId@0      10016ef2 f   kernel32:KERNEL32.dll
 0001:00015ef8       _GetSystemTimeAsFileTime@4 10016ef8 f   kernel32:KERNEL32.dll
 0001:00015efe       _InitializeSListHead@4     10016efe f   kernel32:KERNEL32.dll
 0001:00015f04       _IsDebuggerPresent@0       10016f04 f   kernel32:KERNEL32.dll
 0001:00015f0a       _GetStartupInfoW@4         10016f0a f   kernel32:KERNEL32.dll
 0001:00015f10       _GetModuleHandleW@4        10016f10 f   kernel32:KERNEL32.dll
 0001:00015f20       _memset                    10016f20 f   libvcruntime:memset.obj
 0001:000160d0       _memcpy                    100170d0 f   libvcruntime:memcpy.obj
 0001:000167b0       _memmove                   100177b0 f   libvcruntime:memmove.obj
 0001:00016e90       _strchr                    10017e90 f   libvcruntime:strchr.obj
 0001:00016efe       ___from_strstr_to_strchr   10017efe     libvcruntime:strchr.obj
 0001:00017050       __except_handler4          10018050 f   libvcruntime:_chandler4_.obj
 0001:0001720f       ___vcrt_initialize         1001820f f   libvcruntime:initialization.obj
 0001:00017242       ___vcrt_thread_attach      10018242 f   libvcruntime:initialization.obj
 0001:0001724f       ___vcrt_thread_detach      1001824f f   libvcruntime:initialization.obj
 0001:0001725c       ___vcrt_uninitialize       1001825c f   libvcruntime:initialization.obj
 0001:00017282       ___vcrt_uninitialize_critical 10018282 f   libvcruntime:initialization.obj
 0001:0001729d       ??$?RD@__crt_internal_free_policy@@QBEXQBD@Z 1001829d f i libvcruntime:std_type_info.obj
 0001:000172b1       ??$?RX@__crt_internal_free_policy@@QBEXQBX@Z 100182b1 f i libvcruntime:std_type_info.obj
 0001:000172c5       ??$__crt_interlocked_compare_exchange_pointer@$$CBD$$T$$T@@YAPBDPDSBD$$T1@Z 100182c5 f i libvcruntime:std_type_info.obj
 0001:000172db       ??$__crt_interlocked_compare_exchange_pointer@$$CBDPAD$$T@@YAPBDPDSBDQAD$$T@Z 100182db f i libvcruntime:std_type_info.obj
 0001:000172f1       ??$__crt_interlocked_read_pointer@$$CBD@@YAPBDPDSBD@Z 100182f1 f i libvcruntime:std_type_info.obj
 0001:00017305       ??0?$__crt_unique_heap_ptr@DU__crt_internal_free_policy@@@@QAE@QAD@Z 10018305 f i libvcruntime:std_type_info.obj
 0001:00017316       ??0?$__crt_unique_heap_ptr@XU__crt_internal_free_policy@@@@QAE@QAX@Z 10018316 f i libvcruntime:std_type_info.obj
 0001:00017327       ??1?$__crt_unique_heap_ptr@DU__crt_internal_free_policy@@@@QAE@XZ 10018327 f i libvcruntime:std_type_info.obj
 0001:0001733b       ??1?$__crt_unique_heap_ptr@XU__crt_internal_free_policy@@@@QAE@XZ 1001833b f i libvcruntime:std_type_info.obj
 0001:0001735b       ??B?$__crt_unique_heap_ptr@DU__crt_internal_free_policy@@@@QBE_NXZ 1001835b f i libvcruntime:std_type_info.obj
 0001:00017362       ??B?$__crt_unique_heap_ptr@XU__crt_internal_free_policy@@@@QBE_NXZ 10018362 f i libvcruntime:std_type_info.obj
 0001:00017391       ?detach@?$__crt_unique_heap_ptr@XU__crt_internal_free_policy@@@@QAEPAXXZ 10018391 f i libvcruntime:std_type_info.obj
 0001:00017397       ?get@?$__crt_unique_heap_ptr@DU__crt_internal_free_policy@@@@QBEPADXZ 10018397 f i libvcruntime:std_type_info.obj
 0001:0001739a       ?get@?$__crt_unique_heap_ptr@XU__crt_internal_free_policy@@@@QBEPAXXZ 1001839a f i libvcruntime:std_type_info.obj
 0001:0001739d       ?is_valid@?$__crt_unique_heap_ptr@DU__crt_internal_free_policy@@@@QBE_NXZ 1001839d f i libvcruntime:std_type_info.obj
 0001:000173a4       ?is_valid@?$__crt_unique_heap_ptr@XU__crt_internal_free_policy@@@@QBE_NXZ 100183a4 f i libvcruntime:std_type_info.obj
 0001:000173ab       ?release@?$__crt_unique_heap_ptr@DU__crt_internal_free_policy@@@@QAEXXZ 100183ab f i libvcruntime:std_type_info.obj
 0001:000173bf       ?release@?$__crt_unique_heap_ptr@XU__crt_internal_free_policy@@@@QAEXXZ 100183bf f i libvcruntime:std_type_info.obj
 0001:000173d3       ___std_type_info_compare   100183d3 f   libvcruntime:std_type_info.obj
 0001:0001741e       ___std_type_info_destroy_list 1001841e f   libvcruntime:std_type_info.obj
 0001:00017449       ___std_type_info_hash      10018449 f   libvcruntime:std_type_info.obj
 0001:00017478       ___std_type_info_name      10018478 f   libvcruntime:std_type_info.obj
 0001:00017580       __local_unwind4            10018580 f   libvcruntime:_exsup4_.obj
 0001:00017656       __seh_longjmp_unwind4@4    10018656 f   libvcruntime:_exsup4_.obj
 0001:0001767e       @_EH4_CallFilterFunc@8     1001867e f   libvcruntime:_exsup4_.obj
 0001:00017695       @_EH4_TransferToHandler@8  10018695 f   libvcruntime:_exsup4_.obj
 0001:000176ae       @_EH4_GlobalUnwind2@8      100186ae f   libvcruntime:_exsup4_.obj
 0001:000176c7       @_EH4_LocalUnwind@16       100186c7 f   libvcruntime:_exsup4_.obj
 0001:00017735       ___except_validate_context_record 10018735 f   libvcruntime:jbcxrval.obj
 0001:00017736       ___except_validate_jump_buffer 10018736 f   libvcruntime:jbcxrval.obj
 0001:00017737       ??$?RU__vcrt_ptd@@@__crt_internal_free_policy@@QBEXQBU__vcrt_ptd@@@Z 10018737 f i libvcruntime:per_thread_data.obj
 0001:0001774b       ??0?$__crt_unique_heap_ptr@U__vcrt_ptd@@U__crt_internal_free_policy@@@@QAE@QAU__vcrt_ptd@@@Z 1001874b f i libvcruntime:per_thread_data.obj
 0001:0001776e       ??1?$__crt_unique_heap_ptr@U__vcrt_ptd@@U__crt_internal_free_policy@@@@QAE@XZ 1001876e f i libvcruntime:per_thread_data.obj
 0001:0001778d       ??B?$__crt_unique_heap_ptr@U__vcrt_ptd@@U__crt_internal_free_policy@@@@QBE_NXZ 1001878d f i libvcruntime:per_thread_data.obj
 0001:00017794       ?detach@?$__crt_unique_heap_ptr@U__vcrt_ptd@@U__crt_internal_free_policy@@@@QAEPAU__vcrt_ptd@@XZ 10018794 f i libvcruntime:per_thread_data.obj
 0001:0001779a       ?get@?$__crt_unique_heap_ptr@U__vcrt_ptd@@U__crt_internal_free_policy@@@@QBEPAU__vcrt_ptd@@XZ 1001879a f i libvcruntime:per_thread_data.obj
 0001:0001779d       ?is_valid@?$__crt_unique_heap_ptr@U__vcrt_ptd@@U__crt_internal_free_policy@@@@QBE_NXZ 1001879d f i libvcruntime:per_thread_data.obj
 0001:000177a4       ?release@?$__crt_unique_heap_ptr@U__vcrt_ptd@@U__crt_internal_free_policy@@@@QAEXXZ 100187a4 f i libvcruntime:per_thread_data.obj
 0001:000177d8       ___vcrt_freefls@4          100187d8 f   libvcruntime:per_thread_data.obj
 0001:000177fb       ___vcrt_freeptd            100187fb f   libvcruntime:per_thread_data.obj
 0001:0001783e       ___vcrt_getptd             1001883e f   libvcruntime:per_thread_data.obj
 0001:0001784f       ___vcrt_getptd_noexit      1001884f f   libvcruntime:per_thread_data.obj
 0001:00017905       ___vcrt_initialize_ptd     10018905 f   libvcruntime:per_thread_data.obj
 0001:00017944       ___vcrt_uninitialize_ptd   10018944 f   libvcruntime:per_thread_data.obj
 0001:00017965       ___vcrt_initialize_locks   10018965 f   libvcruntime:locks.obj
 0001:000179b0       ___vcrt_lock               100189b0 f   libvcruntime:locks.obj
 0001:000179ca       ___vcrt_uninitialize_locks 100189ca f   libvcruntime:locks.obj
 0001:00017a04       ___vcrt_unlock             10018a04 f   libvcruntime:locks.obj
 0001:00017a1e       ??$?BX@__crt_fast_encoded_nullptr_t@@QBEPAXXZ 10018a1e f i libvcruntime:winapi_downlevel.obj
 0001:00017a3c       ??$__crt_fast_decode_pointer@PAX@@YAPAXQAX@Z 10018a3c f i libvcruntime:winapi_downlevel.obj
 0001:00017a55       ??$__crt_fast_encode_pointer@PAX@@YAPAXQAX@Z 10018a55 f i libvcruntime:winapi_downlevel.obj
 0001:00017a79       ??$__crt_interlocked_compare_exchange_pointer@UHINSTANCE__@@$$T$$T@@YAPAUHINSTANCE__@@PDSAU0@$$T1@Z 10018a79 f i libvcruntime:winapi_downlevel.obj
 0001:00017a8f       ??$__crt_interlocked_compare_exchange_pointer@X$$T$$T@@YAPAXPDSAX$$T1@Z 10018a8f f i libvcruntime:winapi_downlevel.obj
 0001:00017aa5       ??$__crt_interlocked_exchange_pointer@UHINSTANCE__@@PAU1@@@YAPAUHINSTANCE__@@PDSAU0@QAU0@@Z 10018aa5 f i libvcruntime:winapi_downlevel.obj
 0001:00017ab5       ??$__crt_interlocked_exchange_pointer@UHINSTANCE__@@PAX@@YAPAUHINSTANCE__@@PDSAU0@QAX@Z 10018ab5 f i libvcruntime:winapi_downlevel.obj
 0001:00017ac5       ??$__crt_interlocked_exchange_pointer@XPAX@@YAPAXPDSAXQAX@Z 10018ac5 f i libvcruntime:winapi_downlevel.obj
 0001:00017ad5       ??$__crt_interlocked_read_pointer@UHINSTANCE__@@@@YAPAUHINSTANCE__@@PDSAU0@@Z 10018ad5 f i libvcruntime:winapi_downlevel.obj
 0001:00017ae9       ??$__crt_interlocked_read_pointer@X@@YAPAXPDSAX@Z 10018ae9 f i libvcruntime:winapi_downlevel.obj
 0001:00017afd       ?__crt_fast_encode_pointer@@YA?AU__crt_fast_encoded_nullptr_t@@$$T@Z 10018afd f i libvcruntime:winapi_downlevel.obj
 0001:00017e41       ___vcrt_EventRegister      10018e41 f   libvcruntime:winapi_downlevel.obj
 0001:00017e91       ___vcrt_EventSetInformation 10018e91 f   libvcruntime:winapi_downlevel.obj
 0001:00017ee4       ___vcrt_EventUnregister    10018ee4 f   libvcruntime:winapi_downlevel.obj
 0001:00017f2c       ___vcrt_EventWriteTransfer 10018f2c f   libvcruntime:winapi_downlevel.obj
 0001:00017f87       ___vcrt_FlsAlloc           10018f87 f   libvcruntime:winapi_downlevel.obj
 0001:00017fcf       ___vcrt_FlsFree            10018fcf f   libvcruntime:winapi_downlevel.obj
 0001:00018017       ___vcrt_FlsGetValue        10019017 f   libvcruntime:winapi_downlevel.obj
 0001:0001805f       ___vcrt_FlsSetValue        1001905f f   libvcruntime:winapi_downlevel.obj
 0001:000180ab       ___vcrt_InitializeCriticalSectionEx 100190ab f   libvcruntime:winapi_downlevel.obj
 0001:00018102       ___vcrt_initialize_winapi_thunks 10019102 f   libvcruntime:winapi_downlevel.obj
 0001:0001814a       ___vcrt_uninitialize_winapi_thunks 1001914a f   libvcruntime:winapi_downlevel.obj
 0001:00018188       ??$?B$$A6AXXZ@__crt_fast_encoded_nullptr_t@@QBEP6AXXZXZ 10019188 f i libvcruntime:purevirt_data.obj
 0001:000181a6       ??$__crt_fast_encode_pointer@P6AXXZ@@YAP6AXXZQ6AXXZ@Z 100191a6 f i libvcruntime:purevirt_data.obj
 0001:000181ca       ___vcrt_initialize_pure_virtual_call_handler 100191ca f   libvcruntime:purevirt_data.obj
 0001:000181ee       ??$__vcrt_va_start_verify_argument_type@QBD@@YAXXZ 100191ee f i libvcruntime:undname.obj
 0001:000181ef       ??0Block@_HeapManager@@QAE@XZ 100191ef f i libvcruntime:undname.obj
 0001:000181f5       ??0DName@@QAE@AAPBDD@Z     100191f5 f   libvcruntime:undname.obj
 0001:000182dc       ??0DName@@QAE@ABV0@@Z      100192dc f i libvcruntime:undname.obj
 0001:000182f7       ??0DName@@QAE@D@Z          100192f7 f   libvcruntime:undname.obj
 0001:0001832e       ??0DName@@QAE@PAV0@@Z      1001932e f   libvcruntime:undname.obj
 0001:0001838e       ??0DName@@QAE@PBD@Z        1001938e f   libvcruntime:undname.obj
 0001:000183d6       ??0DName@@QAE@W4DNameStatus@@@Z 100193d6 f   libvcruntime:undname.obj
 0001:00018429       ??0DName@@QAE@XZ           10019429 f i libvcruntime:undname.obj
 0001:0001843e       ??0DName@@QAE@_J@Z         1001943e f   libvcruntime:undname.obj
 0001:000184f8       ??0DName@@QAE@_K@Z         100194f8 f   libvcruntime:undname.obj
 0001:00018582       ??0DNameNode@@IAE@XZ       10019582 f   libvcruntime:undname.obj
 0001:0001858d       ??0DNameStatusNode@@AAE@W4DNameStatus@@@Z 1001958d f   libvcruntime:undname.obj
 0001:000185b8       ??0Replicator@@QAE@XZ      100195b8 f i libvcruntime:undname.obj
 0001:000185be       ??0UnDecorator@@QAE@PADPBDHP6APADJ@ZK@Z 100195be f i libvcruntime:undname.obj
 0001:00018641       ??0charNode@@QAE@D@Z       10019641 f   libvcruntime:undname.obj
 0001:0001865b       ??0pDNameNode@@QAE@PAVDName@@@Z 1001965b f   libvcruntime:undname.obj
 0001:0001868d       ??0pairNode@@QAE@PAVDNameNode@@0@Z 1001968d f   libvcruntime:undname.obj
 0001:000186b3       ??0pcharNode@@QAE@PBDH@Z   100196b3 f   libvcruntime:undname.obj
 0001:00018722       ??2@YAPAXIAAV_HeapManager@@H@Z 10019722 f i libvcruntime:undname.obj
 0001:0001873c       ??4DName@@QAEAAV0@ABV0@@Z  1001973c f   libvcruntime:undname.obj
 0001:00018757       ??4DName@@QAEAAV0@D@Z      10019757 f i libvcruntime:undname.obj
 0001:0001878e       ??4DName@@QAEAAV0@PAV0@@Z  1001978e f   libvcruntime:undname.obj
 0001:000187e9       ??4DName@@QAEAAV0@PBD@Z    100197e9 f   libvcruntime:undname.obj
 0001:00018827       ??4DName@@QAEAAV0@W4DNameStatus@@@Z 10019827 f   libvcruntime:undname.obj
 0001:00018869       ??AReplicator@@QBE?AVDName@@H@Z 10019869 f   libvcruntime:undname.obj
 0001:000188b4       ??BUnDecorator@@QAEPADXZ   100198b4 f i libvcruntime:undname.obj
 0001:00018a8b       ??H@YA?AVDName@@DABV0@@Z   10019a8b f i libvcruntime:undname.obj
 0001:00018ab8       ??H@YA?AVDName@@PBDABV0@@Z 10019ab8 f i libvcruntime:undname.obj
 0001:00018ae5       ??H@YA?AVDName@@W4DNameStatus@@ABV0@@Z 10019ae5 f i libvcruntime:undname.obj
 0001:00018b12       ??HDName@@QBE?AV0@ABV0@@Z  10019b12 f   libvcruntime:undname.obj
 0001:00018b3c       ??HDName@@QBE?AV0@D@Z      10019b3c f   libvcruntime:undname.obj
 0001:00018b66       ??HDName@@QBE?AV0@PAV0@@Z  10019b66 f   libvcruntime:undname.obj
 0001:00018b90       ??HDName@@QBE?AV0@PBD@Z    10019b90 f   libvcruntime:undname.obj
 0001:00018bba       ??HDName@@QBE?AV0@W4DNameStatus@@@Z 10019bba f   libvcruntime:undname.obj
 0001:00018be4       ??YDName@@QAEAAV0@ABV0@@Z  10019be4 f   libvcruntime:undname.obj
 0001:00018c37       ??YDName@@QAEAAV0@D@Z      10019c37 f   libvcruntime:undname.obj
 0001:00018c9b       ??YDName@@QAEAAV0@PAV0@@Z  10019c9b f   libvcruntime:undname.obj
 0001:00018d19       ??YDName@@QAEAAV0@PBD@Z    10019d19 f   libvcruntime:undname.obj
 0001:00018d92       ??YDName@@QAEAAV0@W4DNameStatus@@@Z 10019d92 f   libvcruntime:undname.obj
 0001:00018de2       ??YReplicator@@QAEAAV0@ABVDName@@@Z 10019de2 f   libvcruntime:undname.obj
 0001:00018e3e       ??_5DName@@QAEAAV0@ABV0@@Z 10019e3e f   libvcruntime:undname.obj
 0001:00018e61       ?Constructor@_HeapManager@@QAEXP6APAXI@ZP6AXPAX@Z@Z 10019e61 f i libvcruntime:undname.obj
 0001:00018e85       ?Destructor@_HeapManager@@QAEXXZ 10019e85 f i libvcruntime:undname.obj
 0001:00018ecc       ?UScore@UnDecorator@@SAPBDW4Tokens@@@Z 10019ecc f   libvcruntime:undname.obj
 0001:00018ef0       ?append@DName@@AAEXPAVDNameNode@@@Z 10019ef0 f   libvcruntime:undname.obj
 0001:00018f47       ?composeDeclaration@UnDecorator@@CA?AVDName@@ABV2@@Z 10019f47 f i libvcruntime:undname.obj
 0001:00019f82       ?doAccessSpecifiers@UnDecorator@@SAHXZ 1001af82 f i libvcruntime:undname.obj
 0001:00019f93       ?doAllocationLanguage@UnDecorator@@SAHXZ 1001af93 f i libvcruntime:undname.obj
 0001:00019fa4       ?doAllocationModel@UnDecorator@@SAHXZ 1001afa4 f i libvcruntime:undname.obj
 0001:00019fb5       ?doEcsu@UnDecorator@@SAHXZ 1001afb5 f i libvcruntime:undname.obj
 0001:00019fc6       ?doEllipsis@UnDecorator@@SAHXZ 1001afc6 f i libvcruntime:undname.obj
 0001:00019fd7       ?doFunctionReturns@UnDecorator@@SAHXZ 1001afd7 f i libvcruntime:undname.obj
 0001:00019fe8       ?doMSKeywords@UnDecorator@@SAHXZ 1001afe8 f i libvcruntime:undname.obj
 0001:00019ff8       ?doMemberTypes@UnDecorator@@SAHXZ 1001aff8 f i libvcruntime:undname.obj
 0001:0001a009       ?doNameOnly@UnDecorator@@SAHXZ 1001b009 f i libvcruntime:undname.obj
 0001:0001a016       ?doNoIdentCharCheck@UnDecorator@@SAHXZ 1001b016 f i libvcruntime:undname.obj
 0001:0001a023       ?doPchar@DName@@AAEXPBDH@Z 1001b023 f   libvcruntime:undname.obj
 0001:0001a0cf       ?doPtr64@UnDecorator@@SAHXZ 1001b0cf f i libvcruntime:undname.obj
 0001:0001a0e0       ?doRestrictionSpec@UnDecorator@@SAHXZ 1001b0e0 f i libvcruntime:undname.obj
 0001:0001a0f1       ?doThisTypes@UnDecorator@@SAHXZ 1001b0f1 f i libvcruntime:undname.obj
 0001:0001a107       ?doThrowTypes@UnDecorator@@SAHXZ 1001b107 f i libvcruntime:undname.obj
 0001:0001a118       ?doTypeOnly@UnDecorator@@SAHXZ 1001b118 f i libvcruntime:undname.obj
 0001:0001a125       ?doUnderScore@UnDecorator@@SAHXZ 1001b125 f i libvcruntime:undname.obj
 0001:0001a132       ?getArgumentList@UnDecorator@@CA?AVDName@@XZ 1001b132 f   libvcruntime:undname.obj
 0001:0001a281       ?getArgumentTypes@UnDecorator@@CA?AVDName@@XZ 1001b281 f   libvcruntime:undname.obj
 0001:0001a399       ?getArrayType@UnDecorator@@CA?AVDName@@ABV2@@Z 1001b399 f i libvcruntime:undname.obj
 0001:0001a61b       ?getBasedType@UnDecorator@@CA?AVDName@@XZ 1001b61b f   libvcruntime:undname.obj
 0001:0001a6da       ?getBasicDataType@UnDecorator@@CA?AVDName@@ABV2@@Z 1001b6da f   libvcruntime:undname.obj
 0001:0001abc4       ?getCallIndex@UnDecorator@@CA?AVDName@@XZ 1001bbc4 f i libvcruntime:undname.obj
 0001:0001abdd       ?getCallingConvention@UnDecorator@@CA?AVDName@@XZ 1001bbdd f   libvcruntime:undname.obj
 0001:0001accb       ?getDataIndirectType@UnDecorator@@CA?AVDName@@ABV2@PBD0H@Z 1001bccb f   libvcruntime:undname.obj
 0001:0001b476       ?getDataIndirectType@UnDecorator@@CA?AVDName@@XZ 1001c476 f i libvcruntime:undname.obj
 0001:0001b4bd       ?getDataType@UnDecorator@@CA?AVDName@@PAV2@@Z 1001c4bd f   libvcruntime:undname.obj
 0001:0001b5c3       ?getDecoratedName@UnDecorator@@CA?AVDName@@XZ 1001c5c3 f   libvcruntime:undname.obj
 0001:0001b8a2       ?getDimension@UnDecorator@@CA?AVDName@@_N@Z 1001c8a2 f   libvcruntime:undname.obj
 0001:0001ba26       ?getDispatchTarget@UnDecorator@@CA?AVDName@@XZ 1001ca26 f   libvcruntime:undname.obj
 0001:0001ba97       ?getDisplacement@UnDecorator@@CA?AVDName@@XZ 1001ca97 f i libvcruntime:undname.obj
 0001:0001bab0       ?getECSUDataType@UnDecorator@@CA?AVDName@@XZ 1001cab0 f   libvcruntime:undname.obj
 0001:0001bc14       ?getECSUName@UnDecorator@@CA?AVDName@@XZ 1001cc14 f i libvcruntime:undname.obj
 0001:0001bc29       ?getEnumType@UnDecorator@@CA?AVDName@@XZ 1001cc29 f i libvcruntime:undname.obj
 0001:0001bd50       ?getExtendedDataIndirectType@UnDecorator@@CA?AVDName@@AAPBDAA_NH@Z 1001cd50 f   libvcruntime:undname.obj
 0001:0001bf63       ?getExternalDataType@UnDecorator@@CA?AVDName@@ABV2@@Z 1001cf63 f i libvcruntime:undname.obj
 0001:0001bffa       ?getFunctionIndirectType@UnDecorator@@CA?AVDName@@ABV2@@Z 1001cffa f   libvcruntime:undname.obj
 0001:0001c505       ?getGuardNumber@UnDecorator@@CA?AVDName@@XZ 1001d505 f i libvcruntime:undname.obj
 0001:0001c51e       ?getLastChar@DName@@QBEDXZ 1001d51e f i libvcruntime:undname.obj
 0001:0001c544       ?getLastChar@DNameStatusNode@@UBEDXZ 1001d544 f i libvcruntime:undname.obj
 0001:0001c553       ?getLastChar@charNode@@UBEDXZ 1001d553 f i libvcruntime:undname.obj
 0001:0001c557       ?getLastChar@pDNameNode@@UBEDXZ 1001d557 f i libvcruntime:undname.obj
 0001:0001c568       ?getLastChar@pairNode@@UBEDXZ 1001d568 f i libvcruntime:undname.obj
 0001:0001c5a7       ?getLastChar@pcharNode@@UBEDXZ 1001d5a7 f i libvcruntime:undname.obj
 0001:0001c5bd       ?getLexicalFrame@UnDecorator@@CA?AVDName@@XZ 1001d5bd f i libvcruntime:undname.obj
 0001:0001c609       ?getMemory@_HeapManager@@QAEPAXIH@Z 1001d609 f   libvcruntime:undname.obj
 0001:0001c6ba       ?getNumberOfDimensions@UnDecorator@@CAHXZ 1001d6ba f   libvcruntime:undname.obj
 0001:0001c733       ?getOperatorName@UnDecorator@@CA?AVDName@@_NPA_N@Z 1001d733 f i libvcruntime:undname.obj
 0001:0001cee3       ?getPointerType@UnDecorator@@CA?AVDName@@ABV2@0@Z 1001dee3 f i libvcruntime:undname.obj
 0001:0001cf08       ?getPointerTypeArray@UnDecorator@@CA?AVDName@@ABV2@0@Z 1001df08 f i libvcruntime:undname.obj
 0001:0001cf2d       ?getPrimaryDataType@UnDecorator@@CA?AVDName@@ABV2@@Z 1001df2d f   libvcruntime:undname.obj
 0001:0001d19e       ?getPtrRefDataType@UnDecorator@@CA?AVDName@@ABV2@H@Z 1001e19e f   libvcruntime:undname.obj
 0001:0001d2e0       ?getPtrRefType@UnDecorator@@CA?AVDName@@ABV2@0PBD@Z 1001e2e0 f   libvcruntime:undname.obj
 0001:0001d41b       ?getReferenceType@UnDecorator@@CA?AVDName@@ABV2@0PBD@Z 1001e41b f i libvcruntime:undname.obj
 0001:0001d43e       ?getRestrictionSpec@UnDecorator@@CA?AVDName@@XZ 1001e43e f   libvcruntime:undname.obj
 0001:0001d56c       ?getReturnType@UnDecorator@@CA?AVDName@@PAV2@@Z 1001e56c f   libvcruntime:undname.obj
 0001:0001d5a6       ?getScope@UnDecorator@@CA?AVDName@@XZ 1001e5a6 f   libvcruntime:undname.obj
 0001:0001da7b       ?getScopedName@UnDecorator@@CA?AVDName@@XZ 1001ea7b f   libvcruntime:undname.obj
 0001:0001dbb4       ?getSignedDimension@UnDecorator@@CA?AVDName@@XZ 1001ebb4 f   libvcruntime:undname.obj
 0001:0001dc1b       ?getStorageConvention@UnDecorator@@CA?AVDName@@XZ 1001ec1b f i libvcruntime:undname.obj
 0001:0001dc30       ?getString@DName@@QBEPADPAD0@Z 1001ec30 f i libvcruntime:undname.obj
 0001:0001dc67       ?getString@DName@@QBEPADPADH@Z 1001ec67 f i libvcruntime:undname.obj
 0001:0001dcd2       ?getString@DNameStatusNode@@UBEPADPAD0@Z 1001ecd2 f i libvcruntime:undname.obj
 0001:0001dd02       ?getString@charNode@@UBEPADPAD0@Z 1001ed02 f i libvcruntime:undname.obj
 0001:0001dd1c       ?getString@pDNameNode@@UBEPADPAD0@Z 1001ed1c f i libvcruntime:undname.obj
 0001:0001dd38       ?getString@pairNode@@UBEPADPAD0@Z 1001ed38 f i libvcruntime:undname.obj
 0001:0001dd8d       ?getString@pcharNode@@UBEPADPAD0@Z 1001ed8d f i libvcruntime:undname.obj
 0001:0001ddae       ?getStringEncoding@UnDecorator@@CA?AVDName@@PADH@Z 1001edae f   libvcruntime:undname.obj
 0001:0001de79       ?getStringHelper@@YAPADPAD00H@Z 1001ee79 f i libvcruntime:undname.obj
 0001:0001debd       ?getSymbolName@UnDecorator@@CA?AVDName@@XZ 1001eebd f i libvcruntime:undname.obj
 0001:0001df17       ?getTemplateArgumentList@UnDecorator@@CA?AVDName@@XZ 1001ef17 f   libvcruntime:undname.obj
 0001:0001e264       ?getTemplateConstant@UnDecorator@@CA?AVDName@@XZ 1001f264 f   libvcruntime:undname.obj
 0001:0001e679       ?getTemplateName@UnDecorator@@CA?AVDName@@_N@Z 1001f679 f   libvcruntime:undname.obj
 0001:0001e824       ?getThisType@UnDecorator@@CA?AVDName@@XZ 1001f824 f i libvcruntime:undname.obj
 0001:0001e86c       ?getThrowTypes@UnDecorator@@CA?AVDName@@XZ 1001f86c f   libvcruntime:undname.obj
 0001:0001e918       ?getTypeEncoding@UnDecorator@@CAHXZ 1001f918 f i libvcruntime:undname.obj
 0001:0001ed14       ?getVCallThunkType@UnDecorator@@CA?AVDName@@XZ 1001fd14 f i libvcruntime:undname.obj
 0001:0001ed5d       ?getVbTableType@UnDecorator@@CA?AVDName@@ABV2@@Z 1001fd5d f i libvcruntime:undname.obj
 0001:0001ed77       ?getVdispMapType@UnDecorator@@CA?AVDName@@ABV2@@Z 1001fd77 f i libvcruntime:undname.obj
 0001:0001ede2       ?getVfTableType@UnDecorator@@CA?AVDName@@ABV2@@Z 1001fde2 f i libvcruntime:undname.obj
 0001:0001efa0       ?getZName@UnDecorator@@CA?AVDName@@_N0@Z 1001ffa0 f   libvcruntime:undname.obj
 0001:0001f270       ?haveTemplateParameters@UnDecorator@@SAHXZ 10020270 f i libvcruntime:undname.obj
 0001:0001f27d       ?isArray@DName@@QBEHXZ     1002027d f i libvcruntime:undname.obj
 0001:0001f289       ?isComArray@DName@@QBEHXZ  10020289 f i libvcruntime:undname.obj
 0001:0001f295       ?isEmpty@DName@@QBEHXZ     10020295 f i libvcruntime:undname.obj
 0001:0001f29f       ?isFull@Replicator@@QBEHXZ 1002029f f i libvcruntime:undname.obj
 0001:0001f2aa       ?isNoTE@DName@@QBEHXZ      100202aa f i libvcruntime:undname.obj
 0001:0001f2b6       ?isPinPtr@DName@@QBEHXZ    100202b6 f i libvcruntime:undname.obj
 0001:0001f2c2       ?isPtrRef@DName@@QBEHXZ    100202c2 f i libvcruntime:undname.obj
 0001:0001f2ce       ?isUDC@DName@@QBEHXZ       100202ce f i libvcruntime:undname.obj
 0001:0001f2e3       ?isUDTThunk@DName@@QBEHXZ  100202e3 f i libvcruntime:undname.obj
 0001:0001f2f8       ?isVCallThunk@DName@@QBEHXZ 100202f8 f i libvcruntime:undname.obj
 0001:0001f304       ?isValid@DName@@QBEHXZ     10020304 f i libvcruntime:undname.obj
 0001:0001f310       ?length@DName@@QBEHXZ      10020310 f i libvcruntime:undname.obj
 0001:0001f335       ?length@DNameStatusNode@@UBEHXZ 10020335 f i libvcruntime:undname.obj
 0001:0001f339       ?length@charNode@@UBEHXZ   10020339 f i libvcruntime:undname.obj
 0001:0001f33d       ?length@pDNameNode@@UBEHXZ 1002033d f i libvcruntime:undname.obj
 0001:0001f34e       ?length@pairNode@@UBEHXZ   1002034e f i libvcruntime:undname.obj
 0001:0001f3aa       ?length@pcharNode@@UBEHXZ  100203aa f i libvcruntime:undname.obj
 0001:0001f3ae       ?make@DNameStatusNode@@SAPAV1@W4DNameStatus@@@Z 100203ae f i libvcruntime:undname.obj
 0001:0001f455       ?setIsArray@DName@@QAEXXZ  10020455 f i libvcruntime:undname.obj
 0001:0001f45f       ?setIsComArray@DName@@QAEXXZ 1002045f f i libvcruntime:undname.obj
 0001:0001f469       ?setIsNoTE@DName@@QAEXXZ   10020469 f i libvcruntime:undname.obj
 0001:0001f473       ?setIsPinPtr@DName@@QAEXXZ 10020473 f i libvcruntime:undname.obj
 0001:0001f47d       ?setIsUDC@DName@@QAEXXZ    1002047d f i libvcruntime:undname.obj
 0001:0001f48d       ?setIsVCallThunk@DName@@QAEXXZ 1002048d f i libvcruntime:undname.obj
 0001:0001f497       ?setPtrRef@DName@@QAEAAV1@XZ 10020497 f i libvcruntime:undname.obj
 0001:0001f4a3       ?status@DName@@QBE?AW4DNameStatus@@XZ 100204a3 f i libvcruntime:undname.obj
 0001:0001f528       ___unDName                 10020528 f   libvcruntime:undname.obj
 0001:0001f5e2       ___unDNameEx               100205e2 f   libvcruntime:undname.obj
 0001:0001f69c       __vsprintf_s_l             1002069c f i libvcruntime:undname.obj
 0001:0001f6d4       _sprintf_s                 100206d4 f i libvcruntime:undname.obj
 0001:0001f700       __global_unwind2           10020700 f   libvcruntime:_exsup_.obj
 0001:0001f765       __local_unwind2            10020765 f   libvcruntime:_exsup_.obj
 0001:0001f7e9       __abnormal_termination     100207e9 f   libvcruntime:_exsup_.obj
 0001:0001f80c       __NLG_Notify1              1002080c f   libvcruntime:_exsup_.obj
 0001:0001f815       __NLG_Notify               10020815 f   libvcruntime:_exsup_.obj
 0001:0001f82c       __NLG_Dispatch             1002082c     libvcruntime:_exsup_.obj
 0001:0001f82c       __NLG_Dispatch2            1002082c     libvcruntime:_exsup_.obj
 0001:0001f834       __NLG_Call                 10020834 f   libvcruntime:_exsup_.obj
 0001:0001f836       __NLG_Return2              10020836     libvcruntime:_exsup_.obj
 0001:0001f884       ??$__crt_fast_decode_pointer@P6AXXZ@@YAP6AXXZQ6AXXZ@Z 10020884 f i libvcruntime:purevirt.obj
 0001:0001f89d       ??$__crt_interlocked_compare_exchange_pointer@$$A6AXXZ$$T$$T@@YAP6AXXZPDS6AXXZ$$T1@Z 1002089d f i libvcruntime:purevirt.obj
 0001:0001f8b3       ??$__crt_interlocked_exchange_pointer@$$A6AXXZP6AXXZ@@YAP6AXXZPDS6AXXZQ6AXXZ@Z 100208b3 f i libvcruntime:purevirt.obj
 0001:0001f8c3       ??$__crt_interlocked_read_pointer@$$A6AXXZ@@YAP6AXXZPDS6AXXZ@Z 100208c3 f i libvcruntime:purevirt.obj
 0001:0001f8d7       __get_purecall_handler     100208d7 f   libvcruntime:purevirt.obj
 0001:0001f8fd       __purecall                 100208fd f   libvcruntime:purevirt.obj
 0001:0001f91e       __set_purecall_handler     1002091e f   libvcruntime:purevirt.obj
 0001:0001f94c       _malloc                    1002094c f   libucrt:malloc.obj
 0001:0001f959       ??$?RPAU__crt_stdio_stream_data@@@__crt_internal_free_policy@@QBEXQBQAU__crt_stdio_stream_data@@@Z 10020959 f i libucrt:_file.obj
 0001:0001f96f       ??0?$__crt_unique_heap_ptr@PAU__crt_stdio_stream_data@@U__crt_internal_free_policy@@@@QAE@QAPAU__crt_stdio_stream_data@@@Z 1002096f f i libucrt:_file.obj
 0001:0001f983       ??0__crt_stdio_stream@@QAE@QAU_iobuf@@@Z 10020983 f i libucrt:_file.obj
 0001:0001f997       ??1?$__crt_unique_heap_ptr@PAU__crt_stdio_stream_data@@U__crt_internal_free_policy@@@@QAE@XZ 10020997 f i libucrt:_file.obj
 0001:0001f9ad       ??C__crt_stdio_stream@@QBEPAU__crt_stdio_stream_data@@XZ 100209ad f i libucrt:_file.obj
 0001:0001f9b0       ?detach@?$__crt_unique_heap_ptr@PAU__crt_stdio_stream_data@@U__crt_internal_free_policy@@@@QAEPAPAU__crt_stdio_stream_data@@XZ 100209b0 f i libucrt:_file.obj
 0001:0001f9b6       ?release@?$__crt_unique_heap_ptr@PAU__crt_stdio_stream_data@@U__crt_internal_free_policy@@@@QAEXXZ 100209b6 f i libucrt:_file.obj
 0001:0001f9cc       ___acrt_initialize_stdio   100209cc f   libucrt:_file.obj
 0001:0001fac6       ___acrt_iob_func           10020ac6 f   libucrt:_file.obj
 0001:0001fada       ___acrt_uninitialize_stdio 10020ada f   libucrt:_file.obj
 0001:0001fb39       __get_stream_buffer_pointers 10020b39 f   libucrt:_file.obj
 0001:0001fb90       __lock_file                10020b90 f   libucrt:_file.obj
 0001:0001fba9       __unlock_file              10020ba9 f   libucrt:_file.obj
 0001:0001fbc2       ??$?0ABV?$stream_output_adapter@D@__crt_stdio_output@@AB_KABQBDABQAU__crt_locale_pointers@@ABQAD@?$format_validation_base@DV?$stream_output_adapter@D@__crt_stdio_output@@@__crt_stdio_output@@IAE@ABV?$stream_output_adapter@D@1@AB_KABQBDABQAU__crt_locale_pointers@@ABQAD@Z 10020bc2 f i libucrt:output.obj
 0001:0001fbed       ??$?0ABV?$stream_output_adapter@D@__crt_stdio_output@@AB_KABQBDABQAU__crt_locale_pointers@@ABQAD@?$positional_parameter_base@DV?$stream_output_adapter@D@__crt_stdio_output@@@__crt_stdio_output@@IAE@ABV?$stream_output_adapter@D@1@AB_KABQBDABQAU__crt_locale_pointers@@ABQAD@Z 10020bed f i libucrt:output.obj
 0001:0001fc47       ??$?0ABV?$stream_output_adapter@D@__crt_stdio_output@@AB_KABQBDABQAU__crt_locale_pointers@@ABQAD@?$standard_base@DV?$stream_output_adapter@D@__crt_stdio_output@@@__crt_stdio_output@@IAE@ABV?$stream_output_adapter@D@1@AB_KABQBDABQAU__crt_locale_pointers@@ABQAD@Z 10020c47 f i libucrt:output.obj
 0001:0001fc89       ??$?0ABV?$stream_output_adapter@_W@__crt_stdio_output@@AB_KABQB_WABQAU__crt_locale_pointers@@ABQAD@?$format_validation_base@_WV?$stream_output_adapter@_W@__crt_stdio_output@@@__crt_stdio_output@@IAE@ABV?$stream_output_adapter@_W@1@AB_KABQB_WABQAU__crt_locale_pointers@@ABQAD@Z 10020c89 f i libucrt:output.obj
 0001:0001fcb4       ??$?0ABV?$stream_output_adapter@_W@__crt_stdio_output@@AB_KABQB_WABQAU__crt_locale_pointers@@ABQAD@?$positional_parameter_base@_WV?$stream_output_adapter@_W@__crt_stdio_output@@@__crt_stdio_output@@IAE@ABV?$stream_output_adapter@_W@1@AB_KABQB_WABQAU__crt_locale_pointers@@ABQAD@Z 10020cb4 f i libucrt:output.obj
 0001:0001fd0e       ??$?0ABV?$stream_output_adapter@_W@__crt_stdio_output@@AB_KABQB_WABQAU__crt_locale_pointers@@ABQAD@?$standard_base@_WV?$stream_output_adapter@_W@__crt_stdio_output@@@__crt_stdio_output@@IAE@ABV?$stream_output_adapter@_W@1@AB_KABQB_WABQAU__crt_locale_pointers@@ABQAD@Z 10020d0e f i libucrt:output.obj
 0001:0001fd50       ??$?0ABV?$string_output_adapter@D@__crt_stdio_output@@AB_KABQBDABQAU__crt_locale_pointers@@ABQAD@?$format_validation_base@DV?$string_output_adapter@D@__crt_stdio_output@@@__crt_stdio_output@@IAE@ABV?$string_output_adapter@D@1@AB_KABQBDABQAU__crt_locale_pointers@@ABQAD@Z 10020d50 f i libucrt:output.obj
 0001:0001fd7b       ??$?0ABV?$string_output_adapter@D@__crt_stdio_output@@AB_KABQBDABQAU__crt_locale_pointers@@ABQAD@?$positional_parameter_base@DV?$string_output_adapter@D@__crt_stdio_output@@@__crt_stdio_output@@IAE@ABV?$string_output_adapter@D@1@AB_KABQBDABQAU__crt_locale_pointers@@ABQAD@Z 10020d7b f i libucrt:output.obj
 0001:0001fdd5       ??$?0ABV?$string_output_adapter@D@__crt_stdio_output@@AB_KABQBDABQAU__crt_locale_pointers@@ABQAD@?$standard_base@DV?$string_output_adapter@D@__crt_stdio_output@@@__crt_stdio_output@@IAE@ABV?$string_output_adapter@D@1@AB_KABQBDABQAU__crt_locale_pointers@@ABQAD@Z 10020dd5 f i libucrt:output.obj
 0001:0001fe17       ??$?0ABV?$string_output_adapter@_W@__crt_stdio_output@@AB_KABQB_WABQAU__crt_locale_pointers@@ABQAD@?$format_validation_base@_WV?$string_output_adapter@_W@__crt_stdio_output@@@__crt_stdio_output@@IAE@ABV?$string_output_adapter@_W@1@AB_KABQB_WABQAU__crt_locale_pointers@@ABQAD@Z 10020e17 f i libucrt:output.obj
 0001:0001fe42       ??$?0ABV?$string_output_adapter@_W@__crt_stdio_output@@AB_KABQB_WABQAU__crt_locale_pointers@@ABQAD@?$positional_parameter_base@_WV?$string_output_adapter@_W@__crt_stdio_output@@@__crt_stdio_output@@IAE@ABV?$string_output_adapter@_W@1@AB_KABQB_WABQAU__crt_locale_pointers@@ABQAD@Z 10020e42 f i libucrt:output.obj
 0001:0001fe9c       ??$?0ABV?$string_output_adapter@_W@__crt_stdio_output@@AB_KABQB_WABQAU__crt_locale_pointers@@ABQAD@?$standard_base@_WV?$string_output_adapter@_W@__crt_stdio_output@@@__crt_stdio_output@@IAE@ABV?$string_output_adapter@_W@1@AB_KABQB_WABQAU__crt_locale_pointers@@ABQAD@Z 10020e9c f i libucrt:output.obj
 0001:0001fede       ??$?RV<lambda_2293f24e3ce1ad6fe22ccfb9dec07671>@@AAV<lambda_2565fc715a641e539f44ad02d6823606>@@V<lambda_d3217f279b832965d9ca670dc2993570>@@@?$__crt_seh_guarded_call@H@@QAEH$$QAV<lambda_2293f24e3ce1ad6fe22ccfb9dec07671>@@AAV<lambda_2565fc715a641e539f44ad02d6823606>@@$$QAV<lambda_d3217f279b832965d9ca670dc2993570>@@@Z 10020ede f i libucrt:output.obj
 0001:0001ff43       ??$?RV<lambda_4d4ac866be0fa3c441830420fabdd2cb>@@AAV<lambda_63a10c2dc8dbb9e4dd1890be52af7c93>@@V<lambda_002af9fa0f8fe472b648c51882d4fc32>@@@?$__crt_seh_guarded_call@H@@QAEH$$QAV<lambda_4d4ac866be0fa3c441830420fabdd2cb>@@AAV<lambda_63a10c2dc8dbb9e4dd1890be52af7c93>@@$$QAV<lambda_002af9fa0f8fe472b648c51882d4fc32>@@@Z 10020f43 f i libucrt:output.obj
 0001:0001ffa8       ??$?RV<lambda_5be909dfbae0a631386585770cd7b676>@@AAV<lambda_e516058a9c289d98c8ca9fea99247804>@@V<lambda_afe2e0cdc5e0ecf6f0d6f5e2f8985e38>@@@?$__crt_seh_guarded_call@H@@QAEH$$QAV<lambda_5be909dfbae0a631386585770cd7b676>@@AAV<lambda_e516058a9c289d98c8ca9fea99247804>@@$$QAV<lambda_afe2e0cdc5e0ecf6f0d6f5e2f8985e38>@@@Z 10020fa8 f i libucrt:output.obj
 0001:0002000d       ??$?RV<lambda_823d65812123d985753d53e2a8c25d20>@@AAV<lambda_0a97c9e57da7be065955385c79108ff2>@@V<lambda_4d2973f3ad2d226f00468307185dca1b>@@@?$__crt_seh_guarded_call@H@@QAEH$$QAV<lambda_823d65812123d985753d53e2a8c25d20>@@AAV<lambda_0a97c9e57da7be065955385c79108ff2>@@$$QAV<lambda_4d2973f3ad2d226f00468307185dca1b>@@@Z 1002100d f i libucrt:output.obj
 0001:00020072       ??$?RV<lambda_ab9923ffb5d694ec0d78876dd103e44f>@@AAV<lambda_481dd5778c961fbcd3b60b650e9b9dc4>@@V<lambda_7923d86c9e3f319b415918ec4b39749c>@@@?$__crt_seh_guarded_call@H@@QAEH$$QAV<lambda_ab9923ffb5d694ec0d78876dd103e44f>@@AAV<lambda_481dd5778c961fbcd3b60b650e9b9dc4>@@$$QAV<lambda_7923d86c9e3f319b415918ec4b39749c>@@@Z 10021072 f i libucrt:output.obj
 0001:000200d7       ??$?RV<lambda_db08b09ef7aa9d4f8620ce68402612bc>@@AAV<lambda_4f2c1eaeead2a5fc776db5b62ea0fb9b>@@V<lambda_3ae262bc35d4ba6a3825c4f6bcaaf95c>@@@?$__crt_seh_guarded_call@H@@QAEH$$QAV<lambda_db08b09ef7aa9d4f8620ce68402612bc>@@AAV<lambda_4f2c1eaeead2a5fc776db5b62ea0fb9b>@@$$QAV<lambda_3ae262bc35d4ba6a3825c4f6bcaaf95c>@@@Z 100210d7 f i libucrt:output.obj
 0001:0002013c       ??$__acrt_lock_stream_and_call@V<lambda_0a97c9e57da7be065955385c79108ff2>@@@@YAHQAU_iobuf@@$$QAV<lambda_0a97c9e57da7be065955385c79108ff2>@@@Z 1002113c f i libucrt:output.obj
 0001:0002016e       ??$__acrt_lock_stream_and_call@V<lambda_2565fc715a641e539f44ad02d6823606>@@@@YAHQAU_iobuf@@$$QAV<lambda_2565fc715a641e539f44ad02d6823606>@@@Z 1002116e f i libucrt:output.obj
 0001:000201a0       ??$__acrt_lock_stream_and_call@V<lambda_481dd5778c961fbcd3b60b650e9b9dc4>@@@@YAHQAU_iobuf@@$$QAV<lambda_481dd5778c961fbcd3b60b650e9b9dc4>@@@Z 100211a0 f i libucrt:output.obj
 0001:000201d2       ??$__acrt_lock_stream_and_call@V<lambda_4f2c1eaeead2a5fc776db5b62ea0fb9b>@@@@YAHQAU_iobuf@@$$QAV<lambda_4f2c1eaeead2a5fc776db5b62ea0fb9b>@@@Z 100211d2 f i libucrt:output.obj
 0001:00020204       ??$__acrt_lock_stream_and_call@V<lambda_63a10c2dc8dbb9e4dd1890be52af7c93>@@@@YAHQAU_iobuf@@$$QAV<lambda_63a10c2dc8dbb9e4dd1890be52af7c93>@@@Z 10021204 f i libucrt:output.obj
 0001:00020236       ??$__acrt_lock_stream_and_call@V<lambda_e516058a9c289d98c8ca9fea99247804>@@@@YAHQAU_iobuf@@$$QAV<lambda_e516058a9c289d98c8ca9fea99247804>@@@Z 10021236 f i libucrt:output.obj
 0001:00020268       ??$__crt_interlocked_read@J@@YAJPDJ@Z 10021268 f i libucrt:output.obj
 0001:000214b3       ??$count@D@formatting_buffer@__crt_stdio_output@@QBEIXZ 100224b3 f i libucrt:output.obj
 0001:000214d1       ??$data@D@formatting_buffer@__crt_stdio_output@@QAEPADXZ 100224d1 f i libucrt:output.obj
 0001:000214e1       ??$data@_W@formatting_buffer@__crt_stdio_output@@QAEPA_WXZ 100224e1 f i libucrt:output.obj
 0001:000214f1       ??$ensure_buffer_is_big_enough@D@formatting_buffer@__crt_stdio_output@@QAE_NI@Z 100224f1 f i libucrt:output.obj
 0001:00021598       ??$extract_argument_from_va_list@C_J@?$positional_parameter_base@DV?$stream_output_adapter@D@__crt_stdio_output@@@__crt_stdio_output@@IAE_NAA_J@Z 10022598 f i libucrt:output.obj
 0001:00021636       ??$extract_argument_from_va_list@C_J@?$positional_parameter_base@DV?$string_output_adapter@D@__crt_stdio_output@@@__crt_stdio_output@@IAE_NAA_J@Z 10022636 f i libucrt:output.obj
 0001:000216d4       ??$extract_argument_from_va_list@C_J@?$positional_parameter_base@_WV?$stream_output_adapter@_W@__crt_stdio_output@@@__crt_stdio_output@@IAE_NAA_J@Z 100226d4 f i libucrt:output.obj
 0001:00021772       ??$extract_argument_from_va_list@C_J@?$positional_parameter_base@_WV?$string_output_adapter@_W@__crt_stdio_output@@@__crt_stdio_output@@IAE_NAA_J@Z 10022772 f i libucrt:output.obj
 0001:00021810       ??$extract_argument_from_va_list@C_J@?$standard_base@DV?$stream_output_adapter@D@__crt_stdio_output@@@__crt_stdio_output@@IAE_NAA_J@Z 10022810 f i libucrt:output.obj
 0001:00021836       ??$extract_argument_from_va_list@C_J@?$standard_base@DV?$string_output_adapter@D@__crt_stdio_output@@@__crt_stdio_output@@IAE_NAA_J@Z 10022836 f i libucrt:output.obj
 0001:0002185c       ??$extract_argument_from_va_list@C_J@?$standard_base@_WV?$stream_output_adapter@_W@__crt_stdio_output@@@__crt_stdio_output@@IAE_NAA_J@Z 1002285c f i libucrt:output.obj
 0001:00021882       ??$extract_argument_from_va_list@C_J@?$standard_base@_WV?$string_output_adapter@_W@__crt_stdio_output@@@__crt_stdio_output@@IAE_NAA_J@Z 10022882 f i libucrt:output.obj
 0001:000218a8       ??$extract_argument_from_va_list@E_J@?$positional_parameter_base@DV?$stream_output_adapter@D@__crt_stdio_output@@@__crt_stdio_output@@IAE_NAA_J@Z 100228a8 f i libucrt:output.obj
 0001:00021946       ??$extract_argument_from_va_list@E_J@?$positional_parameter_base@DV?$string_output_adapter@D@__crt_stdio_output@@@__crt_stdio_output@@IAE_NAA_J@Z 10022946 f i libucrt:output.obj
 0001:000219e4       ??$extract_argument_from_va_list@E_J@?$positional_parameter_base@_WV?$stream_output_adapter@_W@__crt_stdio_output@@@__crt_stdio_output@@IAE_NAA_J@Z 100229e4 f i libucrt:output.obj
 0001:00021a82       ??$extract_argument_from_va_list@E_J@?$positional_parameter_base@_WV?$string_output_adapter@_W@__crt_stdio_output@@@__crt_stdio_output@@IAE_NAA_J@Z 10022a82 f i libucrt:output.obj
 0001:00021b20       ??$extract_argument_from_va_list@E_J@?$standard_base@DV?$stream_output_adapter@D@__crt_stdio_output@@@__crt_stdio_output@@IAE_NAA_J@Z 10022b20 f i libucrt:output.obj
 0001:00021b46       ??$extract_argument_from_va_list@E_J@?$standard_base@DV?$string_output_adapter@D@__crt_stdio_output@@@__crt_stdio_output@@IAE_NAA_J@Z 10022b46 f i libucrt:output.obj
 0001:00021b6c       ??$extract_argument_from_va_list@E_J@?$standard_base@_WV?$stream_output_adapter@_W@__crt_stdio_output@@@__crt_stdio_output@@IAE_NAA_J@Z 10022b6c f i libucrt:output.obj
 0001:00021b92       ??$extract_argument_from_va_list@E_J@?$standard_base@_WV?$string_output_adapter@_W@__crt_stdio_output@@@__crt_stdio_output@@IAE_NAA_J@Z 10022b92 f i libucrt:output.obj
 0001:00021bb8       ??$extract_argument_from_va_list@F_J@?$positional_parameter_base@DV?$stream_output_adapter@D@__crt_stdio_output@@@__crt_stdio_output@@IAE_NAA_J@Z 10022bb8 f i libucrt:output.obj
 0001:00021c56       ??$extract_argument_from_va_list@F_J@?$positional_parameter_base@DV?$string_output_adapter@D@__crt_stdio_output@@@__crt_stdio_output@@IAE_NAA_J@Z 10022c56 f i libucrt:output.obj
 0001:00021cf4       ??$extract_argument_from_va_list@F_J@?$positional_parameter_base@_WV?$stream_output_adapter@_W@__crt_stdio_output@@@__crt_stdio_output@@IAE_NAA_J@Z 10022cf4 f i libucrt:output.obj
 0001:00021d92       ??$extract_argument_from_va_list@F_J@?$positional_parameter_base@_WV?$string_output_adapter@_W@__crt_stdio_output@@@__crt_stdio_output@@IAE_NAA_J@Z 10022d92 f i libucrt:output.obj
 0001:00021e30       ??$extract_argument_from_va_list@F_J@?$standard_base@DV?$stream_output_adapter@D@__crt_stdio_output@@@__crt_stdio_output@@IAE_NAA_J@Z 10022e30 f i libucrt:output.obj
 0001:00021e56       ??$extract_argument_from_va_list@F_J@?$standard_base@DV?$string_output_adapter@D@__crt_stdio_output@@@__crt_stdio_output@@IAE_NAA_J@Z 10022e56 f i libucrt:output.obj
 0001:00021e7c       ??$extract_argument_from_va_list@F_J@?$standard_base@_WV?$stream_output_adapter@_W@__crt_stdio_output@@@__crt_stdio_output@@IAE_NAA_J@Z 10022e7c f i libucrt:output.obj
 0001:00021ea2       ??$extract_argument_from_va_list@F_J@?$standard_base@_WV?$string_output_adapter@_W@__crt_stdio_output@@@__crt_stdio_output@@IAE_NAA_J@Z 10022ea2 f i libucrt:output.obj
 0001:00021ec8       ??$extract_argument_from_va_list@GD@?$positional_parameter_base@DV?$stream_output_adapter@D@__crt_stdio_output@@@__crt_stdio_output@@IAE_NAAD@Z 10022ec8 f i libucrt:output.obj
 0001:00021f65       ??$extract_argument_from_va_list@GD@?$positional_parameter_base@DV?$string_output_adapter@D@__crt_stdio_output@@@__crt_stdio_output@@IAE_NAAD@Z 10022f65 f i libucrt:output.obj
 0001:00022002       ??$extract_argument_from_va_list@GD@?$standard_base@DV?$stream_output_adapter@D@__crt_stdio_output@@@__crt_stdio_output@@IAE_NAAD@Z 10023002 f i libucrt:output.obj
 0001:00022022       ??$extract_argument_from_va_list@GD@?$standard_base@DV?$string_output_adapter@D@__crt_stdio_output@@@__crt_stdio_output@@IAE_NAAD@Z 10023022 f i libucrt:output.obj
 0001:00022042       ??$extract_argument_from_va_list@G_J@?$positional_parameter_base@DV?$stream_output_adapter@D@__crt_stdio_output@@@__crt_stdio_output@@IAE_NAA_J@Z 10023042 f i libucrt:output.obj
 0001:000220e0       ??$extract_argument_from_va_list@G_J@?$positional_parameter_base@DV?$string_output_adapter@D@__crt_stdio_output@@@__crt_stdio_output@@IAE_NAA_J@Z 100230e0 f i libucrt:output.obj
 0001:0002217e       ??$extract_argument_from_va_list@G_J@?$positional_parameter_base@_WV?$stream_output_adapter@_W@__crt_stdio_output@@@__crt_stdio_output@@IAE_NAA_J@Z 1002317e f i libucrt:output.obj
 0001:0002221c       ??$extract_argument_from_va_list@G_J@?$positional_parameter_base@_WV?$string_output_adapter@_W@__crt_stdio_output@@@__crt_stdio_output@@IAE_NAA_J@Z 1002321c f i libucrt:output.obj
 0001:000222ba       ??$extract_argument_from_va_list@G_J@?$standard_base@DV?$stream_output_adapter@D@__crt_stdio_output@@@__crt_stdio_output@@IAE_NAA_J@Z 100232ba f i libucrt:output.obj
 0001:000222e0       ??$extract_argument_from_va_list@G_J@?$standard_base@DV?$string_output_adapter@D@__crt_stdio_output@@@__crt_stdio_output@@IAE_NAA_J@Z 100232e0 f i libucrt:output.obj
 0001:00022306       ??$extract_argument_from_va_list@G_J@?$standard_base@_WV?$stream_output_adapter@_W@__crt_stdio_output@@@__crt_stdio_output@@IAE_NAA_J@Z 10023306 f i libucrt:output.obj
 0001:0002232c       ??$extract_argument_from_va_list@G_J@?$standard_base@_WV?$string_output_adapter@_W@__crt_stdio_output@@@__crt_stdio_output@@IAE_NAA_J@Z 1002332c f i libucrt:output.obj
 0001:00022352       ??$extract_argument_from_va_list@H_J@?$positional_parameter_base@DV?$stream_output_adapter@D@__crt_stdio_output@@@__crt_stdio_output@@IAE_NAA_J@Z 10023352 f i libucrt:output.obj
 0001:000223ee       ??$extract_argument_from_va_list@H_J@?$positional_parameter_base@DV?$string_output_adapter@D@__crt_stdio_output@@@__crt_stdio_output@@IAE_NAA_J@Z 100233ee f i libucrt:output.obj
 0001:0002248a       ??$extract_argument_from_va_list@H_J@?$positional_parameter_base@_WV?$stream_output_adapter@_W@__crt_stdio_output@@@__crt_stdio_output@@IAE_NAA_J@Z 1002348a f i libucrt:output.obj
 0001:00022526       ??$extract_argument_from_va_list@H_J@?$positional_parameter_base@_WV?$string_output_adapter@_W@__crt_stdio_output@@@__crt_stdio_output@@IAE_NAA_J@Z 10023526 f i libucrt:output.obj
 0001:000225c2       ??$extract_argument_from_va_list@H_J@?$standard_base@DV?$stream_output_adapter@D@__crt_stdio_output@@@__crt_stdio_output@@IAE_NAA_J@Z 100235c2 f i libucrt:output.obj
 0001:000225e7       ??$extract_argument_from_va_list@H_J@?$standard_base@DV?$string_output_adapter@D@__crt_stdio_output@@@__crt_stdio_output@@IAE_NAA_J@Z 100235e7 f i libucrt:output.obj
 0001:0002260c       ??$extract_argument_from_va_list@H_J@?$standard_base@_WV?$stream_output_adapter@_W@__crt_stdio_output@@@__crt_stdio_output@@IAE_NAA_J@Z 1002360c f i libucrt:output.obj
 0001:00022631       ??$extract_argument_from_va_list@H_J@?$standard_base@_WV?$string_output_adapter@_W@__crt_stdio_output@@@__crt_stdio_output@@IAE_NAA_J@Z 10023631 f i libucrt:output.obj
 0001:00022656       ??$extract_argument_from_va_list@I_J@?$positional_parameter_base@DV?$stream_output_adapter@D@__crt_stdio_output@@@__crt_stdio_output@@IAE_NAA_J@Z 10023656 f i libucrt:output.obj
 0001:000226fd       ??$extract_argument_from_va_list@I_J@?$positional_parameter_base@DV?$string_output_adapter@D@__crt_stdio_output@@@__crt_stdio_output@@IAE_NAA_J@Z 100236fd f i libucrt:output.obj
 0001:000227a4       ??$extract_argument_from_va_list@I_J@?$positional_parameter_base@_WV?$stream_output_adapter@_W@__crt_stdio_output@@@__crt_stdio_output@@IAE_NAA_J@Z 100237a4 f i libucrt:output.obj
 0001:0002284b       ??$extract_argument_from_va_list@I_J@?$positional_parameter_base@_WV?$string_output_adapter@_W@__crt_stdio_output@@@__crt_stdio_output@@IAE_NAA_J@Z 1002384b f i libucrt:output.obj
 0001:000228f2       ??$extract_argument_from_va_list@I_J@?$standard_base@DV?$stream_output_adapter@D@__crt_stdio_output@@@__crt_stdio_output@@IAE_NAA_J@Z 100238f2 f i libucrt:output.obj
 0001:00022917       ??$extract_argument_from_va_list@I_J@?$standard_base@DV?$string_output_adapter@D@__crt_stdio_output@@@__crt_stdio_output@@IAE_NAA_J@Z 10023917 f i libucrt:output.obj
 0001:0002293c       ??$extract_argument_from_va_list@I_J@?$standard_base@_WV?$stream_output_adapter@_W@__crt_stdio_output@@@__crt_stdio_output@@IAE_NAA_J@Z 1002393c f i libucrt:output.obj
 0001:00022961       ??$extract_argument_from_va_list@I_J@?$standard_base@_WV?$string_output_adapter@_W@__crt_stdio_output@@@__crt_stdio_output@@IAE_NAA_J@Z 10023961 f i libucrt:output.obj
 0001:00022986       ??$extract_argument_from_va_list@PADPAD@?$positional_parameter_base@DV?$stream_output_adapter@D@__crt_stdio_output@@@__crt_stdio_output@@IAE_NAAPAD@Z 10023986 f i libucrt:output.obj
 0001:00022a23       ??$extract_argument_from_va_list@PADPAD@?$positional_parameter_base@DV?$string_output_adapter@D@__crt_stdio_output@@@__crt_stdio_output@@IAE_NAAPAD@Z 10023a23 f i libucrt:output.obj
 0001:00022ac0       ??$extract_argument_from_va_list@PADPAD@?$positional_parameter_base@_WV?$stream_output_adapter@_W@__crt_stdio_output@@@__crt_stdio_output@@IAE_NAAPAD@Z 10023ac0 f i libucrt:output.obj
 0001:00022b5d       ??$extract_argument_from_va_list@PADPAD@?$positional_parameter_base@_WV?$string_output_adapter@_W@__crt_stdio_output@@@__crt_stdio_output@@IAE_NAAPAD@Z 10023b5d f i libucrt:output.obj
 0001:00022bfa       ??$extract_argument_from_va_list@PADPAD@?$standard_base@DV?$stream_output_adapter@D@__crt_stdio_output@@@__crt_stdio_output@@IAE_NAAPAD@Z 10023bfa f i libucrt:output.obj
 0001:00022c1a       ??$extract_argument_from_va_list@PADPAD@?$standard_base@DV?$string_output_adapter@D@__crt_stdio_output@@@__crt_stdio_output@@IAE_NAAPAD@Z 10023c1a f i libucrt:output.obj
 0001:00022c3a       ??$extract_argument_from_va_list@PADPAD@?$standard_base@_WV?$stream_output_adapter@_W@__crt_stdio_output@@@__crt_stdio_output@@IAE_NAAPAD@Z 10023c3a f i libucrt:output.obj
 0001:00022c5a       ??$extract_argument_from_va_list@PADPAD@?$standard_base@_WV?$string_output_adapter@_W@__crt_stdio_output@@@__crt_stdio_output@@IAE_NAAPAD@Z 10023c5a f i libucrt:output.obj
 0001:00022c7a       ??$extract_argument_from_va_list@PAUansi_string@?1??type_case_Z@?$output_processor@DV?$stream_output_adapter@D@__crt_stdio_output@@V?$format_validation_base@DV?$stream_output_adapter@D@__crt_stdio_output@@@2@@__crt_stdio_output@@AAE_NXZ@PAU1?1??234@AAE_NXZ@@?$standard_base@DV?$stream_output_adapter@D@__crt_stdio_output@@@__crt_stdio_output@@IAE_NAAPAUansi_string@?1??type_case_Z@?$output_processor@DV?$stream_output_adapter@D@__crt_stdio_output@@V?$format_validation_base@DV?$stream_output_adapter@D@__crt_stdio_output@@@2@@1@AAE_NXZ@@Z 10023c7a f i libucrt:output.obj
 0001:00022c9a       ??$extract_argument_from_va_list@PAUansi_string@?1??type_case_Z@?$output_processor@DV?$stream_output_adapter@D@__crt_stdio_output@@V?$positional_parameter_base@DV?$stream_output_adapter@D@__crt_stdio_output@@@2@@__crt_stdio_output@@AAE_NXZ@PAU1?1??234@AAE_NXZ@@?$positional_parameter_base@DV?$stream_output_adapter@D@__crt_stdio_output@@@__crt_stdio_output@@IAE_NAAPAUansi_string@?1??type_case_Z@?$output_processor@DV?$stream_output_adapter@D@__crt_stdio_output@@V?$positional_parameter_base@DV?$stream_output_adapter@D@__crt_stdio_output@@@2@@1@AAE_NXZ@@Z 10023c9a f i libucrt:output.obj
 0001:00022d37       ??$extract_argument_from_va_list@PAUansi_string@?1??type_case_Z@?$output_processor@DV?$stream_output_adapter@D@__crt_stdio_output@@V?$positional_parameter_base@DV?$stream_output_adapter@D@__crt_stdio_output@@@2@@__crt_stdio_output@@AAE_NXZ@PAU1?1??234@AAE_NXZ@@?$standard_base@DV?$stream_output_adapter@D@__crt_stdio_output@@@__crt_stdio_output@@IAE_NAAPAUansi_string@?1??type_case_Z@?$output_processor@DV?$stream_output_adapter@D@__crt_stdio_output@@V?$positional_parameter_base@DV?$stream_output_adapter@D@__crt_stdio_output@@@2@@1@AAE_NXZ@@Z 10023d37 f i libucrt:output.obj
 0001:00022d57       ??$extract_argument_from_va_list@PAUansi_string@?1??type_case_Z@?$output_processor@DV?$stream_output_adapter@D@__crt_stdio_output@@V?$standard_base@DV?$stream_output_adapter@D@__crt_stdio_output@@@2@@__crt_stdio_output@@AAE_NXZ@PAU1?1??234@AAE_NXZ@@?$standard_base@DV?$stream_output_adapter@D@__crt_stdio_output@@@__crt_stdio_output@@IAE_NAAPAUansi_string@?1??type_case_Z@?$output_processor@DV?$stream_output_adapter@D@__crt_stdio_output@@V?$standard_base@DV?$stream_output_adapter@D@__crt_stdio_output@@@2@@1@AAE_NXZ@@Z 10023d57 f i libucrt:output.obj
 0001:00022d77       ??$extract_argument_from_va_list@PAUansi_string@?1??type_case_Z@?$output_processor@DV?$string_output_adapter@D@__crt_stdio_output@@V?$format_validation_base@DV?$string_output_adapter@D@__crt_stdio_output@@@2@@__crt_stdio_output@@AAE_NXZ@PAU1?1??234@AAE_NXZ@@?$standard_base@DV?$string_output_adapter@D@__crt_stdio_output@@@__crt_stdio_output@@IAE_NAAPAUansi_string@?1??type_case_Z@?$output_processor@DV?$string_output_adapter@D@__crt_stdio_output@@V?$format_validation_base@DV?$string_output_adapter@D@__crt_stdio_output@@@2@@1@AAE_NXZ@@Z 10023d77 f i libucrt:output.obj
 0001:00022d97       ??$extract_argument_from_va_list@PAUansi_string@?1??type_case_Z@?$output_processor@DV?$string_output_adapter@D@__crt_stdio_output@@V?$positional_parameter_base@DV?$string_output_adapter@D@__crt_stdio_output@@@2@@__crt_stdio_output@@AAE_NXZ@PAU1?1??234@AAE_NXZ@@?$positional_parameter_base@DV?$string_output_adapter@D@__crt_stdio_output@@@__crt_stdio_output@@IAE_NAAPAUansi_string@?1??type_case_Z@?$output_processor@DV?$string_output_adapter@D@__crt_stdio_output@@V?$positional_parameter_base@DV?$string_output_adapter@D@__crt_stdio_output@@@2@@1@AAE_NXZ@@Z 10023d97 f i libucrt:output.obj
 0001:00022e34       ??$extract_argument_from_va_list@PAUansi_string@?1??type_case_Z@?$output_processor@DV?$string_output_adapter@D@__crt_stdio_output@@V?$positional_parameter_base@DV?$string_output_adapter@D@__crt_stdio_output@@@2@@__crt_stdio_output@@AAE_NXZ@PAU1?1??234@AAE_NXZ@@?$standard_base@DV?$string_output_adapter@D@__crt_stdio_output@@@__crt_stdio_output@@IAE_NAAPAUansi_string@?1??type_case_Z@?$output_processor@DV?$string_output_adapter@D@__crt_stdio_output@@V?$positional_parameter_base@DV?$string_output_adapter@D@__crt_stdio_output@@@2@@1@AAE_NXZ@@Z 10023e34 f i libucrt:output.obj
 0001:00022e54       ??$extract_argument_from_va_list@PAUansi_string@?1??type_case_Z@?$output_processor@DV?$string_output_adapter@D@__crt_stdio_output@@V?$standard_base@DV?$string_output_adapter@D@__crt_stdio_output@@@2@@__crt_stdio_output@@AAE_NXZ@PAU1?1??234@AAE_NXZ@@?$standard_base@DV?$string_output_adapter@D@__crt_stdio_output@@@__crt_stdio_output@@IAE_NAAPAUansi_string@?1??type_case_Z@?$output_processor@DV?$string_output_adapter@D@__crt_stdio_output@@V?$standard_base@DV?$string_output_adapter@D@__crt_stdio_output@@@2@@1@AAE_NXZ@@Z 10023e54 f i libucrt:output.obj
 0001:00022e74       ??$extract_argument_from_va_list@PAUansi_string@?1??type_case_Z@?$output_processor@_WV?$stream_output_adapter@_W@__crt_stdio_output@@V?$format_validation_base@_WV?$stream_output_adapter@_W@__crt_stdio_output@@@2@@__crt_stdio_output@@AAE_NXZ@PAU1?1??234@AAE_NXZ@@?$standard_base@_WV?$stream_output_adapter@_W@__crt_stdio_output@@@__crt_stdio_output@@IAE_NAAPAUansi_string@?1??type_case_Z@?$output_processor@_WV?$stream_output_adapter@_W@__crt_stdio_output@@V?$format_validation_base@_WV?$stream_output_adapter@_W@__crt_stdio_output@@@2@@1@AAE_NXZ@@Z 10023e74 f i libucrt:output.obj
 0001:00022e94       ??$extract_argument_from_va_list@PAUansi_string@?1??type_case_Z@?$output_processor@_WV?$stream_output_adapter@_W@__crt_stdio_output@@V?$positional_parameter_base@_WV?$stream_output_adapter@_W@__crt_stdio_output@@@2@@__crt_stdio_output@@AAE_NXZ@PAU1?1??234@AAE_NXZ@@?$positional_parameter_base@_WV?$stream_output_adapter@_W@__crt_stdio_output@@@__crt_stdio_output@@IAE_NAAPAUansi_string@?1??type_case_Z@?$output_processor@_WV?$stream_output_adapter@_W@__crt_stdio_output@@V?$positional_parameter_base@_WV?$stream_output_adapter@_W@__crt_stdio_output@@@2@@1@AAE_NXZ@@Z 10023e94 f i libucrt:output.obj
 0001:00022f31       ??$extract_argument_from_va_list@PAUansi_string@?1??type_case_Z@?$output_processor@_WV?$stream_output_adapter@_W@__crt_stdio_output@@V?$positional_parameter_base@_WV?$stream_output_adapter@_W@__crt_stdio_output@@@2@@__crt_stdio_output@@AAE_NXZ@PAU1?1??234@AAE_NXZ@@?$standard_base@_WV?$stream_output_adapter@_W@__crt_stdio_output@@@__crt_stdio_output@@IAE_NAAPAUansi_string@?1??type_case_Z@?$output_processor@_WV?$stream_output_adapter@_W@__crt_stdio_output@@V?$positional_parameter_base@_WV?$stream_output_adapter@_W@__crt_stdio_output@@@2@@1@AAE_NXZ@@Z 10023f31 f i libucrt:output.obj
 0001:00022f51       ??$extract_argument_from_va_list@PAUansi_string@?1??type_case_Z@?$output_processor@_WV?$stream_output_adapter@_W@__crt_stdio_output@@V?$standard_base@_WV?$stream_output_adapter@_W@__crt_stdio_output@@@2@@__crt_stdio_output@@AAE_NXZ@PAU1?1??234@AAE_NXZ@@?$standard_base@_WV?$stream_output_adapter@_W@__crt_stdio_output@@@__crt_stdio_output@@IAE_NAAPAUansi_string@?1??type_case_Z@?$output_processor@_WV?$stream_output_adapter@_W@__crt_stdio_output@@V?$standard_base@_WV?$stream_output_adapter@_W@__crt_stdio_output@@@2@@1@AAE_NXZ@@Z 10023f51 f i libucrt:output.obj
 0001:00022f71       ??$extract_argument_from_va_list@PAUansi_string@?1??type_case_Z@?$output_processor@_WV?$string_output_adapter@_W@__crt_stdio_output@@V?$format_validation_base@_WV?$string_output_adapter@_W@__crt_stdio_output@@@2@@__crt_stdio_output@@AAE_NXZ@PAU1?1??234@AAE_NXZ@@?$standard_base@_WV?$string_output_adapter@_W@__crt_stdio_output@@@__crt_stdio_output@@IAE_NAAPAUansi_string@?1??type_case_Z@?$output_processor@_WV?$string_output_adapter@_W@__crt_stdio_output@@V?$format_validation_base@_WV?$string_output_adapter@_W@__crt_stdio_output@@@2@@1@AAE_NXZ@@Z 10023f71 f i libucrt:output.obj
 0001:00022f91       ??$extract_argument_from_va_list@PAUansi_string@?1??type_case_Z@?$output_processor@_WV?$string_output_adapter@_W@__crt_stdio_output@@V?$positional_parameter_base@_WV?$string_output_adapter@_W@__crt_stdio_output@@@2@@__crt_stdio_output@@AAE_NXZ@PAU1?1??234@AAE_NXZ@@?$positional_parameter_base@_WV?$string_output_adapter@_W@__crt_stdio_output@@@__crt_stdio_output@@IAE_NAAPAUansi_string@?1??type_case_Z@?$output_processor@_WV?$string_output_adapter@_W@__crt_stdio_output@@V?$positional_parameter_base@_WV?$string_output_adapter@_W@__crt_stdio_output@@@2@@1@AAE_NXZ@@Z 10023f91 f i libucrt:output.obj
 0001:0002302e       ??$extract_argument_from_va_list@PAUansi_string@?1??type_case_Z@?$output_processor@_WV?$string_output_adapter@_W@__crt_stdio_output@@V?$positional_parameter_base@_WV?$string_output_adapter@_W@__crt_stdio_output@@@2@@__crt_stdio_output@@AAE_NXZ@PAU1?1??234@AAE_NXZ@@?$standard_base@_WV?$string_output_adapter@_W@__crt_stdio_output@@@__crt_stdio_output@@IAE_NAAPAUansi_string@?1??type_case_Z@?$output_processor@_WV?$string_output_adapter@_W@__crt_stdio_output@@V?$positional_parameter_base@_WV?$string_output_adapter@_W@__crt_stdio_output@@@2@@1@AAE_NXZ@@Z 1002402e f i libucrt:output.obj
 0001:0002304e       ??$extract_argument_from_va_list@PAUansi_string@?1??type_case_Z@?$output_processor@_WV?$string_output_adapter@_W@__crt_stdio_output@@V?$standard_base@_WV?$string_output_adapter@_W@__crt_stdio_output@@@2@@__crt_stdio_output@@AAE_NXZ@PAU1?1??234@AAE_NXZ@@?$standard_base@_WV?$string_output_adapter@_W@__crt_stdio_output@@@__crt_stdio_output@@IAE_NAAPAUansi_string@?1??type_case_Z@?$output_processor@_WV?$string_output_adapter@_W@__crt_stdio_output@@V?$standard_base@_WV?$string_output_adapter@_W@__crt_stdio_output@@@2@@1@AAE_NXZ@@Z 1002404e f i libucrt:output.obj
 0001:0002306e       ??$extract_argument_from_va_list@PAXPAX@?$positional_parameter_base@DV?$stream_output_adapter@D@__crt_stdio_output@@@__crt_stdio_output@@IAE_NAAPAX@Z 1002406e f i libucrt:output.obj
 0001:0002310b       ??$extract_argument_from_va_list@PAXPAX@?$positional_parameter_base@DV?$string_output_adapter@D@__crt_stdio_output@@@__crt_stdio_output@@IAE_NAAPAX@Z 1002410b f i libucrt:output.obj
 0001:000231a8       ??$extract_argument_from_va_list@PAXPAX@?$positional_parameter_base@_WV?$stream_output_adapter@_W@__crt_stdio_output@@@__crt_stdio_output@@IAE_NAAPAX@Z 100241a8 f i libucrt:output.obj
 0001:00023245       ??$extract_argument_from_va_list@PAXPAX@?$positional_parameter_base@_WV?$string_output_adapter@_W@__crt_stdio_output@@@__crt_stdio_output@@IAE_NAAPAX@Z 10024245 f i libucrt:output.obj
 0001:000232e2       ??$extract_argument_from_va_list@PAXPAX@?$standard_base@DV?$stream_output_adapter@D@__crt_stdio_output@@@__crt_stdio_output@@IAE_NAAPAX@Z 100242e2 f i libucrt:output.obj
 0001:00023302       ??$extract_argument_from_va_list@PAXPAX@?$standard_base@DV?$string_output_adapter@D@__crt_stdio_output@@@__crt_stdio_output@@IAE_NAAPAX@Z 10024302 f i libucrt:output.obj
 0001:00023322       ??$extract_argument_from_va_list@PAXPAX@?$standard_base@_WV?$stream_output_adapter@_W@__crt_stdio_output@@@__crt_stdio_output@@IAE_NAAPAX@Z 10024322 f i libucrt:output.obj
 0001:00023342       ??$extract_argument_from_va_list@PAXPAX@?$standard_base@_WV?$string_output_adapter@_W@__crt_stdio_output@@@__crt_stdio_output@@IAE_NAAPAX@Z 10024342 f i libucrt:output.obj
 0001:00023362       ??$extract_argument_from_va_list@U_CRT_DOUBLE@@U1@@?$positional_parameter_base@DV?$stream_output_adapter@D@__crt_stdio_output@@@__crt_stdio_output@@IAE_NAAU_CRT_DOUBLE@@@Z 10024362 f i libucrt:output.obj
 0001:00023413       ??$extract_argument_from_va_list@U_CRT_DOUBLE@@U1@@?$positional_parameter_base@DV?$string_output_adapter@D@__crt_stdio_output@@@__crt_stdio_output@@IAE_NAAU_CRT_DOUBLE@@@Z 10024413 f i libucrt:output.obj
 0001:000234c4       ??$extract_argument_from_va_list@U_CRT_DOUBLE@@U1@@?$positional_parameter_base@_WV?$stream_output_adapter@_W@__crt_stdio_output@@@__crt_stdio_output@@IAE_NAAU_CRT_DOUBLE@@@Z 100244c4 f i libucrt:output.obj
 0001:00023575       ??$extract_argument_from_va_list@U_CRT_DOUBLE@@U1@@?$positional_parameter_base@_WV?$string_output_adapter@_W@__crt_stdio_output@@@__crt_stdio_output@@IAE_NAAU_CRT_DOUBLE@@@Z 10024575 f i libucrt:output.obj
 0001:00023626       ??$extract_argument_from_va_list@U_CRT_DOUBLE@@U1@@?$standard_base@DV?$stream_output_adapter@D@__crt_stdio_output@@@__crt_stdio_output@@IAE_NAAU_CRT_DOUBLE@@@Z 10024626 f i libucrt:output.obj
 0001:0002364e       ??$extract_argument_from_va_list@U_CRT_DOUBLE@@U1@@?$standard_base@DV?$string_output_adapter@D@__crt_stdio_output@@@__crt_stdio_output@@IAE_NAAU_CRT_DOUBLE@@@Z 1002464e f i libucrt:output.obj
 0001:00023676       ??$extract_argument_from_va_list@U_CRT_DOUBLE@@U1@@?$standard_base@_WV?$stream_output_adapter@_W@__crt_stdio_output@@@__crt_stdio_output@@IAE_NAAU_CRT_DOUBLE@@@Z 10024676 f i libucrt:output.obj
 0001:0002369e       ??$extract_argument_from_va_list@U_CRT_DOUBLE@@U1@@?$standard_base@_WV?$string_output_adapter@_W@__crt_stdio_output@@@__crt_stdio_output@@IAE_NAAU_CRT_DOUBLE@@@Z 1002469e f i libucrt:output.obj
 0001:000236c6       ??$extract_argument_from_va_list@_J_J@?$positional_parameter_base@DV?$stream_output_adapter@D@__crt_stdio_output@@@__crt_stdio_output@@IAE_NAA_J@Z 100246c6 f i libucrt:output.obj
 0001:00023777       ??$extract_argument_from_va_list@_J_J@?$positional_parameter_base@DV?$string_output_adapter@D@__crt_stdio_output@@@__crt_stdio_output@@IAE_NAA_J@Z 10024777 f i libucrt:output.obj
 0001:00023828       ??$extract_argument_from_va_list@_J_J@?$positional_parameter_base@_WV?$stream_output_adapter@_W@__crt_stdio_output@@@__crt_stdio_output@@IAE_NAA_J@Z 10024828 f i libucrt:output.obj
 0001:000238d9       ??$extract_argument_from_va_list@_J_J@?$positional_parameter_base@_WV?$string_output_adapter@_W@__crt_stdio_output@@@__crt_stdio_output@@IAE_NAA_J@Z 100248d9 f i libucrt:output.obj
 0001:0002398a       ??$extract_argument_from_va_list@_J_J@?$standard_base@DV?$stream_output_adapter@D@__crt_stdio_output@@@__crt_stdio_output@@IAE_NAA_J@Z 1002498a f i libucrt:output.obj
 0001:000239b2       ??$extract_argument_from_va_list@_J_J@?$standard_base@DV?$string_output_adapter@D@__crt_stdio_output@@@__crt_stdio_output@@IAE_NAA_J@Z 100249b2 f i libucrt:output.obj
 0001:000239da       ??$extract_argument_from_va_list@_J_J@?$standard_base@_WV?$stream_output_adapter@_W@__crt_stdio_output@@@__crt_stdio_output@@IAE_NAA_J@Z 100249da f i libucrt:output.obj
 0001:00023a02       ??$extract_argument_from_va_list@_J_J@?$standard_base@_WV?$string_output_adapter@_W@__crt_stdio_output@@@__crt_stdio_output@@IAE_NAA_J@Z 10024a02 f i libucrt:output.obj
 0001:00023a2a       ??$extract_argument_from_va_list@_K_J@?$positional_parameter_base@DV?$stream_output_adapter@D@__crt_stdio_output@@@__crt_stdio_output@@IAE_NAA_J@Z 10024a2a f i libucrt:output.obj
 0001:00023adb       ??$extract_argument_from_va_list@_K_J@?$positional_parameter_base@DV?$string_output_adapter@D@__crt_stdio_output@@@__crt_stdio_output@@IAE_NAA_J@Z 10024adb f i libucrt:output.obj
 0001:00023b8c       ??$extract_argument_from_va_list@_K_J@?$positional_parameter_base@_WV?$stream_output_adapter@_W@__crt_stdio_output@@@__crt_stdio_output@@IAE_NAA_J@Z 10024b8c f i libucrt:output.obj
 0001:00023c3d       ??$extract_argument_from_va_list@_K_J@?$positional_parameter_base@_WV?$string_output_adapter@_W@__crt_stdio_output@@@__crt_stdio_output@@IAE_NAA_J@Z 10024c3d f i libucrt:output.obj
 0001:00023cee       ??$extract_argument_from_va_list@_K_J@?$standard_base@DV?$stream_output_adapter@D@__crt_stdio_output@@@__crt_stdio_output@@IAE_NAA_J@Z 10024cee f i libucrt:output.obj
 0001:00023d16       ??$extract_argument_from_va_list@_K_J@?$standard_base@DV?$string_output_adapter@D@__crt_stdio_output@@@__crt_stdio_output@@IAE_NAA_J@Z 10024d16 f i libucrt:output.obj
 0001:00023d3e       ??$extract_argument_from_va_list@_K_J@?$standard_base@_WV?$stream_output_adapter@_W@__crt_stdio_output@@@__crt_stdio_output@@IAE_NAA_J@Z 10024d3e f i libucrt:output.obj
 0001:00023d66       ??$extract_argument_from_va_list@_K_J@?$standard_base@_WV?$string_output_adapter@_W@__crt_stdio_output@@@__crt_stdio_output@@IAE_NAA_J@Z 10024d66 f i libucrt:output.obj
 0001:00023d8e       ??$extract_argument_from_va_list@_W_W@?$positional_parameter_base@DV?$stream_output_adapter@D@__crt_stdio_output@@@__crt_stdio_output@@IAE_NAA_W@Z 10024d8e f i libucrt:output.obj
 0001:00023e30       ??$extract_argument_from_va_list@_W_W@?$positional_parameter_base@DV?$string_output_adapter@D@__crt_stdio_output@@@__crt_stdio_output@@IAE_NAA_W@Z 10024e30 f i libucrt:output.obj
 0001:00023ed2       ??$extract_argument_from_va_list@_W_W@?$positional_parameter_base@_WV?$stream_output_adapter@_W@__crt_stdio_output@@@__crt_stdio_output@@IAE_NAA_W@Z 10024ed2 f i libucrt:output.obj
 0001:00023f74       ??$extract_argument_from_va_list@_W_W@?$positional_parameter_base@_WV?$string_output_adapter@_W@__crt_stdio_output@@@__crt_stdio_output@@IAE_NAA_W@Z 10024f74 f i libucrt:output.obj
 0001:00024016       ??$extract_argument_from_va_list@_W_W@?$standard_base@DV?$stream_output_adapter@D@__crt_stdio_output@@@__crt_stdio_output@@IAE_NAA_W@Z 10025016 f i libucrt:output.obj
 0001:00024039       ??$extract_argument_from_va_list@_W_W@?$standard_base@DV?$string_output_adapter@D@__crt_stdio_output@@@__crt_stdio_output@@IAE_NAA_W@Z 10025039 f i libucrt:output.obj
 0001:0002405c       ??$extract_argument_from_va_list@_W_W@?$standard_base@_WV?$stream_output_adapter@_W@__crt_stdio_output@@@__crt_stdio_output@@IAE_NAA_W@Z 1002505c f i libucrt:output.obj
 0001:0002407f       ??$extract_argument_from_va_list@_W_W@?$standard_base@_WV?$string_output_adapter@_W@__crt_stdio_output@@@__crt_stdio_output@@IAE_NAA_W@Z 1002507f f i libucrt:output.obj
 0001:000240a2       ??$get_parameter_type@D@?$positional_parameter_base@DV?$stream_output_adapter@D@__crt_stdio_output@@@__crt_stdio_output@@CA?AW4parameter_type@01@PAD@Z 100250a2 f i libucrt:output.obj
 0001:000240a6       ??$get_parameter_type@D@?$positional_parameter_base@DV?$string_output_adapter@D@__crt_stdio_output@@@__crt_stdio_output@@CA?AW4parameter_type@01@PAD@Z 100250a6 f i libucrt:output.obj
 0001:000240aa       ??$get_parameter_type@D@?$positional_parameter_base@_WV?$stream_output_adapter@_W@__crt_stdio_output@@@__crt_stdio_output@@CA?AW4parameter_type@01@PAD@Z 100250aa f i libucrt:output.obj
 0001:000240ae       ??$get_parameter_type@D@?$positional_parameter_base@_WV?$string_output_adapter@_W@__crt_stdio_output@@@__crt_stdio_output@@CA?AW4parameter_type@01@PAD@Z 100250ae f i libucrt:output.obj
 0001:000240b2       ??$get_parameter_type@Uansi_string@?1??type_case_Z@?$output_processor@DV?$stream_output_adapter@D@__crt_stdio_output@@V?$positional_parameter_base@DV?$stream_output_adapter@D@__crt_stdio_output@@@2@@__crt_stdio_output@@AAE_NXZ@@?$positional_parameter_base@DV?$stream_output_adapter@D@__crt_stdio_output@@@__crt_stdio_output@@CA?AW4parameter_type@01@PAUansi_string@?1??type_case_Z@?$output_processor@DV?$stream_output_adapter@D@__crt_stdio_output@@V?$positional_parameter_base@DV?$stream_output_adapter@D@__crt_stdio_output@@@2@@1@AAE_NXZ@@Z 100250b2 f i libucrt:output.obj
 0001:000240b6       ??$get_parameter_type@Uansi_string@?1??type_case_Z@?$output_processor@DV?$string_output_adapter@D@__crt_stdio_output@@V?$positional_parameter_base@DV?$string_output_adapter@D@__crt_stdio_output@@@2@@__crt_stdio_output@@AAE_NXZ@@?$positional_parameter_base@DV?$string_output_adapter@D@__crt_stdio_output@@@__crt_stdio_output@@CA?AW4parameter_type@01@PAUansi_string@?1??type_case_Z@?$output_processor@DV?$string_output_adapter@D@__crt_stdio_output@@V?$positional_parameter_base@DV?$string_output_adapter@D@__crt_stdio_output@@@2@@1@AAE_NXZ@@Z 100250b6 f i libucrt:output.obj
 0001:000240ba       ??$get_parameter_type@Uansi_string@?1??type_case_Z@?$output_processor@_WV?$stream_output_adapter@_W@__crt_stdio_output@@V?$positional_parameter_base@_WV?$stream_output_adapter@_W@__crt_stdio_output@@@2@@__crt_stdio_output@@AAE_NXZ@@?$positional_parameter_base@_WV?$stream_output_adapter@_W@__crt_stdio_output@@@__crt_stdio_output@@CA?AW4parameter_type@01@PAUansi_string@?1??type_case_Z@?$output_processor@_WV?$stream_output_adapter@_W@__crt_stdio_output@@V?$positional_parameter_base@_WV?$stream_output_adapter@_W@__crt_stdio_output@@@2@@1@AAE_NXZ@@Z 100250ba f i libucrt:output.obj
 0001:000240be       ??$get_parameter_type@Uansi_string@?1??type_case_Z@?$output_processor@_WV?$string_output_adapter@_W@__crt_stdio_output@@V?$positional_parameter_base@_WV?$string_output_adapter@_W@__crt_stdio_output@@@2@@__crt_stdio_output@@AAE_NXZ@@?$positional_parameter_base@_WV?$string_output_adapter@_W@__crt_stdio_output@@@__crt_stdio_output@@CA?AW4parameter_type@01@PAUansi_string@?1??type_case_Z@?$output_processor@_WV?$string_output_adapter@_W@__crt_stdio_output@@V?$positional_parameter_base@_WV?$string_output_adapter@_W@__crt_stdio_output@@@2@@1@AAE_NXZ@@Z 100250be f i libucrt:output.obj
 0001:000240c2       ??$get_parameter_type@X@?$positional_parameter_base@DV?$stream_output_adapter@D@__crt_stdio_output@@@__crt_stdio_output@@CA?AW4parameter_type@01@PAX@Z 100250c2 f i libucrt:output.obj
 0001:000240c6       ??$get_parameter_type@X@?$positional_parameter_base@DV?$string_output_adapter@D@__crt_stdio_output@@@__crt_stdio_output@@CA?AW4parameter_type@01@PAX@Z 100250c6 f i libucrt:output.obj
 0001:000240ca       ??$get_parameter_type@X@?$positional_parameter_base@_WV?$stream_output_adapter@_W@__crt_stdio_output@@@__crt_stdio_output@@CA?AW4parameter_type@01@PAX@Z 100250ca f i libucrt:output.obj
 0001:000240ce       ??$get_parameter_type@X@?$positional_parameter_base@_WV?$string_output_adapter@_W@__crt_stdio_output@@@__crt_stdio_output@@CA?AW4parameter_type@01@PAX@Z 100250ce f i libucrt:output.obj
 0001:000240d2       ??$is_character_specifier@D@?$positional_parameter_base@DV?$stream_output_adapter@D@__crt_stdio_output@@@__crt_stdio_output@@CA_ND@Z 100250d2 f i libucrt:output.obj
 0001:000240f1       ??$is_character_specifier@D@?$positional_parameter_base@DV?$string_output_adapter@D@__crt_stdio_output@@@__crt_stdio_output@@CA_ND@Z 100250f1 f i libucrt:output.obj
 0001:00024110       ??$is_character_specifier@_W@?$positional_parameter_base@_WV?$stream_output_adapter@_W@__crt_stdio_output@@@__crt_stdio_output@@CA_N_W@Z 10025110 f i libucrt:output.obj
 0001:00024133       ??$is_character_specifier@_W@?$positional_parameter_base@_WV?$string_output_adapter@_W@__crt_stdio_output@@@__crt_stdio_output@@CA_N_W@Z 10025133 f i libucrt:output.obj
 0001:00024156       ??$is_integral_specifier@D@?$positional_parameter_base@DV?$stream_output_adapter@D@__crt_stdio_output@@@__crt_stdio_output@@CA_ND@Z 10025156 f i libucrt:output.obj
 0001:0002418e       ??$is_integral_specifier@D@?$positional_parameter_base@DV?$string_output_adapter@D@__crt_stdio_output@@@__crt_stdio_output@@CA_ND@Z 1002518e f i libucrt:output.obj
 0001:000241c6       ??$is_integral_specifier@_W@?$positional_parameter_base@_WV?$stream_output_adapter@_W@__crt_stdio_output@@@__crt_stdio_output@@CA_N_W@Z 100251c6 f i libucrt:output.obj
 0001:00024211       ??$is_integral_specifier@_W@?$positional_parameter_base@_WV?$string_output_adapter@_W@__crt_stdio_output@@@__crt_stdio_output@@CA_N_W@Z 10025211 f i libucrt:output.obj
 0001:0002425c       ??$is_pointer_specifier@D@?$positional_parameter_base@DV?$stream_output_adapter@D@__crt_stdio_output@@@__crt_stdio_output@@CA_ND@Z 1002525c f i libucrt:output.obj
 0001:00024270       ??$is_pointer_specifier@D@?$positional_parameter_base@DV?$string_output_adapter@D@__crt_stdio_output@@@__crt_stdio_output@@CA_ND@Z 10025270 f i libucrt:output.obj
 0001:00024284       ??$is_pointer_specifier@_W@?$positional_parameter_base@_WV?$stream_output_adapter@_W@__crt_stdio_output@@@__crt_stdio_output@@CA_N_W@Z 10025284 f i libucrt:output.obj
 0001:00024299       ??$is_pointer_specifier@_W@?$positional_parameter_base@_WV?$string_output_adapter@_W@__crt_stdio_output@@@__crt_stdio_output@@CA_N_W@Z 10025299 f i libucrt:output.obj
 0001:000242ae       ??$is_string_specifier@D@?$positional_parameter_base@DV?$stream_output_adapter@D@__crt_stdio_output@@@__crt_stdio_output@@CA_ND@Z 100252ae f i libucrt:output.obj
 0001:000242cd       ??$is_string_specifier@D@?$positional_parameter_base@DV?$string_output_adapter@D@__crt_stdio_output@@@__crt_stdio_output@@CA_ND@Z 100252cd f i libucrt:output.obj
 0001:000242ec       ??$is_string_specifier@_W@?$positional_parameter_base@_WV?$stream_output_adapter@_W@__crt_stdio_output@@@__crt_stdio_output@@CA_N_W@Z 100252ec f i libucrt:output.obj
 0001:0002430f       ??$is_string_specifier@_W@?$positional_parameter_base@_WV?$string_output_adapter@_W@__crt_stdio_output@@@__crt_stdio_output@@CA_N_W@Z 1002530f f i libucrt:output.obj
 0001:00024332       ??$is_wide_character_specifier@D@__crt_stdio_output@@YA_N_KDW4length_modifier@0@@Z 10025332 f i libucrt:output.obj
 0001:00024382       ??$is_wide_character_specifier@_W@__crt_stdio_output@@YA_N_K_WW4length_modifier@0@@Z 10025382 f i libucrt:output.obj
 0001:000243e4       ??$peek_va_arg@C@__crt_stdio_output@@YACPAD@Z 100253e4 f i libucrt:output.obj
 0001:000243f3       ??$peek_va_arg@E@__crt_stdio_output@@YAEPAD@Z 100253f3 f i libucrt:output.obj
 0001:00024402       ??$peek_va_arg@F@__crt_stdio_output@@YAFPAD@Z 10025402 f i libucrt:output.obj
 0001:00024412       ??$peek_va_arg@G@__crt_stdio_output@@YAGPAD@Z 10025412 f i libucrt:output.obj
 0001:00024422       ??$peek_va_arg@H@__crt_stdio_output@@YAHPAD@Z 10025422 f i libucrt:output.obj
 0001:00024431       ??$peek_va_arg@I@__crt_stdio_output@@YAIPAD@Z 10025431 f i libucrt:output.obj
 0001:00024440       ??$peek_va_arg@PAD@__crt_stdio_output@@YAPADPAD@Z 10025440 f i libucrt:output.obj
 0001:0002444f       ??$peek_va_arg@PAUansi_string@?1??type_case_Z@?$output_processor@DV?$stream_output_adapter@D@__crt_stdio_output@@V?$positional_parameter_base@DV?$stream_output_adapter@D@__crt_stdio_output@@@2@@__crt_stdio_output@@AAE_NXZ@@__crt_stdio_output@@YAPAUansi_string@?1??type_case_Z@?$output_processor@DV?$stream_output_adapter@D@__crt_stdio_output@@V?$positional_parameter_base@DV?$stream_output_adapter@D@__crt_stdio_output@@@2@@0@AAE_NXZ@PAD@Z 1002544f f i libucrt:output.obj
 0001:0002445e       ??$peek_va_arg@PAUansi_string@?1??type_case_Z@?$output_processor@DV?$string_output_adapter@D@__crt_stdio_output@@V?$positional_parameter_base@DV?$string_output_adapter@D@__crt_stdio_output@@@2@@__crt_stdio_output@@AAE_NXZ@@__crt_stdio_output@@YAPAUansi_string@?1??type_case_Z@?$output_processor@DV?$string_output_adapter@D@__crt_stdio_output@@V?$positional_parameter_base@DV?$string_output_adapter@D@__crt_stdio_output@@@2@@0@AAE_NXZ@PAD@Z 1002545e f i libucrt:output.obj
 0001:0002446d       ??$peek_va_arg@PAUansi_string@?1??type_case_Z@?$output_processor@_WV?$stream_output_adapter@_W@__crt_stdio_output@@V?$positional_parameter_base@_WV?$stream_output_adapter@_W@__crt_stdio_output@@@2@@__crt_stdio_output@@AAE_NXZ@@__crt_stdio_output@@YAPAUansi_string@?1??type_case_Z@?$output_processor@_WV?$stream_output_adapter@_W@__crt_stdio_output@@V?$positional_parameter_base@_WV?$stream_output_adapter@_W@__crt_stdio_output@@@2@@0@AAE_NXZ@PAD@Z 1002546d f i libucrt:output.obj
 0001:0002447c       ??$peek_va_arg@PAUansi_string@?1??type_case_Z@?$output_processor@_WV?$string_output_adapter@_W@__crt_stdio_output@@V?$positional_parameter_base@_WV?$string_output_adapter@_W@__crt_stdio_output@@@2@@__crt_stdio_output@@AAE_NXZ@@__crt_stdio_output@@YAPAUansi_string@?1??type_case_Z@?$output_processor@_WV?$string_output_adapter@_W@__crt_stdio_output@@V?$positional_parameter_base@_WV?$string_output_adapter@_W@__crt_stdio_output@@@2@@0@AAE_NXZ@PAD@Z 1002547c f i libucrt:output.obj
 0001:0002448b       ??$peek_va_arg@PAX@__crt_stdio_output@@YAPAXPAD@Z 1002548b f i libucrt:output.obj
 0001:0002449a       ??$peek_va_arg@U_CRT_DOUBLE@@@__crt_stdio_output@@YA?AU_CRT_DOUBLE@@PAD@Z 1002549a f i libucrt:output.obj
 0001:000244ac       ??$peek_va_arg@_J@__crt_stdio_output@@YA_JPAD@Z 100254ac f i libucrt:output.obj
 0001:000244be       ??$peek_va_arg@_K@__crt_stdio_output@@YA_KPAD@Z 100254be f i libucrt:output.obj
 0001:000244d0       ??$peek_va_arg@_W@__crt_stdio_output@@YA_WPAD@Z 100254d0 f i libucrt:output.obj
 0001:000244e0       ??$puttc_nolock@ABDPAU_iobuf@@@?$__crt_char_traits@D@@SAHABD$$QAPAU_iobuf@@@Z 100254e0 f i libucrt:output.obj
 0001:00024500       ??$puttc_nolock@AB_WPAU_iobuf@@@?$__crt_char_traits@_W@@SAGAB_W$$QAPAU_iobuf@@@Z 10025500 f i libucrt:output.obj
 0001:00024520       ??$read_va_arg@C@__crt_stdio_output@@YACAAPAD@Z 10025520 f i libucrt:output.obj
 0001:00024536       ??$read_va_arg@E@__crt_stdio_output@@YAEAAPAD@Z 10025536 f i libucrt:output.obj
 0001:0002454c       ??$read_va_arg@F@__crt_stdio_output@@YAFAAPAD@Z 1002554c f i libucrt:output.obj
 0001:00024563       ??$read_va_arg@G@__crt_stdio_output@@YAGAAPAD@Z 10025563 f i libucrt:output.obj
 0001:0002457a       ??$read_va_arg@H@__crt_stdio_output@@YAHAAPAD@Z 1002557a f i libucrt:output.obj
 0001:00024590       ??$read_va_arg@I@__crt_stdio_output@@YAIAAPAD@Z 10025590 f i libucrt:output.obj
 0001:000245a6       ??$read_va_arg@PAD@__crt_stdio_output@@YAPADAAPAD@Z 100255a6 f i libucrt:output.obj
 0001:000245bc       ??$read_va_arg@PAUansi_string@?1??type_case_Z@?$output_processor@DV?$stream_output_adapter@D@__crt_stdio_output@@V?$format_validation_base@DV?$stream_output_adapter@D@__crt_stdio_output@@@2@@__crt_stdio_output@@AAE_NXZ@@__crt_stdio_output@@YAPAUansi_string@?1??type_case_Z@?$output_processor@DV?$stream_output_adapter@D@__crt_stdio_output@@V?$format_validation_base@DV?$stream_output_adapter@D@__crt_stdio_output@@@2@@0@AAE_NXZ@AAPAD@Z 100255bc f i libucrt:output.obj
 0001:000245d2       ??$read_va_arg@PAUansi_string@?1??type_case_Z@?$output_processor@DV?$stream_output_adapter@D@__crt_stdio_output@@V?$positional_parameter_base@DV?$stream_output_adapter@D@__crt_stdio_output@@@2@@__crt_stdio_output@@AAE_NXZ@@__crt_stdio_output@@YAPAUansi_string@?1??type_case_Z@?$output_processor@DV?$stream_output_adapter@D@__crt_stdio_output@@V?$positional_parameter_base@DV?$stream_output_adapter@D@__crt_stdio_output@@@2@@0@AAE_NXZ@AAPAD@Z 100255d2 f i libucrt:output.obj
 0001:000245e8       ??$read_va_arg@PAUansi_string@?1??type_case_Z@?$output_processor@DV?$stream_output_adapter@D@__crt_stdio_output@@V?$standard_base@DV?$stream_output_adapter@D@__crt_stdio_output@@@2@@__crt_stdio_output@@AAE_NXZ@@__crt_stdio_output@@YAPAUansi_string@?1??type_case_Z@?$output_processor@DV?$stream_output_adapter@D@__crt_stdio_output@@V?$standard_base@DV?$stream_output_adapter@D@__crt_stdio_output@@@2@@0@AAE_NXZ@AAPAD@Z 100255e8 f i libucrt:output.obj
 0001:000245fe       ??$read_va_arg@PAUansi_string@?1??type_case_Z@?$output_processor@DV?$string_output_adapter@D@__crt_stdio_output@@V?$format_validation_base@DV?$string_output_adapter@D@__crt_stdio_output@@@2@@__crt_stdio_output@@AAE_NXZ@@__crt_stdio_output@@YAPAUansi_string@?1??type_case_Z@?$output_processor@DV?$string_output_adapter@D@__crt_stdio_output@@V?$format_validation_base@DV?$string_output_adapter@D@__crt_stdio_output@@@2@@0@AAE_NXZ@AAPAD@Z 100255fe f i libucrt:output.obj
 0001:00024614       ??$read_va_arg@PAUansi_string@?1??type_case_Z@?$output_processor@DV?$string_output_adapter@D@__crt_stdio_output@@V?$positional_parameter_base@DV?$string_output_adapter@D@__crt_stdio_output@@@2@@__crt_stdio_output@@AAE_NXZ@@__crt_stdio_output@@YAPAUansi_string@?1??type_case_Z@?$output_processor@DV?$string_output_adapter@D@__crt_stdio_output@@V?$positional_parameter_base@DV?$string_output_adapter@D@__crt_stdio_output@@@2@@0@AAE_NXZ@AAPAD@Z 10025614 f i libucrt:output.obj
 0001:0002462a       ??$read_va_arg@PAUansi_string@?1??type_case_Z@?$output_processor@DV?$string_output_adapter@D@__crt_stdio_output@@V?$standard_base@DV?$string_output_adapter@D@__crt_stdio_output@@@2@@__crt_stdio_output@@AAE_NXZ@@__crt_stdio_output@@YAPAUansi_string@?1??type_case_Z@?$output_processor@DV?$string_output_adapter@D@__crt_stdio_output@@V?$standard_base@DV?$string_output_adapter@D@__crt_stdio_output@@@2@@0@AAE_NXZ@AAPAD@Z 1002562a f i libucrt:output.obj
 0001:00024640       ??$read_va_arg@PAUansi_string@?1??type_case_Z@?$output_processor@_WV?$stream_output_adapter@_W@__crt_stdio_output@@V?$format_validation_base@_WV?$stream_output_adapter@_W@__crt_stdio_output@@@2@@__crt_stdio_output@@AAE_NXZ@@__crt_stdio_output@@YAPAUansi_string@?1??type_case_Z@?$output_processor@_WV?$stream_output_adapter@_W@__crt_stdio_output@@V?$format_validation_base@_WV?$stream_output_adapter@_W@__crt_stdio_output@@@2@@0@AAE_NXZ@AAPAD@Z 10025640 f i libucrt:output.obj
 0001:00024656       ??$read_va_arg@PAUansi_string@?1??type_case_Z@?$output_processor@_WV?$stream_output_adapter@_W@__crt_stdio_output@@V?$positional_parameter_base@_WV?$stream_output_adapter@_W@__crt_stdio_output@@@2@@__crt_stdio_output@@AAE_NXZ@@__crt_stdio_output@@YAPAUansi_string@?1??type_case_Z@?$output_processor@_WV?$stream_output_adapter@_W@__crt_stdio_output@@V?$positional_parameter_base@_WV?$stream_output_adapter@_W@__crt_stdio_output@@@2@@0@AAE_NXZ@AAPAD@Z 10025656 f i libucrt:output.obj
 0001:0002466c       ??$read_va_arg@PAUansi_string@?1??type_case_Z@?$output_processor@_WV?$stream_output_adapter@_W@__crt_stdio_output@@V?$standard_base@_WV?$stream_output_adapter@_W@__crt_stdio_output@@@2@@__crt_stdio_output@@AAE_NXZ@@__crt_stdio_output@@YAPAUansi_string@?1??type_case_Z@?$output_processor@_WV?$stream_output_adapter@_W@__crt_stdio_output@@V?$standard_base@_WV?$stream_output_adapter@_W@__crt_stdio_output@@@2@@0@AAE_NXZ@AAPAD@Z 1002566c f i libucrt:output.obj
 0001:00024682       ??$read_va_arg@PAUansi_string@?1??type_case_Z@?$output_processor@_WV?$string_output_adapter@_W@__crt_stdio_output@@V?$format_validation_base@_WV?$string_output_adapter@_W@__crt_stdio_output@@@2@@__crt_stdio_output@@AAE_NXZ@@__crt_stdio_output@@YAPAUansi_string@?1??type_case_Z@?$output_processor@_WV?$string_output_adapter@_W@__crt_stdio_output@@V?$format_validation_base@_WV?$string_output_adapter@_W@__crt_stdio_output@@@2@@0@AAE_NXZ@AAPAD@Z 10025682 f i libucrt:output.obj
 0001:00024698       ??$read_va_arg@PAUansi_string@?1??type_case_Z@?$output_processor@_WV?$string_output_adapter@_W@__crt_stdio_output@@V?$positional_parameter_base@_WV?$string_output_adapter@_W@__crt_stdio_output@@@2@@__crt_stdio_output@@AAE_NXZ@@__crt_stdio_output@@YAPAUansi_string@?1??type_case_Z@?$output_processor@_WV?$string_output_adapter@_W@__crt_stdio_output@@V?$positional_parameter_base@_WV?$string_output_adapter@_W@__crt_stdio_output@@@2@@0@AAE_NXZ@AAPAD@Z 10025698 f i libucrt:output.obj
 0001:000246ae       ??$read_va_arg@PAUansi_string@?1??type_case_Z@?$output_processor@_WV?$string_output_adapter@_W@__crt_stdio_output@@V?$standard_base@_WV?$string_output_adapter@_W@__crt_stdio_output@@@2@@__crt_stdio_output@@AAE_NXZ@@__crt_stdio_output@@YAPAUansi_string@?1??type_case_Z@?$output_processor@_WV?$string_output_adapter@_W@__crt_stdio_output@@V?$standard_base@_WV?$string_output_adapter@_W@__crt_stdio_output@@@2@@0@AAE_NXZ@AAPAD@Z 100256ae f i libucrt:output.obj
 0001:000246c4       ??$read_va_arg@PAX@__crt_stdio_output@@YAPAXAAPAD@Z 100256c4 f i libucrt:output.obj
 0001:000246da       ??$read_va_arg@U_CRT_DOUBLE@@@__crt_stdio_output@@YA?AU_CRT_DOUBLE@@AAPAD@Z 100256da f i libucrt:output.obj
 0001:000246f4       ??$read_va_arg@_J@__crt_stdio_output@@YA_JAAPAD@Z 100256f4 f i libucrt:output.obj
 0001:0002470e       ??$read_va_arg@_K@__crt_stdio_output@@YA_KAAPAD@Z 1002570e f i libucrt:output.obj
 0001:00024728       ??$read_va_arg@_W@__crt_stdio_output@@YA_WAAPAD@Z 10025728 f i libucrt:output.obj
 0001:0002473f       ??$scratch_count@D@formatting_buffer@__crt_stdio_output@@QBEIXZ 1002573f f i libucrt:output.obj
 0001:00024744       ??$scratch_data@D@formatting_buffer@__crt_stdio_output@@QAEPADXZ 10025744 f i libucrt:output.obj
 0001:00024769       ??$tcstol@AAPBDPAPADH@?$__crt_char_traits@D@@SAJAAPBD$$QAPAPAD$$QAH@Z 10025769 f i libucrt:output.obj
 0001:0002478e       ??$tcstol@AAPB_WPAPA_WH@?$__crt_char_traits@_W@@SAJAAPB_W$$QAPAPA_W$$QAH@Z 1002578e f i libucrt:output.obj
 0001:000247b3       ??$tcstol@PBDPAPADH@?$__crt_char_traits@D@@SAJ$$QAPBD$$QAPAPAD$$QAH@Z 100257b3 f i libucrt:output.obj
 0001:000247d8       ??$tcstol@PB_WPAPA_WH@?$__crt_char_traits@_W@@SAJ$$QAPB_W$$QAPAPA_W$$QAH@Z 100257d8 f i libucrt:output.obj
 0001:000247fd       ??$type_case_integer_parse_into_buffer@I@?$output_processor@DV?$stream_output_adapter@D@__crt_stdio_output@@V?$format_validation_base@DV?$stream_output_adapter@D@__crt_stdio_output@@@2@@__crt_stdio_output@@AAEXII_N@Z 100257fd f i libucrt:output.obj
 0001:0002488f       ??$type_case_integer_parse_into_buffer@I@?$output_processor@DV?$stream_output_adapter@D@__crt_stdio_output@@V?$positional_parameter_base@DV?$stream_output_adapter@D@__crt_stdio_output@@@2@@__crt_stdio_output@@AAEXII_N@Z 1002588f f i libucrt:output.obj
 0001:00024921       ??$type_case_integer_parse_into_buffer@I@?$output_processor@DV?$stream_output_adapter@D@__crt_stdio_output@@V?$standard_base@DV?$stream_output_adapter@D@__crt_stdio_output@@@2@@__crt_stdio_output@@AAEXII_N@Z 10025921 f i libucrt:output.obj
 0001:000249b3       ??$type_case_integer_parse_into_buffer@I@?$output_processor@DV?$string_output_adapter@D@__crt_stdio_output@@V?$format_validation_base@DV?$string_output_adapter@D@__crt_stdio_output@@@2@@__crt_stdio_output@@AAEXII_N@Z 100259b3 f i libucrt:output.obj
 0001:00024a45       ??$type_case_integer_parse_into_buffer@I@?$output_processor@DV?$string_output_adapter@D@__crt_stdio_output@@V?$positional_parameter_base@DV?$string_output_adapter@D@__crt_stdio_output@@@2@@__crt_stdio_output@@AAEXII_N@Z 10025a45 f i libucrt:output.obj
 0001:00024ad7       ??$type_case_integer_parse_into_buffer@I@?$output_processor@DV?$string_output_adapter@D@__crt_stdio_output@@V?$standard_base@DV?$string_output_adapter@D@__crt_stdio_output@@@2@@__crt_stdio_output@@AAEXII_N@Z 10025ad7 f i libucrt:output.obj
 0001:00024b69       ??$type_case_integer_parse_into_buffer@I@?$output_processor@_WV?$stream_output_adapter@_W@__crt_stdio_output@@V?$format_validation_base@_WV?$stream_output_adapter@_W@__crt_stdio_output@@@2@@__crt_stdio_output@@AAEXII_N@Z 10025b69 f i libucrt:output.obj
 0001:00024bfb       ??$type_case_integer_parse_into_buffer@I@?$output_processor@_WV?$stream_output_adapter@_W@__crt_stdio_output@@V?$positional_parameter_base@_WV?$stream_output_adapter@_W@__crt_stdio_output@@@2@@__crt_stdio_output@@AAEXII_N@Z 10025bfb f i libucrt:output.obj
 0001:00024c8d       ??$type_case_integer_parse_into_buffer@I@?$output_processor@_WV?$stream_output_adapter@_W@__crt_stdio_output@@V?$standard_base@_WV?$stream_output_adapter@_W@__crt_stdio_output@@@2@@__crt_stdio_output@@AAEXII_N@Z 10025c8d f i libucrt:output.obj
 0001:00024d1f       ??$type_case_integer_parse_into_buffer@I@?$output_processor@_WV?$string_output_adapter@_W@__crt_stdio_output@@V?$format_validation_base@_WV?$string_output_adapter@_W@__crt_stdio_output@@@2@@__crt_stdio_output@@AAEXII_N@Z 10025d1f f i libucrt:output.obj
 0001:00024db1       ??$type_case_integer_parse_into_buffer@I@?$output_processor@_WV?$string_output_adapter@_W@__crt_stdio_output@@V?$positional_parameter_base@_WV?$string_output_adapter@_W@__crt_stdio_output@@@2@@__crt_stdio_output@@AAEXII_N@Z 10025db1 f i libucrt:output.obj
 0001:00024e43       ??$type_case_integer_parse_into_buffer@I@?$output_processor@_WV?$string_output_adapter@_W@__crt_stdio_output@@V?$standard_base@_WV?$string_output_adapter@_W@__crt_stdio_output@@@2@@__crt_stdio_output@@AAEXII_N@Z 10025e43 f i libucrt:output.obj
 0001:00024ed5       ??$type_case_integer_parse_into_buffer@_K@?$output_processor@DV?$stream_output_adapter@D@__crt_stdio_output@@V?$format_validation_base@DV?$stream_output_adapter@D@__crt_stdio_output@@@2@@__crt_stdio_output@@AAEX_KI_N@Z 10025ed5 f i libucrt:output.obj
 0001:00024f7f       ??$type_case_integer_parse_into_buffer@_K@?$output_processor@DV?$stream_output_adapter@D@__crt_stdio_output@@V?$positional_parameter_base@DV?$stream_output_adapter@D@__crt_stdio_output@@@2@@__crt_stdio_output@@AAEX_KI_N@Z 10025f7f f i libucrt:output.obj
 0001:00025029       ??$type_case_integer_parse_into_buffer@_K@?$output_processor@DV?$stream_output_adapter@D@__crt_stdio_output@@V?$standard_base@DV?$stream_output_adapter@D@__crt_stdio_output@@@2@@__crt_stdio_output@@AAEX_KI_N@Z 10026029 f i libucrt:output.obj
 0001:000250d3       ??$type_case_integer_parse_into_buffer@_K@?$output_processor@DV?$string_output_adapter@D@__crt_stdio_output@@V?$format_validation_base@DV?$string_output_adapter@D@__crt_stdio_output@@@2@@__crt_stdio_output@@AAEX_KI_N@Z 100260d3 f i libucrt:output.obj
 0001:0002517d       ??$type_case_integer_parse_into_buffer@_K@?$output_processor@DV?$string_output_adapter@D@__crt_stdio_output@@V?$positional_parameter_base@DV?$string_output_adapter@D@__crt_stdio_output@@@2@@__crt_stdio_output@@AAEX_KI_N@Z 1002617d f i libucrt:output.obj
 0001:00025227       ??$type_case_integer_parse_into_buffer@_K@?$output_processor@DV?$string_output_adapter@D@__crt_stdio_output@@V?$standard_base@DV?$string_output_adapter@D@__crt_stdio_output@@@2@@__crt_stdio_output@@AAEX_KI_N@Z 10026227 f i libucrt:output.obj
 0001:000252d1       ??$type_case_integer_parse_into_buffer@_K@?$output_processor@_WV?$stream_output_adapter@_W@__crt_stdio_output@@V?$format_validation_base@_WV?$stream_output_adapter@_W@__crt_stdio_output@@@2@@__crt_stdio_output@@AAEX_KI_N@Z 100262d1 f i libucrt:output.obj
 0001:0002537b       ??$type_case_integer_parse_into_buffer@_K@?$output_processor@_WV?$stream_output_adapter@_W@__crt_stdio_output@@V?$positional_parameter_base@_WV?$stream_output_adapter@_W@__crt_stdio_output@@@2@@__crt_stdio_output@@AAEX_KI_N@Z 1002637b f i libucrt:output.obj
 0001:00025425       ??$type_case_integer_parse_into_buffer@_K@?$output_processor@_WV?$stream_output_adapter@_W@__crt_stdio_output@@V?$standard_base@_WV?$stream_output_adapter@_W@__crt_stdio_output@@@2@@__crt_stdio_output@@AAEX_KI_N@Z 10026425 f i libucrt:output.obj
 0001:000254cf       ??$type_case_integer_parse_into_buffer@_K@?$output_processor@_WV?$string_output_adapter@_W@__crt_stdio_output@@V?$format_validation_base@_WV?$string_output_adapter@_W@__crt_stdio_output@@@2@@__crt_stdio_output@@AAEX_KI_N@Z 100264cf f i libucrt:output.obj
 0001:00025579       ??$type_case_integer_parse_into_buffer@_K@?$output_processor@_WV?$string_output_adapter@_W@__crt_stdio_output@@V?$positional_parameter_base@_WV?$string_output_adapter@_W@__crt_stdio_output@@@2@@__crt_stdio_output@@AAEX_KI_N@Z 10026579 f i libucrt:output.obj
 0001:00025623       ??$type_case_integer_parse_into_buffer@_K@?$output_processor@_WV?$string_output_adapter@_W@__crt_stdio_output@@V?$standard_base@_WV?$string_output_adapter@_W@__crt_stdio_output@@@2@@__crt_stdio_output@@AAEX_KI_N@Z 10026623 f i libucrt:output.obj
 0001:000256cd       ??$write_multiple_characters@V?$stream_output_adapter@D@__crt_stdio_output@@D@__crt_stdio_output@@YAXABV?$stream_output_adapter@D@0@DHQAH@Z 100266cd f i libucrt:output.obj
 0001:00025704       ??$write_multiple_characters@V?$stream_output_adapter@_W@__crt_stdio_output@@D@__crt_stdio_output@@YAXABV?$stream_output_adapter@_W@0@DHQAH@Z 10026704 f i libucrt:output.obj
 0001:00025741       ??$write_multiple_characters@V?$string_output_adapter@D@__crt_stdio_output@@D@__crt_stdio_output@@YAXABV?$string_output_adapter@D@0@DHQAH@Z 10026741 f i libucrt:output.obj
 0001:00025778       ??$write_multiple_characters@V?$string_output_adapter@_W@__crt_stdio_output@@D@__crt_stdio_output@@YAXABV?$string_output_adapter@_W@0@DHQAH@Z 10026778 f i libucrt:output.obj
 0001:000259e9       ??0?$common_data@D@__crt_stdio_output@@IAE@XZ 100269e9 f i libucrt:output.obj
 0001:00025a41       ??0?$common_data@_W@__crt_stdio_output@@IAE@XZ 10026a41 f i libucrt:output.obj
 0001:00025aa0       ??0?$output_adapter_data@DV?$stream_output_adapter@D@__crt_stdio_output@@@__crt_stdio_output@@IAE@ABV?$stream_output_adapter@D@1@_KQBDQAU__crt_locale_pointers@@QAD@Z 10026aa0 f i libucrt:output.obj
 0001:00025aeb       ??0?$output_adapter_data@DV?$string_output_adapter@D@__crt_stdio_output@@@__crt_stdio_output@@IAE@ABV?$string_output_adapter@D@1@_KQBDQAU__crt_locale_pointers@@QAD@Z 10026aeb f i libucrt:output.obj
 0001:00025b36       ??0?$output_adapter_data@_WV?$stream_output_adapter@_W@__crt_stdio_output@@@__crt_stdio_output@@IAE@ABV?$stream_output_adapter@_W@1@_KQB_WQAU__crt_locale_pointers@@QAD@Z 10026b36 f i libucrt:output.obj
 0001:00025b81       ??0?$output_adapter_data@_WV?$string_output_adapter@_W@__crt_stdio_output@@@__crt_stdio_output@@IAE@ABV?$string_output_adapter@_W@1@_KQB_WQAU__crt_locale_pointers@@QAD@Z 10026b81 f i libucrt:output.obj
 0001:00025bcc       ??0?$output_processor@DV?$stream_output_adapter@D@__crt_stdio_output@@V?$format_validation_base@DV?$stream_output_adapter@D@__crt_stdio_output@@@2@@__crt_stdio_output@@QAE@ABV?$stream_output_adapter@D@1@_KQBDQAU__crt_locale_pointers@@QAD@Z 10026bcc f i libucrt:output.obj
 0001:00025c0e       ??0?$output_processor@DV?$stream_output_adapter@D@__crt_stdio_output@@V?$positional_parameter_base@DV?$stream_output_adapter@D@__crt_stdio_output@@@2@@__crt_stdio_output@@QAE@ABV?$stream_output_adapter@D@1@_KQBDQAU__crt_locale_pointers@@QAD@Z 10026c0e f i libucrt:output.obj
 0001:00025c48       ??0?$output_processor@DV?$stream_output_adapter@D@__crt_stdio_output@@V?$standard_base@DV?$stream_output_adapter@D@__crt_stdio_output@@@2@@__crt_stdio_output@@QAE@ABV?$stream_output_adapter@D@1@_KQBDQAU__crt_locale_pointers@@QAD@Z 10026c48 f i libucrt:output.obj
 0001:00025c8a       ??0?$output_processor@DV?$string_output_adapter@D@__crt_stdio_output@@V?$format_validation_base@DV?$string_output_adapter@D@__crt_stdio_output@@@2@@__crt_stdio_output@@QAE@ABV?$string_output_adapter@D@1@_KQBDQAU__crt_locale_pointers@@QAD@Z 10026c8a f i libucrt:output.obj
 0001:00025ccc       ??0?$output_processor@DV?$string_output_adapter@D@__crt_stdio_output@@V?$positional_parameter_base@DV?$string_output_adapter@D@__crt_stdio_output@@@2@@__crt_stdio_output@@QAE@ABV?$string_output_adapter@D@1@_KQBDQAU__crt_locale_pointers@@QAD@Z 10026ccc f i libucrt:output.obj
 0001:00025d06       ??0?$output_processor@DV?$string_output_adapter@D@__crt_stdio_output@@V?$standard_base@DV?$string_output_adapter@D@__crt_stdio_output@@@2@@__crt_stdio_output@@QAE@ABV?$string_output_adapter@D@1@_KQBDQAU__crt_locale_pointers@@QAD@Z 10026d06 f i libucrt:output.obj
 0001:00025d48       ??0?$output_processor@_WV?$stream_output_adapter@_W@__crt_stdio_output@@V?$format_validation_base@_WV?$stream_output_adapter@_W@__crt_stdio_output@@@2@@__crt_stdio_output@@QAE@ABV?$stream_output_adapter@_W@1@_KQB_WQAU__crt_locale_pointers@@QAD@Z 10026d48 f i libucrt:output.obj
 0001:00025d8a       ??0?$output_processor@_WV?$stream_output_adapter@_W@__crt_stdio_output@@V?$positional_parameter_base@_WV?$stream_output_adapter@_W@__crt_stdio_output@@@2@@__crt_stdio_output@@QAE@ABV?$stream_output_adapter@_W@1@_KQB_WQAU__crt_locale_pointers@@QAD@Z 10026d8a f i libucrt:output.obj
 0001:00025dc4       ??0?$output_processor@_WV?$stream_output_adapter@_W@__crt_stdio_output@@V?$standard_base@_WV?$stream_output_adapter@_W@__crt_stdio_output@@@2@@__crt_stdio_output@@QAE@ABV?$stream_output_adapter@_W@1@_KQB_WQAU__crt_locale_pointers@@QAD@Z 10026dc4 f i libucrt:output.obj
 0001:00025e06       ??0?$output_processor@_WV?$string_output_adapter@_W@__crt_stdio_output@@V?$format_validation_base@_WV?$string_output_adapter@_W@__crt_stdio_output@@@2@@__crt_stdio_output@@QAE@ABV?$string_output_adapter@_W@1@_KQB_WQAU__crt_locale_pointers@@QAD@Z 10026e06 f i libucrt:output.obj
 0001:00025e48       ??0?$output_processor@_WV?$string_output_adapter@_W@__crt_stdio_output@@V?$positional_parameter_base@_WV?$string_output_adapter@_W@__crt_stdio_output@@@2@@__crt_stdio_output@@QAE@ABV?$string_output_adapter@_W@1@_KQB_WQAU__crt_locale_pointers@@QAD@Z 10026e48 f i libucrt:output.obj
 0001:00025e82       ??0?$output_processor@_WV?$string_output_adapter@_W@__crt_stdio_output@@V?$standard_base@_WV?$string_output_adapter@_W@__crt_stdio_output@@@2@@__crt_stdio_output@@QAE@ABV?$string_output_adapter@_W@1@_KQB_WQAU__crt_locale_pointers@@QAD@Z 10026e82 f i libucrt:output.obj
 0001:00025ec4       ??0?$stream_output_adapter@D@__crt_stdio_output@@QAE@QAU_iobuf@@@Z 10026ec4 f i libucrt:output.obj
 0001:00025ed8       ??0?$stream_output_adapter@_W@__crt_stdio_output@@QAE@QAU_iobuf@@@Z 10026ed8 f i libucrt:output.obj
 0001:00025eec       ??0?$string_output_adapter@D@__crt_stdio_output@@QAE@QAU?$string_output_adapter_context@D@1@@Z 10026eec f i libucrt:output.obj
 0001:00025f00       ??0?$string_output_adapter@_W@__crt_stdio_output@@QAE@QAU?$string_output_adapter_context@_W@1@@Z 10026f00 f i libucrt:output.obj
 0001:00025f14       ??0_LocaleUpdate@@QAE@QAU__crt_locale_pointers@@@Z 10026f14 f i libucrt:output.obj
 0001:00025fb7       ??0__acrt_stdio_temporary_buffering_guard@@QAE@QAU_iobuf@@@Z 10026fb7 f i libucrt:output.obj
 0001:00025fdc       ??0__crt_errno_guard@@QAE@QAH@Z 10026fdc f i libucrt:output.obj
 0001:00025ffa       ??0formatting_buffer@__crt_stdio_output@@QAE@XZ 10026ffa f i libucrt:output.obj
 0001:0002600f       ??1?$common_data@D@__crt_stdio_output@@QAE@XZ 1002700f f i libucrt:output.obj
 0001:00026019       ??1?$common_data@_W@__crt_stdio_output@@QAE@XZ 10027019 f i libucrt:output.obj
 0001:00026023       ??1?$format_validation_base@DV?$stream_output_adapter@D@__crt_stdio_output@@@__crt_stdio_output@@QAE@XZ 10027023 f i libucrt:output.obj
 0001:0002602d       ??1?$format_validation_base@DV?$string_output_adapter@D@__crt_stdio_output@@@__crt_stdio_output@@QAE@XZ 1002702d f i libucrt:output.obj
 0001:00026037       ??1?$format_validation_base@_WV?$stream_output_adapter@_W@__crt_stdio_output@@@__crt_stdio_output@@QAE@XZ 10027037 f i libucrt:output.obj
 0001:00026041       ??1?$format_validation_base@_WV?$string_output_adapter@_W@__crt_stdio_output@@@__crt_stdio_output@@QAE@XZ 10027041 f i libucrt:output.obj
 0001:0002604b       ??1?$output_adapter_data@DV?$stream_output_adapter@D@__crt_stdio_output@@@__crt_stdio_output@@QAE@XZ 1002704b f i libucrt:output.obj
 0001:00026055       ??1?$output_adapter_data@DV?$string_output_adapter@D@__crt_stdio_output@@@__crt_stdio_output@@QAE@XZ 10027055 f i libucrt:output.obj
 0001:0002605f       ??1?$output_adapter_data@_WV?$stream_output_adapter@_W@__crt_stdio_output@@@__crt_stdio_output@@QAE@XZ 1002705f f i libucrt:output.obj
 0001:00026069       ??1?$output_adapter_data@_WV?$string_output_adapter@_W@__crt_stdio_output@@@__crt_stdio_output@@QAE@XZ 10027069 f i libucrt:output.obj
 0001:00026073       ??1?$output_processor@DV?$stream_output_adapter@D@__crt_stdio_output@@V?$format_validation_base@DV?$stream_output_adapter@D@__crt_stdio_output@@@2@@__crt_stdio_output@@QAE@XZ 10027073 f i libucrt:output.obj
 0001:0002607d       ??1?$output_processor@DV?$stream_output_adapter@D@__crt_stdio_output@@V?$positional_parameter_base@DV?$stream_output_adapter@D@__crt_stdio_output@@@2@@__crt_stdio_output@@QAE@XZ 1002707d f i libucrt:output.obj
 0001:00026087       ??1?$output_processor@DV?$stream_output_adapter@D@__crt_stdio_output@@V?$standard_base@DV?$stream_output_adapter@D@__crt_stdio_output@@@2@@__crt_stdio_output@@QAE@XZ 10027087 f i libucrt:output.obj
 0001:00026091       ??1?$output_processor@DV?$string_output_adapter@D@__crt_stdio_output@@V?$format_validation_base@DV?$string_output_adapter@D@__crt_stdio_output@@@2@@__crt_stdio_output@@QAE@XZ 10027091 f i libucrt:output.obj
 0001:0002609b       ??1?$output_processor@DV?$string_output_adapter@D@__crt_stdio_output@@V?$positional_parameter_base@DV?$string_output_adapter@D@__crt_stdio_output@@@2@@__crt_stdio_output@@QAE@XZ 1002709b f i libucrt:output.obj
 0001:000260a5       ??1?$output_processor@DV?$string_output_adapter@D@__crt_stdio_output@@V?$standard_base@DV?$string_output_adapter@D@__crt_stdio_output@@@2@@__crt_stdio_output@@QAE@XZ 100270a5 f i libucrt:output.obj
 0001:000260af       ??1?$output_processor@_WV?$stream_output_adapter@_W@__crt_stdio_output@@V?$format_validation_base@_WV?$stream_output_adapter@_W@__crt_stdio_output@@@2@@__crt_stdio_output@@QAE@XZ 100270af f i libucrt:output.obj
 0001:000260b9       ??1?$output_processor@_WV?$stream_output_adapter@_W@__crt_stdio_output@@V?$positional_parameter_base@_WV?$stream_output_adapter@_W@__crt_stdio_output@@@2@@__crt_stdio_output@@QAE@XZ 100270b9 f i libucrt:output.obj
 0001:000260c3       ??1?$output_processor@_WV?$stream_output_adapter@_W@__crt_stdio_output@@V?$standard_base@_WV?$stream_output_adapter@_W@__crt_stdio_output@@@2@@__crt_stdio_output@@QAE@XZ 100270c3 f i libucrt:output.obj
 0001:000260cd       ??1?$output_processor@_WV?$string_output_adapter@_W@__crt_stdio_output@@V?$format_validation_base@_WV?$string_output_adapter@_W@__crt_stdio_output@@@2@@__crt_stdio_output@@QAE@XZ 100270cd f i libucrt:output.obj
 0001:000260d7       ??1?$output_processor@_WV?$string_output_adapter@_W@__crt_stdio_output@@V?$positional_parameter_base@_WV?$string_output_adapter@_W@__crt_stdio_output@@@2@@__crt_stdio_output@@QAE@XZ 100270d7 f i libucrt:output.obj
 0001:000260e1       ??1?$output_processor@_WV?$string_output_adapter@_W@__crt_stdio_output@@V?$standard_base@_WV?$string_output_adapter@_W@__crt_stdio_output@@@2@@__crt_stdio_output@@QAE@XZ 100270e1 f i libucrt:output.obj
 0001:000260eb       ??1?$positional_parameter_base@DV?$stream_output_adapter@D@__crt_stdio_output@@@__crt_stdio_output@@QAE@XZ 100270eb f i libucrt:output.obj
 0001:000260f5       ??1?$positional_parameter_base@DV?$string_output_adapter@D@__crt_stdio_output@@@__crt_stdio_output@@QAE@XZ 100270f5 f i libucrt:output.obj
 0001:000260ff       ??1?$positional_parameter_base@_WV?$stream_output_adapter@_W@__crt_stdio_output@@@__crt_stdio_output@@QAE@XZ 100270ff f i libucrt:output.obj
 0001:00026109       ??1?$positional_parameter_base@_WV?$string_output_adapter@_W@__crt_stdio_output@@@__crt_stdio_output@@QAE@XZ 10027109 f i libucrt:output.obj
 0001:00026113       ??1?$standard_base@DV?$stream_output_adapter@D@__crt_stdio_output@@@__crt_stdio_output@@QAE@XZ 10027113 f i libucrt:output.obj
 0001:0002611d       ??1?$standard_base@DV?$string_output_adapter@D@__crt_stdio_output@@@__crt_stdio_output@@QAE@XZ 1002711d f i libucrt:output.obj
 0001:00026127       ??1?$standard_base@_WV?$stream_output_adapter@_W@__crt_stdio_output@@@__crt_stdio_output@@QAE@XZ 10027127 f i libucrt:output.obj
 0001:00026131       ??1?$standard_base@_WV?$string_output_adapter@_W@__crt_stdio_output@@@__crt_stdio_output@@QAE@XZ 10027131 f i libucrt:output.obj
 0001:0002613b       ??1_LocaleUpdate@@QAE@XZ   1002713b f i libucrt:output.obj
 0001:0002614f       ??1__acrt_stdio_temporary_buffering_guard@@QAE@XZ 1002714f f i libucrt:output.obj
 0001:00026161       ??1__crt_errno_guard@@QAE@XZ 10027161 f i libucrt:output.obj
 0001:00026176       ??1formatting_buffer@__crt_stdio_output@@QAE@XZ 10027176 f i libucrt:output.obj
 0001:00026196       ??4?$__crt_unique_heap_ptr@DU__crt_internal_free_policy@@@@QAEAAV0@$$QAV0@@Z 10027196 f i libucrt:output.obj
 0001:00026879       ?GetLocaleT@_LocaleUpdate@@QAEPAU__crt_locale_pointers@@XZ 10027879 f i libucrt:output.obj
 0001:0002687d       ?__crt_interlocked_read_32@@YAHPDH@Z 1002787d f i libucrt:output.obj
 0001:0002688c       ?adjust_hexit@?$output_processor@DV?$stream_output_adapter@D@__crt_stdio_output@@V?$format_validation_base@DV?$stream_output_adapter@D@__crt_stdio_output@@@2@@__crt_stdio_output@@CADH_N@Z 1002788c f i libucrt:output.obj
 0001:000268b1       ?adjust_hexit@?$output_processor@DV?$stream_output_adapter@D@__crt_stdio_output@@V?$positional_parameter_base@DV?$stream_output_adapter@D@__crt_stdio_output@@@2@@__crt_stdio_output@@CADH_N@Z 100278b1 f i libucrt:output.obj
 0001:000268d6       ?adjust_hexit@?$output_processor@DV?$stream_output_adapter@D@__crt_stdio_output@@V?$standard_base@DV?$stream_output_adapter@D@__crt_stdio_output@@@2@@__crt_stdio_output@@CADH_N@Z 100278d6 f i libucrt:output.obj
 0001:000268fb       ?adjust_hexit@?$output_processor@DV?$string_output_adapter@D@__crt_stdio_output@@V?$format_validation_base@DV?$string_output_adapter@D@__crt_stdio_output@@@2@@__crt_stdio_output@@CADH_N@Z 100278fb f i libucrt:output.obj
 0001:00026920       ?adjust_hexit@?$output_processor@DV?$string_output_adapter@D@__crt_stdio_output@@V?$positional_parameter_base@DV?$string_output_adapter@D@__crt_stdio_output@@@2@@__crt_stdio_output@@CADH_N@Z 10027920 f i libucrt:output.obj
 0001:00026945       ?adjust_hexit@?$output_processor@DV?$string_output_adapter@D@__crt_stdio_output@@V?$standard_base@DV?$string_output_adapter@D@__crt_stdio_output@@@2@@__crt_stdio_output@@CADH_N@Z 10027945 f i libucrt:output.obj
 0001:0002696a       ?adjust_hexit@?$output_processor@_WV?$stream_output_adapter@_W@__crt_stdio_output@@V?$format_validation_base@_WV?$stream_output_adapter@_W@__crt_stdio_output@@@2@@__crt_stdio_output@@CADH_N@Z 1002796a f i libucrt:output.obj
 0001:0002698f       ?adjust_hexit@?$output_processor@_WV?$stream_output_adapter@_W@__crt_stdio_output@@V?$positional_parameter_base@_WV?$stream_output_adapter@_W@__crt_stdio_output@@@2@@__crt_stdio_output@@CADH_N@Z 1002798f f i libucrt:output.obj
 0001:000269b4       ?adjust_hexit@?$output_processor@_WV?$stream_output_adapter@_W@__crt_stdio_output@@V?$standard_base@_WV?$stream_output_adapter@_W@__crt_stdio_output@@@2@@__crt_stdio_output@@CADH_N@Z 100279b4 f i libucrt:output.obj
 0001:000269d9       ?adjust_hexit@?$output_processor@_WV?$string_output_adapter@_W@__crt_stdio_output@@V?$format_validation_base@_WV?$string_output_adapter@_W@__crt_stdio_output@@@2@@__crt_stdio_output@@CADH_N@Z 100279d9 f i libucrt:output.obj
 0001:000269fe       ?adjust_hexit@?$output_processor@_WV?$string_output_adapter@_W@__crt_stdio_output@@V?$positional_parameter_base@_WV?$string_output_adapter@_W@__crt_stdio_output@@@2@@__crt_stdio_output@@CADH_N@Z 100279fe f i libucrt:output.obj
 0001:00026a23       ?adjust_hexit@?$output_processor@_WV?$string_output_adapter@_W@__crt_stdio_output@@V?$standard_base@_WV?$string_output_adapter@_W@__crt_stdio_output@@@2@@__crt_stdio_output@@CADH_N@Z 10027a23 f i libucrt:output.obj
 0001:00026a48       ?advance_to_next_pass@?$positional_parameter_base@DV?$stream_output_adapter@D@__crt_stdio_output@@@__crt_stdio_output@@IAE_NXZ 10027a48 f i libucrt:output.obj
 0001:00026aa7       ?advance_to_next_pass@?$positional_parameter_base@DV?$string_output_adapter@D@__crt_stdio_output@@@__crt_stdio_output@@IAE_NXZ 10027aa7 f i libucrt:output.obj
 0001:00026b06       ?advance_to_next_pass@?$positional_parameter_base@_WV?$stream_output_adapter@_W@__crt_stdio_output@@@__crt_stdio_output@@IAE_NXZ 10027b06 f i libucrt:output.obj
 0001:00026b65       ?advance_to_next_pass@?$positional_parameter_base@_WV?$string_output_adapter@_W@__crt_stdio_output@@@__crt_stdio_output@@IAE_NXZ 10027b65 f i libucrt:output.obj
 0001:00026bc4       ?advance_to_next_pass@?$standard_base@DV?$stream_output_adapter@D@__crt_stdio_output@@@__crt_stdio_output@@IAE_NXZ 10027bc4 f i libucrt:output.obj
 0001:00026bdb       ?advance_to_next_pass@?$standard_base@DV?$string_output_adapter@D@__crt_stdio_output@@@__crt_stdio_output@@IAE_NXZ 10027bdb f i libucrt:output.obj
 0001:00026bf2       ?advance_to_next_pass@?$standard_base@_WV?$stream_output_adapter@_W@__crt_stdio_output@@@__crt_stdio_output@@IAE_NXZ 10027bf2 f i libucrt:output.obj
 0001:00026c09       ?advance_to_next_pass@?$standard_base@_WV?$string_output_adapter@_W@__crt_stdio_output@@@__crt_stdio_output@@IAE_NXZ 10027c09 f i libucrt:output.obj
 0001:00026c20       ?crop_zeroes@__crt_stdio_output@@YAXPADQAU__crt_locale_pointers@@@Z 10027c20 f i libucrt:output.obj
 0001:00026c8c       ?find_next_state@?$output_processor@DV?$stream_output_adapter@D@__crt_stdio_output@@V?$format_validation_base@DV?$stream_output_adapter@D@__crt_stdio_output@@@2@@__crt_stdio_output@@ABE?AW4state@2@DW432@@Z 10027c8c f i libucrt:output.obj
 0001:00026cce       ?find_next_state@?$output_processor@DV?$stream_output_adapter@D@__crt_stdio_output@@V?$positional_parameter_base@DV?$stream_output_adapter@D@__crt_stdio_output@@@2@@__crt_stdio_output@@ABE?AW4state@2@DW432@@Z 10027cce f i libucrt:output.obj
 0001:00026d10       ?find_next_state@?$output_processor@DV?$stream_output_adapter@D@__crt_stdio_output@@V?$standard_base@DV?$stream_output_adapter@D@__crt_stdio_output@@@2@@__crt_stdio_output@@ABE?AW4state@2@DW432@@Z 10027d10 f i libucrt:output.obj
 0001:00026d4e       ?find_next_state@?$output_processor@DV?$string_output_adapter@D@__crt_stdio_output@@V?$format_validation_base@DV?$string_output_adapter@D@__crt_stdio_output@@@2@@__crt_stdio_output@@ABE?AW4state@2@DW432@@Z 10027d4e f i libucrt:output.obj
 0001:00026d90       ?find_next_state@?$output_processor@DV?$string_output_adapter@D@__crt_stdio_output@@V?$positional_parameter_base@DV?$string_output_adapter@D@__crt_stdio_output@@@2@@__crt_stdio_output@@ABE?AW4state@2@DW432@@Z 10027d90 f i libucrt:output.obj
 0001:00026dd2       ?find_next_state@?$output_processor@DV?$string_output_adapter@D@__crt_stdio_output@@V?$standard_base@DV?$string_output_adapter@D@__crt_stdio_output@@@2@@__crt_stdio_output@@ABE?AW4state@2@DW432@@Z 10027dd2 f i libucrt:output.obj
 0001:00026e10       ?find_next_state@?$output_processor@_WV?$stream_output_adapter@_W@__crt_stdio_output@@V?$format_validation_base@_WV?$stream_output_adapter@_W@__crt_stdio_output@@@2@@__crt_stdio_output@@ABE?AW4state@2@_WW432@@Z 10027e10 f i libucrt:output.obj
 0001:00026e54       ?find_next_state@?$output_processor@_WV?$stream_output_adapter@_W@__crt_stdio_output@@V?$positional_parameter_base@_WV?$stream_output_adapter@_W@__crt_stdio_output@@@2@@__crt_stdio_output@@ABE?AW4state@2@_WW432@@Z 10027e54 f i libucrt:output.obj
 0001:00026e98       ?find_next_state@?$output_processor@_WV?$stream_output_adapter@_W@__crt_stdio_output@@V?$standard_base@_WV?$stream_output_adapter@_W@__crt_stdio_output@@@2@@__crt_stdio_output@@ABE?AW4state@2@_WW432@@Z 10027e98 f i libucrt:output.obj
 0001:00026ed9       ?find_next_state@?$output_processor@_WV?$string_output_adapter@_W@__crt_stdio_output@@V?$format_validation_base@_WV?$string_output_adapter@_W@__crt_stdio_output@@@2@@__crt_stdio_output@@ABE?AW4state@2@_WW432@@Z 10027ed9 f i libucrt:output.obj
 0001:00026f1d       ?find_next_state@?$output_processor@_WV?$string_output_adapter@_W@__crt_stdio_output@@V?$positional_parameter_base@_WV?$string_output_adapter@_W@__crt_stdio_output@@@2@@__crt_stdio_output@@ABE?AW4state@2@_WW432@@Z 10027f1d f i libucrt:output.obj
 0001:00026f61       ?find_next_state@?$output_processor@_WV?$string_output_adapter@_W@__crt_stdio_output@@V?$standard_base@_WV?$string_output_adapter@_W@__crt_stdio_output@@@2@@__crt_stdio_output@@ABE?AW4state@2@_WW432@@Z 10027f61 f i libucrt:output.obj
 0001:00026fa2       ?force_decimal_point@__crt_stdio_output@@YAXPADQAU__crt_locale_pointers@@@Z 10027fa2 f i libucrt:output.obj
 0001:00027015       ?get_flags@__crt_stdio_stream@@QBEJXZ 10028015 f i libucrt:output.obj
 0001:0002701b       ?get_parameter_type@?$positional_parameter_base@DV?$stream_output_adapter@D@__crt_stdio_output@@@__crt_stdio_output@@CA?AW4parameter_type@12@F@Z 1002801b f i libucrt:output.obj
 0001:0002701f       ?get_parameter_type@?$positional_parameter_base@DV?$stream_output_adapter@D@__crt_stdio_output@@@__crt_stdio_output@@CA?AW4parameter_type@12@G@Z 1002801f f i libucrt:output.obj
 0001:00027023       ?get_parameter_type@?$positional_parameter_base@DV?$stream_output_adapter@D@__crt_stdio_output@@@__crt_stdio_output@@CA?AW4parameter_type@12@H@Z 10028023 f i libucrt:output.obj
 0001:00027027       ?get_parameter_type@?$positional_parameter_base@DV?$stream_output_adapter@D@__crt_stdio_output@@@__crt_stdio_output@@CA?AW4parameter_type@12@I@Z 10028027 f i libucrt:output.obj
 0001:0002702b       ?get_parameter_type@?$positional_parameter_base@DV?$stream_output_adapter@D@__crt_stdio_output@@@__crt_stdio_output@@CA?AW4parameter_type@12@U_CRT_DOUBLE@@@Z 1002802b f i libucrt:output.obj
 0001:0002702f       ?get_parameter_type@?$positional_parameter_base@DV?$stream_output_adapter@D@__crt_stdio_output@@@__crt_stdio_output@@CA?AW4parameter_type@12@_J@Z 1002802f f i libucrt:output.obj
 0001:00027033       ?get_parameter_type@?$positional_parameter_base@DV?$stream_output_adapter@D@__crt_stdio_output@@@__crt_stdio_output@@CA?AW4parameter_type@12@_K@Z 10028033 f i libucrt:output.obj
 0001:00027037       ?get_parameter_type@?$positional_parameter_base@DV?$stream_output_adapter@D@__crt_stdio_output@@@__crt_stdio_output@@CA?AW4parameter_type@12@_W@Z 10028037 f i libucrt:output.obj
 0001:0002703b       ?get_parameter_type@?$positional_parameter_base@DV?$string_output_adapter@D@__crt_stdio_output@@@__crt_stdio_output@@CA?AW4parameter_type@12@F@Z 1002803b f i libucrt:output.obj
 0001:0002703f       ?get_parameter_type@?$positional_parameter_base@DV?$string_output_adapter@D@__crt_stdio_output@@@__crt_stdio_output@@CA?AW4parameter_type@12@G@Z 1002803f f i libucrt:output.obj
 0001:00027043       ?get_parameter_type@?$positional_parameter_base@DV?$string_output_adapter@D@__crt_stdio_output@@@__crt_stdio_output@@CA?AW4parameter_type@12@H@Z 10028043 f i libucrt:output.obj
 0001:00027047       ?get_parameter_type@?$positional_parameter_base@DV?$string_output_adapter@D@__crt_stdio_output@@@__crt_stdio_output@@CA?AW4parameter_type@12@I@Z 10028047 f i libucrt:output.obj
 0001:0002704b       ?get_parameter_type@?$positional_parameter_base@DV?$string_output_adapter@D@__crt_stdio_output@@@__crt_stdio_output@@CA?AW4parameter_type@12@U_CRT_DOUBLE@@@Z 1002804b f i libucrt:output.obj
 0001:0002704f       ?get_parameter_type@?$positional_parameter_base@DV?$string_output_adapter@D@__crt_stdio_output@@@__crt_stdio_output@@CA?AW4parameter_type@12@_J@Z 1002804f f i libucrt:output.obj
 0001:00027053       ?get_parameter_type@?$positional_parameter_base@DV?$string_output_adapter@D@__crt_stdio_output@@@__crt_stdio_output@@CA?AW4parameter_type@12@_K@Z 10028053 f i libucrt:output.obj
 0001:00027057       ?get_parameter_type@?$positional_parameter_base@DV?$string_output_adapter@D@__crt_stdio_output@@@__crt_stdio_output@@CA?AW4parameter_type@12@_W@Z 10028057 f i libucrt:output.obj
 0001:0002705b       ?get_parameter_type@?$positional_parameter_base@_WV?$stream_output_adapter@_W@__crt_stdio_output@@@__crt_stdio_output@@CA?AW4parameter_type@12@F@Z 1002805b f i libucrt:output.obj
 0001:0002705f       ?get_parameter_type@?$positional_parameter_base@_WV?$stream_output_adapter@_W@__crt_stdio_output@@@__crt_stdio_output@@CA?AW4parameter_type@12@G@Z 1002805f f i libucrt:output.obj
 0001:00027063       ?get_parameter_type@?$positional_parameter_base@_WV?$stream_output_adapter@_W@__crt_stdio_output@@@__crt_stdio_output@@CA?AW4parameter_type@12@H@Z 10028063 f i libucrt:output.obj
 0001:00027067       ?get_parameter_type@?$positional_parameter_base@_WV?$stream_output_adapter@_W@__crt_stdio_output@@@__crt_stdio_output@@CA?AW4parameter_type@12@I@Z 10028067 f i libucrt:output.obj
 0001:0002706b       ?get_parameter_type@?$positional_parameter_base@_WV?$stream_output_adapter@_W@__crt_stdio_output@@@__crt_stdio_output@@CA?AW4parameter_type@12@U_CRT_DOUBLE@@@Z 1002806b f i libucrt:output.obj
 0001:0002706f       ?get_parameter_type@?$positional_parameter_base@_WV?$stream_output_adapter@_W@__crt_stdio_output@@@__crt_stdio_output@@CA?AW4parameter_type@12@_J@Z 1002806f f i libucrt:output.obj
 0001:00027073       ?get_parameter_type@?$positional_parameter_base@_WV?$stream_output_adapter@_W@__crt_stdio_output@@@__crt_stdio_output@@CA?AW4parameter_type@12@_K@Z 10028073 f i libucrt:output.obj
 0001:00027077       ?get_parameter_type@?$positional_parameter_base@_WV?$stream_output_adapter@_W@__crt_stdio_output@@@__crt_stdio_output@@CA?AW4parameter_type@12@_W@Z 10028077 f i libucrt:output.obj
 0001:0002707b       ?get_parameter_type@?$positional_parameter_base@_WV?$string_output_adapter@_W@__crt_stdio_output@@@__crt_stdio_output@@CA?AW4parameter_type@12@F@Z 1002807b f i libucrt:output.obj
 0001:0002707f       ?get_parameter_type@?$positional_parameter_base@_WV?$string_output_adapter@_W@__crt_stdio_output@@@__crt_stdio_output@@CA?AW4parameter_type@12@G@Z 1002807f f i libucrt:output.obj
 0001:00027083       ?get_parameter_type@?$positional_parameter_base@_WV?$string_output_adapter@_W@__crt_stdio_output@@@__crt_stdio_output@@CA?AW4parameter_type@12@H@Z 10028083 f i libucrt:output.obj
 0001:00027087       ?get_parameter_type@?$positional_parameter_base@_WV?$string_output_adapter@_W@__crt_stdio_output@@@__crt_stdio_output@@CA?AW4parameter_type@12@I@Z 10028087 f i libucrt:output.obj
 0001:0002708b       ?get_parameter_type@?$positional_parameter_base@_WV?$string_output_adapter@_W@__crt_stdio_output@@@__crt_stdio_output@@CA?AW4parameter_type@12@U_CRT_DOUBLE@@@Z 1002808b f i libucrt:output.obj
 0001:0002708f       ?get_parameter_type@?$positional_parameter_base@_WV?$string_output_adapter@_W@__crt_stdio_output@@@__crt_stdio_output@@CA?AW4parameter_type@12@_J@Z 1002808f f i libucrt:output.obj
 0001:00027093       ?get_parameter_type@?$positional_parameter_base@_WV?$string_output_adapter@_W@__crt_stdio_output@@@__crt_stdio_output@@CA?AW4parameter_type@12@_K@Z 10028093 f i libucrt:output.obj
 0001:00027097       ?get_parameter_type@?$positional_parameter_base@_WV?$string_output_adapter@_W@__crt_stdio_output@@@__crt_stdio_output@@CA?AW4parameter_type@12@_W@Z 10028097 f i libucrt:output.obj
 0001:0002709b       ?has_flag@?$output_processor@DV?$stream_output_adapter@D@__crt_stdio_output@@V?$format_validation_base@DV?$stream_output_adapter@D@__crt_stdio_output@@@2@@__crt_stdio_output@@ABE_NI@Z 1002809b f i libucrt:output.obj
 0001:000270b5       ?has_flag@?$output_processor@DV?$stream_output_adapter@D@__crt_stdio_output@@V?$positional_parameter_base@DV?$stream_output_adapter@D@__crt_stdio_output@@@2@@__crt_stdio_output@@ABE_NI@Z 100280b5 f i libucrt:output.obj
 0001:000270cf       ?has_flag@?$output_processor@DV?$stream_output_adapter@D@__crt_stdio_output@@V?$standard_base@DV?$stream_output_adapter@D@__crt_stdio_output@@@2@@__crt_stdio_output@@ABE_NI@Z 100280cf f i libucrt:output.obj
 0001:000270e9       ?has_flag@?$output_processor@DV?$string_output_adapter@D@__crt_stdio_output@@V?$format_validation_base@DV?$string_output_adapter@D@__crt_stdio_output@@@2@@__crt_stdio_output@@ABE_NI@Z 100280e9 f i libucrt:output.obj
 0001:00027103       ?has_flag@?$output_processor@DV?$string_output_adapter@D@__crt_stdio_output@@V?$positional_parameter_base@DV?$string_output_adapter@D@__crt_stdio_output@@@2@@__crt_stdio_output@@ABE_NI@Z 10028103 f i libucrt:output.obj
 0001:0002711d       ?has_flag@?$output_processor@DV?$string_output_adapter@D@__crt_stdio_output@@V?$standard_base@DV?$string_output_adapter@D@__crt_stdio_output@@@2@@__crt_stdio_output@@ABE_NI@Z 1002811d f i libucrt:output.obj
 0001:00027137       ?has_flag@?$output_processor@_WV?$stream_output_adapter@_W@__crt_stdio_output@@V?$format_validation_base@_WV?$stream_output_adapter@_W@__crt_stdio_output@@@2@@__crt_stdio_output@@ABE_NI@Z 10028137 f i libucrt:output.obj
 0001:00027151       ?has_flag@?$output_processor@_WV?$stream_output_adapter@_W@__crt_stdio_output@@V?$positional_parameter_base@_WV?$stream_output_adapter@_W@__crt_stdio_output@@@2@@__crt_stdio_output@@ABE_NI@Z 10028151 f i libucrt:output.obj
 0001:0002716b       ?has_flag@?$output_processor@_WV?$stream_output_adapter@_W@__crt_stdio_output@@V?$standard_base@_WV?$stream_output_adapter@_W@__crt_stdio_output@@@2@@__crt_stdio_output@@ABE_NI@Z 1002816b f i libucrt:output.obj
 0001:00027185       ?has_flag@?$output_processor@_WV?$string_output_adapter@_W@__crt_stdio_output@@V?$format_validation_base@_WV?$string_output_adapter@_W@__crt_stdio_output@@@2@@__crt_stdio_output@@ABE_NI@Z 10028185 f i libucrt:output.obj
 0001:0002719f       ?has_flag@?$output_processor@_WV?$string_output_adapter@_W@__crt_stdio_output@@V?$positional_parameter_base@_WV?$string_output_adapter@_W@__crt_stdio_output@@@2@@__crt_stdio_output@@ABE_NI@Z 1002819f f i libucrt:output.obj
 0001:000271b9       ?has_flag@?$output_processor@_WV?$string_output_adapter@_W@__crt_stdio_output@@V?$standard_base@_WV?$string_output_adapter@_W@__crt_stdio_output@@@2@@__crt_stdio_output@@ABE_NI@Z 100281b9 f i libucrt:output.obj
 0001:000271d3       ?is_positional_parameter_reappearance_consistent@?$positional_parameter_base@DV?$stream_output_adapter@D@__crt_stdio_output@@@__crt_stdio_output@@AAE_NABUparameter_data@12@W4parameter_type@12@DW4length_modifier@2@@Z 100281d3 f i libucrt:output.obj
 0001:0002734c       ?is_positional_parameter_reappearance_consistent@?$positional_parameter_base@DV?$string_output_adapter@D@__crt_stdio_output@@@__crt_stdio_output@@AAE_NABUparameter_data@12@W4parameter_type@12@DW4length_modifier@2@@Z 1002834c f i libucrt:output.obj
 0001:000274c5       ?is_positional_parameter_reappearance_consistent@?$positional_parameter_base@_WV?$stream_output_adapter@_W@__crt_stdio_output@@@__crt_stdio_output@@AAE_NABUparameter_data@12@W4parameter_type@12@_WW4length_modifier@2@@Z 100284c5 f i libucrt:output.obj
 0001:00027630       ?is_positional_parameter_reappearance_consistent@?$positional_parameter_base@_WV?$string_output_adapter@_W@__crt_stdio_output@@@__crt_stdio_output@@AAE_NABUparameter_data@12@W4parameter_type@12@_WW4length_modifier@2@@Z 10028630 f i libucrt:output.obj
 0001:0002779b       ?is_string_backed@__crt_stdio_stream@@QBE_NXZ 1002879b f i libucrt:output.obj
 0001:000277aa       ?narrow_null_string@?$output_processor@DV?$stream_output_adapter@D@__crt_stdio_output@@V?$format_validation_base@DV?$stream_output_adapter@D@__crt_stdio_output@@@2@@__crt_stdio_output@@CAPADXZ 100287aa f i libucrt:output.obj
 0001:000277b0       ?narrow_null_string@?$output_processor@DV?$stream_output_adapter@D@__crt_stdio_output@@V?$positional_parameter_base@DV?$stream_output_adapter@D@__crt_stdio_output@@@2@@__crt_stdio_output@@CAPADXZ 100287b0 f i libucrt:output.obj
 0001:000277b6       ?narrow_null_string@?$output_processor@DV?$stream_output_adapter@D@__crt_stdio_output@@V?$standard_base@DV?$stream_output_adapter@D@__crt_stdio_output@@@2@@__crt_stdio_output@@CAPADXZ 100287b6 f i libucrt:output.obj
 0001:000277bc       ?narrow_null_string@?$output_processor@DV?$string_output_adapter@D@__crt_stdio_output@@V?$format_validation_base@DV?$string_output_adapter@D@__crt_stdio_output@@@2@@__crt_stdio_output@@CAPADXZ 100287bc f i libucrt:output.obj
 0001:000277c2       ?narrow_null_string@?$output_processor@DV?$string_output_adapter@D@__crt_stdio_output@@V?$positional_parameter_base@DV?$string_output_adapter@D@__crt_stdio_output@@@2@@__crt_stdio_output@@CAPADXZ 100287c2 f i libucrt:output.obj
 0001:000277c8       ?narrow_null_string@?$output_processor@DV?$string_output_adapter@D@__crt_stdio_output@@V?$standard_base@DV?$string_output_adapter@D@__crt_stdio_output@@@2@@__crt_stdio_output@@CAPADXZ 100287c8 f i libucrt:output.obj
 0001:000277ce       ?narrow_null_string@?$output_processor@_WV?$stream_output_adapter@_W@__crt_stdio_output@@V?$format_validation_base@_WV?$stream_output_adapter@_W@__crt_stdio_output@@@2@@__crt_stdio_output@@CAPADXZ 100287ce f i libucrt:output.obj
 0001:000277d4       ?narrow_null_string@?$output_processor@_WV?$stream_output_adapter@_W@__crt_stdio_output@@V?$positional_parameter_base@_WV?$stream_output_adapter@_W@__crt_stdio_output@@@2@@__crt_stdio_output@@CAPADXZ 100287d4 f i libucrt:output.obj
 0001:000277da       ?narrow_null_string@?$output_processor@_WV?$stream_output_adapter@_W@__crt_stdio_output@@V?$standard_base@_WV?$stream_output_adapter@_W@__crt_stdio_output@@@2@@__crt_stdio_output@@CAPADXZ 100287da f i libucrt:output.obj
 0001:000277e0       ?narrow_null_string@?$output_processor@_WV?$string_output_adapter@_W@__crt_stdio_output@@V?$format_validation_base@_WV?$string_output_adapter@_W@__crt_stdio_output@@@2@@__crt_stdio_output@@CAPADXZ 100287e0 f i libucrt:output.obj
 0001:000277e6       ?narrow_null_string@?$output_processor@_WV?$string_output_adapter@_W@__crt_stdio_output@@V?$positional_parameter_base@_WV?$string_output_adapter@_W@__crt_stdio_output@@@2@@__crt_stdio_output@@CAPADXZ 100287e6 f i libucrt:output.obj
 0001:000277ec       ?narrow_null_string@?$output_processor@_WV?$string_output_adapter@_W@__crt_stdio_output@@V?$standard_base@_WV?$string_output_adapter@_W@__crt_stdio_output@@@2@@__crt_stdio_output@@CAPADXZ 100287ec f i libucrt:output.obj
 0001:000277f2       ?parse_int_from_format_string@?$output_processor@DV?$stream_output_adapter@D@__crt_stdio_output@@V?$format_validation_base@DV?$stream_output_adapter@D@__crt_stdio_output@@@2@@__crt_stdio_output@@AAE_NQAH@Z 100287f2 f i libucrt:output.obj
 0001:00027865       ?parse_int_from_format_string@?$output_processor@DV?$stream_output_adapter@D@__crt_stdio_output@@V?$positional_parameter_base@DV?$stream_output_adapter@D@__crt_stdio_output@@@2@@__crt_stdio_output@@AAE_NQAH@Z 10028865 f i libucrt:output.obj
 0001:000278d8       ?parse_int_from_format_string@?$output_processor@DV?$stream_output_adapter@D@__crt_stdio_output@@V?$standard_base@DV?$stream_output_adapter@D@__crt_stdio_output@@@2@@__crt_stdio_output@@AAE_NQAH@Z 100288d8 f i libucrt:output.obj
 0001:0002794b       ?parse_int_from_format_string@?$output_processor@DV?$string_output_adapter@D@__crt_stdio_output@@V?$format_validation_base@DV?$string_output_adapter@D@__crt_stdio_output@@@2@@__crt_stdio_output@@AAE_NQAH@Z 1002894b f i libucrt:output.obj
 0001:000279be       ?parse_int_from_format_string@?$output_processor@DV?$string_output_adapter@D@__crt_stdio_output@@V?$positional_parameter_base@DV?$string_output_adapter@D@__crt_stdio_output@@@2@@__crt_stdio_output@@AAE_NQAH@Z 100289be f i libucrt:output.obj
 0001:00027a31       ?parse_int_from_format_string@?$output_processor@DV?$string_output_adapter@D@__crt_stdio_output@@V?$standard_base@DV?$string_output_adapter@D@__crt_stdio_output@@@2@@__crt_stdio_output@@AAE_NQAH@Z 10028a31 f i libucrt:output.obj
 0001:00027aa4       ?parse_int_from_format_string@?$output_processor@_WV?$stream_output_adapter@_W@__crt_stdio_output@@V?$format_validation_base@_WV?$stream_output_adapter@_W@__crt_stdio_output@@@2@@__crt_stdio_output@@AAE_NQAH@Z 10028aa4 f i libucrt:output.obj
 0001:00027b19       ?parse_int_from_format_string@?$output_processor@_WV?$stream_output_adapter@_W@__crt_stdio_output@@V?$positional_parameter_base@_WV?$stream_output_adapter@_W@__crt_stdio_output@@@2@@__crt_stdio_output@@AAE_NQAH@Z 10028b19 f i libucrt:output.obj
 0001:00027b8e       ?parse_int_from_format_string@?$output_processor@_WV?$stream_output_adapter@_W@__crt_stdio_output@@V?$standard_base@_WV?$stream_output_adapter@_W@__crt_stdio_output@@@2@@__crt_stdio_output@@AAE_NQAH@Z 10028b8e f i libucrt:output.obj
 0001:00027c03       ?parse_int_from_format_string@?$output_processor@_WV?$string_output_adapter@_W@__crt_stdio_output@@V?$format_validation_base@_WV?$string_output_adapter@_W@__crt_stdio_output@@@2@@__crt_stdio_output@@AAE_NQAH@Z 10028c03 f i libucrt:output.obj
 0001:00027c78       ?parse_int_from_format_string@?$output_processor@_WV?$string_output_adapter@_W@__crt_stdio_output@@V?$positional_parameter_base@_WV?$string_output_adapter@_W@__crt_stdio_output@@@2@@__crt_stdio_output@@AAE_NQAH@Z 10028c78 f i libucrt:output.obj
 0001:00027ced       ?parse_int_from_format_string@?$output_processor@_WV?$string_output_adapter@_W@__crt_stdio_output@@V?$standard_base@_WV?$string_output_adapter@_W@__crt_stdio_output@@@2@@__crt_stdio_output@@AAE_NQAH@Z 10028ced f i libucrt:output.obj
 0001:00027d62       ?process@?$output_processor@DV?$stream_output_adapter@D@__crt_stdio_output@@V?$format_validation_base@DV?$stream_output_adapter@D@__crt_stdio_output@@@2@@__crt_stdio_output@@QAEHXZ 10028d62 f i libucrt:output.obj
 0001:00027ed4       ?process@?$output_processor@DV?$stream_output_adapter@D@__crt_stdio_output@@V?$positional_parameter_base@DV?$stream_output_adapter@D@__crt_stdio_output@@@2@@__crt_stdio_output@@QAEHXZ 10028ed4 f i libucrt:output.obj
 0001:00028087       ?process@?$output_processor@DV?$stream_output_adapter@D@__crt_stdio_output@@V?$standard_base@DV?$stream_output_adapter@D@__crt_stdio_output@@@2@@__crt_stdio_output@@QAEHXZ 10029087 f i libucrt:output.obj
 0001:000281ea       ?process@?$output_processor@DV?$string_output_adapter@D@__crt_stdio_output@@V?$format_validation_base@DV?$string_output_adapter@D@__crt_stdio_output@@@2@@__crt_stdio_output@@QAEHXZ 100291ea f i libucrt:output.obj
 0001:0002835c       ?process@?$output_processor@DV?$string_output_adapter@D@__crt_stdio_output@@V?$positional_parameter_base@DV?$string_output_adapter@D@__crt_stdio_output@@@2@@__crt_stdio_output@@QAEHXZ 1002935c f i libucrt:output.obj
 0001:0002850f       ?process@?$output_processor@DV?$string_output_adapter@D@__crt_stdio_output@@V?$standard_base@DV?$string_output_adapter@D@__crt_stdio_output@@@2@@__crt_stdio_output@@QAEHXZ 1002950f f i libucrt:output.obj
 0001:00028672       ?process@?$output_processor@_WV?$stream_output_adapter@_W@__crt_stdio_output@@V?$format_validation_base@_WV?$stream_output_adapter@_W@__crt_stdio_output@@@2@@__crt_stdio_output@@QAEHXZ 10029672 f i libucrt:output.obj
 0001:000287ee       ?process@?$output_processor@_WV?$stream_output_adapter@_W@__crt_stdio_output@@V?$positional_parameter_base@_WV?$stream_output_adapter@_W@__crt_stdio_output@@@2@@__crt_stdio_output@@QAEHXZ 100297ee f i libucrt:output.obj
 0001:000289a6       ?process@?$output_processor@_WV?$stream_output_adapter@_W@__crt_stdio_output@@V?$standard_base@_WV?$stream_output_adapter@_W@__crt_stdio_output@@@2@@__crt_stdio_output@@QAEHXZ 100299a6 f i libucrt:output.obj
 0001:00028b0e       ?process@?$output_processor@_WV?$string_output_adapter@_W@__crt_stdio_output@@V?$format_validation_base@_WV?$string_output_adapter@_W@__crt_stdio_output@@@2@@__crt_stdio_output@@QAEHXZ 10029b0e f i libucrt:output.obj
 0001:00028c8a       ?process@?$output_processor@_WV?$string_output_adapter@_W@__crt_stdio_output@@V?$positional_parameter_base@_WV?$string_output_adapter@_W@__crt_stdio_output@@@2@@__crt_stdio_output@@QAEHXZ 10029c8a f i libucrt:output.obj
 0001:00028e42       ?process@?$output_processor@_WV?$string_output_adapter@_W@__crt_stdio_output@@V?$standard_base@_WV?$string_output_adapter@_W@__crt_stdio_output@@@2@@__crt_stdio_output@@QAEHXZ 10029e42 f i libucrt:output.obj
 0001:00028faa       ?public_stream@__crt_stdio_stream@@QBEPAU_iobuf@@XZ 10029faa f i libucrt:output.obj
 0001:00028fad       ?set_flag@?$output_processor@DV?$stream_output_adapter@D@__crt_stdio_output@@V?$format_validation_base@DV?$stream_output_adapter@D@__crt_stdio_output@@@2@@__crt_stdio_output@@AAEXI@Z 10029fad f i libucrt:output.obj
 0001:00028fbf       ?set_flag@?$output_processor@DV?$stream_output_adapter@D@__crt_stdio_output@@V?$positional_parameter_base@DV?$stream_output_adapter@D@__crt_stdio_output@@@2@@__crt_stdio_output@@AAEXI@Z 10029fbf f i libucrt:output.obj
 0001:00028fd1       ?set_flag@?$output_processor@DV?$stream_output_adapter@D@__crt_stdio_output@@V?$standard_base@DV?$stream_output_adapter@D@__crt_stdio_output@@@2@@__crt_stdio_output@@AAEXI@Z 10029fd1 f i libucrt:output.obj
 0001:00028fe3       ?set_flag@?$output_processor@DV?$string_output_adapter@D@__crt_stdio_output@@V?$format_validation_base@DV?$string_output_adapter@D@__crt_stdio_output@@@2@@__crt_stdio_output@@AAEXI@Z 10029fe3 f i libucrt:output.obj
 0001:00028ff5       ?set_flag@?$output_processor@DV?$string_output_adapter@D@__crt_stdio_output@@V?$positional_parameter_base@DV?$string_output_adapter@D@__crt_stdio_output@@@2@@__crt_stdio_output@@AAEXI@Z 10029ff5 f i libucrt:output.obj
 0001:00029007       ?set_flag@?$output_processor@DV?$string_output_adapter@D@__crt_stdio_output@@V?$standard_base@DV?$string_output_adapter@D@__crt_stdio_output@@@2@@__crt_stdio_output@@AAEXI@Z 1002a007 f i libucrt:output.obj
 0001:00029019       ?set_flag@?$output_processor@_WV?$stream_output_adapter@_W@__crt_stdio_output@@V?$format_validation_base@_WV?$stream_output_adapter@_W@__crt_stdio_output@@@2@@__crt_stdio_output@@AAEXI@Z 1002a019 f i libucrt:output.obj
 0001:0002902b       ?set_flag@?$output_processor@_WV?$stream_output_adapter@_W@__crt_stdio_output@@V?$positional_parameter_base@_WV?$stream_output_adapter@_W@__crt_stdio_output@@@2@@__crt_stdio_output@@AAEXI@Z 1002a02b f i libucrt:output.obj
 0001:0002903d       ?set_flag@?$output_processor@_WV?$stream_output_adapter@_W@__crt_stdio_output@@V?$standard_base@_WV?$stream_output_adapter@_W@__crt_stdio_output@@@2@@__crt_stdio_output@@AAEXI@Z 1002a03d f i libucrt:output.obj
 0001:0002904f       ?set_flag@?$output_processor@_WV?$string_output_adapter@_W@__crt_stdio_output@@V?$format_validation_base@_WV?$string_output_adapter@_W@__crt_stdio_output@@@2@@__crt_stdio_output@@AAEXI@Z 1002a04f f i libucrt:output.obj
 0001:00029061       ?set_flag@?$output_processor@_WV?$string_output_adapter@_W@__crt_stdio_output@@V?$positional_parameter_base@_WV?$string_output_adapter@_W@__crt_stdio_output@@@2@@__crt_stdio_output@@AAEXI@Z 1002a061 f i libucrt:output.obj
 0001:00029073       ?set_flag@?$output_processor@_WV?$string_output_adapter@_W@__crt_stdio_output@@V?$standard_base@_WV?$string_output_adapter@_W@__crt_stdio_output@@@2@@__crt_stdio_output@@AAEXI@Z 1002a073 f i libucrt:output.obj
 0001:00029085       ?should_format@?$positional_parameter_base@DV?$stream_output_adapter@D@__crt_stdio_output@@@__crt_stdio_output@@IAE_NXZ 1002a085 f i libucrt:output.obj
 0001:000290a0       ?should_format@?$positional_parameter_base@DV?$string_output_adapter@D@__crt_stdio_output@@@__crt_stdio_output@@IAE_NXZ 1002a0a0 f i libucrt:output.obj
 0001:000290bb       ?should_format@?$positional_parameter_base@_WV?$stream_output_adapter@_W@__crt_stdio_output@@@__crt_stdio_output@@IAE_NXZ 1002a0bb f i libucrt:output.obj
 0001:000290d6       ?should_format@?$positional_parameter_base@_WV?$string_output_adapter@_W@__crt_stdio_output@@@__crt_stdio_output@@IAE_NXZ 1002a0d6 f i libucrt:output.obj
 0001:000290f1       ?should_format@?$standard_base@DV?$stream_output_adapter@D@__crt_stdio_output@@@__crt_stdio_output@@IAE_NXZ 1002a0f1 f i libucrt:output.obj
 0001:000290f4       ?should_format@?$standard_base@DV?$string_output_adapter@D@__crt_stdio_output@@@__crt_stdio_output@@IAE_NXZ 1002a0f4 f i libucrt:output.obj
 0001:000290f7       ?should_format@?$standard_base@_WV?$stream_output_adapter@_W@__crt_stdio_output@@@__crt_stdio_output@@IAE_NXZ 1002a0f7 f i libucrt:output.obj
 0001:000290fa       ?should_format@?$standard_base@_WV?$string_output_adapter@_W@__crt_stdio_output@@@__crt_stdio_output@@IAE_NXZ 1002a0fa f i libucrt:output.obj
 0001:000290fd       ?should_skip_normal_state_processing@?$positional_parameter_base@DV?$stream_output_adapter@D@__crt_stdio_output@@@__crt_stdio_output@@IAE_NXZ 1002a0fd f i libucrt:output.obj
 0001:0002912f       ?should_skip_normal_state_processing@?$positional_parameter_base@DV?$string_output_adapter@D@__crt_stdio_output@@@__crt_stdio_output@@IAE_NXZ 1002a12f f i libucrt:output.obj
 0001:00029161       ?should_skip_normal_state_processing@?$positional_parameter_base@_WV?$stream_output_adapter@_W@__crt_stdio_output@@@__crt_stdio_output@@IAE_NXZ 1002a161 f i libucrt:output.obj
 0001:00029193       ?should_skip_normal_state_processing@?$positional_parameter_base@_WV?$string_output_adapter@_W@__crt_stdio_output@@@__crt_stdio_output@@IAE_NXZ 1002a193 f i libucrt:output.obj
 0001:000291c5       ?should_skip_normal_state_processing@?$standard_base@DV?$stream_output_adapter@D@__crt_stdio_output@@@__crt_stdio_output@@IAE_NXZ 1002a1c5 f i libucrt:output.obj
 0001:000291c8       ?should_skip_normal_state_processing@?$standard_base@DV?$string_output_adapter@D@__crt_stdio_output@@@__crt_stdio_output@@IAE_NXZ 1002a1c8 f i libucrt:output.obj
 0001:000291cb       ?should_skip_normal_state_processing@?$standard_base@_WV?$stream_output_adapter@_W@__crt_stdio_output@@@__crt_stdio_output@@IAE_NXZ 1002a1cb f i libucrt:output.obj
 0001:000291ce       ?should_skip_normal_state_processing@?$standard_base@_WV?$string_output_adapter@_W@__crt_stdio_output@@@__crt_stdio_output@@IAE_NXZ 1002a1ce f i libucrt:output.obj
 0001:000291d1       ?should_skip_type_state_output@?$positional_parameter_base@DV?$stream_output_adapter@D@__crt_stdio_output@@@__crt_stdio_output@@IBE_NXZ 1002a1d1 f i libucrt:output.obj
 0001:000291ed       ?should_skip_type_state_output@?$positional_parameter_base@DV?$string_output_adapter@D@__crt_stdio_output@@@__crt_stdio_output@@IBE_NXZ 1002a1ed f i libucrt:output.obj
 0001:00029209       ?should_skip_type_state_output@?$positional_parameter_base@_WV?$stream_output_adapter@_W@__crt_stdio_output@@@__crt_stdio_output@@IBE_NXZ 1002a209 f i libucrt:output.obj
 0001:00029225       ?should_skip_type_state_output@?$positional_parameter_base@_WV?$string_output_adapter@_W@__crt_stdio_output@@@__crt_stdio_output@@IBE_NXZ 1002a225 f i libucrt:output.obj
 0001:00029241       ?should_skip_type_state_output@?$standard_base@DV?$stream_output_adapter@D@__crt_stdio_output@@@__crt_stdio_output@@IBE_NXZ 1002a241 f i libucrt:output.obj
 0001:00029244       ?should_skip_type_state_output@?$standard_base@DV?$string_output_adapter@D@__crt_stdio_output@@@__crt_stdio_output@@IBE_NXZ 1002a244 f i libucrt:output.obj
 0001:00029247       ?should_skip_type_state_output@?$standard_base@_WV?$stream_output_adapter@_W@__crt_stdio_output@@@__crt_stdio_output@@IBE_NXZ 1002a247 f i libucrt:output.obj
 0001:0002924a       ?should_skip_type_state_output@?$standard_base@_WV?$string_output_adapter@_W@__crt_stdio_output@@@__crt_stdio_output@@IBE_NXZ 1002a24a f i libucrt:output.obj
 0001:0002924d       ?state_case_dot@?$output_processor@DV?$stream_output_adapter@D@__crt_stdio_output@@V?$format_validation_base@DV?$stream_output_adapter@D@__crt_stdio_output@@@2@@__crt_stdio_output@@AAE_NXZ 1002a24d f i libucrt:output.obj
 0001:00029254       ?state_case_dot@?$output_processor@DV?$stream_output_adapter@D@__crt_stdio_output@@V?$positional_parameter_base@DV?$stream_output_adapter@D@__crt_stdio_output@@@2@@__crt_stdio_output@@AAE_NXZ 1002a254 f i libucrt:output.obj
 0001:0002925b       ?state_case_dot@?$output_processor@DV?$stream_output_adapter@D@__crt_stdio_output@@V?$standard_base@DV?$stream_output_adapter@D@__crt_stdio_output@@@2@@__crt_stdio_output@@AAE_NXZ 1002a25b f i libucrt:output.obj
 0001:00029262       ?state_case_dot@?$output_processor@DV?$string_output_adapter@D@__crt_stdio_output@@V?$format_validation_base@DV?$string_output_adapter@D@__crt_stdio_output@@@2@@__crt_stdio_output@@AAE_NXZ 1002a262 f i libucrt:output.obj
 0001:00029269       ?state_case_dot@?$output_processor@DV?$string_output_adapter@D@__crt_stdio_output@@V?$positional_parameter_base@DV?$string_output_adapter@D@__crt_stdio_output@@@2@@__crt_stdio_output@@AAE_NXZ 1002a269 f i libucrt:output.obj
 0001:00029270       ?state_case_dot@?$output_processor@DV?$string_output_adapter@D@__crt_stdio_output@@V?$standard_base@DV?$string_output_adapter@D@__crt_stdio_output@@@2@@__crt_stdio_output@@AAE_NXZ 1002a270 f i libucrt:output.obj
 0001:00029277       ?state_case_dot@?$output_processor@_WV?$stream_output_adapter@_W@__crt_stdio_output@@V?$format_validation_base@_WV?$stream_output_adapter@_W@__crt_stdio_output@@@2@@__crt_stdio_output@@AAE_NXZ 1002a277 f i libucrt:output.obj
 0001:0002927e       ?state_case_dot@?$output_processor@_WV?$stream_output_adapter@_W@__crt_stdio_output@@V?$positional_parameter_base@_WV?$stream_output_adapter@_W@__crt_stdio_output@@@2@@__crt_stdio_output@@AAE_NXZ 1002a27e f i libucrt:output.obj
 0001:00029285       ?state_case_dot@?$output_processor@_WV?$stream_output_adapter@_W@__crt_stdio_output@@V?$standard_base@_WV?$stream_output_adapter@_W@__crt_stdio_output@@@2@@__crt_stdio_output@@AAE_NXZ 1002a285 f i libucrt:output.obj
 0001:0002928c       ?state_case_dot@?$output_processor@_WV?$string_output_adapter@_W@__crt_stdio_output@@V?$format_validation_base@_WV?$string_output_adapter@_W@__crt_stdio_output@@@2@@__crt_stdio_output@@AAE_NXZ 1002a28c f i libucrt:output.obj
 0001:00029293       ?state_case_dot@?$output_processor@_WV?$string_output_adapter@_W@__crt_stdio_output@@V?$positional_parameter_base@_WV?$string_output_adapter@_W@__crt_stdio_output@@@2@@__crt_stdio_output@@AAE_NXZ 1002a293 f i libucrt:output.obj
 0001:0002929a       ?state_case_dot@?$output_processor@_WV?$string_output_adapter@_W@__crt_stdio_output@@V?$standard_base@_WV?$string_output_adapter@_W@__crt_stdio_output@@@2@@__crt_stdio_output@@AAE_NXZ 1002a29a f i libucrt:output.obj
 0001:000292a1       ?state_case_flag@?$output_processor@DV?$stream_output_adapter@D@__crt_stdio_output@@V?$format_validation_base@DV?$stream_output_adapter@D@__crt_stdio_output@@@2@@__crt_stdio_output@@AAE_NXZ 1002a2a1 f i libucrt:output.obj
 0001:000292ed       ?state_case_flag@?$output_processor@DV?$stream_output_adapter@D@__crt_stdio_output@@V?$positional_parameter_base@DV?$stream_output_adapter@D@__crt_stdio_output@@@2@@__crt_stdio_output@@AAE_NXZ 1002a2ed f i libucrt:output.obj
 0001:00029339       ?state_case_flag@?$output_processor@DV?$stream_output_adapter@D@__crt_stdio_output@@V?$standard_base@DV?$stream_output_adapter@D@__crt_stdio_output@@@2@@__crt_stdio_output@@AAE_NXZ 1002a339 f i libucrt:output.obj
 0001:00029385       ?state_case_flag@?$output_processor@DV?$string_output_adapter@D@__crt_stdio_output@@V?$format_validation_base@DV?$string_output_adapter@D@__crt_stdio_output@@@2@@__crt_stdio_output@@AAE_NXZ 1002a385 f i libucrt:output.obj
 0001:000293d1       ?state_case_flag@?$output_processor@DV?$string_output_adapter@D@__crt_stdio_output@@V?$positional_parameter_base@DV?$string_output_adapter@D@__crt_stdio_output@@@2@@__crt_stdio_output@@AAE_NXZ 1002a3d1 f i libucrt:output.obj
 0001:0002941d       ?state_case_flag@?$output_processor@DV?$string_output_adapter@D@__crt_stdio_output@@V?$standard_base@DV?$string_output_adapter@D@__crt_stdio_output@@@2@@__crt_stdio_output@@AAE_NXZ 1002a41d f i libucrt:output.obj
 0001:00029469       ?state_case_flag@?$output_processor@_WV?$stream_output_adapter@_W@__crt_stdio_output@@V?$format_validation_base@_WV?$stream_output_adapter@_W@__crt_stdio_output@@@2@@__crt_stdio_output@@AAE_NXZ 1002a469 f i libucrt:output.obj
 0001:000294b5       ?state_case_flag@?$output_processor@_WV?$stream_output_adapter@_W@__crt_stdio_output@@V?$positional_parameter_base@_WV?$stream_output_adapter@_W@__crt_stdio_output@@@2@@__crt_stdio_output@@AAE_NXZ 1002a4b5 f i libucrt:output.obj
 0001:00029501       ?state_case_flag@?$output_processor@_WV?$stream_output_adapter@_W@__crt_stdio_output@@V?$standard_base@_WV?$stream_output_adapter@_W@__crt_stdio_output@@@2@@__crt_stdio_output@@AAE_NXZ 1002a501 f i libucrt:output.obj
 0001:0002954d       ?state_case_flag@?$output_processor@_WV?$string_output_adapter@_W@__crt_stdio_output@@V?$format_validation_base@_WV?$string_output_adapter@_W@__crt_stdio_output@@@2@@__crt_stdio_output@@AAE_NXZ 1002a54d f i libucrt:output.obj
 0001:00029599       ?state_case_flag@?$output_processor@_WV?$string_output_adapter@_W@__crt_stdio_output@@V?$positional_parameter_base@_WV?$string_output_adapter@_W@__crt_stdio_output@@@2@@__crt_stdio_output@@AAE_NXZ 1002a599 f i libucrt:output.obj
 0001:000295e5       ?state_case_flag@?$output_processor@_WV?$string_output_adapter@_W@__crt_stdio_output@@V?$standard_base@_WV?$string_output_adapter@_W@__crt_stdio_output@@@2@@__crt_stdio_output@@AAE_NXZ 1002a5e5 f i libucrt:output.obj
 0001:00029631       ?state_case_normal@?$output_processor@DV?$stream_output_adapter@D@__crt_stdio_output@@V?$format_validation_base@DV?$stream_output_adapter@D@__crt_stdio_output@@@2@@__crt_stdio_output@@AAE_NXZ 1002a631 f i libucrt:output.obj
 0001:00029657       ?state_case_normal@?$output_processor@DV?$stream_output_adapter@D@__crt_stdio_output@@V?$positional_parameter_base@DV?$stream_output_adapter@D@__crt_stdio_output@@@2@@__crt_stdio_output@@AAE_NXZ 1002a657 f i libucrt:output.obj
 0001:00029694       ?state_case_normal@?$output_processor@DV?$stream_output_adapter@D@__crt_stdio_output@@V?$standard_base@DV?$stream_output_adapter@D@__crt_stdio_output@@@2@@__crt_stdio_output@@AAE_NXZ 1002a694 f i libucrt:output.obj
 0001:000296ba       ?state_case_normal@?$output_processor@DV?$string_output_adapter@D@__crt_stdio_output@@V?$format_validation_base@DV?$string_output_adapter@D@__crt_stdio_output@@@2@@__crt_stdio_output@@AAE_NXZ 1002a6ba f i libucrt:output.obj
 0001:000296e0       ?state_case_normal@?$output_processor@DV?$string_output_adapter@D@__crt_stdio_output@@V?$positional_parameter_base@DV?$string_output_adapter@D@__crt_stdio_output@@@2@@__crt_stdio_output@@AAE_NXZ 1002a6e0 f i libucrt:output.obj
 0001:0002971d       ?state_case_normal@?$output_processor@DV?$string_output_adapter@D@__crt_stdio_output@@V?$standard_base@DV?$string_output_adapter@D@__crt_stdio_output@@@2@@__crt_stdio_output@@AAE_NXZ 1002a71d f i libucrt:output.obj
 0001:00029743       ?state_case_normal@?$output_processor@_WV?$stream_output_adapter@_W@__crt_stdio_output@@V?$format_validation_base@_WV?$stream_output_adapter@_W@__crt_stdio_output@@@2@@__crt_stdio_output@@AAE_NXZ 1002a743 f i libucrt:output.obj
 0001:00029769       ?state_case_normal@?$output_processor@_WV?$stream_output_adapter@_W@__crt_stdio_output@@V?$positional_parameter_base@_WV?$stream_output_adapter@_W@__crt_stdio_output@@@2@@__crt_stdio_output@@AAE_NXZ 1002a769 f i libucrt:output.obj
 0001:000297a6       ?state_case_normal@?$output_processor@_WV?$stream_output_adapter@_W@__crt_stdio_output@@V?$standard_base@_WV?$stream_output_adapter@_W@__crt_stdio_output@@@2@@__crt_stdio_output@@AAE_NXZ 1002a7a6 f i libucrt:output.obj
 0001:000297cc       ?state_case_normal@?$output_processor@_WV?$string_output_adapter@_W@__crt_stdio_output@@V?$format_validation_base@_WV?$string_output_adapter@_W@__crt_stdio_output@@@2@@__crt_stdio_output@@AAE_NXZ 1002a7cc f i libucrt:output.obj
 0001:000297f2       ?state_case_normal@?$output_processor@_WV?$string_output_adapter@_W@__crt_stdio_output@@V?$positional_parameter_base@_WV?$string_output_adapter@_W@__crt_stdio_output@@@2@@__crt_stdio_output@@AAE_NXZ 1002a7f2 f i libucrt:output.obj
 0001:0002982f       ?state_case_normal@?$output_processor@_WV?$string_output_adapter@_W@__crt_stdio_output@@V?$standard_base@_WV?$string_output_adapter@_W@__crt_stdio_output@@@2@@__crt_stdio_output@@AAE_NXZ 1002a82f f i libucrt:output.obj
 0001:00029855       ?state_case_normal_common@?$output_processor@DV?$stream_output_adapter@D@__crt_stdio_output@@V?$format_validation_base@DV?$stream_output_adapter@D@__crt_stdio_output@@@2@@__crt_stdio_output@@AAE_NXZ 1002a855 f i libucrt:output.obj
 0001:00029889       ?state_case_normal_common@?$output_processor@DV?$stream_output_adapter@D@__crt_stdio_output@@V?$positional_parameter_base@DV?$stream_output_adapter@D@__crt_stdio_output@@@2@@__crt_stdio_output@@AAE_NXZ 1002a889 f i libucrt:output.obj
 0001:000298bd       ?state_case_normal_common@?$output_processor@DV?$stream_output_adapter@D@__crt_stdio_output@@V?$standard_base@DV?$stream_output_adapter@D@__crt_stdio_output@@@2@@__crt_stdio_output@@AAE_NXZ 1002a8bd f i libucrt:output.obj
 0001:000298f1       ?state_case_normal_common@?$output_processor@DV?$string_output_adapter@D@__crt_stdio_output@@V?$format_validation_base@DV?$string_output_adapter@D@__crt_stdio_output@@@2@@__crt_stdio_output@@AAE_NXZ 1002a8f1 f i libucrt:output.obj
 0001:00029925       ?state_case_normal_common@?$output_processor@DV?$string_output_adapter@D@__crt_stdio_output@@V?$positional_parameter_base@DV?$string_output_adapter@D@__crt_stdio_output@@@2@@__crt_stdio_output@@AAE_NXZ 1002a925 f i libucrt:output.obj
 0001:00029959       ?state_case_normal_common@?$output_processor@DV?$string_output_adapter@D@__crt_stdio_output@@V?$standard_base@DV?$string_output_adapter@D@__crt_stdio_output@@@2@@__crt_stdio_output@@AAE_NXZ 1002a959 f i libucrt:output.obj
 0001:0002998d       ?state_case_normal_common@?$output_processor@_WV?$stream_output_adapter@_W@__crt_stdio_output@@V?$format_validation_base@_WV?$stream_output_adapter@_W@__crt_stdio_output@@@2@@__crt_stdio_output@@AAE_NXZ 1002a98d f i libucrt:output.obj
 0001:000299ae       ?state_case_normal_common@?$output_processor@_WV?$stream_output_adapter@_W@__crt_stdio_output@@V?$positional_parameter_base@_WV?$stream_output_adapter@_W@__crt_stdio_output@@@2@@__crt_stdio_output@@AAE_NXZ 1002a9ae f i libucrt:output.obj
 0001:000299cf       ?state_case_normal_common@?$output_processor@_WV?$stream_output_adapter@_W@__crt_stdio_output@@V?$standard_base@_WV?$stream_output_adapter@_W@__crt_stdio_output@@@2@@__crt_stdio_output@@AAE_NXZ 1002a9cf f i libucrt:output.obj
 0001:000299f0       ?state_case_normal_common@?$output_processor@_WV?$string_output_adapter@_W@__crt_stdio_output@@V?$format_validation_base@_WV?$string_output_adapter@_W@__crt_stdio_output@@@2@@__crt_stdio_output@@AAE_NXZ 1002a9f0 f i libucrt:output.obj
 0001:00029a11       ?state_case_normal_common@?$output_processor@_WV?$string_output_adapter@_W@__crt_stdio_output@@V?$positional_parameter_base@_WV?$string_output_adapter@_W@__crt_stdio_output@@@2@@__crt_stdio_output@@AAE_NXZ 1002aa11 f i libucrt:output.obj
 0001:00029a32       ?state_case_normal_common@?$output_processor@_WV?$string_output_adapter@_W@__crt_stdio_output@@V?$standard_base@_WV?$string_output_adapter@_W@__crt_stdio_output@@@2@@__crt_stdio_output@@AAE_NXZ 1002aa32 f i libucrt:output.obj
 0001:00029a53       ?state_case_normal_tchar@?$output_processor@DV?$stream_output_adapter@D@__crt_stdio_output@@V?$format_validation_base@DV?$stream_output_adapter@D@__crt_stdio_output@@@2@@__crt_stdio_output@@AAE_ND@Z 1002aa53 f i libucrt:output.obj
 0001:00029acc       ?state_case_normal_tchar@?$output_processor@DV?$stream_output_adapter@D@__crt_stdio_output@@V?$positional_parameter_base@DV?$stream_output_adapter@D@__crt_stdio_output@@@2@@__crt_stdio_output@@AAE_ND@Z 1002aacc f i libucrt:output.obj
 0001:00029b45       ?state_case_normal_tchar@?$output_processor@DV?$stream_output_adapter@D@__crt_stdio_output@@V?$standard_base@DV?$stream_output_adapter@D@__crt_stdio_output@@@2@@__crt_stdio_output@@AAE_ND@Z 1002ab45 f i libucrt:output.obj
 0001:00029bbe       ?state_case_normal_tchar@?$output_processor@DV?$string_output_adapter@D@__crt_stdio_output@@V?$format_validation_base@DV?$string_output_adapter@D@__crt_stdio_output@@@2@@__crt_stdio_output@@AAE_ND@Z 1002abbe f i libucrt:output.obj
 0001:00029c37       ?state_case_normal_tchar@?$output_processor@DV?$string_output_adapter@D@__crt_stdio_output@@V?$positional_parameter_base@DV?$string_output_adapter@D@__crt_stdio_output@@@2@@__crt_stdio_output@@AAE_ND@Z 1002ac37 f i libucrt:output.obj
 0001:00029cb0       ?state_case_normal_tchar@?$output_processor@DV?$string_output_adapter@D@__crt_stdio_output@@V?$standard_base@DV?$string_output_adapter@D@__crt_stdio_output@@@2@@__crt_stdio_output@@AAE_ND@Z 1002acb0 f i libucrt:output.obj
 0001:00029d29       ?state_case_normal_tchar@?$output_processor@_WV?$stream_output_adapter@_W@__crt_stdio_output@@V?$format_validation_base@_WV?$stream_output_adapter@_W@__crt_stdio_output@@@2@@__crt_stdio_output@@AAE_N_W@Z 1002ad29 f i libucrt:output.obj
 0001:00029d34       ?state_case_normal_tchar@?$output_processor@_WV?$stream_output_adapter@_W@__crt_stdio_output@@V?$positional_parameter_base@_WV?$stream_output_adapter@_W@__crt_stdio_output@@@2@@__crt_stdio_output@@AAE_N_W@Z 1002ad34 f i libucrt:output.obj
 0001:00029d3f       ?state_case_normal_tchar@?$output_processor@_WV?$stream_output_adapter@_W@__crt_stdio_output@@V?$standard_base@_WV?$stream_output_adapter@_W@__crt_stdio_output@@@2@@__crt_stdio_output@@AAE_N_W@Z 1002ad3f f i libucrt:output.obj
 0001:00029d4a       ?state_case_normal_tchar@?$output_processor@_WV?$string_output_adapter@_W@__crt_stdio_output@@V?$format_validation_base@_WV?$string_output_adapter@_W@__crt_stdio_output@@@2@@__crt_stdio_output@@AAE_N_W@Z 1002ad4a f i libucrt:output.obj
 0001:00029d55       ?state_case_normal_tchar@?$output_processor@_WV?$string_output_adapter@_W@__crt_stdio_output@@V?$positional_parameter_base@_WV?$string_output_adapter@_W@__crt_stdio_output@@@2@@__crt_stdio_output@@AAE_N_W@Z 1002ad55 f i libucrt:output.obj
 0001:00029d60       ?state_case_normal_tchar@?$output_processor@_WV?$string_output_adapter@_W@__crt_stdio_output@@V?$standard_base@_WV?$string_output_adapter@_W@__crt_stdio_output@@@2@@__crt_stdio_output@@AAE_N_W@Z 1002ad60 f i libucrt:output.obj
 0001:00029d6b       ?state_case_percent@?$output_processor@DV?$stream_output_adapter@D@__crt_stdio_output@@V?$format_validation_base@DV?$stream_output_adapter@D@__crt_stdio_output@@@2@@__crt_stdio_output@@AAE_NXZ 1002ad6b f i libucrt:output.obj
 0001:00029d89       ?state_case_percent@?$output_processor@DV?$stream_output_adapter@D@__crt_stdio_output@@V?$positional_parameter_base@DV?$stream_output_adapter@D@__crt_stdio_output@@@2@@__crt_stdio_output@@AAE_NXZ 1002ad89 f i libucrt:output.obj
 0001:00029da7       ?state_case_percent@?$output_processor@DV?$stream_output_adapter@D@__crt_stdio_output@@V?$standard_base@DV?$stream_output_adapter@D@__crt_stdio_output@@@2@@__crt_stdio_output@@AAE_NXZ 1002ada7 f i libucrt:output.obj
 0001:00029dc5       ?state_case_percent@?$output_processor@DV?$string_output_adapter@D@__crt_stdio_output@@V?$format_validation_base@DV?$string_output_adapter@D@__crt_stdio_output@@@2@@__crt_stdio_output@@AAE_NXZ 1002adc5 f i libucrt:output.obj
 0001:00029de3       ?state_case_percent@?$output_processor@DV?$string_output_adapter@D@__crt_stdio_output@@V?$positional_parameter_base@DV?$string_output_adapter@D@__crt_stdio_output@@@2@@__crt_stdio_output@@AAE_NXZ 1002ade3 f i libucrt:output.obj
 0001:00029e01       ?state_case_percent@?$output_processor@DV?$string_output_adapter@D@__crt_stdio_output@@V?$standard_base@DV?$string_output_adapter@D@__crt_stdio_output@@@2@@__crt_stdio_output@@AAE_NXZ 1002ae01 f i libucrt:output.obj
 0001:00029e1f       ?state_case_percent@?$output_processor@_WV?$stream_output_adapter@_W@__crt_stdio_output@@V?$format_validation_base@_WV?$stream_output_adapter@_W@__crt_stdio_output@@@2@@__crt_stdio_output@@AAE_NXZ 1002ae1f f i libucrt:output.obj
 0001:00029e3d       ?state_case_percent@?$output_processor@_WV?$stream_output_adapter@_W@__crt_stdio_output@@V?$positional_parameter_base@_WV?$stream_output_adapter@_W@__crt_stdio_output@@@2@@__crt_stdio_output@@AAE_NXZ 1002ae3d f i libucrt:output.obj
 0001:00029e5b       ?state_case_percent@?$output_processor@_WV?$stream_output_adapter@_W@__crt_stdio_output@@V?$standard_base@_WV?$stream_output_adapter@_W@__crt_stdio_output@@@2@@__crt_stdio_output@@AAE_NXZ 1002ae5b f i libucrt:output.obj
 0001:00029e79       ?state_case_percent@?$output_processor@_WV?$string_output_adapter@_W@__crt_stdio_output@@V?$format_validation_base@_WV?$string_output_adapter@_W@__crt_stdio_output@@@2@@__crt_stdio_output@@AAE_NXZ 1002ae79 f i libucrt:output.obj
 0001:00029e97       ?state_case_percent@?$output_processor@_WV?$string_output_adapter@_W@__crt_stdio_output@@V?$positional_parameter_base@_WV?$string_output_adapter@_W@__crt_stdio_output@@@2@@__crt_stdio_output@@AAE_NXZ 1002ae97 f i libucrt:output.obj
 0001:00029eb5       ?state_case_percent@?$output_processor@_WV?$string_output_adapter@_W@__crt_stdio_output@@V?$standard_base@_WV?$string_output_adapter@_W@__crt_stdio_output@@@2@@__crt_stdio_output@@AAE_NXZ 1002aeb5 f i libucrt:output.obj
 0001:00029ed3       ?state_case_precision@?$output_processor@DV?$stream_output_adapter@D@__crt_stdio_output@@V?$format_validation_base@DV?$stream_output_adapter@D@__crt_stdio_output@@@2@@__crt_stdio_output@@AAE_NXZ 1002aed3 f i libucrt:output.obj
 0001:00029f05       ?state_case_precision@?$output_processor@DV?$stream_output_adapter@D@__crt_stdio_output@@V?$positional_parameter_base@DV?$stream_output_adapter@D@__crt_stdio_output@@@2@@__crt_stdio_output@@AAE_NXZ 1002af05 f i libucrt:output.obj
 0001:00029f4d       ?state_case_precision@?$output_processor@DV?$stream_output_adapter@D@__crt_stdio_output@@V?$standard_base@DV?$stream_output_adapter@D@__crt_stdio_output@@@2@@__crt_stdio_output@@AAE_NXZ 1002af4d f i libucrt:output.obj
 0001:00029f7f       ?state_case_precision@?$output_processor@DV?$string_output_adapter@D@__crt_stdio_output@@V?$format_validation_base@DV?$string_output_adapter@D@__crt_stdio_output@@@2@@__crt_stdio_output@@AAE_NXZ 1002af7f f i libucrt:output.obj
 0001:00029fb1       ?state_case_precision@?$output_processor@DV?$string_output_adapter@D@__crt_stdio_output@@V?$positional_parameter_base@DV?$string_output_adapter@D@__crt_stdio_output@@@2@@__crt_stdio_output@@AAE_NXZ 1002afb1 f i libucrt:output.obj
 0001:00029ff9       ?state_case_precision@?$output_processor@DV?$string_output_adapter@D@__crt_stdio_output@@V?$standard_base@DV?$string_output_adapter@D@__crt_stdio_output@@@2@@__crt_stdio_output@@AAE_NXZ 1002aff9 f i libucrt:output.obj
 0001:0002a02b       ?state_case_precision@?$output_processor@_WV?$stream_output_adapter@_W@__crt_stdio_output@@V?$format_validation_base@_WV?$stream_output_adapter@_W@__crt_stdio_output@@@2@@__crt_stdio_output@@AAE_NXZ 1002b02b f i libucrt:output.obj
 0001:0002a05e       ?state_case_precision@?$output_processor@_WV?$stream_output_adapter@_W@__crt_stdio_output@@V?$positional_parameter_base@_WV?$stream_output_adapter@_W@__crt_stdio_output@@@2@@__crt_stdio_output@@AAE_NXZ 1002b05e f i libucrt:output.obj
 0001:0002a0a7       ?state_case_precision@?$output_processor@_WV?$stream_output_adapter@_W@__crt_stdio_output@@V?$standard_base@_WV?$stream_output_adapter@_W@__crt_stdio_output@@@2@@__crt_stdio_output@@AAE_NXZ 1002b0a7 f i libucrt:output.obj
 0001:0002a0da       ?state_case_precision@?$output_processor@_WV?$string_output_adapter@_W@__crt_stdio_output@@V?$format_validation_base@_WV?$string_output_adapter@_W@__crt_stdio_output@@@2@@__crt_stdio_output@@AAE_NXZ 1002b0da f i libucrt:output.obj
 0001:0002a10d       ?state_case_precision@?$output_processor@_WV?$string_output_adapter@_W@__crt_stdio_output@@V?$positional_parameter_base@_WV?$string_output_adapter@_W@__crt_stdio_output@@@2@@__crt_stdio_output@@AAE_NXZ 1002b10d f i libucrt:output.obj
 0001:0002a156       ?state_case_precision@?$output_processor@_WV?$string_output_adapter@_W@__crt_stdio_output@@V?$standard_base@_WV?$string_output_adapter@_W@__crt_stdio_output@@@2@@__crt_stdio_output@@AAE_NXZ 1002b156 f i libucrt:output.obj
 0001:0002a189       ?state_case_size@?$output_processor@DV?$stream_output_adapter@D@__crt_stdio_output@@V?$format_validation_base@DV?$stream_output_adapter@D@__crt_stdio_output@@@2@@__crt_stdio_output@@AAE_NXZ 1002b189 f i libucrt:output.obj
 0001:0002a34c       ?state_case_size@?$output_processor@DV?$stream_output_adapter@D@__crt_stdio_output@@V?$positional_parameter_base@DV?$stream_output_adapter@D@__crt_stdio_output@@@2@@__crt_stdio_output@@AAE_NXZ 1002b34c f i libucrt:output.obj
 0001:0002a50f       ?state_case_size@?$output_processor@DV?$stream_output_adapter@D@__crt_stdio_output@@V?$standard_base@DV?$stream_output_adapter@D@__crt_stdio_output@@@2@@__crt_stdio_output@@AAE_NXZ 1002b50f f i libucrt:output.obj
 0001:0002a6d2       ?state_case_size@?$output_processor@DV?$string_output_adapter@D@__crt_stdio_output@@V?$format_validation_base@DV?$string_output_adapter@D@__crt_stdio_output@@@2@@__crt_stdio_output@@AAE_NXZ 1002b6d2 f i libucrt:output.obj
 0001:0002a895       ?state_case_size@?$output_processor@DV?$string_output_adapter@D@__crt_stdio_output@@V?$positional_parameter_base@DV?$string_output_adapter@D@__crt_stdio_output@@@2@@__crt_stdio_output@@AAE_NXZ 1002b895 f i libucrt:output.obj
 0001:0002aa58       ?state_case_size@?$output_processor@DV?$string_output_adapter@D@__crt_stdio_output@@V?$standard_base@DV?$string_output_adapter@D@__crt_stdio_output@@@2@@__crt_stdio_output@@AAE_NXZ 1002ba58 f i libucrt:output.obj
 0001:0002ac1b       ?state_case_size@?$output_processor@_WV?$stream_output_adapter@_W@__crt_stdio_output@@V?$format_validation_base@_WV?$stream_output_adapter@_W@__crt_stdio_output@@@2@@__crt_stdio_output@@AAE_NXZ 1002bc1b f i libucrt:output.obj
 0001:0002adf6       ?state_case_size@?$output_processor@_WV?$stream_output_adapter@_W@__crt_stdio_output@@V?$positional_parameter_base@_WV?$stream_output_adapter@_W@__crt_stdio_output@@@2@@__crt_stdio_output@@AAE_NXZ 1002bdf6 f i libucrt:output.obj
 0001:0002afd1       ?state_case_size@?$output_processor@_WV?$stream_output_adapter@_W@__crt_stdio_output@@V?$standard_base@_WV?$stream_output_adapter@_W@__crt_stdio_output@@@2@@__crt_stdio_output@@AAE_NXZ 1002bfd1 f i libucrt:output.obj
 0001:0002b1ac       ?state_case_size@?$output_processor@_WV?$string_output_adapter@_W@__crt_stdio_output@@V?$format_validation_base@_WV?$string_output_adapter@_W@__crt_stdio_output@@@2@@__crt_stdio_output@@AAE_NXZ 1002c1ac f i libucrt:output.obj
 0001:0002b387       ?state_case_size@?$output_processor@_WV?$string_output_adapter@_W@__crt_stdio_output@@V?$positional_parameter_base@_WV?$string_output_adapter@_W@__crt_stdio_output@@@2@@__crt_stdio_output@@AAE_NXZ 1002c387 f i libucrt:output.obj
 0001:0002b562       ?state_case_size@?$output_processor@_WV?$string_output_adapter@_W@__crt_stdio_output@@V?$standard_base@_WV?$string_output_adapter@_W@__crt_stdio_output@@@2@@__crt_stdio_output@@AAE_NXZ 1002c562 f i libucrt:output.obj
 0001:0002b73d       ?state_case_type@?$output_processor@DV?$stream_output_adapter@D@__crt_stdio_output@@V?$format_validation_base@DV?$stream_output_adapter@D@__crt_stdio_output@@@2@@__crt_stdio_output@@AAE_NXZ 1002c73d f i libucrt:output.obj
 0001:0002b9f7       ?state_case_type@?$output_processor@DV?$stream_output_adapter@D@__crt_stdio_output@@V?$positional_parameter_base@DV?$stream_output_adapter@D@__crt_stdio_output@@@2@@__crt_stdio_output@@AAE_NXZ 1002c9f7 f i libucrt:output.obj
 0001:0002bcbf       ?state_case_type@?$output_processor@DV?$stream_output_adapter@D@__crt_stdio_output@@V?$standard_base@DV?$stream_output_adapter@D@__crt_stdio_output@@@2@@__crt_stdio_output@@AAE_NXZ 1002ccbf f i libucrt:output.obj
 0001:0002bf79       ?state_case_type@?$output_processor@DV?$string_output_adapter@D@__crt_stdio_output@@V?$format_validation_base@DV?$string_output_adapter@D@__crt_stdio_output@@@2@@__crt_stdio_output@@AAE_NXZ 1002cf79 f i libucrt:output.obj
 0001:0002c233       ?state_case_type@?$output_processor@DV?$string_output_adapter@D@__crt_stdio_output@@V?$positional_parameter_base@DV?$string_output_adapter@D@__crt_stdio_output@@@2@@__crt_stdio_output@@AAE_NXZ 1002d233 f i libucrt:output.obj
 0001:0002c4fb       ?state_case_type@?$output_processor@DV?$string_output_adapter@D@__crt_stdio_output@@V?$standard_base@DV?$string_output_adapter@D@__crt_stdio_output@@@2@@__crt_stdio_output@@AAE_NXZ 1002d4fb f i libucrt:output.obj
 0001:0002c7b5       ?state_case_type@?$output_processor@_WV?$stream_output_adapter@_W@__crt_stdio_output@@V?$format_validation_base@_WV?$stream_output_adapter@_W@__crt_stdio_output@@@2@@__crt_stdio_output@@AAE_NXZ 1002d7b5 f i libucrt:output.obj
 0001:0002caa9       ?state_case_type@?$output_processor@_WV?$stream_output_adapter@_W@__crt_stdio_output@@V?$positional_parameter_base@_WV?$stream_output_adapter@_W@__crt_stdio_output@@@2@@__crt_stdio_output@@AAE_NXZ 1002daa9 f i libucrt:output.obj
 0001:0002cdb0       ?state_case_type@?$output_processor@_WV?$stream_output_adapter@_W@__crt_stdio_output@@V?$standard_base@_WV?$stream_output_adapter@_W@__crt_stdio_output@@@2@@__crt_stdio_output@@AAE_NXZ 1002ddb0 f i libucrt:output.obj
 0001:0002d0a4       ?state_case_type@?$output_processor@_WV?$string_output_adapter@_W@__crt_stdio_output@@V?$format_validation_base@_WV?$string_output_adapter@_W@__crt_stdio_output@@@2@@__crt_stdio_output@@AAE_NXZ 1002e0a4 f i libucrt:output.obj
 0001:0002d398       ?state_case_type@?$output_processor@_WV?$string_output_adapter@_W@__crt_stdio_output@@V?$positional_parameter_base@_WV?$string_output_adapter@_W@__crt_stdio_output@@@2@@__crt_stdio_output@@AAE_NXZ 1002e398 f i libucrt:output.obj
 0001:0002d69f       ?state_case_type@?$output_processor@_WV?$string_output_adapter@_W@__crt_stdio_output@@V?$standard_base@_WV?$string_output_adapter@_W@__crt_stdio_output@@@2@@__crt_stdio_output@@AAE_NXZ 1002e69f f i libucrt:output.obj
 0001:0002d993       ?state_case_width@?$output_processor@DV?$stream_output_adapter@D@__crt_stdio_output@@V?$format_validation_base@DV?$stream_output_adapter@D@__crt_stdio_output@@@2@@__crt_stdio_output@@AAE_NXZ 1002e993 f i libucrt:output.obj
 0001:0002d9c8       ?state_case_width@?$output_processor@DV?$stream_output_adapter@D@__crt_stdio_output@@V?$positional_parameter_base@DV?$stream_output_adapter@D@__crt_stdio_output@@@2@@__crt_stdio_output@@AAE_NXZ 1002e9c8 f i libucrt:output.obj
 0001:0002da18       ?state_case_width@?$output_processor@DV?$stream_output_adapter@D@__crt_stdio_output@@V?$standard_base@DV?$stream_output_adapter@D@__crt_stdio_output@@@2@@__crt_stdio_output@@AAE_NXZ 1002ea18 f i libucrt:output.obj
 0001:0002da4d       ?state_case_width@?$output_processor@DV?$string_output_adapter@D@__crt_stdio_output@@V?$format_validation_base@DV?$string_output_adapter@D@__crt_stdio_output@@@2@@__crt_stdio_output@@AAE_NXZ 1002ea4d f i libucrt:output.obj
 0001:0002da82       ?state_case_width@?$output_processor@DV?$string_output_adapter@D@__crt_stdio_output@@V?$positional_parameter_base@DV?$string_output_adapter@D@__crt_stdio_output@@@2@@__crt_stdio_output@@AAE_NXZ 1002ea82 f i libucrt:output.obj
 0001:0002dad2       ?state_case_width@?$output_processor@DV?$string_output_adapter@D@__crt_stdio_output@@V?$standard_base@DV?$string_output_adapter@D@__crt_stdio_output@@@2@@__crt_stdio_output@@AAE_NXZ 1002ead2 f i libucrt:output.obj
 0001:0002db07       ?state_case_width@?$output_processor@_WV?$stream_output_adapter@_W@__crt_stdio_output@@V?$format_validation_base@_WV?$stream_output_adapter@_W@__crt_stdio_output@@@2@@__crt_stdio_output@@AAE_NXZ 1002eb07 f i libucrt:output.obj
 0001:0002db3e       ?state_case_width@?$output_processor@_WV?$stream_output_adapter@_W@__crt_stdio_output@@V?$positional_parameter_base@_WV?$stream_output_adapter@_W@__crt_stdio_output@@@2@@__crt_stdio_output@@AAE_NXZ 1002eb3e f i libucrt:output.obj
 0001:0002db8f       ?state_case_width@?$output_processor@_WV?$stream_output_adapter@_W@__crt_stdio_output@@V?$standard_base@_WV?$stream_output_adapter@_W@__crt_stdio_output@@@2@@__crt_stdio_output@@AAE_NXZ 1002eb8f f i libucrt:output.obj
 0001:0002dbc6       ?state_case_width@?$output_processor@_WV?$string_output_adapter@_W@__crt_stdio_output@@V?$format_validation_base@_WV?$string_output_adapter@_W@__crt_stdio_output@@@2@@__crt_stdio_output@@AAE_NXZ 1002ebc6 f i libucrt:output.obj
 0001:0002dbfd       ?state_case_width@?$output_processor@_WV?$string_output_adapter@_W@__crt_stdio_output@@V?$positional_parameter_base@_WV?$string_output_adapter@_W@__crt_stdio_output@@@2@@__crt_stdio_output@@AAE_NXZ 1002ebfd f i libucrt:output.obj
 0001:0002dc4e       ?state_case_width@?$output_processor@_WV?$string_output_adapter@_W@__crt_stdio_output@@V?$standard_base@_WV?$string_output_adapter@_W@__crt_stdio_output@@@2@@__crt_stdio_output@@AAE_NXZ 1002ec4e f i libucrt:output.obj
 0001:0002dc85       ?state_count@?$format_validation_base@DV?$stream_output_adapter@D@__crt_stdio_output@@@__crt_stdio_output@@KAIXZ 1002ec85 f i libucrt:output.obj
 0001:0002dc89       ?state_count@?$format_validation_base@DV?$string_output_adapter@D@__crt_stdio_output@@@__crt_stdio_output@@KAIXZ 1002ec89 f i libucrt:output.obj
 0001:0002dc8d       ?state_count@?$format_validation_base@_WV?$stream_output_adapter@_W@__crt_stdio_output@@@__crt_stdio_output@@KAIXZ 1002ec8d f i libucrt:output.obj
 0001:0002dc91       ?state_count@?$format_validation_base@_WV?$string_output_adapter@_W@__crt_stdio_output@@@__crt_stdio_output@@KAIXZ 1002ec91 f i libucrt:output.obj
 0001:0002dc95       ?state_count@?$standard_base@DV?$stream_output_adapter@D@__crt_stdio_output@@@__crt_stdio_output@@KAIXZ 1002ec95 f i libucrt:output.obj
 0001:0002dc99       ?state_count@?$standard_base@DV?$string_output_adapter@D@__crt_stdio_output@@@__crt_stdio_output@@KAIXZ 1002ec99 f i libucrt:output.obj
 0001:0002dc9d       ?state_count@?$standard_base@_WV?$stream_output_adapter@_W@__crt_stdio_output@@@__crt_stdio_output@@KAIXZ 1002ec9d f i libucrt:output.obj
 0001:0002dca1       ?state_count@?$standard_base@_WV?$string_output_adapter@_W@__crt_stdio_output@@@__crt_stdio_output@@KAIXZ 1002eca1 f i libucrt:output.obj
 0001:0002dca5       ?state_transition_table@?$format_validation_base@DV?$stream_output_adapter@D@__crt_stdio_output@@@__crt_stdio_output@@KAPBEXZ 1002eca5 f i libucrt:output.obj
 0001:0002dcab       ?state_transition_table@?$format_validation_base@DV?$string_output_adapter@D@__crt_stdio_output@@@__crt_stdio_output@@KAPBEXZ 1002ecab f i libucrt:output.obj
 0001:0002dcb1       ?state_transition_table@?$format_validation_base@_WV?$stream_output_adapter@_W@__crt_stdio_output@@@__crt_stdio_output@@KAPBEXZ 1002ecb1 f i libucrt:output.obj
 0001:0002dcb7       ?state_transition_table@?$format_validation_base@_WV?$string_output_adapter@_W@__crt_stdio_output@@@__crt_stdio_output@@KAPBEXZ 1002ecb7 f i libucrt:output.obj
 0001:0002dcbd       ?state_transition_table@?$standard_base@DV?$stream_output_adapter@D@__crt_stdio_output@@@__crt_stdio_output@@KAPBEXZ 1002ecbd f i libucrt:output.obj
 0001:0002dcc3       ?state_transition_table@?$standard_base@DV?$string_output_adapter@D@__crt_stdio_output@@@__crt_stdio_output@@KAPBEXZ 1002ecc3 f i libucrt:output.obj
 0001:0002dcc9       ?state_transition_table@?$standard_base@_WV?$stream_output_adapter@_W@__crt_stdio_output@@@__crt_stdio_output@@KAPBEXZ 1002ecc9 f i libucrt:output.obj
 0001:0002dccf       ?state_transition_table@?$standard_base@_WV?$string_output_adapter@_W@__crt_stdio_output@@@__crt_stdio_output@@KAPBEXZ 1002eccf f i libucrt:output.obj
 0001:0002dcd5       ?to_integer_size@__crt_stdio_output@@YAIW4length_modifier@1@@Z 1002ecd5 f i libucrt:output.obj
 0001:0002dd48       ?type_case_X@?$output_processor@DV?$stream_output_adapter@D@__crt_stdio_output@@V?$format_validation_base@DV?$stream_output_adapter@D@__crt_stdio_output@@@2@@__crt_stdio_output@@AAE_NXZ 1002ed48 f i libucrt:output.obj
 0001:0002dd54       ?type_case_X@?$output_processor@DV?$stream_output_adapter@D@__crt_stdio_output@@V?$positional_parameter_base@DV?$stream_output_adapter@D@__crt_stdio_output@@@2@@__crt_stdio_output@@AAE_NXZ 1002ed54 f i libucrt:output.obj
 0001:0002dd60       ?type_case_X@?$output_processor@DV?$stream_output_adapter@D@__crt_stdio_output@@V?$standard_base@DV?$stream_output_adapter@D@__crt_stdio_output@@@2@@__crt_stdio_output@@AAE_NXZ 1002ed60 f i libucrt:output.obj
 0001:0002dd6c       ?type_case_X@?$output_processor@DV?$string_output_adapter@D@__crt_stdio_output@@V?$format_validation_base@DV?$string_output_adapter@D@__crt_stdio_output@@@2@@__crt_stdio_output@@AAE_NXZ 1002ed6c f i libucrt:output.obj
 0001:0002dd78       ?type_case_X@?$output_processor@DV?$string_output_adapter@D@__crt_stdio_output@@V?$positional_parameter_base@DV?$string_output_adapter@D@__crt_stdio_output@@@2@@__crt_stdio_output@@AAE_NXZ 1002ed78 f i libucrt:output.obj
 0001:0002dd84       ?type_case_X@?$output_processor@DV?$string_output_adapter@D@__crt_stdio_output@@V?$standard_base@DV?$string_output_adapter@D@__crt_stdio_output@@@2@@__crt_stdio_output@@AAE_NXZ 1002ed84 f i libucrt:output.obj
 0001:0002dd90       ?type_case_X@?$output_processor@_WV?$stream_output_adapter@_W@__crt_stdio_output@@V?$format_validation_base@_WV?$stream_output_adapter@_W@__crt_stdio_output@@@2@@__crt_stdio_output@@AAE_NXZ 1002ed90 f i libucrt:output.obj
 0001:0002dd9c       ?type_case_X@?$output_processor@_WV?$stream_output_adapter@_W@__crt_stdio_output@@V?$positional_parameter_base@_WV?$stream_output_adapter@_W@__crt_stdio_output@@@2@@__crt_stdio_output@@AAE_NXZ 1002ed9c f i libucrt:output.obj
 0001:0002dda8       ?type_case_X@?$output_processor@_WV?$stream_output_adapter@_W@__crt_stdio_output@@V?$standard_base@_WV?$stream_output_adapter@_W@__crt_stdio_output@@@2@@__crt_stdio_output@@AAE_NXZ 1002eda8 f i libucrt:output.obj
 0001:0002ddb4       ?type_case_X@?$output_processor@_WV?$string_output_adapter@_W@__crt_stdio_output@@V?$format_validation_base@_WV?$string_output_adapter@_W@__crt_stdio_output@@@2@@__crt_stdio_output@@AAE_NXZ 1002edb4 f i libucrt:output.obj
 0001:0002ddc0       ?type_case_X@?$output_processor@_WV?$string_output_adapter@_W@__crt_stdio_output@@V?$positional_parameter_base@_WV?$string_output_adapter@_W@__crt_stdio_output@@@2@@__crt_stdio_output@@AAE_NXZ 1002edc0 f i libucrt:output.obj
 0001:0002ddcc       ?type_case_X@?$output_processor@_WV?$string_output_adapter@_W@__crt_stdio_output@@V?$standard_base@_WV?$string_output_adapter@_W@__crt_stdio_output@@@2@@__crt_stdio_output@@AAE_NXZ 1002edcc f i libucrt:output.obj
 0001:0002ddd8       ?type_case_Z@?$output_processor@DV?$stream_output_adapter@D@__crt_stdio_output@@V?$format_validation_base@DV?$stream_output_adapter@D@__crt_stdio_output@@@2@@__crt_stdio_output@@AAE_NXZ 1002edd8 f i libucrt:output.obj
 0001:0002de53       ?type_case_Z@?$output_processor@DV?$stream_output_adapter@D@__crt_stdio_output@@V?$positional_parameter_base@DV?$stream_output_adapter@D@__crt_stdio_output@@@2@@__crt_stdio_output@@AAE_NXZ 1002ee53 f i libucrt:output.obj
 0001:0002def1       ?type_case_Z@?$output_processor@DV?$stream_output_adapter@D@__crt_stdio_output@@V?$standard_base@DV?$stream_output_adapter@D@__crt_stdio_output@@@2@@__crt_stdio_output@@AAE_NXZ 1002eef1 f i libucrt:output.obj
 0001:0002df6c       ?type_case_Z@?$output_processor@DV?$string_output_adapter@D@__crt_stdio_output@@V?$format_validation_base@DV?$string_output_adapter@D@__crt_stdio_output@@@2@@__crt_stdio_output@@AAE_NXZ 1002ef6c f i libucrt:output.obj
 0001:0002dfe7       ?type_case_Z@?$output_processor@DV?$string_output_adapter@D@__crt_stdio_output@@V?$positional_parameter_base@DV?$string_output_adapter@D@__crt_stdio_output@@@2@@__crt_stdio_output@@AAE_NXZ 1002efe7 f i libucrt:output.obj
 0001:0002e085       ?type_case_Z@?$output_processor@DV?$string_output_adapter@D@__crt_stdio_output@@V?$standard_base@DV?$string_output_adapter@D@__crt_stdio_output@@@2@@__crt_stdio_output@@AAE_NXZ 1002f085 f i libucrt:output.obj
 0001:0002e100       ?type_case_Z@?$output_processor@_WV?$stream_output_adapter@_W@__crt_stdio_output@@V?$format_validation_base@_WV?$stream_output_adapter@_W@__crt_stdio_output@@@2@@__crt_stdio_output@@AAE_NXZ 1002f100 f i libucrt:output.obj
 0001:0002e17b       ?type_case_Z@?$output_processor@_WV?$stream_output_adapter@_W@__crt_stdio_output@@V?$positional_parameter_base@_WV?$stream_output_adapter@_W@__crt_stdio_output@@@2@@__crt_stdio_output@@AAE_NXZ 1002f17b f i libucrt:output.obj
 0001:0002e219       ?type_case_Z@?$output_processor@_WV?$stream_output_adapter@_W@__crt_stdio_output@@V?$standard_base@_WV?$stream_output_adapter@_W@__crt_stdio_output@@@2@@__crt_stdio_output@@AAE_NXZ 1002f219 f i libucrt:output.obj
 0001:0002e294       ?type_case_Z@?$output_processor@_WV?$string_output_adapter@_W@__crt_stdio_output@@V?$format_validation_base@_WV?$string_output_adapter@_W@__crt_stdio_output@@@2@@__crt_stdio_output@@AAE_NXZ 1002f294 f i libucrt:output.obj
 0001:0002e30f       ?type_case_Z@?$output_processor@_WV?$string_output_adapter@_W@__crt_stdio_output@@V?$positional_parameter_base@_WV?$string_output_adapter@_W@__crt_stdio_output@@@2@@__crt_stdio_output@@AAE_NXZ 1002f30f f i libucrt:output.obj
 0001:0002e3ad       ?type_case_Z@?$output_processor@_WV?$string_output_adapter@_W@__crt_stdio_output@@V?$standard_base@_WV?$string_output_adapter@_W@__crt_stdio_output@@@2@@__crt_stdio_output@@AAE_NXZ 1002f3ad f i libucrt:output.obj
 0001:0002e428       ?type_case_a@?$output_processor@DV?$stream_output_adapter@D@__crt_stdio_output@@V?$format_validation_base@DV?$stream_output_adapter@D@__crt_stdio_output@@@2@@__crt_stdio_output@@AAE_NXZ 1002f428 f i libucrt:output.obj
 0001:0002e5d8       ?type_case_a@?$output_processor@DV?$stream_output_adapter@D@__crt_stdio_output@@V?$positional_parameter_base@DV?$stream_output_adapter@D@__crt_stdio_output@@@2@@__crt_stdio_output@@AAE_NXZ 1002f5d8 f i libucrt:output.obj
 0001:0002e7af       ?type_case_a@?$output_processor@DV?$stream_output_adapter@D@__crt_stdio_output@@V?$standard_base@DV?$stream_output_adapter@D@__crt_stdio_output@@@2@@__crt_stdio_output@@AAE_NXZ 1002f7af f i libucrt:output.obj
 0001:0002e95f       ?type_case_a@?$output_processor@DV?$string_output_adapter@D@__crt_stdio_output@@V?$format_validation_base@DV?$string_output_adapter@D@__crt_stdio_output@@@2@@__crt_stdio_output@@AAE_NXZ 1002f95f f i libucrt:output.obj
 0001:0002eb0f       ?type_case_a@?$output_processor@DV?$string_output_adapter@D@__crt_stdio_output@@V?$positional_parameter_base@DV?$string_output_adapter@D@__crt_stdio_output@@@2@@__crt_stdio_output@@AAE_NXZ 1002fb0f f i libucrt:output.obj
 0001:0002ece6       ?type_case_a@?$output_processor@DV?$string_output_adapter@D@__crt_stdio_output@@V?$standard_base@DV?$string_output_adapter@D@__crt_stdio_output@@@2@@__crt_stdio_output@@AAE_NXZ 1002fce6 f i libucrt:output.obj
 0001:0002ee96       ?type_case_a@?$output_processor@_WV?$stream_output_adapter@_W@__crt_stdio_output@@V?$format_validation_base@_WV?$stream_output_adapter@_W@__crt_stdio_output@@@2@@__crt_stdio_output@@AAE_NXZ 1002fe96 f i libucrt:output.obj
 0001:0002f064       ?type_case_a@?$output_processor@_WV?$stream_output_adapter@_W@__crt_stdio_output@@V?$positional_parameter_base@_WV?$stream_output_adapter@_W@__crt_stdio_output@@@2@@__crt_stdio_output@@AAE_NXZ 10030064 f i libucrt:output.obj
 0001:0002f259       ?type_case_a@?$output_processor@_WV?$stream_output_adapter@_W@__crt_stdio_output@@V?$standard_base@_WV?$stream_output_adapter@_W@__crt_stdio_output@@@2@@__crt_stdio_output@@AAE_NXZ 10030259 f i libucrt:output.obj
 0001:0002f427       ?type_case_a@?$output_processor@_WV?$string_output_adapter@_W@__crt_stdio_output@@V?$format_validation_base@_WV?$string_output_adapter@_W@__crt_stdio_output@@@2@@__crt_stdio_output@@AAE_NXZ 10030427 f i libucrt:output.obj
 0001:0002f5f5       ?type_case_a@?$output_processor@_WV?$string_output_adapter@_W@__crt_stdio_output@@V?$positional_parameter_base@_WV?$string_output_adapter@_W@__crt_stdio_output@@@2@@__crt_stdio_output@@AAE_NXZ 100305f5 f i libucrt:output.obj
 0001:0002f7ea       ?type_case_a@?$output_processor@_WV?$string_output_adapter@_W@__crt_stdio_output@@V?$standard_base@_WV?$string_output_adapter@_W@__crt_stdio_output@@@2@@__crt_stdio_output@@AAE_NXZ 100307ea f i libucrt:output.obj
 0001:0002f9b8       ?type_case_c@?$output_processor@DV?$stream_output_adapter@D@__crt_stdio_output@@V?$format_validation_base@DV?$stream_output_adapter@D@__crt_stdio_output@@@2@@__crt_stdio_output@@AAE_NXZ 100309b8 f i libucrt:output.obj
 0001:0002f9c2       ?type_case_c@?$output_processor@DV?$stream_output_adapter@D@__crt_stdio_output@@V?$positional_parameter_base@DV?$stream_output_adapter@D@__crt_stdio_output@@@2@@__crt_stdio_output@@AAE_NXZ 100309c2 f i libucrt:output.obj
 0001:0002f9cc       ?type_case_c@?$output_processor@DV?$stream_output_adapter@D@__crt_stdio_output@@V?$standard_base@DV?$stream_output_adapter@D@__crt_stdio_output@@@2@@__crt_stdio_output@@AAE_NXZ 100309cc f i libucrt:output.obj
 0001:0002f9d6       ?type_case_c@?$output_processor@DV?$string_output_adapter@D@__crt_stdio_output@@V?$format_validation_base@DV?$string_output_adapter@D@__crt_stdio_output@@@2@@__crt_stdio_output@@AAE_NXZ 100309d6 f i libucrt:output.obj
 0001:0002f9e0       ?type_case_c@?$output_processor@DV?$string_output_adapter@D@__crt_stdio_output@@V?$positional_parameter_base@DV?$string_output_adapter@D@__crt_stdio_output@@@2@@__crt_stdio_output@@AAE_NXZ 100309e0 f i libucrt:output.obj
 0001:0002f9ea       ?type_case_c@?$output_processor@DV?$string_output_adapter@D@__crt_stdio_output@@V?$standard_base@DV?$string_output_adapter@D@__crt_stdio_output@@@2@@__crt_stdio_output@@AAE_NXZ 100309ea f i libucrt:output.obj
 0001:0002f9f4       ?type_case_c@?$output_processor@_WV?$stream_output_adapter@_W@__crt_stdio_output@@V?$format_validation_base@_WV?$stream_output_adapter@_W@__crt_stdio_output@@@2@@__crt_stdio_output@@AAE_NXZ 100309f4 f i libucrt:output.obj
 0001:0002f9fe       ?type_case_c@?$output_processor@_WV?$stream_output_adapter@_W@__crt_stdio_output@@V?$positional_parameter_base@_WV?$stream_output_adapter@_W@__crt_stdio_output@@@2@@__crt_stdio_output@@AAE_NXZ 100309fe f i libucrt:output.obj
 0001:0002fa08       ?type_case_c@?$output_processor@_WV?$stream_output_adapter@_W@__crt_stdio_output@@V?$standard_base@_WV?$stream_output_adapter@_W@__crt_stdio_output@@@2@@__crt_stdio_output@@AAE_NXZ 10030a08 f i libucrt:output.obj
 0001:0002fa12       ?type_case_c@?$output_processor@_WV?$string_output_adapter@_W@__crt_stdio_output@@V?$format_validation_base@_WV?$string_output_adapter@_W@__crt_stdio_output@@@2@@__crt_stdio_output@@AAE_NXZ 10030a12 f i libucrt:output.obj
 0001:0002fa1c       ?type_case_c@?$output_processor@_WV?$string_output_adapter@_W@__crt_stdio_output@@V?$positional_parameter_base@_WV?$string_output_adapter@_W@__crt_stdio_output@@@2@@__crt_stdio_output@@AAE_NXZ 10030a1c f i libucrt:output.obj
 0001:0002fa26       ?type_case_c@?$output_processor@_WV?$string_output_adapter@_W@__crt_stdio_output@@V?$standard_base@_WV?$string_output_adapter@_W@__crt_stdio_output@@@2@@__crt_stdio_output@@AAE_NXZ 10030a26 f i libucrt:output.obj
 0001:0002fa30       ?type_case_c_tchar@?$output_processor@DV?$stream_output_adapter@D@__crt_stdio_output@@V?$format_validation_base@DV?$stream_output_adapter@D@__crt_stdio_output@@@2@@__crt_stdio_output@@AAE_ND@Z 10030a30 f i libucrt:output.obj
 0001:0002fae4       ?type_case_c_tchar@?$output_processor@DV?$stream_output_adapter@D@__crt_stdio_output@@V?$positional_parameter_base@DV?$stream_output_adapter@D@__crt_stdio_output@@@2@@__crt_stdio_output@@AAE_ND@Z 10030ae4 f i libucrt:output.obj
 0001:0002fbd4       ?type_case_c_tchar@?$output_processor@DV?$stream_output_adapter@D@__crt_stdio_output@@V?$standard_base@DV?$stream_output_adapter@D@__crt_stdio_output@@@2@@__crt_stdio_output@@AAE_ND@Z 10030bd4 f i libucrt:output.obj
 0001:0002fc88       ?type_case_c_tchar@?$output_processor@DV?$string_output_adapter@D@__crt_stdio_output@@V?$format_validation_base@DV?$string_output_adapter@D@__crt_stdio_output@@@2@@__crt_stdio_output@@AAE_ND@Z 10030c88 f i libucrt:output.obj
 0001:0002fd3c       ?type_case_c_tchar@?$output_processor@DV?$string_output_adapter@D@__crt_stdio_output@@V?$positional_parameter_base@DV?$string_output_adapter@D@__crt_stdio_output@@@2@@__crt_stdio_output@@AAE_ND@Z 10030d3c f i libucrt:output.obj
 0001:0002fe2c       ?type_case_c_tchar@?$output_processor@DV?$string_output_adapter@D@__crt_stdio_output@@V?$standard_base@DV?$string_output_adapter@D@__crt_stdio_output@@@2@@__crt_stdio_output@@AAE_ND@Z 10030e2c f i libucrt:output.obj
 0001:0002fee0       ?type_case_c_tchar@?$output_processor@_WV?$stream_output_adapter@_W@__crt_stdio_output@@V?$format_validation_base@_WV?$stream_output_adapter@_W@__crt_stdio_output@@@2@@__crt_stdio_output@@AAE_N_W@Z 10030ee0 f i libucrt:output.obj
 0001:0002ff9e       ?type_case_c_tchar@?$output_processor@_WV?$stream_output_adapter@_W@__crt_stdio_output@@V?$positional_parameter_base@_WV?$stream_output_adapter@_W@__crt_stdio_output@@@2@@__crt_stdio_output@@AAE_N_W@Z 10030f9e f i libucrt:output.obj
 0001:00030078       ?type_case_c_tchar@?$output_processor@_WV?$stream_output_adapter@_W@__crt_stdio_output@@V?$standard_base@_WV?$stream_output_adapter@_W@__crt_stdio_output@@@2@@__crt_stdio_output@@AAE_N_W@Z 10031078 f i libucrt:output.obj
 0001:00030136       ?type_case_c_tchar@?$output_processor@_WV?$string_output_adapter@_W@__crt_stdio_output@@V?$format_validation_base@_WV?$string_output_adapter@_W@__crt_stdio_output@@@2@@__crt_stdio_output@@AAE_N_W@Z 10031136 f i libucrt:output.obj
 0001:000301f4       ?type_case_c_tchar@?$output_processor@_WV?$string_output_adapter@_W@__crt_stdio_output@@V?$positional_parameter_base@_WV?$string_output_adapter@_W@__crt_stdio_output@@@2@@__crt_stdio_output@@AAE_N_W@Z 100311f4 f i libucrt:output.obj
 0001:000302ce       ?type_case_c_tchar@?$output_processor@_WV?$string_output_adapter@_W@__crt_stdio_output@@V?$standard_base@_WV?$string_output_adapter@_W@__crt_stdio_output@@@2@@__crt_stdio_output@@AAE_N_W@Z 100312ce f i libucrt:output.obj
 0001:0003038c       ?type_case_d@?$output_processor@DV?$stream_output_adapter@D@__crt_stdio_output@@V?$format_validation_base@DV?$stream_output_adapter@D@__crt_stdio_output@@@2@@__crt_stdio_output@@AAE_NXZ 1003138c f i libucrt:output.obj
 0001:0003039d       ?type_case_d@?$output_processor@DV?$stream_output_adapter@D@__crt_stdio_output@@V?$positional_parameter_base@DV?$stream_output_adapter@D@__crt_stdio_output@@@2@@__crt_stdio_output@@AAE_NXZ 1003139d f i libucrt:output.obj
 0001:000303ae       ?type_case_d@?$output_processor@DV?$stream_output_adapter@D@__crt_stdio_output@@V?$standard_base@DV?$stream_output_adapter@D@__crt_stdio_output@@@2@@__crt_stdio_output@@AAE_NXZ 100313ae f i libucrt:output.obj
 0001:000303bf       ?type_case_d@?$output_processor@DV?$string_output_adapter@D@__crt_stdio_output@@V?$format_validation_base@DV?$string_output_adapter@D@__crt_stdio_output@@@2@@__crt_stdio_output@@AAE_NXZ 100313bf f i libucrt:output.obj
 0001:000303d0       ?type_case_d@?$output_processor@DV?$string_output_adapter@D@__crt_stdio_output@@V?$positional_parameter_base@DV?$string_output_adapter@D@__crt_stdio_output@@@2@@__crt_stdio_output@@AAE_NXZ 100313d0 f i libucrt:output.obj
 0001:000303e1       ?type_case_d@?$output_processor@DV?$string_output_adapter@D@__crt_stdio_output@@V?$standard_base@DV?$string_output_adapter@D@__crt_stdio_output@@@2@@__crt_stdio_output@@AAE_NXZ 100313e1 f i libucrt:output.obj
 0001:000303f2       ?type_case_d@?$output_processor@_WV?$stream_output_adapter@_W@__crt_stdio_output@@V?$format_validation_base@_WV?$stream_output_adapter@_W@__crt_stdio_output@@@2@@__crt_stdio_output@@AAE_NXZ 100313f2 f i libucrt:output.obj
 0001:00030403       ?type_case_d@?$output_processor@_WV?$stream_output_adapter@_W@__crt_stdio_output@@V?$positional_parameter_base@_WV?$stream_output_adapter@_W@__crt_stdio_output@@@2@@__crt_stdio_output@@AAE_NXZ 10031403 f i libucrt:output.obj
 0001:00030414       ?type_case_d@?$output_processor@_WV?$stream_output_adapter@_W@__crt_stdio_output@@V?$standard_base@_WV?$stream_output_adapter@_W@__crt_stdio_output@@@2@@__crt_stdio_output@@AAE_NXZ 10031414 f i libucrt:output.obj
 0001:00030425       ?type_case_d@?$output_processor@_WV?$string_output_adapter@_W@__crt_stdio_output@@V?$format_validation_base@_WV?$string_output_adapter@_W@__crt_stdio_output@@@2@@__crt_stdio_output@@AAE_NXZ 10031425 f i libucrt:output.obj
 0001:00030436       ?type_case_d@?$output_processor@_WV?$string_output_adapter@_W@__crt_stdio_output@@V?$positional_parameter_base@_WV?$string_output_adapter@_W@__crt_stdio_output@@@2@@__crt_stdio_output@@AAE_NXZ 10031436 f i libucrt:output.obj
 0001:00030447       ?type_case_d@?$output_processor@_WV?$string_output_adapter@_W@__crt_stdio_output@@V?$standard_base@_WV?$string_output_adapter@_W@__crt_stdio_output@@@2@@__crt_stdio_output@@AAE_NXZ 10031447 f i libucrt:output.obj
 0001:00030458       ?type_case_integer@?$output_processor@DV?$stream_output_adapter@D@__crt_stdio_output@@V?$format_validation_base@DV?$stream_output_adapter@D@__crt_stdio_output@@@2@@__crt_stdio_output@@AAE_NI_N@Z 10031458 f i libucrt:output.obj
 0001:000305f4       ?type_case_integer@?$output_processor@DV?$stream_output_adapter@D@__crt_stdio_output@@V?$positional_parameter_base@DV?$stream_output_adapter@D@__crt_stdio_output@@@2@@__crt_stdio_output@@AAE_NI_N@Z 100315f4 f i libucrt:output.obj
 0001:000307d1       ?type_case_integer@?$output_processor@DV?$stream_output_adapter@D@__crt_stdio_output@@V?$standard_base@DV?$stream_output_adapter@D@__crt_stdio_output@@@2@@__crt_stdio_output@@AAE_NI_N@Z 100317d1 f i libucrt:output.obj
 0001:0003096d       ?type_case_integer@?$output_processor@DV?$string_output_adapter@D@__crt_stdio_output@@V?$format_validation_base@DV?$string_output_adapter@D@__crt_stdio_output@@@2@@__crt_stdio_output@@AAE_NI_N@Z 1003196d f i libucrt:output.obj
 0001:00030b09       ?type_case_integer@?$output_processor@DV?$string_output_adapter@D@__crt_stdio_output@@V?$positional_parameter_base@DV?$string_output_adapter@D@__crt_stdio_output@@@2@@__crt_stdio_output@@AAE_NI_N@Z 10031b09 f i libucrt:output.obj
 0001:00030ce6       ?type_case_integer@?$output_processor@DV?$string_output_adapter@D@__crt_stdio_output@@V?$standard_base@DV?$string_output_adapter@D@__crt_stdio_output@@@2@@__crt_stdio_output@@AAE_NI_N@Z 10031ce6 f i libucrt:output.obj
 0001:00030e82       ?type_case_integer@?$output_processor@_WV?$stream_output_adapter@_W@__crt_stdio_output@@V?$format_validation_base@_WV?$stream_output_adapter@_W@__crt_stdio_output@@@2@@__crt_stdio_output@@AAE_NI_N@Z 10031e82 f i libucrt:output.obj
 0001:0003101e       ?type_case_integer@?$output_processor@_WV?$stream_output_adapter@_W@__crt_stdio_output@@V?$positional_parameter_base@_WV?$stream_output_adapter@_W@__crt_stdio_output@@@2@@__crt_stdio_output@@AAE_NI_N@Z 1003201e f i libucrt:output.obj
 0001:000311fb       ?type_case_integer@?$output_processor@_WV?$stream_output_adapter@_W@__crt_stdio_output@@V?$standard_base@_WV?$stream_output_adapter@_W@__crt_stdio_output@@@2@@__crt_stdio_output@@AAE_NI_N@Z 100321fb f i libucrt:output.obj
 0001:00031397       ?type_case_integer@?$output_processor@_WV?$string_output_adapter@_W@__crt_stdio_output@@V?$format_validation_base@_WV?$string_output_adapter@_W@__crt_stdio_output@@@2@@__crt_stdio_output@@AAE_NI_N@Z 10032397 f i libucrt:output.obj
 0001:00031533       ?type_case_integer@?$output_processor@_WV?$string_output_adapter@_W@__crt_stdio_output@@V?$positional_parameter_base@_WV?$string_output_adapter@_W@__crt_stdio_output@@@2@@__crt_stdio_output@@AAE_NI_N@Z 10032533 f i libucrt:output.obj
 0001:00031710       ?type_case_integer@?$output_processor@_WV?$string_output_adapter@_W@__crt_stdio_output@@V?$standard_base@_WV?$string_output_adapter@_W@__crt_stdio_output@@@2@@__crt_stdio_output@@AAE_NI_N@Z 10032710 f i libucrt:output.obj
 0001:000318ac       ?type_case_n@?$output_processor@DV?$stream_output_adapter@D@__crt_stdio_output@@V?$format_validation_base@DV?$stream_output_adapter@D@__crt_stdio_output@@@2@@__crt_stdio_output@@AAE_NXZ 100328ac f i libucrt:output.obj
 0001:0003193d       ?type_case_n@?$output_processor@DV?$stream_output_adapter@D@__crt_stdio_output@@V?$positional_parameter_base@DV?$stream_output_adapter@D@__crt_stdio_output@@@2@@__crt_stdio_output@@AAE_NXZ 1003293d f i libucrt:output.obj
 0001:000319fc       ?type_case_n@?$output_processor@DV?$stream_output_adapter@D@__crt_stdio_output@@V?$standard_base@DV?$stream_output_adapter@D@__crt_stdio_output@@@2@@__crt_stdio_output@@AAE_NXZ 100329fc f i libucrt:output.obj
 0001:00031a8d       ?type_case_n@?$output_processor@DV?$string_output_adapter@D@__crt_stdio_output@@V?$format_validation_base@DV?$string_output_adapter@D@__crt_stdio_output@@@2@@__crt_stdio_output@@AAE_NXZ 10032a8d f i libucrt:output.obj
 0001:00031b1e       ?type_case_n@?$output_processor@DV?$string_output_adapter@D@__crt_stdio_output@@V?$positional_parameter_base@DV?$string_output_adapter@D@__crt_stdio_output@@@2@@__crt_stdio_output@@AAE_NXZ 10032b1e f i libucrt:output.obj
 0001:00031bdd       ?type_case_n@?$output_processor@DV?$string_output_adapter@D@__crt_stdio_output@@V?$standard_base@DV?$string_output_adapter@D@__crt_stdio_output@@@2@@__crt_stdio_output@@AAE_NXZ 10032bdd f i libucrt:output.obj
 0001:00031c6e       ?type_case_n@?$output_processor@_WV?$stream_output_adapter@_W@__crt_stdio_output@@V?$format_validation_base@_WV?$stream_output_adapter@_W@__crt_stdio_output@@@2@@__crt_stdio_output@@AAE_NXZ 10032c6e f i libucrt:output.obj
 0001:00031cff       ?type_case_n@?$output_processor@_WV?$stream_output_adapter@_W@__crt_stdio_output@@V?$positional_parameter_base@_WV?$stream_output_adapter@_W@__crt_stdio_output@@@2@@__crt_stdio_output@@AAE_NXZ 10032cff f i libucrt:output.obj
 0001:00031dbe       ?type_case_n@?$output_processor@_WV?$stream_output_adapter@_W@__crt_stdio_output@@V?$standard_base@_WV?$stream_output_adapter@_W@__crt_stdio_output@@@2@@__crt_stdio_output@@AAE_NXZ 10032dbe f i libucrt:output.obj
 0001:00031e4f       ?type_case_n@?$output_processor@_WV?$string_output_adapter@_W@__crt_stdio_output@@V?$format_validation_base@_WV?$string_output_adapter@_W@__crt_stdio_output@@@2@@__crt_stdio_output@@AAE_NXZ 10032e4f f i libucrt:output.obj
 0001:00031ee0       ?type_case_n@?$output_processor@_WV?$string_output_adapter@_W@__crt_stdio_output@@V?$positional_parameter_base@_WV?$string_output_adapter@_W@__crt_stdio_output@@@2@@__crt_stdio_output@@AAE_NXZ 10032ee0 f i libucrt:output.obj
 0001:00031f9f       ?type_case_n@?$output_processor@_WV?$string_output_adapter@_W@__crt_stdio_output@@V?$standard_base@_WV?$string_output_adapter@_W@__crt_stdio_output@@@2@@__crt_stdio_output@@AAE_NXZ 10032f9f f i libucrt:output.obj
 0001:00032030       ?type_case_o@?$output_processor@DV?$stream_output_adapter@D@__crt_stdio_output@@V?$format_validation_base@DV?$stream_output_adapter@D@__crt_stdio_output@@@2@@__crt_stdio_output@@AAE_NXZ 10033030 f i libucrt:output.obj
 0001:00032056       ?type_case_o@?$output_processor@DV?$stream_output_adapter@D@__crt_stdio_output@@V?$positional_parameter_base@DV?$stream_output_adapter@D@__crt_stdio_output@@@2@@__crt_stdio_output@@AAE_NXZ 10033056 f i libucrt:output.obj
 0001:0003207c       ?type_case_o@?$output_processor@DV?$stream_output_adapter@D@__crt_stdio_output@@V?$standard_base@DV?$stream_output_adapter@D@__crt_stdio_output@@@2@@__crt_stdio_output@@AAE_NXZ 1003307c f i libucrt:output.obj
 0001:000320a2       ?type_case_o@?$output_processor@DV?$string_output_adapter@D@__crt_stdio_output@@V?$format_validation_base@DV?$string_output_adapter@D@__crt_stdio_output@@@2@@__crt_stdio_output@@AAE_NXZ 100330a2 f i libucrt:output.obj
 0001:000320c8       ?type_case_o@?$output_processor@DV?$string_output_adapter@D@__crt_stdio_output@@V?$positional_parameter_base@DV?$string_output_adapter@D@__crt_stdio_output@@@2@@__crt_stdio_output@@AAE_NXZ 100330c8 f i libucrt:output.obj
 0001:000320ee       ?type_case_o@?$output_processor@DV?$string_output_adapter@D@__crt_stdio_output@@V?$standard_base@DV?$string_output_adapter@D@__crt_stdio_output@@@2@@__crt_stdio_output@@AAE_NXZ 100330ee f i libucrt:output.obj
 0001:00032114       ?type_case_o@?$output_processor@_WV?$stream_output_adapter@_W@__crt_stdio_output@@V?$format_validation_base@_WV?$stream_output_adapter@_W@__crt_stdio_output@@@2@@__crt_stdio_output@@AAE_NXZ 10033114 f i libucrt:output.obj
 0001:0003213a       ?type_case_o@?$output_processor@_WV?$stream_output_adapter@_W@__crt_stdio_output@@V?$positional_parameter_base@_WV?$stream_output_adapter@_W@__crt_stdio_output@@@2@@__crt_stdio_output@@AAE_NXZ 1003313a f i libucrt:output.obj
 0001:00032160       ?type_case_o@?$output_processor@_WV?$stream_output_adapter@_W@__crt_stdio_output@@V?$standard_base@_WV?$stream_output_adapter@_W@__crt_stdio_output@@@2@@__crt_stdio_output@@AAE_NXZ 10033160 f i libucrt:output.obj
 0001:00032186       ?type_case_o@?$output_processor@_WV?$string_output_adapter@_W@__crt_stdio_output@@V?$format_validation_base@_WV?$string_output_adapter@_W@__crt_stdio_output@@@2@@__crt_stdio_output@@AAE_NXZ 10033186 f i libucrt:output.obj
 0001:000321ac       ?type_case_o@?$output_processor@_WV?$string_output_adapter@_W@__crt_stdio_output@@V?$positional_parameter_base@_WV?$string_output_adapter@_W@__crt_stdio_output@@@2@@__crt_stdio_output@@AAE_NXZ 100331ac f i libucrt:output.obj
 0001:000321d2       ?type_case_o@?$output_processor@_WV?$string_output_adapter@_W@__crt_stdio_output@@V?$standard_base@_WV?$string_output_adapter@_W@__crt_stdio_output@@@2@@__crt_stdio_output@@AAE_NXZ 100331d2 f i libucrt:output.obj
 0001:000321f8       ?type_case_p@?$output_processor@DV?$stream_output_adapter@D@__crt_stdio_output@@V?$format_validation_base@DV?$stream_output_adapter@D@__crt_stdio_output@@@2@@__crt_stdio_output@@AAE_NXZ 100331f8 f i libucrt:output.obj
 0001:00032216       ?type_case_p@?$output_processor@DV?$stream_output_adapter@D@__crt_stdio_output@@V?$positional_parameter_base@DV?$stream_output_adapter@D@__crt_stdio_output@@@2@@__crt_stdio_output@@AAE_NXZ 10033216 f i libucrt:output.obj
 0001:00032234       ?type_case_p@?$output_processor@DV?$stream_output_adapter@D@__crt_stdio_output@@V?$standard_base@DV?$stream_output_adapter@D@__crt_stdio_output@@@2@@__crt_stdio_output@@AAE_NXZ 10033234 f i libucrt:output.obj
 0001:00032252       ?type_case_p@?$output_processor@DV?$string_output_adapter@D@__crt_stdio_output@@V?$format_validation_base@DV?$string_output_adapter@D@__crt_stdio_output@@@2@@__crt_stdio_output@@AAE_NXZ 10033252 f i libucrt:output.obj
 0001:00032270       ?type_case_p@?$output_processor@DV?$string_output_adapter@D@__crt_stdio_output@@V?$positional_parameter_base@DV?$string_output_adapter@D@__crt_stdio_output@@@2@@__crt_stdio_output@@AAE_NXZ 10033270 f i libucrt:output.obj
 0001:0003228e       ?type_case_p@?$output_processor@DV?$string_output_adapter@D@__crt_stdio_output@@V?$standard_base@DV?$string_output_adapter@D@__crt_stdio_output@@@2@@__crt_stdio_output@@AAE_NXZ 1003328e f i libucrt:output.obj
 0001:000322ac       ?type_case_p@?$output_processor@_WV?$stream_output_adapter@_W@__crt_stdio_output@@V?$format_validation_base@_WV?$stream_output_adapter@_W@__crt_stdio_output@@@2@@__crt_stdio_output@@AAE_NXZ 100332ac f i libucrt:output.obj
 0001:000322ca       ?type_case_p@?$output_processor@_WV?$stream_output_adapter@_W@__crt_stdio_output@@V?$positional_parameter_base@_WV?$stream_output_adapter@_W@__crt_stdio_output@@@2@@__crt_stdio_output@@AAE_NXZ 100332ca f i libucrt:output.obj
 0001:000322e8       ?type_case_p@?$output_processor@_WV?$stream_output_adapter@_W@__crt_stdio_output@@V?$standard_base@_WV?$stream_output_adapter@_W@__crt_stdio_output@@@2@@__crt_stdio_output@@AAE_NXZ 100332e8 f i libucrt:output.obj
 0001:00032306       ?type_case_p@?$output_processor@_WV?$string_output_adapter@_W@__crt_stdio_output@@V?$format_validation_base@_WV?$string_output_adapter@_W@__crt_stdio_output@@@2@@__crt_stdio_output@@AAE_NXZ 10033306 f i libucrt:output.obj
 0001:00032324       ?type_case_p@?$output_processor@_WV?$string_output_adapter@_W@__crt_stdio_output@@V?$positional_parameter_base@_WV?$string_output_adapter@_W@__crt_stdio_output@@@2@@__crt_stdio_output@@AAE_NXZ 10033324 f i libucrt:output.obj
 0001:00032342       ?type_case_p@?$output_processor@_WV?$string_output_adapter@_W@__crt_stdio_output@@V?$standard_base@_WV?$string_output_adapter@_W@__crt_stdio_output@@@2@@__crt_stdio_output@@AAE_NXZ 10033342 f i libucrt:output.obj
 0001:00032360       ?type_case_s@?$output_processor@DV?$stream_output_adapter@D@__crt_stdio_output@@V?$format_validation_base@DV?$stream_output_adapter@D@__crt_stdio_output@@@2@@__crt_stdio_output@@AAE_NXZ 10033360 f i libucrt:output.obj
 0001:000323ef       ?type_case_s@?$output_processor@DV?$stream_output_adapter@D@__crt_stdio_output@@V?$positional_parameter_base@DV?$stream_output_adapter@D@__crt_stdio_output@@@2@@__crt_stdio_output@@AAE_NXZ 100333ef f i libucrt:output.obj
 0001:0003248a       ?type_case_s@?$output_processor@DV?$stream_output_adapter@D@__crt_stdio_output@@V?$standard_base@DV?$stream_output_adapter@D@__crt_stdio_output@@@2@@__crt_stdio_output@@AAE_NXZ 1003348a f i libucrt:output.obj
 0001:00032519       ?type_case_s@?$output_processor@DV?$string_output_adapter@D@__crt_stdio_output@@V?$format_validation_base@DV?$string_output_adapter@D@__crt_stdio_output@@@2@@__crt_stdio_output@@AAE_NXZ 10033519 f i libucrt:output.obj
 0001:000325a8       ?type_case_s@?$output_processor@DV?$string_output_adapter@D@__crt_stdio_output@@V?$positional_parameter_base@DV?$string_output_adapter@D@__crt_stdio_output@@@2@@__crt_stdio_output@@AAE_NXZ 100335a8 f i libucrt:output.obj
 0001:00032643       ?type_case_s@?$output_processor@DV?$string_output_adapter@D@__crt_stdio_output@@V?$standard_base@DV?$string_output_adapter@D@__crt_stdio_output@@@2@@__crt_stdio_output@@AAE_NXZ 10033643 f i libucrt:output.obj
 0001:000326d2       ?type_case_s@?$output_processor@_WV?$stream_output_adapter@_W@__crt_stdio_output@@V?$format_validation_base@_WV?$stream_output_adapter@_W@__crt_stdio_output@@@2@@__crt_stdio_output@@AAE_NXZ 100336d2 f i libucrt:output.obj
 0001:00032763       ?type_case_s@?$output_processor@_WV?$stream_output_adapter@_W@__crt_stdio_output@@V?$positional_parameter_base@_WV?$stream_output_adapter@_W@__crt_stdio_output@@@2@@__crt_stdio_output@@AAE_NXZ 10033763 f i libucrt:output.obj
 0001:00032800       ?type_case_s@?$output_processor@_WV?$stream_output_adapter@_W@__crt_stdio_output@@V?$standard_base@_WV?$stream_output_adapter@_W@__crt_stdio_output@@@2@@__crt_stdio_output@@AAE_NXZ 10033800 f i libucrt:output.obj
 0001:00032891       ?type_case_s@?$output_processor@_WV?$string_output_adapter@_W@__crt_stdio_output@@V?$format_validation_base@_WV?$string_output_adapter@_W@__crt_stdio_output@@@2@@__crt_stdio_output@@AAE_NXZ 10033891 f i libucrt:output.obj
 0001:00032922       ?type_case_s@?$output_processor@_WV?$string_output_adapter@_W@__crt_stdio_output@@V?$positional_parameter_base@_WV?$string_output_adapter@_W@__crt_stdio_output@@@2@@__crt_stdio_output@@AAE_NXZ 10033922 f i libucrt:output.obj
 0001:000329bf       ?type_case_s@?$output_processor@_WV?$string_output_adapter@_W@__crt_stdio_output@@V?$standard_base@_WV?$string_output_adapter@_W@__crt_stdio_output@@@2@@__crt_stdio_output@@AAE_NXZ 100339bf f i libucrt:output.obj
 0001:00032a50       ?type_case_s_compute_narrow_string_length@?$output_processor@DV?$stream_output_adapter@D@__crt_stdio_output@@V?$format_validation_base@DV?$stream_output_adapter@D@__crt_stdio_output@@@2@@__crt_stdio_output@@ABEHHD@Z 10033a50 f i libucrt:output.obj
 0001:00032a6b       ?type_case_s_compute_narrow_string_length@?$output_processor@DV?$stream_output_adapter@D@__crt_stdio_output@@V?$positional_parameter_base@DV?$stream_output_adapter@D@__crt_stdio_output@@@2@@__crt_stdio_output@@ABEHHD@Z 10033a6b f i libucrt:output.obj
 0001:00032a86       ?type_case_s_compute_narrow_string_length@?$output_processor@DV?$stream_output_adapter@D@__crt_stdio_output@@V?$standard_base@DV?$stream_output_adapter@D@__crt_stdio_output@@@2@@__crt_stdio_output@@ABEHHD@Z 10033a86 f i libucrt:output.obj
 0001:00032aa1       ?type_case_s_compute_narrow_string_length@?$output_processor@DV?$string_output_adapter@D@__crt_stdio_output@@V?$format_validation_base@DV?$string_output_adapter@D@__crt_stdio_output@@@2@@__crt_stdio_output@@ABEHHD@Z 10033aa1 f i libucrt:output.obj
 0001:00032abc       ?type_case_s_compute_narrow_string_length@?$output_processor@DV?$string_output_adapter@D@__crt_stdio_output@@V?$positional_parameter_base@DV?$string_output_adapter@D@__crt_stdio_output@@@2@@__crt_stdio_output@@ABEHHD@Z 10033abc f i libucrt:output.obj
 0001:00032ad7       ?type_case_s_compute_narrow_string_length@?$output_processor@DV?$string_output_adapter@D@__crt_stdio_output@@V?$standard_base@DV?$string_output_adapter@D@__crt_stdio_output@@@2@@__crt_stdio_output@@ABEHHD@Z 10033ad7 f i libucrt:output.obj
 0001:00032af2       ?type_case_s_compute_narrow_string_length@?$output_processor@_WV?$stream_output_adapter@_W@__crt_stdio_output@@V?$format_validation_base@_WV?$stream_output_adapter@_W@__crt_stdio_output@@@2@@__crt_stdio_output@@ABEHH_W@Z 10033af2 f i libucrt:output.obj
 0001:00032b42       ?type_case_s_compute_narrow_string_length@?$output_processor@_WV?$stream_output_adapter@_W@__crt_stdio_output@@V?$positional_parameter_base@_WV?$stream_output_adapter@_W@__crt_stdio_output@@@2@@__crt_stdio_output@@ABEHH_W@Z 10033b42 f i libucrt:output.obj
 0001:00032b92       ?type_case_s_compute_narrow_string_length@?$output_processor@_WV?$stream_output_adapter@_W@__crt_stdio_output@@V?$standard_base@_WV?$stream_output_adapter@_W@__crt_stdio_output@@@2@@__crt_stdio_output@@ABEHH_W@Z 10033b92 f i libucrt:output.obj
 0001:00032be2       ?type_case_s_compute_narrow_string_length@?$output_processor@_WV?$string_output_adapter@_W@__crt_stdio_output@@V?$format_validation_base@_WV?$string_output_adapter@_W@__crt_stdio_output@@@2@@__crt_stdio_output@@ABEHH_W@Z 10033be2 f i libucrt:output.obj
 0001:00032c32       ?type_case_s_compute_narrow_string_length@?$output_processor@_WV?$string_output_adapter@_W@__crt_stdio_output@@V?$positional_parameter_base@_WV?$string_output_adapter@_W@__crt_stdio_output@@@2@@__crt_stdio_output@@ABEHH_W@Z 10033c32 f i libucrt:output.obj
 0001:00032c82       ?type_case_s_compute_narrow_string_length@?$output_processor@_WV?$string_output_adapter@_W@__crt_stdio_output@@V?$standard_base@_WV?$string_output_adapter@_W@__crt_stdio_output@@@2@@__crt_stdio_output@@ABEHH_W@Z 10033c82 f i libucrt:output.obj
 0001:00032cd2       ?type_case_u@?$output_processor@DV?$stream_output_adapter@D@__crt_stdio_output@@V?$format_validation_base@DV?$stream_output_adapter@D@__crt_stdio_output@@@2@@__crt_stdio_output@@AAE_NXZ 10033cd2 f i libucrt:output.obj
 0001:00032cde       ?type_case_u@?$output_processor@DV?$stream_output_adapter@D@__crt_stdio_output@@V?$positional_parameter_base@DV?$stream_output_adapter@D@__crt_stdio_output@@@2@@__crt_stdio_output@@AAE_NXZ 10033cde f i libucrt:output.obj
 0001:00032cea       ?type_case_u@?$output_processor@DV?$stream_output_adapter@D@__crt_stdio_output@@V?$standard_base@DV?$stream_output_adapter@D@__crt_stdio_output@@@2@@__crt_stdio_output@@AAE_NXZ 10033cea f i libucrt:output.obj
 0001:00032cf6       ?type_case_u@?$output_processor@DV?$string_output_adapter@D@__crt_stdio_output@@V?$format_validation_base@DV?$string_output_adapter@D@__crt_stdio_output@@@2@@__crt_stdio_output@@AAE_NXZ 10033cf6 f i libucrt:output.obj
 0001:00032d02       ?type_case_u@?$output_processor@DV?$string_output_adapter@D@__crt_stdio_output@@V?$positional_parameter_base@DV?$string_output_adapter@D@__crt_stdio_output@@@2@@__crt_stdio_output@@AAE_NXZ 10033d02 f i libucrt:output.obj
 0001:00032d0e       ?type_case_u@?$output_processor@DV?$string_output_adapter@D@__crt_stdio_output@@V?$standard_base@DV?$string_output_adapter@D@__crt_stdio_output@@@2@@__crt_stdio_output@@AAE_NXZ 10033d0e f i libucrt:output.obj
 0001:00032d1a       ?type_case_u@?$output_processor@_WV?$stream_output_adapter@_W@__crt_stdio_output@@V?$format_validation_base@_WV?$stream_output_adapter@_W@__crt_stdio_output@@@2@@__crt_stdio_output@@AAE_NXZ 10033d1a f i libucrt:output.obj
 0001:00032d26       ?type_case_u@?$output_processor@_WV?$stream_output_adapter@_W@__crt_stdio_output@@V?$positional_parameter_base@_WV?$stream_output_adapter@_W@__crt_stdio_output@@@2@@__crt_stdio_output@@AAE_NXZ 10033d26 f i libucrt:output.obj
 0001:00032d32       ?type_case_u@?$output_processor@_WV?$stream_output_adapter@_W@__crt_stdio_output@@V?$standard_base@_WV?$stream_output_adapter@_W@__crt_stdio_output@@@2@@__crt_stdio_output@@AAE_NXZ 10033d32 f i libucrt:output.obj
 0001:00032d3e       ?type_case_u@?$output_processor@_WV?$string_output_adapter@_W@__crt_stdio_output@@V?$format_validation_base@_WV?$string_output_adapter@_W@__crt_stdio_output@@@2@@__crt_stdio_output@@AAE_NXZ 10033d3e f i libucrt:output.obj
 0001:00032d4a       ?type_case_u@?$output_processor@_WV?$string_output_adapter@_W@__crt_stdio_output@@V?$positional_parameter_base@_WV?$string_output_adapter@_W@__crt_stdio_output@@@2@@__crt_stdio_output@@AAE_NXZ 10033d4a f i libucrt:output.obj
 0001:00032d56       ?type_case_u@?$output_processor@_WV?$string_output_adapter@_W@__crt_stdio_output@@V?$standard_base@_WV?$string_output_adapter@_W@__crt_stdio_output@@@2@@__crt_stdio_output@@AAE_NXZ 10033d56 f i libucrt:output.obj
 0001:00032d62       ?type_case_x@?$output_processor@DV?$stream_output_adapter@D@__crt_stdio_output@@V?$format_validation_base@DV?$stream_output_adapter@D@__crt_stdio_output@@@2@@__crt_stdio_output@@AAE_NXZ 10033d62 f i libucrt:output.obj
 0001:00032d6e       ?type_case_x@?$output_processor@DV?$stream_output_adapter@D@__crt_stdio_output@@V?$positional_parameter_base@DV?$stream_output_adapter@D@__crt_stdio_output@@@2@@__crt_stdio_output@@AAE_NXZ 10033d6e f i libucrt:output.obj
 0001:00032d7a       ?type_case_x@?$output_processor@DV?$stream_output_adapter@D@__crt_stdio_output@@V?$standard_base@DV?$stream_output_adapter@D@__crt_stdio_output@@@2@@__crt_stdio_output@@AAE_NXZ 10033d7a f i libucrt:output.obj
 0001:00032d86       ?type_case_x@?$output_processor@DV?$string_output_adapter@D@__crt_stdio_output@@V?$format_validation_base@DV?$string_output_adapter@D@__crt_stdio_output@@@2@@__crt_stdio_output@@AAE_NXZ 10033d86 f i libucrt:output.obj
 0001:00032d92       ?type_case_x@?$output_processor@DV?$string_output_adapter@D@__crt_stdio_output@@V?$positional_parameter_base@DV?$string_output_adapter@D@__crt_stdio_output@@@2@@__crt_stdio_output@@AAE_NXZ 10033d92 f i libucrt:output.obj
 0001:00032d9e       ?type_case_x@?$output_processor@DV?$string_output_adapter@D@__crt_stdio_output@@V?$standard_base@DV?$string_output_adapter@D@__crt_stdio_output@@@2@@__crt_stdio_output@@AAE_NXZ 10033d9e f i libucrt:output.obj
 0001:00032daa       ?type_case_x@?$output_processor@_WV?$stream_output_adapter@_W@__crt_stdio_output@@V?$format_validation_base@_WV?$stream_output_adapter@_W@__crt_stdio_output@@@2@@__crt_stdio_output@@AAE_NXZ 10033daa f i libucrt:output.obj
 0001:00032db6       ?type_case_x@?$output_processor@_WV?$stream_output_adapter@_W@__crt_stdio_output@@V?$positional_parameter_base@_WV?$stream_output_adapter@_W@__crt_stdio_output@@@2@@__crt_stdio_output@@AAE_NXZ 10033db6 f i libucrt:output.obj
 0001:00032dc2       ?type_case_x@?$output_processor@_WV?$stream_output_adapter@_W@__crt_stdio_output@@V?$standard_base@_WV?$stream_output_adapter@_W@__crt_stdio_output@@@2@@__crt_stdio_output@@AAE_NXZ 10033dc2 f i libucrt:output.obj
 0001:00032dce       ?type_case_x@?$output_processor@_WV?$string_output_adapter@_W@__crt_stdio_output@@V?$format_validation_base@_WV?$string_output_adapter@_W@__crt_stdio_output@@@2@@__crt_stdio_output@@AAE_NXZ 10033dce f i libucrt:output.obj
 0001:00032dda       ?type_case_x@?$output_processor@_WV?$string_output_adapter@_W@__crt_stdio_output@@V?$positional_parameter_base@_WV?$string_output_adapter@_W@__crt_stdio_output@@@2@@__crt_stdio_output@@AAE_NXZ 10033dda f i libucrt:output.obj
 0001:00032de6       ?type_case_x@?$output_processor@_WV?$string_output_adapter@_W@__crt_stdio_output@@V?$standard_base@_WV?$string_output_adapter@_W@__crt_stdio_output@@@2@@__crt_stdio_output@@AAE_NXZ 10033de6 f i libucrt:output.obj
 0001:00032df2       ?unset_flag@?$output_processor@DV?$stream_output_adapter@D@__crt_stdio_output@@V?$format_validation_base@DV?$stream_output_adapter@D@__crt_stdio_output@@@2@@__crt_stdio_output@@AAEXI@Z 10033df2 f i libucrt:output.obj
 0001:00032e07       ?unset_flag@?$output_processor@DV?$stream_output_adapter@D@__crt_stdio_output@@V?$positional_parameter_base@DV?$stream_output_adapter@D@__crt_stdio_output@@@2@@__crt_stdio_output@@AAEXI@Z 10033e07 f i libucrt:output.obj
 0001:00032e1c       ?unset_flag@?$output_processor@DV?$stream_output_adapter@D@__crt_stdio_output@@V?$standard_base@DV?$stream_output_adapter@D@__crt_stdio_output@@@2@@__crt_stdio_output@@AAEXI@Z 10033e1c f i libucrt:output.obj
 0001:00032e31       ?unset_flag@?$output_processor@DV?$string_output_adapter@D@__crt_stdio_output@@V?$format_validation_base@DV?$string_output_adapter@D@__crt_stdio_output@@@2@@__crt_stdio_output@@AAEXI@Z 10033e31 f i libucrt:output.obj
 0001:00032e46       ?unset_flag@?$output_processor@DV?$string_output_adapter@D@__crt_stdio_output@@V?$positional_parameter_base@DV?$string_output_adapter@D@__crt_stdio_output@@@2@@__crt_stdio_output@@AAEXI@Z 10033e46 f i libucrt:output.obj
 0001:00032e5b       ?unset_flag@?$output_processor@DV?$string_output_adapter@D@__crt_stdio_output@@V?$standard_base@DV?$string_output_adapter@D@__crt_stdio_output@@@2@@__crt_stdio_output@@AAEXI@Z 10033e5b f i libucrt:output.obj
 0001:00032e70       ?unset_flag@?$output_processor@_WV?$stream_output_adapter@_W@__crt_stdio_output@@V?$format_validation_base@_WV?$stream_output_adapter@_W@__crt_stdio_output@@@2@@__crt_stdio_output@@AAEXI@Z 10033e70 f i libucrt:output.obj
 0001:00032e85       ?unset_flag@?$output_processor@_WV?$stream_output_adapter@_W@__crt_stdio_output@@V?$positional_parameter_base@_WV?$stream_output_adapter@_W@__crt_stdio_output@@@2@@__crt_stdio_output@@AAEXI@Z 10033e85 f i libucrt:output.obj
 0001:00032e9a       ?unset_flag@?$output_processor@_WV?$stream_output_adapter@_W@__crt_stdio_output@@V?$standard_base@_WV?$stream_output_adapter@_W@__crt_stdio_output@@@2@@__crt_stdio_output@@AAEXI@Z 10033e9a f i libucrt:output.obj
 0001:00032eaf       ?unset_flag@?$output_processor@_WV?$string_output_adapter@_W@__crt_stdio_output@@V?$format_validation_base@_WV?$string_output_adapter@_W@__crt_stdio_output@@@2@@__crt_stdio_output@@AAEXI@Z 10033eaf f i libucrt:output.obj
 0001:00032ec4       ?unset_flag@?$output_processor@_WV?$string_output_adapter@_W@__crt_stdio_output@@V?$positional_parameter_base@_WV?$string_output_adapter@_W@__crt_stdio_output@@@2@@__crt_stdio_output@@AAEXI@Z 10033ec4 f i libucrt:output.obj
 0001:00032ed9       ?unset_flag@?$output_processor@_WV?$string_output_adapter@_W@__crt_stdio_output@@V?$standard_base@_WV?$string_output_adapter@_W@__crt_stdio_output@@@2@@__crt_stdio_output@@AAEXI@Z 10033ed9 f i libucrt:output.obj
 0001:00032eee       ?update_field_width@?$positional_parameter_base@DV?$stream_output_adapter@D@__crt_stdio_output@@@__crt_stdio_output@@IAE_NXZ 10033eee f i libucrt:output.obj
 0001:00032fd1       ?update_field_width@?$positional_parameter_base@DV?$string_output_adapter@D@__crt_stdio_output@@@__crt_stdio_output@@IAE_NXZ 10033fd1 f i libucrt:output.obj
 0001:000330b4       ?update_field_width@?$positional_parameter_base@_WV?$stream_output_adapter@_W@__crt_stdio_output@@@__crt_stdio_output@@IAE_NXZ 100340b4 f i libucrt:output.obj
 0001:00033198       ?update_field_width@?$positional_parameter_base@_WV?$string_output_adapter@_W@__crt_stdio_output@@@__crt_stdio_output@@IAE_NXZ 10034198 f i libucrt:output.obj
 0001:0003327c       ?update_field_width@?$standard_base@DV?$stream_output_adapter@D@__crt_stdio_output@@@__crt_stdio_output@@IAE_NXZ 1003427c f i libucrt:output.obj
 0001:00033290       ?update_field_width@?$standard_base@DV?$string_output_adapter@D@__crt_stdio_output@@@__crt_stdio_output@@IAE_NXZ 10034290 f i libucrt:output.obj
 0001:000332a4       ?update_field_width@?$standard_base@_WV?$stream_output_adapter@_W@__crt_stdio_output@@@__crt_stdio_output@@IAE_NXZ 100342a4 f i libucrt:output.obj
 0001:000332b8       ?update_field_width@?$standard_base@_WV?$string_output_adapter@_W@__crt_stdio_output@@@__crt_stdio_output@@IAE_NXZ 100342b8 f i libucrt:output.obj
 0001:000332cc       ?update_precision@?$positional_parameter_base@DV?$stream_output_adapter@D@__crt_stdio_output@@@__crt_stdio_output@@IAE_NXZ 100342cc f i libucrt:output.obj
 0001:000333af       ?update_precision@?$positional_parameter_base@DV?$string_output_adapter@D@__crt_stdio_output@@@__crt_stdio_output@@IAE_NXZ 100343af f i libucrt:output.obj
 0001:00033492       ?update_precision@?$positional_parameter_base@_WV?$stream_output_adapter@_W@__crt_stdio_output@@@__crt_stdio_output@@IAE_NXZ 10034492 f i libucrt:output.obj
 0001:00033576       ?update_precision@?$positional_parameter_base@_WV?$string_output_adapter@_W@__crt_stdio_output@@@__crt_stdio_output@@IAE_NXZ 10034576 f i libucrt:output.obj
 0001:0003365a       ?update_precision@?$standard_base@DV?$stream_output_adapter@D@__crt_stdio_output@@@__crt_stdio_output@@IAE_NXZ 1003465a f i libucrt:output.obj
 0001:0003366e       ?update_precision@?$standard_base@DV?$string_output_adapter@D@__crt_stdio_output@@@__crt_stdio_output@@IAE_NXZ 1003466e f i libucrt:output.obj
 0001:00033682       ?update_precision@?$standard_base@_WV?$stream_output_adapter@_W@__crt_stdio_output@@@__crt_stdio_output@@IAE_NXZ 10034682 f i libucrt:output.obj
 0001:00033696       ?update_precision@?$standard_base@_WV?$string_output_adapter@_W@__crt_stdio_output@@@__crt_stdio_output@@IAE_NXZ 10034696 f i libucrt:output.obj
 0001:000336aa       ?valid@__crt_stdio_stream@@QBE_NXZ 100346aa f i libucrt:output.obj
 0001:000336b4       ?validate@?$stream_output_adapter@D@__crt_stdio_output@@QBE_NXZ 100346b4 f i libucrt:output.obj
 0001:000336dd       ?validate@?$stream_output_adapter@_W@__crt_stdio_output@@QBE_NXZ 100346dd f i libucrt:output.obj
 0001:000336fe       ?validate@?$string_output_adapter@D@__crt_stdio_output@@QBE_NXZ 100346fe f i libucrt:output.obj
 0001:0003371f       ?validate@?$string_output_adapter@_W@__crt_stdio_output@@QBE_NXZ 1003471f f i libucrt:output.obj
 0001:00033740       ?validate_and_store_parameter_data@?$positional_parameter_base@DV?$stream_output_adapter@D@__crt_stdio_output@@@__crt_stdio_output@@AAE_NAAUparameter_data@12@W4parameter_type@12@DW4length_modifier@2@@Z 10034740 f i libucrt:output.obj
 0001:0003379d       ?validate_and_store_parameter_data@?$positional_parameter_base@DV?$string_output_adapter@D@__crt_stdio_output@@@__crt_stdio_output@@AAE_NAAUparameter_data@12@W4parameter_type@12@DW4length_modifier@2@@Z 1003479d f i libucrt:output.obj
 0001:000337fa       ?validate_and_store_parameter_data@?$positional_parameter_base@_WV?$stream_output_adapter@_W@__crt_stdio_output@@@__crt_stdio_output@@AAE_NAAUparameter_data@12@W4parameter_type@12@_WW4length_modifier@2@@Z 100347fa f i libucrt:output.obj
 0001:0003385a       ?validate_and_store_parameter_data@?$positional_parameter_base@_WV?$string_output_adapter@_W@__crt_stdio_output@@@__crt_stdio_output@@AAE_NAAUparameter_data@12@W4parameter_type@12@_WW4length_modifier@2@@Z 1003485a f i libucrt:output.obj
 0001:000338ba       ?validate_and_update_state_at_beginning_of_format_character@?$positional_parameter_base@DV?$stream_output_adapter@D@__crt_stdio_output@@@__crt_stdio_output@@IAE_NXZ 100348ba f i libucrt:output.obj
 0001:000339f0       ?validate_and_update_state_at_beginning_of_format_character@?$positional_parameter_base@DV?$string_output_adapter@D@__crt_stdio_output@@@__crt_stdio_output@@IAE_NXZ 100349f0 f i libucrt:output.obj
 0001:00033b26       ?validate_and_update_state_at_beginning_of_format_character@?$positional_parameter_base@_WV?$stream_output_adapter@_W@__crt_stdio_output@@@__crt_stdio_output@@IAE_NXZ 10034b26 f i libucrt:output.obj
 0001:00033c68       ?validate_and_update_state_at_beginning_of_format_character@?$positional_parameter_base@_WV?$string_output_adapter@_W@__crt_stdio_output@@@__crt_stdio_output@@IAE_NXZ 10034c68 f i libucrt:output.obj
 0001:00033daa       ?validate_and_update_state_at_beginning_of_format_character@?$standard_base@DV?$stream_output_adapter@D@__crt_stdio_output@@@__crt_stdio_output@@IAE_NXZ 10034daa f i libucrt:output.obj
 0001:00033dad       ?validate_and_update_state_at_beginning_of_format_character@?$standard_base@DV?$string_output_adapter@D@__crt_stdio_output@@@__crt_stdio_output@@IAE_NXZ 10034dad f i libucrt:output.obj
 0001:00033db0       ?validate_and_update_state_at_beginning_of_format_character@?$standard_base@_WV?$stream_output_adapter@_W@__crt_stdio_output@@@__crt_stdio_output@@IAE_NXZ 10034db0 f i libucrt:output.obj
 0001:00033db3       ?validate_and_update_state_at_beginning_of_format_character@?$standard_base@_WV?$string_output_adapter@_W@__crt_stdio_output@@@__crt_stdio_output@@IAE_NXZ 10034db3 f i libucrt:output.obj
 0001:00033db6       ?validate_and_update_state_at_end_of_format_string@?$format_validation_base@DV?$stream_output_adapter@D@__crt_stdio_output@@@__crt_stdio_output@@IBE_NXZ 10034db6 f i libucrt:output.obj
 0001:00033de0       ?validate_and_update_state_at_end_of_format_string@?$format_validation_base@DV?$string_output_adapter@D@__crt_stdio_output@@@__crt_stdio_output@@IBE_NXZ 10034de0 f i libucrt:output.obj
 0001:00033e0a       ?validate_and_update_state_at_end_of_format_string@?$format_validation_base@_WV?$stream_output_adapter@_W@__crt_stdio_output@@@__crt_stdio_output@@IBE_NXZ 10034e0a f i libucrt:output.obj
 0001:00033e34       ?validate_and_update_state_at_end_of_format_string@?$format_validation_base@_WV?$string_output_adapter@_W@__crt_stdio_output@@@__crt_stdio_output@@IBE_NXZ 10034e34 f i libucrt:output.obj
 0001:00033e5e       ?validate_and_update_state_at_end_of_format_string@?$positional_parameter_base@DV?$stream_output_adapter@D@__crt_stdio_output@@@__crt_stdio_output@@IAE_NXZ 10034e5e f i libucrt:output.obj
 0001:00033efe       ?validate_and_update_state_at_end_of_format_string@?$positional_parameter_base@DV?$string_output_adapter@D@__crt_stdio_output@@@__crt_stdio_output@@IAE_NXZ 10034efe f i libucrt:output.obj
 0001:00033f9e       ?validate_and_update_state_at_end_of_format_string@?$positional_parameter_base@_WV?$stream_output_adapter@_W@__crt_stdio_output@@@__crt_stdio_output@@IAE_NXZ 10034f9e f i libucrt:output.obj
 0001:0003403e       ?validate_and_update_state_at_end_of_format_string@?$positional_parameter_base@_WV?$string_output_adapter@_W@__crt_stdio_output@@@__crt_stdio_output@@IAE_NXZ 1003503e f i libucrt:output.obj
 0001:000340de       ?validate_and_update_state_at_end_of_format_string@?$standard_base@DV?$stream_output_adapter@D@__crt_stdio_output@@@__crt_stdio_output@@IBE_NXZ 100350de f i libucrt:output.obj
 0001:000340e1       ?validate_and_update_state_at_end_of_format_string@?$standard_base@DV?$string_output_adapter@D@__crt_stdio_output@@@__crt_stdio_output@@IBE_NXZ 100350e1 f i libucrt:output.obj
 0001:000340e4       ?validate_and_update_state_at_end_of_format_string@?$standard_base@_WV?$stream_output_adapter@_W@__crt_stdio_output@@@__crt_stdio_output@@IBE_NXZ 100350e4 f i libucrt:output.obj
 0001:000340e7       ?validate_and_update_state_at_end_of_format_string@?$standard_base@_WV?$string_output_adapter@_W@__crt_stdio_output@@@__crt_stdio_output@@IBE_NXZ 100350e7 f i libucrt:output.obj
 0001:000340ea       ?validate_state_for_type_case_a@?$positional_parameter_base@DV?$stream_output_adapter@D@__crt_stdio_output@@@__crt_stdio_output@@IAE_NXZ 100350ea f i libucrt:output.obj
 0001:00034151       ?validate_state_for_type_case_a@?$positional_parameter_base@DV?$string_output_adapter@D@__crt_stdio_output@@@__crt_stdio_output@@IAE_NXZ 10035151 f i libucrt:output.obj
 0001:000341b8       ?validate_state_for_type_case_a@?$positional_parameter_base@_WV?$stream_output_adapter@_W@__crt_stdio_output@@@__crt_stdio_output@@IAE_NXZ 100351b8 f i libucrt:output.obj
 0001:0003421f       ?validate_state_for_type_case_a@?$positional_parameter_base@_WV?$string_output_adapter@_W@__crt_stdio_output@@@__crt_stdio_output@@IAE_NXZ 1003521f f i libucrt:output.obj
 0001:00034286       ?validate_state_for_type_case_a@?$standard_base@DV?$stream_output_adapter@D@__crt_stdio_output@@@__crt_stdio_output@@IBE_NXZ 10035286 f i libucrt:output.obj
 0001:00034289       ?validate_state_for_type_case_a@?$standard_base@DV?$string_output_adapter@D@__crt_stdio_output@@@__crt_stdio_output@@IBE_NXZ 10035289 f i libucrt:output.obj
 0001:0003428c       ?validate_state_for_type_case_a@?$standard_base@_WV?$stream_output_adapter@_W@__crt_stdio_output@@@__crt_stdio_output@@IBE_NXZ 1003528c f i libucrt:output.obj
 0001:0003428f       ?validate_state_for_type_case_a@?$standard_base@_WV?$string_output_adapter@_W@__crt_stdio_output@@@__crt_stdio_output@@IBE_NXZ 1003528f f i libucrt:output.obj
 0001:00034292       ?validate_stream_is_ansi_if_required@?$__acrt_stdio_char_traits@D@@SA_NQAU_iobuf@@@Z 10035292 f i libucrt:output.obj
 0001:00034334       ?validate_stream_is_ansi_if_required@?$__acrt_stdio_char_traits@_W@@SA_NQAU_iobuf@@@Z 10035334 f i libucrt:output.obj
 0001:00034337       ?wide_null_string@?$output_processor@DV?$stream_output_adapter@D@__crt_stdio_output@@V?$format_validation_base@DV?$stream_output_adapter@D@__crt_stdio_output@@@2@@__crt_stdio_output@@CAPA_WXZ 10035337 f i libucrt:output.obj
 0001:0003433d       ?wide_null_string@?$output_processor@DV?$stream_output_adapter@D@__crt_stdio_output@@V?$positional_parameter_base@DV?$stream_output_adapter@D@__crt_stdio_output@@@2@@__crt_stdio_output@@CAPA_WXZ 1003533d f i libucrt:output.obj
 0001:00034343       ?wide_null_string@?$output_processor@DV?$stream_output_adapter@D@__crt_stdio_output@@V?$standard_base@DV?$stream_output_adapter@D@__crt_stdio_output@@@2@@__crt_stdio_output@@CAPA_WXZ 10035343 f i libucrt:output.obj
 0001:00034349       ?wide_null_string@?$output_processor@DV?$string_output_adapter@D@__crt_stdio_output@@V?$format_validation_base@DV?$string_output_adapter@D@__crt_stdio_output@@@2@@__crt_stdio_output@@CAPA_WXZ 10035349 f i libucrt:output.obj
 0001:0003434f       ?wide_null_string@?$output_processor@DV?$string_output_adapter@D@__crt_stdio_output@@V?$positional_parameter_base@DV?$string_output_adapter@D@__crt_stdio_output@@@2@@__crt_stdio_output@@CAPA_WXZ 1003534f f i libucrt:output.obj
 0001:00034355       ?wide_null_string@?$output_processor@DV?$string_output_adapter@D@__crt_stdio_output@@V?$standard_base@DV?$string_output_adapter@D@__crt_stdio_output@@@2@@__crt_stdio_output@@CAPA_WXZ 10035355 f i libucrt:output.obj
 0001:0003435b       ?wide_null_string@?$output_processor@_WV?$stream_output_adapter@_W@__crt_stdio_output@@V?$format_validation_base@_WV?$stream_output_adapter@_W@__crt_stdio_output@@@2@@__crt_stdio_output@@CAPA_WXZ 1003535b f i libucrt:output.obj
 0001:00034361       ?wide_null_string@?$output_processor@_WV?$stream_output_adapter@_W@__crt_stdio_output@@V?$positional_parameter_base@_WV?$stream_output_adapter@_W@__crt_stdio_output@@@2@@__crt_stdio_output@@CAPA_WXZ 10035361 f i libucrt:output.obj
 0001:00034367       ?wide_null_string@?$output_processor@_WV?$stream_output_adapter@_W@__crt_stdio_output@@V?$standard_base@_WV?$stream_output_adapter@_W@__crt_stdio_output@@@2@@__crt_stdio_output@@CAPA_WXZ 10035367 f i libucrt:output.obj
 0001:0003436d       ?wide_null_string@?$output_processor@_WV?$string_output_adapter@_W@__crt_stdio_output@@V?$format_validation_base@_WV?$string_output_adapter@_W@__crt_stdio_output@@@2@@__crt_stdio_output@@CAPA_WXZ 1003536d f i libucrt:output.obj
 0001:00034373       ?wide_null_string@?$output_processor@_WV?$string_output_adapter@_W@__crt_stdio_output@@V?$positional_parameter_base@_WV?$string_output_adapter@_W@__crt_stdio_output@@@2@@__crt_stdio_output@@CAPA_WXZ 10035373 f i libucrt:output.obj
 0001:00034379       ?wide_null_string@?$output_processor@_WV?$string_output_adapter@_W@__crt_stdio_output@@V?$standard_base@_WV?$string_output_adapter@_W@__crt_stdio_output@@@2@@__crt_stdio_output@@CAPA_WXZ 10035379 f i libucrt:output.obj
 0001:0003437f       ?write_character@?$stream_output_adapter@D@__crt_stdio_output@@QBEXDQAH@Z 1003537f f i libucrt:output.obj
 0001:000343cb       ?write_character@?$stream_output_adapter@_W@__crt_stdio_output@@QBEX_WQAH@Z 100353cb f i libucrt:output.obj
 0001:0003441b       ?write_character@?$string_output_adapter@D@__crt_stdio_output@@QBE_NDQAH@Z 1003541b f i libucrt:output.obj
 0001:0003446d       ?write_character@?$string_output_adapter@_W@__crt_stdio_output@@QBE_N_WQAH@Z 1003546d f i libucrt:output.obj
 0001:000344c3       ?write_stored_string_tchar@?$output_processor@DV?$stream_output_adapter@D@__crt_stdio_output@@V?$format_validation_base@DV?$stream_output_adapter@D@__crt_stdio_output@@@2@@__crt_stdio_output@@AAE_ND@Z 100354c3 f i libucrt:output.obj
 0001:00034593       ?write_stored_string_tchar@?$output_processor@DV?$stream_output_adapter@D@__crt_stdio_output@@V?$positional_parameter_base@DV?$stream_output_adapter@D@__crt_stdio_output@@@2@@__crt_stdio_output@@AAE_ND@Z 10035593 f i libucrt:output.obj
 0001:00034663       ?write_stored_string_tchar@?$output_processor@DV?$stream_output_adapter@D@__crt_stdio_output@@V?$standard_base@DV?$stream_output_adapter@D@__crt_stdio_output@@@2@@__crt_stdio_output@@AAE_ND@Z 10035663 f i libucrt:output.obj
 0001:00034733       ?write_stored_string_tchar@?$output_processor@DV?$string_output_adapter@D@__crt_stdio_output@@V?$format_validation_base@DV?$string_output_adapter@D@__crt_stdio_output@@@2@@__crt_stdio_output@@AAE_ND@Z 10035733 f i libucrt:output.obj
 0001:00034803       ?write_stored_string_tchar@?$output_processor@DV?$string_output_adapter@D@__crt_stdio_output@@V?$positional_parameter_base@DV?$string_output_adapter@D@__crt_stdio_output@@@2@@__crt_stdio_output@@AAE_ND@Z 10035803 f i libucrt:output.obj
 0001:000348d3       ?write_stored_string_tchar@?$output_processor@DV?$string_output_adapter@D@__crt_stdio_output@@V?$standard_base@DV?$string_output_adapter@D@__crt_stdio_output@@@2@@__crt_stdio_output@@AAE_ND@Z 100358d3 f i libucrt:output.obj
 0001:000349a3       ?write_stored_string_tchar@?$output_processor@_WV?$stream_output_adapter@_W@__crt_stdio_output@@V?$format_validation_base@_WV?$stream_output_adapter@_W@__crt_stdio_output@@@2@@__crt_stdio_output@@AAE_N_W@Z 100359a3 f i libucrt:output.obj
 0001:00034a50       ?write_stored_string_tchar@?$output_processor@_WV?$stream_output_adapter@_W@__crt_stdio_output@@V?$positional_parameter_base@_WV?$stream_output_adapter@_W@__crt_stdio_output@@@2@@__crt_stdio_output@@AAE_N_W@Z 10035a50 f i libucrt:output.obj
 0001:00034afd       ?write_stored_string_tchar@?$output_processor@_WV?$stream_output_adapter@_W@__crt_stdio_output@@V?$standard_base@_WV?$stream_output_adapter@_W@__crt_stdio_output@@@2@@__crt_stdio_output@@AAE_N_W@Z 10035afd f i libucrt:output.obj
 0001:00034baa       ?write_stored_string_tchar@?$output_processor@_WV?$string_output_adapter@_W@__crt_stdio_output@@V?$format_validation_base@_WV?$string_output_adapter@_W@__crt_stdio_output@@@2@@__crt_stdio_output@@AAE_N_W@Z 10035baa f i libucrt:output.obj
 0001:00034c57       ?write_stored_string_tchar@?$output_processor@_WV?$string_output_adapter@_W@__crt_stdio_output@@V?$positional_parameter_base@_WV?$string_output_adapter@_W@__crt_stdio_output@@@2@@__crt_stdio_output@@AAE_N_W@Z 10035c57 f i libucrt:output.obj
 0001:00034d04       ?write_stored_string_tchar@?$output_processor@_WV?$string_output_adapter@_W@__crt_stdio_output@@V?$standard_base@_WV?$string_output_adapter@_W@__crt_stdio_output@@@2@@__crt_stdio_output@@AAE_N_W@Z 10035d04 f i libucrt:output.obj
 0001:00034db1       ?write_string@?$stream_output_adapter@D@__crt_stdio_output@@QBEXQBDHQAH1@Z 10035db1 f i libucrt:output.obj
 0001:00034e5d       ?write_string@?$stream_output_adapter@_W@__crt_stdio_output@@QBEXQB_WHQAH1@Z 10035e5d f i libucrt:output.obj
 0001:00034f0d       ?write_string@?$string_output_adapter@D@__crt_stdio_output@@QBEXQBDHQAH1@Z 10035f0d f i libucrt:output.obj
 0001:00034fc4       ?write_string@?$string_output_adapter@_W@__crt_stdio_output@@QBEXQB_WHQAH1@Z 10035fc4 f i libucrt:output.obj
 0001:00035084       ___acrt_isleadbyte_l_noupdate 10036084 f i libucrt:output.obj
 0001:000350a5       ___acrt_locale_changed     100360a5 f i libucrt:output.obj
 0001:000350b6       ___stdio_common_vfprintf   100360b6 f   libucrt:output.obj
 0001:0003514a       ___stdio_common_vfprintf_p 1003614a f   libucrt:output.obj
 0001:000351de       ___stdio_common_vfprintf_s 100361de f   libucrt:output.obj
 0001:00035272       ___stdio_common_vfwprintf  10036272 f   libucrt:output.obj
 0001:00035306       ___stdio_common_vfwprintf_p 10036306 f   libucrt:output.obj
 0001:0003539a       ___stdio_common_vfwprintf_s 1003639a f   libucrt:output.obj
 0001:0003542e       ___stdio_common_vsnprintf_s 1003642e f   libucrt:output.obj
 0001:0003545e       ___stdio_common_vsnwprintf_s 1003645e f   libucrt:output.obj
 0001:0003548e       ___stdio_common_vsprintf   1003648e f   libucrt:output.obj
 0001:000354bb       ___stdio_common_vsprintf_p 100364bb f   libucrt:output.obj
 0001:000354e8       ___stdio_common_vsprintf_s 100364e8 f   libucrt:output.obj
 0001:00035515       ___stdio_common_vswprintf  10036515 f   libucrt:output.obj
 0001:00035542       ___stdio_common_vswprintf_p 10036542 f   libucrt:output.obj
 0001:0003556f       ___stdio_common_vswprintf_s 1003656f f   libucrt:output.obj
 0001:0003559c       _calloc                    1003659c f   libucrt:calloc.obj
 0001:000355a9       _free                      100365a9 f   libucrt:free.obj
 0001:000355ae       ??$__vcrt_va_start_verify_argument_type@QB_W@@YAXXZ 100365ae f i libucrt:assert.obj
 0001:0003654b       ??$ftprintf@PAU_iobuf@@PBDABQBDABQBDABI@?$__crt_char_traits@D@@SAH$$QAPAU_iobuf@@$$QAPBDABQBD2ABI@Z 1003754b f i libucrt:assert.obj
 0001:0003657d       ??$ftprintf@PAU_iobuf@@PB_WABQB_WABQB_WABI@?$__crt_char_traits@_W@@SAH$$QAPAU_iobuf@@$$QAPB_WABQB_W2ABI@Z 1003757d f i libucrt:assert.obj
 0001:000365af       ??$get_module_file_name@AAPAUHINSTANCE__@@AAY0BAF@DK@?$__crt_char_traits@D@@SAKAAPAUHINSTANCE__@@AAY0BAF@D$$QAK@Z 100375af f i libucrt:assert.obj
 0001:000365cf       ??$get_module_file_name@AAPAUHINSTANCE__@@AAY0BAF@_WK@?$__crt_char_traits@_W@@SAKAAPAUHINSTANCE__@@AAY0BAF@_W$$QAK@Z 100375cf f i libucrt:assert.obj
 0001:000365ef       ??$itot_s@ABIQAD$$CBIH@?$__crt_char_traits@D@@SAHABI$$QBQAD$$QBI$$QAH@Z 100375ef f i libucrt:assert.obj
 0001:0003661a       ??$itot_s@ABIQA_W$$CBIH@?$__crt_char_traits@_W@@SAHABI$$QBQA_W$$QBI$$QAH@Z 1003761a f i libucrt:assert.obj
 0001:00036645       ??$show_message_box@AAY0CEA@DPBDJ@?$__crt_char_traits@D@@SAHAAY0CEA@D$$QAPBD$$QAJ@Z 10037645 f i libucrt:assert.obj
 0001:00036668       ??$show_message_box@AAY0CEA@_WPB_WJ@?$__crt_char_traits@_W@@SAHAAY0CEA@_W$$QAPB_W$$QAJ@Z 10037668 f i libucrt:assert.obj
 0001:0003668b       ??$tcscat_s@ABQADABIAAPAD@?$__crt_char_traits@D@@SAHABQADABIAAPAD@Z 1003768b f i libucrt:assert.obj
 0001:000366b0       ??$tcscat_s@ABQADABIABQBD@?$__crt_char_traits@D@@SAHABQADABIABQBD@Z 100376b0 f i libucrt:assert.obj
 0001:000366d5       ??$tcscat_s@ABQADABIPBD@?$__crt_char_traits@D@@SAHABQADABI$$QAPBD@Z 100376d5 f i libucrt:assert.obj
 0001:000366fa       ??$tcscat_s@ABQA_WABIAAPA_W@?$__crt_char_traits@_W@@SAHABQA_WABIAAPA_W@Z 100376fa f i libucrt:assert.obj
 0001:0003671f       ??$tcscat_s@ABQA_WABIABQB_W@?$__crt_char_traits@_W@@SAHABQA_WABIABQB_W@Z 1003771f f i libucrt:assert.obj
 0001:00036744       ??$tcscat_s@ABQA_WABIPB_W@?$__crt_char_traits@_W@@SAHABQA_WABI$$QAPB_W@Z 10037744 f i libucrt:assert.obj
 0001:00036769       ??$tcscpy_s@AAY0BAF@DIPBD@?$__crt_char_traits@D@@SAHAAY0BAF@D$$QAI$$QAPBD@Z 10037769 f i libucrt:assert.obj
 0001:0003678c       ??$tcscpy_s@AAY0BAF@_WIPB_W@?$__crt_char_traits@_W@@SAHAAY0BAF@_W$$QAI$$QAPB_W@Z 1003778c f i libucrt:assert.obj
 0001:000367af       ??$tcscpy_s@ABQADABIPBD@?$__crt_char_traits@D@@SAHABQADABI$$QAPBD@Z 100377af f i libucrt:assert.obj
 0001:000367d4       ??$tcscpy_s@ABQA_WABIPB_W@?$__crt_char_traits@_W@@SAHABQA_WABI$$QAPB_W@Z 100377d4 f i libucrt:assert.obj
 0001:000367f9       ??$tcslen@AAY0BAF@D@?$__crt_char_traits@D@@SAIAAY0BAF@D@Z 100377f9 f i libucrt:assert.obj
 0001:00036814       ??$tcslen@AAY0BAF@_W@?$__crt_char_traits@_W@@SAIAAY0BAF@_W@Z 10037814 f i libucrt:assert.obj
 0001:00036837       ??$tcslen@ABQAD@?$__crt_char_traits@D@@SAIABQAD@Z 10037837 f i libucrt:assert.obj
 0001:00036855       ??$tcslen@ABQA_W@?$__crt_char_traits@_W@@SAIABQA_W@Z 10037855 f i libucrt:assert.obj
 0001:0003687a       ??$tcslen@ABQBD@?$__crt_char_traits@D@@SAIABQBD@Z 1003787a f i libucrt:assert.obj
 0001:00036898       ??$tcslen@ABQB_W@?$__crt_char_traits@_W@@SAIABQB_W@Z 10037898 f i libucrt:assert.obj
 0001:000368bd       ??$tcsncat_s@ABQADABIAAPBD$$CBI@?$__crt_char_traits@D@@SAHABQADABIAAPBD$$QBI@Z 100378bd f i libucrt:assert.obj
 0001:000368e8       ??$tcsncat_s@ABQADABIABQBDABI@?$__crt_char_traits@D@@SAHABQADABIABQBD1@Z 100378e8 f i libucrt:assert.obj
 0001:00036913       ??$tcsncat_s@ABQADABIPBD$$CBI@?$__crt_char_traits@D@@SAHABQADABI$$QAPBD$$QBI@Z 10037913 f i libucrt:assert.obj
 0001:0003693e       ??$tcsncat_s@ABQA_WABIAAPB_W$$CBI@?$__crt_char_traits@_W@@SAHABQA_WABIAAPB_W$$QBI@Z 1003793e f i libucrt:assert.obj
 0001:00036969       ??$tcsncat_s@ABQA_WABIABQB_WABI@?$__crt_char_traits@_W@@SAHABQA_WABIABQB_W1@Z 10037969 f i libucrt:assert.obj
 0001:00036994       ??$tcsncat_s@ABQA_WABIPB_W$$CBI@?$__crt_char_traits@_W@@SAHABQA_WABI$$QAPB_W$$QBI@Z 10037994 f i libucrt:assert.obj
 0001:00036b39       ?has_any_buffer@__crt_stdio_stream@@QBE_NXZ 10037b39 f i libucrt:assert.obj
 0001:00036b4e       ?has_any_of@__crt_stdio_stream@@QBE_NJ@Z 10037b4e f i libucrt:assert.obj
 0001:00036b6a       __assert                   10037b6a f   libucrt:assert.obj
 0001:00036bc4       __invoke_watson_if_error   10037bc4 f i libucrt:assert.obj
 0001:00036bee       __vfwprintf_l              10037bee f i libucrt:assert.obj
 0001:00036c1c       __vswprintf_c_l            10037c1c f i libucrt:assert.obj
 0001:00036c56       __wassert                  10037c56 f   libucrt:assert.obj
 0001:00036cb0       _fwprintf                  10037cb0 f i libucrt:assert.obj
 0001:00036d72       _swprintf                  10037d72 f i libucrt:assert.obj
 0001:00036d97       _realloc                   10037d97 f   libucrt:realloc.obj
 0001:00036da4       ??$?B$$A6GXPAXK0@Z@__crt_fast_encoded_nullptr_t@@QBEP6GXPAXK0@ZXZ 10037da4 f i libucrt:exit.obj
 0001:00036dc2       ??$__crt_fast_decode_pointer@P6GXPAXK0@Z@@YAP6GXPAXK0@ZQ6GX0K0@Z@Z 10037dc2 f i libucrt:exit.obj
 0001:00036ddd       ??$__crt_fast_encode_pointer@P6GXPAXK0@Z@@YAP6GXPAXK0@ZQ6GX0K0@Z@Z 10037ddd f i libucrt:exit.obj
 0001:00036e03       ??$__crt_get_proc_address@P6GXI@Z@@YAP6GXI@ZQAUHINSTANCE__@@QBD@Z 10037e03 f i libucrt:exit.obj
 0001:00036e1a       ??0?$__crt_unique_handle_t@U__crt_hmodule_traits@@@@QAE@QAUHINSTANCE__@@@Z 10037e1a f i libucrt:exit.obj
 0001:00036e2e       ??1?$__crt_unique_handle_t@U__crt_hmodule_traits@@@@QAE@XZ 10037e2e f i libucrt:exit.obj
 0001:00036e61       ?close@?$__crt_unique_handle_t@U__crt_hmodule_traits@@@@QAEXXZ 10037e61 f i libucrt:exit.obj
 0001:00036e7d       ?close@__crt_hmodule_traits@@SA_NPAUHINSTANCE__@@@Z 10037e7d f i libucrt:exit.obj
 0001:00037048       ?get@?$__crt_unique_handle_t@U__crt_hmodule_traits@@@@QBEPAUHINSTANCE__@@XZ 10038048 f i libucrt:exit.obj
 0001:0003704b       ?get_address_of@?$__crt_unique_handle_t@U__crt_hmodule_traits@@@@QAEPAPAUHINSTANCE__@@XZ 1003804b f i libucrt:exit.obj
 0001:0003704e       ?get_invalid_value@__crt_hmodule_traits@@SAPAUHINSTANCE__@@XZ 1003804e f i libucrt:exit.obj
 0001:0003714b       __Exit                     1003814b f   libucrt:exit.obj
 0001:00037166       ___acrt_initialize_thread_local_exit_callback 10038166 f   libucrt:exit.obj
 0001:00037178       __c_exit                   10038178 f   libucrt:exit.obj
 0001:0003718a       __cexit                    1003818a f   libucrt:exit.obj
 0001:0003719c       __exit                     1003819c f   libucrt:exit.obj
 0001:000371b7       __is_c_termination_complete 100381b7 f   libucrt:exit.obj
 0001:000371bd       __register_thread_local_exe_atexit_callback 100381bd f   libucrt:exit.obj
 0001:00037203       _exit                      10038203 f   libucrt:exit.obj
 0001:0003721e       _quick_exit                1003821e f   libucrt:exit.obj
 0001:00037240       _strncat                   10038240 f   libucrt:strncat.obj
 0001:000373d0       _strncpy                   100383d0 f   libucrt:strncpy.obj
 0001:0003753d       ?is_in_use@__crt_stdio_stream@@QBE_NXZ 1003853d f i libucrt:fclose.obj
 0001:0003754c       __fclose_nolock            1003854c f   libucrt:fclose.obj
 0001:000375df       _fclose                    100385df f   libucrt:fclose.obj
 0001:00037911       ??$open_file@ABQBDABQBDABHPAU_iobuf@@@?$__crt_char_traits@D@@SAPAU_iobuf@@ABQBD0ABH$$QAPAU1@@Z 10038911 f i libucrt:fopen.obj
 0001:0003793c       ??$open_file@ABQB_WABQB_WABHPAU_iobuf@@@?$__crt_char_traits@_W@@SAPAU_iobuf@@ABQB_W0ABH$$QAPAU1@@Z 1003893c f i libucrt:fopen.obj
 0001:00037967       ?unlock@__crt_stdio_stream@@QBEXXZ 10038967 f i libucrt:fopen.obj
 0001:00037972       __fsopen                   10038972 f   libucrt:fopen.obj
 0001:0003797f       __wfopen                   1003897f f   libucrt:fopen.obj
 0001:0003799b       __wfopen_s                 1003899b f   libucrt:fopen.obj
 0001:000379f3       __wfsopen                  100389f3 f   libucrt:fopen.obj
 0001:00037a00       _fopen                     10038a00 f   libucrt:fopen.obj
 0001:00037a1c       _fopen_s                   10038a1c f   libucrt:fopen.obj
 0001:00037a74       ?set_flags@__crt_stdio_stream@@QBE_NJ@Z 10038a74 f i libucrt:fread.obj
 0001:00037aa4       __fread_nolock             10038aa4 f   libucrt:fread.obj
 0001:00037ac8       __fread_nolock_s           10038ac8 f   libucrt:fread.obj
 0001:00037d07       _fread                     10038d07 f   libucrt:fread.obj
 0001:00037d2b       _fread_s                   10038d2b f   libucrt:fread.obj
 0001:00037e83       ??$?RV<lambda_11b4f7b0d3157825a5656a18eba1ae27>@@AAV<lambda_b51c0495177f500e782686251704ae76>@@V<lambda_cf89b47920b5017557bfe891e78aca36>@@@?$__crt_seh_guarded_call@I@@QAEI$$QAV<lambda_11b4f7b0d3157825a5656a18eba1ae27>@@AAV<lambda_b51c0495177f500e782686251704ae76>@@$$QAV<lambda_cf89b47920b5017557bfe891e78aca36>@@@Z 10038e83 f i libucrt:fwrite.obj
 0001:00037ee8       ??$__acrt_lock_stream_and_call@V<lambda_b51c0495177f500e782686251704ae76>@@@@YAIQAU_iobuf@@$$QAV<lambda_b51c0495177f500e782686251704ae76>@@@Z 10038ee8 f i libucrt:fwrite.obj
 0001:00037fdd       ?has_big_buffer@__crt_stdio_stream@@QBE_NXZ 10038fdd f i libucrt:fwrite.obj
 0001:00037fee       __fwrite_nolock            10038fee f   libucrt:fwrite.obj
 0001:000381c5       _fwrite                    100391c5 f   libucrt:fwrite.obj
 0001:00038233       ??$?R_W@__crt_internal_free_policy@@QBEXQB_W@Z 10039233 f i libucrt:unlink.obj
 0001:00038249       ??0?$__crt_unique_heap_ptr@_WU__crt_internal_free_policy@@@@QAE@QA_W@Z 10039249 f i libucrt:unlink.obj
 0001:0003825d       ??1?$__crt_unique_heap_ptr@_WU__crt_internal_free_policy@@@@QAE@XZ 1003925d f i libucrt:unlink.obj
 0001:00038273       ?get@?$__crt_unique_heap_ptr@_WU__crt_internal_free_policy@@@@QBEPA_WXZ 10039273 f i libucrt:unlink.obj
 0001:00038276       ?get_address_of@?$__crt_unique_heap_ptr@_WU__crt_internal_free_policy@@@@QAEPAPA_WXZ 10039276 f i libucrt:unlink.obj
 0001:00038279       ?release@?$__crt_unique_heap_ptr@_WU__crt_internal_free_policy@@@@QAEXXZ 10039279 f i libucrt:unlink.obj
 0001:0003828f       __unlink                   1003928f f   libucrt:unlink.obj
 0001:0003829c       _remove                    1003929c f   libucrt:unlink.obj
 0001:000382fc       ?__acrt_stdio_reset_buffer@@YAXV__crt_stdio_stream@@@Z 100392fc f i libucrt:rewind.obj
 0001:00038317       ?has_all_of@__crt_stdio_stream@@QBE_NJ@Z 10039317 f i libucrt:rewind.obj
 0001:00038336       ?unset_flags@__crt_stdio_stream@@QBE_NJ@Z 10039336 f i libucrt:rewind.obj
 0001:0003836a       _rewind                    1003936a f   libucrt:rewind.obj
 0001:0003846b       _ldexp                     1003946b f   libucrt:ldexp.obj
 0001:000386cb       __errcode                  100396cb f   libucrt:fpexcept.obj
 0001:0003870c       __except1                  1003970c f   libucrt:fpexcept.obj
 0001:0003880d       __except2                  1003980d f   libucrt:fpexcept.obj
 0001:00038956       __handle_exc               10039956 f   libucrt:fpexcept.obj
 0001:00038bae       __handle_qnan2             10039bae f   libucrt:fpexcept.obj
 0001:00038bbe       __raise_exc                10039bbe f   libucrt:fpexcept.obj
 0001:00038be9       __raise_exc_ex             10039be9 f   libucrt:fpexcept.obj
 0001:00038f96       __raise_excf               10039f96 f   libucrt:fpexcept.obj
 0001:00038fc1       __set_errno_from_matherr   10039fc1 f   libucrt:fpexcept.obj
 0001:00038ffb       __umatherr                 10039ffb f   libucrt:fpexcept.obj
 0001:000390c5       __initterm                 1003a0c5 f   libucrt:initterm.obj
 0001:00039138       __initterm_e               1003a138 f   libucrt:initterm.obj
 0001:000391bb       __seh_filter_dll           1003a1bb f   libucrt:exception_filter.obj
 0001:000391e3       __seh_filter_exe           1003a1e3 f   libucrt:exception_filter.obj
 0001:000393b2       ??$?RE@__crt_internal_free_policy@@QBEXQBE@Z 1003a3b2 f i libucrt:argv_parsing.obj
 0001:000393c8       ??$?RPAD@__crt_internal_free_policy@@QBEXQBQAD@Z 1003a3c8 f i libucrt:argv_parsing.obj
 0001:000393de       ??$?RPA_W@__crt_internal_free_policy@@QBEXQBQA_W@Z 1003a3de f i libucrt:argv_parsing.obj
 0001:000396c7       ??$get_module_file_name@$$TAAY0BAF@DH@?$__crt_char_traits@D@@SAK$$QA$$TAAY0BAF@D$$QAH@Z 1003a6c7 f i libucrt:argv_parsing.obj
 0001:000396e7       ??$get_module_file_name@$$TAAY0BAF@_WH@?$__crt_char_traits@_W@@SAK$$QA$$TAAY0BAF@_W$$QAH@Z 1003a6e7 f i libucrt:argv_parsing.obj
 0001:00039ac0       ??$set_program_name@PAD@?$__crt_char_traits@D@@SAX$$QAPAD@Z 1003aac0 f i libucrt:argv_parsing.obj
 0001:00039ad5       ??$set_program_name@PA_W@?$__crt_char_traits@_W@@SAX$$QAPA_W@Z 1003aad5 f i libucrt:argv_parsing.obj
 0001:00039b12       ??0?$__crt_unique_heap_ptr@EU__crt_internal_free_policy@@@@QAE@QAE@Z 1003ab12 f i libucrt:argv_parsing.obj
 0001:00039b26       ??0?$__crt_unique_heap_ptr@PADU__crt_internal_free_policy@@@@QAE@QAPAD@Z 1003ab26 f i libucrt:argv_parsing.obj
 0001:00039b3a       ??0?$__crt_unique_heap_ptr@PA_WU__crt_internal_free_policy@@@@QAE@QAPA_W@Z 1003ab3a f i libucrt:argv_parsing.obj
 0001:00039b4e       ??1?$__crt_unique_heap_ptr@EU__crt_internal_free_policy@@@@QAE@XZ 1003ab4e f i libucrt:argv_parsing.obj
 0001:00039b64       ??1?$__crt_unique_heap_ptr@PADU__crt_internal_free_policy@@@@QAE@XZ 1003ab64 f i libucrt:argv_parsing.obj
 0001:00039b7a       ??1?$__crt_unique_heap_ptr@PA_WU__crt_internal_free_policy@@@@QAE@XZ 1003ab7a f i libucrt:argv_parsing.obj
 0001:00039b90       ??B?$__crt_unique_heap_ptr@EU__crt_internal_free_policy@@@@QBE_NXZ 1003ab90 f i libucrt:argv_parsing.obj
 0001:00039bd0       ?detach@?$__crt_unique_heap_ptr@EU__crt_internal_free_policy@@@@QAEPAEXZ 1003abd0 f i libucrt:argv_parsing.obj
 0001:00039bd6       ?detach@?$__crt_unique_heap_ptr@PADU__crt_internal_free_policy@@@@QAEPAPADXZ 1003abd6 f i libucrt:argv_parsing.obj
 0001:00039bdc       ?detach@?$__crt_unique_heap_ptr@PA_WU__crt_internal_free_policy@@@@QAEPAPA_WXZ 1003abdc f i libucrt:argv_parsing.obj
 0001:00039c02       ?get@?$__crt_unique_heap_ptr@EU__crt_internal_free_policy@@@@QBEPAEXZ 1003ac02 f i libucrt:argv_parsing.obj
 0001:00039c05       ?get@?$__crt_unique_heap_ptr@PADU__crt_internal_free_policy@@@@QBEPAPADXZ 1003ac05 f i libucrt:argv_parsing.obj
 0001:00039c08       ?get@?$__crt_unique_heap_ptr@PA_WU__crt_internal_free_policy@@@@QBEPAPA_WXZ 1003ac08 f i libucrt:argv_parsing.obj
 0001:00039c0b       ?get_address_of@?$__crt_unique_heap_ptr@PADU__crt_internal_free_policy@@@@QAEPAPAPADXZ 1003ac0b f i libucrt:argv_parsing.obj
 0001:00039c0e       ?get_address_of@?$__crt_unique_heap_ptr@PA_WU__crt_internal_free_policy@@@@QAEPAPAPA_WXZ 1003ac0e f i libucrt:argv_parsing.obj
 0001:00039c29       ?is_valid@?$__crt_unique_heap_ptr@EU__crt_internal_free_policy@@@@QBE_NXZ 1003ac29 f i libucrt:argv_parsing.obj
 0001:00039c33       ?release@?$__crt_unique_heap_ptr@EU__crt_internal_free_policy@@@@QAEXXZ 1003ac33 f i libucrt:argv_parsing.obj
 0001:00039c49       ?release@?$__crt_unique_heap_ptr@PADU__crt_internal_free_policy@@@@QAEXXZ 1003ac49 f i libucrt:argv_parsing.obj
 0001:00039c5f       ?release@?$__crt_unique_heap_ptr@PA_WU__crt_internal_free_policy@@@@QAEXXZ 1003ac5f f i libucrt:argv_parsing.obj
 0001:00039c96       ___acrt_allocate_buffer_for_argv 1003ac96 f   libucrt:argv_parsing.obj
 0001:00039d00       __configure_narrow_argv    1003ad00 f   libucrt:argv_parsing.obj
 0001:00039d0d       __configure_wide_argv      1003ad0d f   libucrt:argv_parsing.obj
 0001:00039d1a       __set_pgmptr               1003ad1a f i libucrt:argv_parsing.obj
 0001:00039d2c       __set_wpgmptr              1003ad2c f i libucrt:argv_parsing.obj
 0001:0003a206       ??$get_environment_from_os@$$$V@?$__crt_char_traits@D@@SAPADXZ 1003b206 f i libucrt:environment_initialization.obj
 0001:0003a20b       ??$get_environment_from_os@$$$V@?$__crt_char_traits@_W@@SAPA_WXZ 1003b20b f i libucrt:environment_initialization.obj
 0001:0003a345       ??$set_variable_in_environment_nolock@PADH@?$__crt_char_traits@D@@SAH$$QAPAD$$QAH@Z 1003b345 f i libucrt:environment_initialization.obj
 0001:0003a363       ??$set_variable_in_environment_nolock@PA_WH@?$__crt_char_traits@_W@@SAH$$QAPA_W$$QAH@Z 1003b363 f i libucrt:environment_initialization.obj
 0001:0003a381       ??$tcscpy_s@PADABIAAPAD@?$__crt_char_traits@D@@SAH$$QAPADABIAAPAD@Z 1003b381 f i libucrt:environment_initialization.obj
 0001:0003a3a6       ??$tcscpy_s@PA_WABIAAPA_W@?$__crt_char_traits@_W@@SAH$$QAPA_WABIAAPA_W@Z 1003b3a6 f i libucrt:environment_initialization.obj
 0001:0003a3cb       ??$tcslen@AAPAD@?$__crt_char_traits@D@@SAIAAPAD@Z 1003b3cb f i libucrt:environment_initialization.obj
 0001:0003a3e9       ??$tcslen@AAPA_W@?$__crt_char_traits@_W@@SAIAAPA_W@Z 1003b3e9 f i libucrt:environment_initialization.obj
 0001:0003a40e       ??$uninitialize@A6AXAAPAPAD@Z@?$dual_state_global@PAPAD@__crt_state_management@@QAEXA6AXAAPAPAD@Z@Z 1003b40e f i libucrt:environment_initialization.obj
 0001:0003a45e       ??$uninitialize@A6AXAAPAPA_W@Z@?$dual_state_global@PAPA_W@__crt_state_management@@QAEXA6AXAAPAPA_W@Z@Z 1003b45e f i libucrt:environment_initialization.obj
 0001:0003a4f0       ??B?$__crt_unique_heap_ptr@PADU__crt_internal_free_policy@@@@QBE_NXZ 1003b4f0 f i libucrt:environment_initialization.obj
 0001:0003a4fa       ??B?$__crt_unique_heap_ptr@PA_WU__crt_internal_free_policy@@@@QBE_NXZ 1003b4fa f i libucrt:environment_initialization.obj
 0001:0003a504       ??B?$__crt_unique_heap_ptr@_WU__crt_internal_free_policy@@@@QBE_NXZ 1003b504 f i libucrt:environment_initialization.obj
 0001:0003a50e       ?__crt_compute_required_transform_buffer_count@@YAIIQBD@Z 1003b50e f i libucrt:environment_initialization.obj
 0001:0003a52e       ?__crt_compute_required_transform_buffer_count@@YAIIQB_W@Z 1003b52e f i libucrt:environment_initialization.obj
 0001:0003a551       ?__crt_transform_string@@YAIIQBDQA_WI@Z 1003b551 f i libucrt:environment_initialization.obj
 0001:0003a575       ?__crt_transform_string@@YAIIQB_WQADI@Z 1003b575 f i libucrt:environment_initialization.obj
 0001:0003a59d       ?detach@?$__crt_unique_heap_ptr@DU__crt_internal_free_policy@@@@QAEPADXZ 1003b59d f i libucrt:environment_initialization.obj
 0001:0003a5a3       ?detach@?$__crt_unique_heap_ptr@_WU__crt_internal_free_policy@@@@QAEPA_WXZ 1003b5a3 f i libucrt:environment_initialization.obj
 0001:0003a5a9       ?get_current_state_index@__crt_state_management@@YAIXZ 1003b5a9 f i libucrt:environment_initialization.obj
 0001:0003a5d0       ?initialize@?$dual_state_global@PAPAD@__crt_state_management@@QAEXQAPAD@Z 1003b5d0 f i libucrt:environment_initialization.obj
 0001:0003a60d       ?initialize@?$dual_state_global@PAPA_W@__crt_state_management@@QAEXQAPA_W@Z 1003b60d f i libucrt:environment_initialization.obj
 0001:0003a64a       ?is_valid@?$__crt_unique_heap_ptr@PADU__crt_internal_free_policy@@@@QBE_NXZ 1003b64a f i libucrt:environment_initialization.obj
 0001:0003a654       ?is_valid@?$__crt_unique_heap_ptr@PA_WU__crt_internal_free_policy@@@@QBE_NXZ 1003b654 f i libucrt:environment_initialization.obj
 0001:0003a65e       ?is_valid@?$__crt_unique_heap_ptr@_WU__crt_internal_free_policy@@@@QBE_NXZ 1003b65e f i libucrt:environment_initialization.obj
 0001:0003a66e       ?value@?$dual_state_global@PAPAD@__crt_state_management@@QAEAAPAPADXZ 1003b66e f i libucrt:environment_initialization.obj
 0001:0003a671       ?value@?$dual_state_global@PAPA_W@__crt_state_management@@QAEAAPAPA_WXZ 1003b671 f i libucrt:environment_initialization.obj
 0001:0003a674       ___dcrt_get_or_create_narrow_environment_nolock 1003b674 f   libucrt:environment_initialization.obj
 0001:0003a679       ___dcrt_get_or_create_wide_environment_nolock 1003b679 f   libucrt:environment_initialization.obj
 0001:0003a67e       ___dcrt_uninitialize_environments_nolock 1003b67e f   libucrt:environment_initialization.obj
 0001:0003a6c2       ___p__environ              1003b6c2 f   libucrt:environment_initialization.obj
 0001:0003a6c8       ___p__wenviron             1003b6c8 f   libucrt:environment_initialization.obj
 0001:0003a6ce       __get_initial_narrow_environment 1003b6ce f   libucrt:environment_initialization.obj
 0001:0003a6e7       __get_initial_wide_environment 1003b6e7 f   libucrt:environment_initialization.obj
 0001:0003a700       __initialize_narrow_environment 1003b700 f   libucrt:environment_initialization.obj
 0001:0003a705       __initialize_wide_environment 1003b705 f   libucrt:environment_initialization.obj
 0001:0003a70a       ??$?BP6AXXZ@__crt_fast_encoded_nullptr_t@@QBEPAP6AXXZXZ 1003b70a f i libucrt:onexit.obj
 0001:0003a728       ??$?RP6AXXZ@__crt_internal_free_policy@@QBEXQBQ6AXXZ@Z 1003b728 f i libucrt:onexit.obj
 0001:0003a73e       ??$?RV<lambda_800076c951b434888f4765a74a194fcc>@@AAV<lambda_4e60a939b0d047cfe11ddc22648dfba9>@@V<lambda_6dbb1268764f43b569ce7b67e331d33a>@@@?$__crt_seh_guarded_call@H@@QAEH$$QAV<lambda_800076c951b434888f4765a74a194fcc>@@AAV<lambda_4e60a939b0d047cfe11ddc22648dfba9>@@$$QAV<lambda_6dbb1268764f43b569ce7b67e331d33a>@@@Z 1003b73e f i libucrt:onexit.obj
 0001:0003a7a3       ??$?RV<lambda_995298e7d72eb4c2aab26c0585b3abe5>@@AAV<lambda_275893d493268fdec8709772e3fcec0e>@@V<lambda_293819299cbf9a7022e18b56a874bb5c>@@@?$__crt_seh_guarded_call@H@@QAEH$$QAV<lambda_995298e7d72eb4c2aab26c0585b3abe5>@@AAV<lambda_275893d493268fdec8709772e3fcec0e>@@$$QAV<lambda_293819299cbf9a7022e18b56a874bb5c>@@@Z 1003b7a3 f i libucrt:onexit.obj
 0001:0003a808       ??$__acrt_lock_and_call@V<lambda_275893d493268fdec8709772e3fcec0e>@@@@YAHW4__acrt_lock_id@@$$QAV<lambda_275893d493268fdec8709772e3fcec0e>@@@Z 1003b808 f i libucrt:onexit.obj
 0001:0003a83a       ??$__acrt_lock_and_call@V<lambda_4e60a939b0d047cfe11ddc22648dfba9>@@@@YAHW4__acrt_lock_id@@$$QAV<lambda_4e60a939b0d047cfe11ddc22648dfba9>@@@Z 1003b83a f i libucrt:onexit.obj
 0001:0003a86c       ??$__crt_fast_encode_pointer@P6AHXZ@@YAP6AHXZQ6AHXZ@Z 1003b86c f i libucrt:onexit.obj
 0001:0003a919       ??0?$__crt_unique_heap_ptr@P6AXXZU__crt_internal_free_policy@@@@QAE@QAP6AXXZ@Z 1003b919 f i libucrt:onexit.obj
 0001:0003a92d       ??1?$__crt_unique_heap_ptr@P6AXXZU__crt_internal_free_policy@@@@QAE@XZ 1003b92d f i libucrt:onexit.obj
 0001:0003ac68       ?detach@?$__crt_unique_heap_ptr@P6AXXZU__crt_internal_free_policy@@@@QAEPAP6AXXZXZ 1003bc68 f i libucrt:onexit.obj
 0001:0003ac6e       ?release@?$__crt_unique_heap_ptr@P6AXXZU__crt_internal_free_policy@@@@QAEXXZ 1003bc6e f i libucrt:onexit.obj
 0001:0003ac84       __crt_at_quick_exit        1003bc84 f   libucrt:onexit.obj
 0001:0003ac9f       __crt_atexit               1003bc9f f   libucrt:onexit.obj
 0001:0003acba       __execute_onexit_table     1003bcba f   libucrt:onexit.obj
 0001:0003acde       __initialize_onexit_table  1003bcde f   libucrt:onexit.obj
 0001:0003ad2a       __register_onexit_function 1003bd2a f   libucrt:onexit.obj
 0001:0003ae91       ?initialize@?$dual_state_global@PAU__crt_locale_data@@@__crt_state_management@@QAEXQAU__crt_locale_data@@@Z 1003be91 f i libucrt:initialization.obj
 0001:0003aece       ___acrt_initialize         1003bece f   libucrt:initialization.obj
 0001:0003aee4       ___acrt_thread_attach      1003bee4 f   libucrt:initialization.obj
 0001:0003aef1       ___acrt_thread_detach      1003bef1 f   libucrt:initialization.obj
 0001:0003aefb       ___acrt_uninitialize       1003befb f   libucrt:initialization.obj
 0001:0003af11       ___acrt_uninitialize_critical 1003bf11 f   libucrt:initialization.obj
 0001:0003af42       __get_terminate            1003bf42 f   libucrt:terminate.obj
 0001:0003af58       _set_terminate             1003bf58 f   libucrt:terminate.obj
 0001:0003af80       _terminate                 1003bf80 f   libucrt:terminate.obj
 0001:0003afcb       ??$__crt_interlocked_exchange_pointer@X$$T@@YAPAXPDSAX$$T@Z 1003bfcb f i libucrt:free_base.obj
 0001:0003afe3       ___acrt_get_msvcrt_heap_handle 1003bfe3 f   libucrt:free_base.obj
 0001:0003b074       __free_base                1003c074 f   libucrt:free_base.obj
 0001:0003b0bc       __malloc_base              1003c0bc f   libucrt:malloc_base.obj
 0001:0003b18d       _strcpy_s                  1003c18d f   libucrt:strcpy_s.obj
 0001:0003b1fd       __set_abort_behavior       1003c1fd f   libucrt:abort.obj
 0001:0003b226       _abort                     1003c226 f   libucrt:abort.obj
 0001:0003b279       __calloc_base              1003c279 f   libucrt:calloc_base.obj
 0001:0003b2ed       ??$is_overflow_condition@K@__crt_strtox@@YA_NIK@Z 1003c2ed f i libucrt:atox.obj
 0001:0003b32c       ??$is_overflow_condition@_K@__crt_strtox@@YA_NI_K@Z 1003c32c f i libucrt:atox.obj
 0001:0003b37f       ??$make_c_string_character_source@D$$T@__crt_strtox@@YA?AV?$c_string_character_source@D@0@QBD$$T@Z 1003c37f f i libucrt:atox.obj
 0001:0003b3a0       ??$make_c_string_character_source@_W$$T@__crt_strtox@@YA?AV?$c_string_character_source@_W@0@QB_W$$T@Z 1003c3a0 f i libucrt:atox.obj
 0001:0003b3c1       ??$parse_integer@KV?$c_string_character_source@D@__crt_strtox@@@__crt_strtox@@YAKQAU__crt_locale_pointers@@V?$c_string_character_source@D@0@H_N@Z 1003c3c1 f i libucrt:atox.obj
 0001:0003b673       ??$parse_integer@KV?$c_string_character_source@_W@__crt_strtox@@@__crt_strtox@@YAKQAU__crt_locale_pointers@@V?$c_string_character_source@_W@0@H_N@Z 1003c673 f i libucrt:atox.obj
 0001:0003bf11       ??$parse_integer@_KV?$c_string_character_source@D@__crt_strtox@@@__crt_strtox@@YA_KQAU__crt_locale_pointers@@V?$c_string_character_source@D@0@H_N@Z 1003cf11 f i libucrt:atox.obj
 0001:0003c260       ??$parse_integer@_KV?$c_string_character_source@_W@__crt_strtox@@@__crt_strtox@@YA_KQAU__crt_locale_pointers@@V?$c_string_character_source@_W@0@H_N@Z 1003d260 f i libucrt:atox.obj
 0001:0003c9d2       ??$parse_integer_from_string@JD$$T@__crt_strtox@@YAJQBD$$THQAU__crt_locale_pointers@@@Z 1003d9d2 f i libucrt:atox.obj
 0001:0003ca0a       ??$parse_integer_from_string@J_W$$T@__crt_strtox@@YAJQB_W$$THQAU__crt_locale_pointers@@@Z 1003da0a f i libucrt:atox.obj
 0001:0003ca42       ??$parse_integer_from_string@_JD$$T@__crt_strtox@@YA_JQBD$$THQAU__crt_locale_pointers@@@Z 1003da42 f i libucrt:atox.obj
 0001:0003ca7a       ??$parse_integer_from_string@_J_W$$T@__crt_strtox@@YA_JQB_W$$THQAU__crt_locale_pointers@@@Z 1003da7a f i libucrt:atox.obj
 0001:0003cab2       ??0?$c_string_character_source@D@__crt_strtox@@QAE@QBDQAPBD@Z 1003dab2 f i libucrt:atox.obj
 0001:0003cad5       ??0?$c_string_character_source@_W@__crt_strtox@@QAE@QB_WQAPB_W@Z 1003dad5 f i libucrt:atox.obj
 0001:0003caf8       ??1?$c_string_character_source@D@__crt_strtox@@QAE@XZ 1003daf8 f i libucrt:atox.obj
 0001:0003cb07       ??1?$c_string_character_source@_W@__crt_strtox@@QAE@XZ 1003db07 f i libucrt:atox.obj
 0001:0003cb16       ?get@?$c_string_character_source@D@__crt_strtox@@QAEDXZ 1003db16 f i libucrt:atox.obj
 0001:0003cb20       ?get@?$c_string_character_source@_W@__crt_strtox@@QAE_WXZ 1003db20 f i libucrt:atox.obj
 0001:0003cb2d       ?is_space@__crt_strtox@@YA_NDQAU__crt_locale_pointers@@@Z 1003db2d f i libucrt:atox.obj
 0001:0003cb53       ?is_space@__crt_strtox@@YA_N_WPAU__crt_locale_pointers@@@Z 1003db53 f i libucrt:atox.obj
 0001:0003cb72       ?maximum_signed_value@__crt_strtox@@YAJK@Z 1003db72 f i libucrt:atox.obj
 0001:0003cb78       ?maximum_signed_value@__crt_strtox@@YA_J_K@Z 1003db78 f i libucrt:atox.obj
 0001:0003cb83       ?minimum_signed_value@__crt_strtox@@YAJK@Z 1003db83 f i libucrt:atox.obj
 0001:0003cb89       ?minimum_signed_value@__crt_strtox@@YA_J_K@Z 1003db89 f i libucrt:atox.obj
 0001:0003cb93       ?parse_digit@__crt_strtox@@YAID@Z 1003db93 f i libucrt:atox.obj
 0001:0003cbdb       ?parse_digit@__crt_strtox@@YAI_W@Z 1003dbdb f i libucrt:atox.obj
 0001:0003ce38       ?restore_state@?$c_string_character_source@D@__crt_strtox@@QAE_NQBD@Z 1003de38 f i libucrt:atox.obj
 0001:0003ce4c       ?restore_state@?$c_string_character_source@_W@__crt_strtox@@QAE_NQB_W@Z 1003de4c f i libucrt:atox.obj
 0001:0003ce60       ?save_state@?$c_string_character_source@D@__crt_strtox@@QBEPBDXZ 1003de60 f i libucrt:atox.obj
 0001:0003ce63       ?save_state@?$c_string_character_source@_W@__crt_strtox@@QBEPB_WXZ 1003de63 f i libucrt:atox.obj
 0001:0003ce66       ?unget@?$c_string_character_source@D@__crt_strtox@@QAEXD@Z 1003de66 f i libucrt:atox.obj
 0001:0003ce98       ?unget@?$c_string_character_source@_W@__crt_strtox@@QAEX_W@Z 1003de98 f i libucrt:atox.obj
 0001:0003cecf       ?validate@?$c_string_character_source@D@__crt_strtox@@QBE_NXZ 1003decf f i libucrt:atox.obj
 0001:0003cef0       ?validate@?$c_string_character_source@_W@__crt_strtox@@QBE_NXZ 1003def0 f i libucrt:atox.obj
 0001:0003cf11       ?wide_character_to_digit@__crt_strtox@@YAH_W@Z 1003df11 f i libucrt:atox.obj
 0001:0003d11a       ___acrt_get_locale_data_prefix 1003e11a f i libucrt:atox.obj
 0001:0003d129       __atoi64                   1003e129 f   libucrt:atox.obj
 0001:0003d15d       __atoi64_l                 1003e15d f   libucrt:atox.obj
 0001:0003d192       __atoi_l                   1003e192 f   libucrt:atox.obj
 0001:0003d1c7       __atol_l                   1003e1c7 f   libucrt:atox.obj
 0001:0003d1fc       __atoll_l                  1003e1fc f   libucrt:atox.obj
 0001:0003d231       __chvalidchk_l             1003e231 f i libucrt:atox.obj
 0001:0003d265       __ischartype_l             1003e265 f i libucrt:atox.obj
 0001:0003d2a4       __wtoi                     1003e2a4 f   libucrt:atox.obj
 0001:0003d2d8       __wtoi64                   1003e2d8 f   libucrt:atox.obj
 0001:0003d30c       __wtoi64_l                 1003e30c f   libucrt:atox.obj
 0001:0003d341       __wtoi_l                   1003e341 f   libucrt:atox.obj
 0001:0003d376       __wtol                     1003e376 f   libucrt:atox.obj
 0001:0003d3aa       __wtol_l                   1003e3aa f   libucrt:atox.obj
 0001:0003d3df       __wtoll                    1003e3df f   libucrt:atox.obj
 0001:0003d413       __wtoll_l                  1003e413 f   libucrt:atox.obj
 0001:0003d448       _atoi                      1003e448 f   libucrt:atox.obj
 0001:0003d47c       _atol                      1003e47c f   libucrt:atox.obj
 0001:0003d4b0       _atoll                     1003e4b0 f   libucrt:atox.obj
 0001:0003d4e4       ??$__crt_fast_decode_pointer@P6AXPB_W00II@Z@@YAP6AXPB_W00II@ZQ6AX000II@Z@Z 1003e4e4 f i libucrt:invalid_parameter.obj
 0001:0003d4ff       ??$__crt_fast_encode_pointer@P6AXPB_W00II@Z@@YAP6AXPB_W00II@ZQ6AX000II@Z@Z 1003e4ff f i libucrt:invalid_parameter.obj
 0001:0003d525       ?initialize@?$dual_state_global@P6AXPB_W00II@Z@__crt_state_management@@QAEXQ6AXPB_W00II@Z@Z 1003e525 f i libucrt:invalid_parameter.obj
 0001:0003d562       ?value@?$dual_state_global@P6AXPB_W00II@Z@__crt_state_management@@QAEAAP6AXPB_W00II@ZXZ 1003e562 f i libucrt:invalid_parameter.obj
 0001:0003d565       ___acrt_call_reportfault   1003e565 f   libucrt:invalid_parameter.obj
 0001:0003d6ee       ___acrt_initialize_invalid_parameter_handler 1003e6ee f   libucrt:invalid_parameter.obj
 0001:0003d707       __get_invalid_parameter_handler 1003e707 f   libucrt:invalid_parameter.obj
 0001:0003d71e       __get_thread_local_invalid_parameter_handler 1003e71e f   libucrt:invalid_parameter.obj
 0001:0003d733       __invalid_parameter        1003e733 f   libucrt:invalid_parameter.obj
 0001:0003d7cc       __invalid_parameter_noinfo 1003e7cc f   libucrt:invalid_parameter.obj
 0001:0003d7e0       __invalid_parameter_noinfo_noreturn 1003e7e0 f   libucrt:invalid_parameter.obj
 0001:0003d804       __invoke_watson            1003e804 f   libucrt:invalid_parameter.obj
 0001:0003d843       __set_invalid_parameter_handler 1003e843 f   libucrt:invalid_parameter.obj
 0001:0003d87f       __set_thread_local_invalid_parameter_handler 1003e87f f   libucrt:invalid_parameter.obj
 0001:0003d8a3       ___acrt_errno_from_os_error 1003e8a3 f   libucrt:errno.obj
 0001:0003d8f6       ___acrt_errno_map_os_error 1003e8f6 f   libucrt:errno.obj
 0001:0003d921       ___doserrno                1003e921 f   libucrt:errno.obj
 0001:0003d938       __errno                    1003e938 f   libucrt:errno.obj
 0001:0003d94f       __get_doserrno             1003e94f f   libucrt:errno.obj
 0001:0003d97d       __get_errno                1003e97d f   libucrt:errno.obj
 0001:0003d9ab       __set_doserrno             1003e9ab f   libucrt:errno.obj
 0001:0003d9d4       __set_errno                1003e9d4 f   libucrt:errno.obj
 0001:0003da54       ??$?B$$A6GHPA_WKJ@Z@__crt_fast_encoded_nullptr_t@@QBEP6GHPA_WKJ@ZXZ 1003ea54 f i libucrt:winapi_thunks.obj
 0001:0003da72       ??$?RV<lambda_9227be29367c048ad7fd93a717dcb1a1>@@AAV<lambda_a463b7b0560cfcaf9b17f27c6ef46564>@@V<lambda_ccea11b5727ccf69be64f5f5d9a08d9f>@@@?$__crt_seh_guarded_call@H@@QAEH$$QAV<lambda_9227be29367c048ad7fd93a717dcb1a1>@@AAV<lambda_a463b7b0560cfcaf9b17f27c6ef46564>@@$$QAV<lambda_ccea11b5727ccf69be64f5f5d9a08d9f>@@@Z 1003ea72 f i libucrt:winapi_thunks.obj
 0001:0003db17       ??$__acrt_lock_and_call@V<lambda_a463b7b0560cfcaf9b17f27c6ef46564>@@@@YAHW4__acrt_lock_id@@$$QAV<lambda_a463b7b0560cfcaf9b17f27c6ef46564>@@@Z 1003eb17 f i libucrt:winapi_thunks.obj
 0001:0003db49       ??$__crt_fast_decode_pointer@P6GHPA_WKJ@Z@@YAP6GHPA_WKJ@ZQ6GH0KJ@Z@Z 1003eb49 f i libucrt:winapi_thunks.obj
 0001:0003db64       ??$__crt_fast_encode_pointer@P6GHPA_WKJ@Z@@YAP6GHPA_WKJ@ZQ6GH0KJ@Z@Z 1003eb64 f i libucrt:winapi_thunks.obj
 0001:0003e291       ___acrt_AreFileApisANSI@0  1003f291 f   libucrt:winapi_thunks.obj
 0001:0003e2f2       ___acrt_CompareStringEx@36 1003f2f2 f   libucrt:winapi_thunks.obj
 0001:0003e383       ___acrt_EnumSystemLocalesEx@16 1003f383 f   libucrt:winapi_thunks.obj
 0001:0003e40b       ___acrt_FlsAlloc@4         1003f40b f   libucrt:winapi_thunks.obj
 0001:0003e476       ___acrt_FlsFree@4          1003f476 f   libucrt:winapi_thunks.obj
 0001:0003e4e1       ___acrt_FlsGetValue@4      1003f4e1 f   libucrt:winapi_thunks.obj
 0001:0003e54c       ___acrt_FlsSetValue@8      1003f54c f   libucrt:winapi_thunks.obj
 0001:0003e5bb       ___acrt_GetDateFormatEx@28 1003f5bb f   libucrt:winapi_thunks.obj
 0001:0003e65d       ___acrt_GetEnabledXStateFeatures@0 1003f65d f   libucrt:winapi_thunks.obj
 0001:0003e6bf       ___acrt_GetFileInformationByHandleEx@16 1003f6bf f   libucrt:winapi_thunks.obj
 0001:0003e73a       ___acrt_GetLocaleInfoEx@16 1003f73a f   libucrt:winapi_thunks.obj
 0001:0003e7be       ___acrt_GetSystemTimePreciseAsFileTime@4 1003f7be f   libucrt:winapi_thunks.obj
 0001:0003e829       ___acrt_GetTimeFormatEx@24 1003f829 f   libucrt:winapi_thunks.obj
 0001:0003e8b5       ___acrt_GetUserDefaultLocaleName@8 1003f8b5 f   libucrt:winapi_thunks.obj
 0001:0003e935       ___acrt_GetXStateFeaturesMask@8 1003f935 f   libucrt:winapi_thunks.obj
 0001:0003e9a1       ___acrt_InitializeCriticalSectionEx@12 1003f9a1 f   libucrt:winapi_thunks.obj
 0001:0003ea1b       ___acrt_IsValidLocaleName@4 1003fa1b f   libucrt:winapi_thunks.obj
 0001:0003ea96       ___acrt_LCIDToLocaleName@16 1003fa96 f   libucrt:winapi_thunks.obj
 0001:0003eb1a       ___acrt_LCMapStringEx@36   1003fb1a f   libucrt:winapi_thunks.obj
 0001:0003ebc4       ___acrt_LocaleNameToLCID@8 1003fbc4 f   libucrt:winapi_thunks.obj
 0001:0003ec37       ___acrt_LocateXStateFeature@12 1003fc37 f   libucrt:winapi_thunks.obj
 0001:0003ec8e       ___acrt_MessageBoxA@16     1003fc8e f   libucrt:winapi_thunks.obj
 0001:0003ece9       ___acrt_MessageBoxW@16     1003fce9 f   libucrt:winapi_thunks.obj
 0001:0003ed44       ___acrt_RoInitialize@4     1003fd44 f   libucrt:winapi_thunks.obj
 0001:0003edaa       ___acrt_RoUninitialize@0   1003fdaa f   libucrt:winapi_thunks.obj
 0001:0003ee05       ___acrt_RtlGenRandom@8     1003fe05 f   libucrt:winapi_thunks.obj
 0001:0003ee71       ___acrt_SetThreadStackGuarantee@4 1003fe71 f   libucrt:winapi_thunks.obj
 0001:0003eed7       ___acrt_can_show_message_box 1003fed7 f   libucrt:winapi_thunks.obj
 0001:0003eef6       ___acrt_can_use_vista_locale_apis 1003fef6 f   libucrt:winapi_thunks.obj
 0001:0003ef05       ___acrt_can_use_xstate_apis 1003ff05 f   libucrt:winapi_thunks.obj
 0001:0003ef14       ___acrt_get_parent_window  1003ff14 f   libucrt:winapi_thunks.obj
 0001:0003efb2       ___acrt_initialize_winapi_thunks 1003ffb2 f   libucrt:winapi_thunks.obj
 0001:0003efe1       ___acrt_is_interactive     1003ffe1 f   libucrt:winapi_thunks.obj
 0001:0003f0b0       ___acrt_is_packaged_app    100400b0 f   libucrt:winapi_thunks.obj
 0001:0003f158       ___acrt_uninitialize_winapi_thunks 10040158 f   libucrt:winapi_thunks.obj
 0001:0003f19b       ??0__crt_stdio_stream@@QAE@QAU__crt_stdio_stream_data@@@Z 1004019b f i libucrt:closeall.obj
 0001:0003f1af       __fcloseall                100401af f   libucrt:closeall.obj
 0001:0003f277       ___acrt_stdio_flush_nolock 10040277 f   libucrt:fflush.obj
 0001:0003f2f6       __fflush_nolock            100402f6 f   libucrt:fflush.obj
 0001:0003f34e       __flushall                 1004034e f   libucrt:fflush.obj
 0001:0003f467       _fflush                    10040467 f   libucrt:fflush.obj
 0001:0003f4d6       ?has_crt_buffer@__crt_stdio_stream@@QBE_NXZ 100404d6 f i libucrt:_freebuf.obj
 0001:0003f4e5       ___acrt_stdio_free_buffer_nolock 100404e5 f   libucrt:_freebuf.obj
 0001:0003f722       ___acrt_initialize_lowio   10040722 f   libucrt:ioinit.obj
 0001:0003f78d       ___acrt_uninitialize_lowio 1004078d f   libucrt:ioinit.obj
 0001:0003f7df       ___isascii                 100407df f i libucrt:_ctype.obj
 0001:0003f7f5       ___iscsym                  100407f5 f i libucrt:_ctype.obj
 0001:0003f81f       ___iscsymf                 1004081f f i libucrt:_ctype.obj
 0001:0003f845       ___toascii                 10040845 f i libucrt:_ctype.obj
 0001:0003f855       __isalnum_l                10040855 f i libucrt:_ctype.obj
 0001:0003f89e       __isalpha_l                1004089e f i libucrt:_ctype.obj
 0001:0003f8e7       __isblank_l                100408e7 f i libucrt:_ctype.obj
 0001:0003f93a       __iscntrl_l                1004093a f i libucrt:_ctype.obj
 0001:0003f980       __iscsym_l                 10040980 f i libucrt:_ctype.obj
 0001:0003f9ab       __iscsymf_l                100409ab f i libucrt:_ctype.obj
 0001:0003f9d6       __isdigit_l                100409d6 f i libucrt:_ctype.obj
 0001:0003fa1c       __isgraph_l                10040a1c f i libucrt:_ctype.obj
 0001:0003fa65       __islower_l                10040a65 f i libucrt:_ctype.obj
 0001:0003faab       __isprint_l                10040aab f i libucrt:_ctype.obj
 0001:0003faf4       __ispunct_l                10040af4 f i libucrt:_ctype.obj
 0001:0003fb3a       __isspace_l                10040b3a f i libucrt:_ctype.obj
 0001:0003fb80       __isupper_l                10040b80 f i libucrt:_ctype.obj
 0001:0003fbc6       __isxdigit_l               10040bc6 f i libucrt:_ctype.obj
 0001:0003fc0f       _isalnum                   10040c0f f i libucrt:_ctype.obj
 0001:0003fc49       _isalpha                   10040c49 f i libucrt:_ctype.obj
 0001:0003fc83       _isblank                   10040c83 f i libucrt:_ctype.obj
 0001:0003fcc7       _iscntrl                   10040cc7 f i libucrt:_ctype.obj
 0001:0003fcff       _isdigit                   10040cff f i libucrt:_ctype.obj
 0001:0003fd37       _isgraph                   10040d37 f i libucrt:_ctype.obj
 0001:0003fd71       _islower                   10040d71 f i libucrt:_ctype.obj
 0001:0003fda9       _isprint                   10040da9 f i libucrt:_ctype.obj
 0001:0003fde3       _ispunct                   10040de3 f i libucrt:_ctype.obj
 0001:0003fe1b       _isspace                   10040e1b f i libucrt:_ctype.obj
 0001:0003fe53       _isupper                   10040e53 f i libucrt:_ctype.obj
 0001:0003fe8b       _isxdigit                  10040e8b f i libucrt:_ctype.obj
 0001:00040283       __tolower                  10041283 f   libucrt:tolower_toupper.obj
 0001:00040293       __tolower_l                10041293 f   libucrt:tolower_toupper.obj
 0001:000402b3       __toupper                  100412b3 f   libucrt:tolower_toupper.obj
 0001:000402c3       __toupper_l                100412c3 f   libucrt:tolower_toupper.obj
 0001:000402e3       _tolower                   100412e3 f   libucrt:tolower_toupper.obj
 0001:0004031f       _toupper                   1004131f f   libucrt:tolower_toupper.obj
 0001:0004035b       ??$make_c_string_character_source@DPAPAD@__crt_strtox@@YA?AV?$c_string_character_source@D@0@QBDQAPAD@Z 1004135b f i libucrt:strtox.obj
 0001:0004037c       ??$make_c_string_character_source@_WPAPA_W@__crt_strtox@@YA?AV?$c_string_character_source@_W@0@QB_WQAPA_W@Z 1004137c f i libucrt:strtox.obj
 0001:0004039d       ??$parse_integer_from_string@JDPAPAD@__crt_strtox@@YAJQBDQAPADHQAU__crt_locale_pointers@@@Z 1004139d f i libucrt:strtox.obj
 0001:000403d5       ??$parse_integer_from_string@J_WPAPA_W@__crt_strtox@@YAJQB_WQAPA_WHQAU__crt_locale_pointers@@@Z 100413d5 f i libucrt:strtox.obj
 0001:0004040d       ??$parse_integer_from_string@KDPAPAD@__crt_strtox@@YAKQBDQAPADHQAU__crt_locale_pointers@@@Z 1004140d f i libucrt:strtox.obj
 0001:00040445       ??$parse_integer_from_string@K_WPAPA_W@__crt_strtox@@YAKQB_WQAPA_WHQAU__crt_locale_pointers@@@Z 10041445 f i libucrt:strtox.obj
 0001:0004047d       ??$parse_integer_from_string@_JDPAPAD@__crt_strtox@@YA_JQBDQAPADHQAU__crt_locale_pointers@@@Z 1004147d f i libucrt:strtox.obj
 0001:000404b5       ??$parse_integer_from_string@_J_WPAPA_W@__crt_strtox@@YA_JQB_WQAPA_WHQAU__crt_locale_pointers@@@Z 100414b5 f i libucrt:strtox.obj
 0001:000404ed       ??$parse_integer_from_string@_KDPAPAD@__crt_strtox@@YA_KQBDQAPADHQAU__crt_locale_pointers@@@Z 100414ed f i libucrt:strtox.obj
 0001:00040525       ??$parse_integer_from_string@_K_WPAPA_W@__crt_strtox@@YA_KQB_WQAPA_WHQAU__crt_locale_pointers@@@Z 10041525 f i libucrt:strtox.obj
 0001:0004055d       __strtoi64                 1004155d f   libucrt:strtox.obj
 0001:00040594       __strtoi64_l               10041594 f   libucrt:strtox.obj
 0001:000405cc       __strtoimax_l              100415cc f   libucrt:strtox.obj
 0001:00040604       __strtol_l                 10041604 f   libucrt:strtox.obj
 0001:0004063c       __strtoll_l                1004163c f   libucrt:strtox.obj
 0001:00040674       __strtoui64                10041674 f   libucrt:strtox.obj
 0001:000406ab       __strtoui64_l              100416ab f   libucrt:strtox.obj
 0001:000406e3       __strtoul_l                100416e3 f   libucrt:strtox.obj
 0001:0004071b       __strtoull_l               1004171b f   libucrt:strtox.obj
 0001:00040753       __strtoumax_l              10041753 f   libucrt:strtox.obj
 0001:0004078b       __wcstoi64                 1004178b f   libucrt:strtox.obj
 0001:000407c2       __wcstoi64_l               100417c2 f   libucrt:strtox.obj
 0001:000407fa       __wcstoimax_l              100417fa f   libucrt:strtox.obj
 0001:00040832       __wcstol_l                 10041832 f   libucrt:strtox.obj
 0001:0004086a       __wcstoll_l                1004186a f   libucrt:strtox.obj
 0001:000408a2       __wcstoui64                100418a2 f   libucrt:strtox.obj
 0001:000408d9       __wcstoui64_l              100418d9 f   libucrt:strtox.obj
 0001:00040911       __wcstoul_l                10041911 f   libucrt:strtox.obj
 0001:00040949       __wcstoull_l               10041949 f   libucrt:strtox.obj
 0001:00040981       __wcstoumax_l              10041981 f   libucrt:strtox.obj
 0001:000409b9       _strtoimax                 100419b9 f   libucrt:strtox.obj
 0001:000409f0       _strtol                    100419f0 f   libucrt:strtox.obj
 0001:00040a27       _strtoll                   10041a27 f   libucrt:strtox.obj
 0001:00040a5e       _strtoul                   10041a5e f   libucrt:strtox.obj
 0001:00040a95       _strtoull                  10041a95 f   libucrt:strtox.obj
 0001:00040acc       _strtoumax                 10041acc f   libucrt:strtox.obj
 0001:00040b03       _wcstoimax                 10041b03 f   libucrt:strtox.obj
 0001:00040b3a       _wcstol                    10041b3a f   libucrt:strtox.obj
 0001:00040b71       _wcstoll                   10041b71 f   libucrt:strtox.obj
 0001:00040ba8       _wcstoul                   10041ba8 f   libucrt:strtox.obj
 0001:00040bdf       _wcstoull                  10041bdf f   libucrt:strtox.obj
 0001:00040c16       _wcstoumax                 10041c16 f   libucrt:strtox.obj
 0001:00040c4d       __mbtowc_l                 10041c4d f   libucrt:mbtowc.obj
 0001:00040d85       _mbtowc                    10041d85 f   libucrt:mbtowc.obj
 0001:00040da5       __wctomb_l                 10041da5 f   libucrt:wctomb.obj
 0001:00040e0c       __wctomb_s_l               10041e0c f   libucrt:wctomb.obj
 0001:00040f75       _wctomb                    10041f75 f   libucrt:wctomb.obj
 0001:00040fb6       _wctomb_s                  10041fb6 f   libucrt:wctomb.obj
 0001:000416ce       ??1?$__crt_simd_cleanup_guard@$00@@QAE@XZ 100426ce f i libucrt:strnlen.obj
 0001:000416d2       ??1?$__crt_simd_cleanup_guard@$0A@@@QAE@XZ 100426d2 f i libucrt:strnlen.obj
 0001:000416d3       ?compare_equals@?$__crt_simd_traits@$00E@@SA?AT__m256i@@T2@0@Z 100426d3 f i libucrt:strnlen.obj
 0001:000416d8       ?compare_equals@?$__crt_simd_traits@$00G@@SA?AT__m256i@@T2@0@Z 100426d8 f i libucrt:strnlen.obj
 0001:000416dd       ?compare_equals@?$__crt_simd_traits@$0A@E@@SA?AT__m128i@@T2@0@Z 100426dd f i libucrt:strnlen.obj
 0001:000416e2       ?compare_equals@?$__crt_simd_traits@$0A@G@@SA?AT__m128i@@T2@0@Z 100426e2 f i libucrt:strnlen.obj
 0001:000416e7       ?compute_byte_mask@?$__crt_simd_pack_traits@$00@@SAHT__m256i@@@Z 100426e7 f i libucrt:strnlen.obj
 0001:000416ec       ?compute_byte_mask@?$__crt_simd_pack_traits@$0A@@@SAHT__m128i@@@Z 100426ec f i libucrt:strnlen.obj
 0001:000416f1       ?get_zero_pack@?$__crt_simd_pack_traits@$00@@SA?AT__m256i@@XZ 100426f1 f i libucrt:strnlen.obj
 0001:000416f6       ?get_zero_pack@?$__crt_simd_pack_traits@$0A@@@SA?AT__m128i@@XZ 100426f6 f i libucrt:strnlen.obj
 0001:000416fb       _strnlen                   100426fb f   libucrt:strnlen.obj
 0001:0004186b       _wcsnlen                   1004286b f   libucrt:strnlen.obj
 0001:00041a8f       ??$?RU__acrt_ptd@@@__crt_internal_free_policy@@QBEXQBU__acrt_ptd@@@Z 10042a8f f i libucrt:per_thread_data.obj
 0001:00041aa5       ??$?RV<lambda_3518db117f0e7cdb002338c5d3c47b6c>@@AAV<lambda_b2ea41f6bbb362cd97d94c6828d90b61>@@V<lambda_abdedf541bb04549bc734292b4a045d4>@@@?$__crt_seh_guarded_call@X@@QAEX$$QAV<lambda_3518db117f0e7cdb002338c5d3c47b6c>@@AAV<lambda_b2ea41f6bbb362cd97d94c6828d90b61>@@$$QAV<lambda_abdedf541bb04549bc734292b4a045d4>@@@Z 10042aa5 f i libucrt:per_thread_data.obj
 0001:00041b09       ??$?RV<lambda_51b6e8b1eb166f2a3faf91f424b38130>@@AAV<lambda_6250bd4b2a391816dd638c3bf72b0bcb>@@V<lambda_0b5a4a3e68152e1d9b943535f5f47bed>@@@?$__crt_seh_guarded_call@X@@QAEX$$QAV<lambda_51b6e8b1eb166f2a3faf91f424b38130>@@AAV<lambda_6250bd4b2a391816dd638c3bf72b0bcb>@@$$QAV<lambda_0b5a4a3e68152e1d9b943535f5f47bed>@@@Z 10042b09 f i libucrt:per_thread_data.obj
 0001:00041b82       ??$?RV<lambda_5b71d36f03204c0beab531769a5b5694>@@AAV<lambda_be2b3da3f62db62e9dad5dc70221a656>@@V<lambda_8f9ce462984622f9bf76b59e2aaaf805>@@@?$__crt_seh_guarded_call@X@@QAEX$$QAV<lambda_5b71d36f03204c0beab531769a5b5694>@@AAV<lambda_be2b3da3f62db62e9dad5dc70221a656>@@$$QAV<lambda_8f9ce462984622f9bf76b59e2aaaf805>@@@Z 10042b82 f i libucrt:per_thread_data.obj
 0001:00041bdf       ??$?RV<lambda_9df27f884b057bc3edfc946cb5b7cf47>@@AAV<lambda_e69574bed617af4e071282c136b37893>@@V<lambda_cc0d902bcbbeb830f749456577db4721>@@@?$__crt_seh_guarded_call@X@@QAEX$$QAV<lambda_9df27f884b057bc3edfc946cb5b7cf47>@@AAV<lambda_e69574bed617af4e071282c136b37893>@@$$QAV<lambda_cc0d902bcbbeb830f749456577db4721>@@@Z 10042bdf f i libucrt:per_thread_data.obj
 0001:00041c39       ??$__acrt_lock_and_call@V<lambda_6250bd4b2a391816dd638c3bf72b0bcb>@@@@YAXW4__acrt_lock_id@@$$QAV<lambda_6250bd4b2a391816dd638c3bf72b0bcb>@@@Z 10042c39 f i libucrt:per_thread_data.obj
 0001:00041c6b       ??$__acrt_lock_and_call@V<lambda_b2ea41f6bbb362cd97d94c6828d90b61>@@@@YAXW4__acrt_lock_id@@$$QAV<lambda_b2ea41f6bbb362cd97d94c6828d90b61>@@@Z 10042c6b f i libucrt:per_thread_data.obj
 0001:00041c9d       ??$__acrt_lock_and_call@V<lambda_be2b3da3f62db62e9dad5dc70221a656>@@@@YAXW4__acrt_lock_id@@$$QAV<lambda_be2b3da3f62db62e9dad5dc70221a656>@@@Z 10042c9d f i libucrt:per_thread_data.obj
 0001:00041ccf       ??$__acrt_lock_and_call@V<lambda_e69574bed617af4e071282c136b37893>@@@@YAXW4__acrt_lock_id@@$$QAV<lambda_e69574bed617af4e071282c136b37893>@@@Z 10042ccf f i libucrt:per_thread_data.obj
 0001:00041e08       ??0?$__crt_unique_heap_ptr@U__acrt_ptd@@U__crt_internal_free_policy@@@@QAE@QAU__acrt_ptd@@@Z 10042e08 f i libucrt:per_thread_data.obj
 0001:00041e1c       ??0__crt_scoped_get_last_error_reset@@QAE@XZ 10042e1c f i libucrt:per_thread_data.obj
 0001:00041e31       ??1?$__crt_unique_heap_ptr@U__acrt_ptd@@U__crt_internal_free_policy@@@@QAE@XZ 10042e31 f i libucrt:per_thread_data.obj
 0001:00041e47       ??1__crt_scoped_get_last_error_reset@@QAE@XZ 10042e47 f i libucrt:per_thread_data.obj
 0001:00041e52       ??B?$__crt_unique_heap_ptr@U__acrt_ptd@@U__crt_internal_free_policy@@@@QBE_NXZ 10042e52 f i libucrt:per_thread_data.obj
 0001:00041fc8       ?dangerous_get_state_array@?$dual_state_global@PAU__crt_locale_data@@@__crt_state_management@@QAEPAPAU__crt_locale_data@@XZ 10042fc8 f i libucrt:per_thread_data.obj
 0001:000420cc       ?detach@?$__crt_unique_heap_ptr@U__acrt_ptd@@U__crt_internal_free_policy@@@@QAEPAU__acrt_ptd@@XZ 100430cc f i libucrt:per_thread_data.obj
 0001:000420d2       ?get@?$__crt_unique_heap_ptr@U__acrt_ptd@@U__crt_internal_free_policy@@@@QBEPAU__acrt_ptd@@XZ 100430d2 f i libucrt:per_thread_data.obj
 0001:000421e1       ?is_valid@?$__crt_unique_heap_ptr@U__acrt_ptd@@U__crt_internal_free_policy@@@@QBE_NXZ 100431e1 f i libucrt:per_thread_data.obj
 0001:000421eb       ?release@?$__crt_unique_heap_ptr@U__acrt_ptd@@U__crt_internal_free_policy@@@@QAEXXZ 100431eb f i libucrt:per_thread_data.obj
 0001:00042277       ?value@?$dual_state_global@PAU__crt_locale_data@@@__crt_state_management@@QAEAAPAU__crt_locale_data@@XZ 10043277 f i libucrt:per_thread_data.obj
 0001:0004227a       ___acrt_freeptd            1004327a f   libucrt:per_thread_data.obj
 0001:000422b1       ___acrt_getptd             100432b1 f   libucrt:per_thread_data.obj
 0001:00042356       ___acrt_getptd_noexit      10043356 f   libucrt:per_thread_data.obj
 0001:000423fc       ___acrt_initialize_ptd     100433fc f   libucrt:per_thread_data.obj
 0001:00042433       ___acrt_uninitialize_ptd   10043433 f   libucrt:per_thread_data.obj
 0001:00042453       ___threadhandle            10043453 f   libucrt:per_thread_data.obj
 0001:00042459       ___threadid                10043459 f   libucrt:per_thread_data.obj
 0001:0004245f       ___acrt_update_locale_info 1004345f f   libucrt:locale_update.obj
 0001:00042497       ___acrt_update_multibyte_info 10043497 f   libucrt:locale_update.obj
 0001:000424cf       ?__acrt_fp_classify@@YA?AW4__acrt_fp_class@@ABN@Z 100434cf f i libucrt:cvt.obj
 0001:00042556       ?__acrt_fp_is_negative@@YA_NABN@Z 10043556 f i libucrt:cvt.obj
 0001:00042fc9       ?strrchr@@YAPADQADH@Z      10043fc9 f i libucrt:cvt.obj
 0001:00042fd6       ___acrt_fp_format          10043fd6 f   libucrt:cvt.obj
 0001:000431b0       __fputwc_nolock            100441b0 f   libucrt:fputwc.obj
 0001:0004331f       __fputwchar                1004431f f   libucrt:fputwc.obj
 0001:0004333f       __putwc_nolock             1004433f f   libucrt:fputwc.obj
 0001:0004334c       _fputwc                    1004434c f   libucrt:fputwc.obj
 0001:000433e5       _putwc                     100443e5 f   libucrt:fputwc.obj
 0001:000433f2       _putwchar                  100443f2 f   libucrt:fputwc.obj
 0001:000433ff       ?lowio_handle@__crt_stdio_stream@@QBEHXZ 100443ff f i libucrt:fileno.obj
 0001:00043405       __fileno                   10044405 f   libucrt:fileno.obj
 0001:00043434       __fputc_nolock             10044434 f   libucrt:fputc.obj
 0001:00043467       __fputchar                 10044467 f   libucrt:fputc.obj
 0001:00043487       __putc_nolock              10044487 f   libucrt:fputc.obj
 0001:00043494       _fputc                     10044494 f   libucrt:fputc.obj
 0001:000435d9       _putc                      100445d9 f   libucrt:fputc.obj
 0001:000435e6       _putchar                   100445e6 f   libucrt:fputc.obj
 0001:000435f3       __get_printf_count_output  100445f3 f   libucrt:printf_count_output.obj
 0001:0004360d       __set_printf_count_output  1004460d f   libucrt:printf_count_output.obj
 0001:00043641       ?has_temporary_buffer@__crt_stdio_stream@@QBE_NXZ 10044641 f i libucrt:_sftbuf.obj
 0001:00043650       ___acrt_stdio_begin_temporary_buffering_nolock 10044650 f   libucrt:_sftbuf.obj
 0001:00043732       ___acrt_stdio_end_temporary_buffering_nolock 10044732 f   libucrt:_sftbuf.obj
 0001:0004377c       ??$?RU__crt_locale_data@@@__crt_internal_free_policy@@QBEXQBU__crt_locale_data@@@Z 1004477c f i libucrt:wsetlocale.obj
 0001:00043792       ??$?RU__crt_locale_pointers@@@__crt_internal_free_policy@@QBEXQBU__crt_locale_pointers@@@Z 10044792 f i libucrt:wsetlocale.obj
 0001:000437a8       ??$?RU__crt_multibyte_data@@@__crt_internal_free_policy@@QBEXQBU__crt_multibyte_data@@@Z 100447a8 f i libucrt:wsetlocale.obj
 0001:000437be       ??$?RV<lambda_70818de7b02deff9841e8b0962a60ed9>@@AAV<lambda_2af78c5f5901b1372d98f9ab3177dfa6>@@AAV<lambda_f51fe5fd7c79a33db34fc9310f277369>@@@?$__crt_seh_guarded_call@X@@QAEX$$QAV<lambda_70818de7b02deff9841e8b0962a60ed9>@@AAV<lambda_2af78c5f5901b1372d98f9ab3177dfa6>@@AAV<lambda_f51fe5fd7c79a33db34fc9310f277369>@@@Z 100447be f i libucrt:wsetlocale.obj
 0001:00043807       ??$?RV<lambda_76aaead6e312921abc834cb00a638bdd>@@AAV<lambda_176e34f99554166dd2fac165c457248c>@@V<lambda_998ee1c9f4290b119b936bcd6215875a>@@@?$__crt_seh_guarded_call@X@@QAEX$$QAV<lambda_76aaead6e312921abc834cb00a638bdd>@@AAV<lambda_176e34f99554166dd2fac165c457248c>@@$$QAV<lambda_998ee1c9f4290b119b936bcd6215875a>@@@Z 10044807 f i libucrt:wsetlocale.obj
 0001:00043863       ??$?RV<lambda_c76fdea48760d5f9368b465f31df4405>@@AAV<lambda_e378711a6f6581bf7f0efd7cdf97f5d9>@@V<lambda_e927a58b2a85c081d733e8c6192ae2d2>@@@?$__crt_seh_guarded_call@X@@QAEX$$QAV<lambda_c76fdea48760d5f9368b465f31df4405>@@AAV<lambda_e378711a6f6581bf7f0efd7cdf97f5d9>@@$$QAV<lambda_e927a58b2a85c081d733e8c6192ae2d2>@@@Z 10044863 f i libucrt:wsetlocale.obj
 0001:000438b6       ??$?RV<lambda_c9469061b39d205f0f236529d4a41659>@@AAV<lambda_b7fb1a997d3ebc0cc0186c5835178808>@@V<lambda_14b92c79d699846b5cc916cd4cf280e4>@@@?$__crt_seh_guarded_call@X@@QAEX$$QAV<lambda_c9469061b39d205f0f236529d4a41659>@@AAV<lambda_b7fb1a997d3ebc0cc0186c5835178808>@@$$QAV<lambda_14b92c79d699846b5cc916cd4cf280e4>@@@Z 100448b6 f i libucrt:wsetlocale.obj
 0001:00043910       ??$__acrt_lock_and_call@V<lambda_176e34f99554166dd2fac165c457248c>@@@@YAXW4__acrt_lock_id@@$$QAV<lambda_176e34f99554166dd2fac165c457248c>@@@Z 10044910 f i libucrt:wsetlocale.obj
 0001:00043942       ??$__acrt_lock_and_call@V<lambda_b7fb1a997d3ebc0cc0186c5835178808>@@@@YAXW4__acrt_lock_id@@$$QAV<lambda_b7fb1a997d3ebc0cc0186c5835178808>@@@Z 10044942 f i libucrt:wsetlocale.obj
 0001:00043974       ??$__acrt_lock_and_call@V<lambda_e378711a6f6581bf7f0efd7cdf97f5d9>@@@@YAXW4__acrt_lock_id@@$$QAV<lambda_e378711a6f6581bf7f0efd7cdf97f5d9>@@@Z 10044974 f i libucrt:wsetlocale.obj
 0001:000439a6       ??$__crt_call_and_cleanup@V<lambda_2af78c5f5901b1372d98f9ab3177dfa6>@@V<lambda_f51fe5fd7c79a33db34fc9310f277369>@@@@YAX$$QAV<lambda_2af78c5f5901b1372d98f9ab3177dfa6>@@$$QAV<lambda_f51fe5fd7c79a33db34fc9310f277369>@@@Z 100449a6 f i libucrt:wsetlocale.obj
 0001:000439c9       ??$__vcrt_va_start_verify_argument_type@H@@YAXXZ 100449c9 f i libucrt:wsetlocale.obj
 0001:00043aee       ??0?$__crt_unique_heap_ptr@U__crt_locale_data@@U__crt_internal_free_policy@@@@QAE@QAU__crt_locale_data@@@Z 10044aee f i libucrt:wsetlocale.obj
 0001:00043b02       ??0?$__crt_unique_heap_ptr@U__crt_locale_pointers@@U__crt_internal_free_policy@@@@QAE@QAU__crt_locale_pointers@@@Z 10044b02 f i libucrt:wsetlocale.obj
 0001:00043b16       ??0?$__crt_unique_heap_ptr@U__crt_multibyte_data@@U__crt_internal_free_policy@@@@QAE@QAU__crt_multibyte_data@@@Z 10044b16 f i libucrt:wsetlocale.obj
 0001:00043b2a       ??1?$__crt_unique_heap_ptr@U__crt_locale_data@@U__crt_internal_free_policy@@@@QAE@XZ 10044b2a f i libucrt:wsetlocale.obj
 0001:00043b40       ??1?$__crt_unique_heap_ptr@U__crt_locale_pointers@@U__crt_internal_free_policy@@@@QAE@XZ 10044b40 f i libucrt:wsetlocale.obj
 0001:00043b56       ??1?$__crt_unique_heap_ptr@U__crt_multibyte_data@@U__crt_internal_free_policy@@@@QAE@XZ 10044b56 f i libucrt:wsetlocale.obj
 0001:00043b6c       ??B?$__crt_unique_heap_ptr@U__crt_locale_data@@U__crt_internal_free_policy@@@@QBE_NXZ 10044b6c f i libucrt:wsetlocale.obj
 0001:00043b76       ??B?$__crt_unique_heap_ptr@U__crt_locale_pointers@@U__crt_internal_free_policy@@@@QBE_NXZ 10044b76 f i libucrt:wsetlocale.obj
 0001:00043b80       ??B?$__crt_unique_heap_ptr@U__crt_multibyte_data@@U__crt_internal_free_policy@@@@QBE_NXZ 10044b80 f i libucrt:wsetlocale.obj
 0001:00043da9       ?detach@?$__crt_unique_heap_ptr@U__crt_locale_data@@U__crt_internal_free_policy@@@@QAEPAU__crt_locale_data@@XZ 10044da9 f i libucrt:wsetlocale.obj
 0001:00043daf       ?detach@?$__crt_unique_heap_ptr@U__crt_locale_pointers@@U__crt_internal_free_policy@@@@QAEPAU__crt_locale_pointers@@XZ 10044daf f i libucrt:wsetlocale.obj
 0001:00043db5       ?detach@?$__crt_unique_heap_ptr@U__crt_multibyte_data@@U__crt_internal_free_policy@@@@QAEPAU__crt_multibyte_data@@XZ 10044db5 f i libucrt:wsetlocale.obj
 0001:00043dbb       ?get@?$__crt_unique_heap_ptr@U__crt_locale_data@@U__crt_internal_free_policy@@@@QBEPAU__crt_locale_data@@XZ 10044dbb f i libucrt:wsetlocale.obj
 0001:00043dbe       ?get@?$__crt_unique_heap_ptr@U__crt_locale_pointers@@U__crt_internal_free_policy@@@@QBEPAU__crt_locale_pointers@@XZ 10044dbe f i libucrt:wsetlocale.obj
 0001:00043dc1       ?get@?$__crt_unique_heap_ptr@U__crt_multibyte_data@@U__crt_internal_free_policy@@@@QBEPAU__crt_multibyte_data@@XZ 10044dc1 f i libucrt:wsetlocale.obj
 0001:00043dc4       ?is_valid@?$__crt_unique_heap_ptr@U__crt_locale_data@@U__crt_internal_free_policy@@@@QBE_NXZ 10044dc4 f i libucrt:wsetlocale.obj
 0001:00043dce       ?is_valid@?$__crt_unique_heap_ptr@U__crt_locale_pointers@@U__crt_internal_free_policy@@@@QBE_NXZ 10044dce f i libucrt:wsetlocale.obj
 0001:00043dd8       ?is_valid@?$__crt_unique_heap_ptr@U__crt_multibyte_data@@U__crt_internal_free_policy@@@@QBE_NXZ 10044dd8 f i libucrt:wsetlocale.obj
 0001:00043de2       ?release@?$__crt_unique_heap_ptr@U__crt_locale_data@@U__crt_internal_free_policy@@@@QAEXXZ 10044de2 f i libucrt:wsetlocale.obj
 0001:00043df8       ?release@?$__crt_unique_heap_ptr@U__crt_locale_pointers@@U__crt_internal_free_policy@@@@QAEXXZ 10044df8 f i libucrt:wsetlocale.obj
 0001:00043e0e       ?release@?$__crt_unique_heap_ptr@U__crt_multibyte_data@@U__crt_internal_free_policy@@@@QAEXXZ 10044e0e f i libucrt:wsetlocale.obj
 0001:00043e24       ___acrt_copy_locale_name   10044e24 f   libucrt:wsetlocale.obj
 0001:00043ea3       ___acrt_set_locale_changed 10044ea3 f   libucrt:wsetlocale.obj
 0001:00043eb0       ___acrt_uninitialize_locale 10044eb0 f   libucrt:wsetlocale.obj
 0001:00043f16       ___lc_lctowcs              10044f16 f   libucrt:wsetlocale.obj
 0001:00043fa2       ___lc_wcstolc              10044fa2 f   libucrt:wsetlocale.obj
 0001:0004411c       __configthreadlocale       1004511c f   libucrt:wsetlocale.obj
 0001:000441d0       __create_locale            100451d0 f   libucrt:wsetlocale.obj
 0001:0004424d       __expandlocale             1004524d f   libucrt:wsetlocale.obj
 0001:000446a1       __free_locale              100456a1 f   libucrt:wsetlocale.obj
 0001:00044787       __get_current_locale       10045787 f   libucrt:wsetlocale.obj
 0001:00044820       __wcreate_locale           10045820 f   libucrt:wsetlocale.obj
 0001:0004496b       __wcscats                  1004596b f   libucrt:wsetlocale.obj
 0001:000449bc       __wsetlocale               100459bc f   libucrt:wsetlocale.obj
 0001:000454e2       ___p___mb_cur_max          100464e2 f   libucrt:nlsdata.obj
 0001:000455d9       ___acrt_report_runtime_error 100465d9 f   libucrt:report_runtime_error.obj
 0001:0004573f       __query_app_type           1004673f f   libucrt:report_runtime_error.obj
 0001:00045745       __set_app_type             10046745 f   libucrt:report_runtime_error.obj
 0001:00045c31       __i64toa                   10046c31 f   libucrt:xtoa.obj
 0001:00045c84       __i64toa_s                 10046c84 f   libucrt:xtoa.obj
 0001:00045cd5       __i64tow                   10046cd5 f   libucrt:xtoa.obj
 0001:00045d28       __i64tow_s                 10046d28 f   libucrt:xtoa.obj
 0001:00045d79       __itoa                     10046d79 f   libucrt:xtoa.obj
 0001:00045dbd       __itoa_s                   10046dbd f   libucrt:xtoa.obj
 0001:00045dff       __itow                     10046dff f   libucrt:xtoa.obj
 0001:00045e43       __itow_s                   10046e43 f   libucrt:xtoa.obj
 0001:00045e85       __ltoa                     10046e85 f   libucrt:xtoa.obj
 0001:00045ec9       __ltoa_s                   10046ec9 f   libucrt:xtoa.obj
 0001:00045f0b       __ltow                     10046f0b f   libucrt:xtoa.obj
 0001:00045f4f       __ltow_s                   10046f4f f   libucrt:xtoa.obj
 0001:00045f91       __ui64toa                  10046f91 f   libucrt:xtoa.obj
 0001:00045fbb       __ui64toa_s                10046fbb f   libucrt:xtoa.obj
 0001:00045fe3       __ui64tow                  10046fe3 f   libucrt:xtoa.obj
 0001:0004600d       __ui64tow_s                1004700d f   libucrt:xtoa.obj
 0001:00046035       __ultoa                    10047035 f   libucrt:xtoa.obj
 0001:0004605b       __ultoa_s                  1004705b f   libucrt:xtoa.obj
 0001:0004607f       __ultow                    1004707f f   libucrt:xtoa.obj
 0001:000460a5       __ultow_s                  100470a5 f   libucrt:xtoa.obj
 0001:000460c9       __set_error_mode           100470c9 f   libucrt:set_error_mode.obj
 0001:000461a5       _wcscat_s                  100471a5 f   libucrt:wcscat_s.obj
 0001:000462af       _wcscpy_s                  100472af f   libucrt:wcscpy_s.obj
 0001:0004644f       _wcsncat_s                 1004744f f   libucrt:wcsncat_s.obj
 0001:000464df       _strcat_s                  100474df f   libucrt:strcat_s.obj
 0001:00046666       _strncat_s                 10047666 f   libucrt:strncat_s.obj
 0001:00046891       ??$message_box@$$TAAPBDAAPBDAAI@?$__crt_char_traits@D@@SAH$$QA$$TAAPBD1AAI@Z 10047891 f i libucrt:crtmbox.obj
 0001:000468b9       ??$message_box@$$TAAPB_WAAPB_WAAI@?$__crt_char_traits@_W@@SAH$$QA$$TAAPB_W1AAI@Z 100478b9 f i libucrt:crtmbox.obj
 0001:000468e1       ??$message_box@$$TABQBDABQBDK@?$__crt_char_traits@D@@SAH$$QA$$TABQBD1$$QAK@Z 100478e1 f i libucrt:crtmbox.obj
 0001:00046909       ??$message_box@$$TABQB_WABQB_WK@?$__crt_char_traits@_W@@SAH$$QA$$TABQB_W1$$QAK@Z 10047909 f i libucrt:crtmbox.obj
 0001:00046931       ??$message_box@PAUHWND__@@ABQBDABQBDABI@?$__crt_char_traits@D@@SAH$$QAPAUHWND__@@ABQBD1ABI@Z 10047931 f i libucrt:crtmbox.obj
 0001:00046959       ??$message_box@PAUHWND__@@ABQB_WABQB_WABI@?$__crt_char_traits@_W@@SAH$$QAPAUHWND__@@ABQB_W1ABI@Z 10047959 f i libucrt:crtmbox.obj
 0001:000469d5       ??$output_debug_string@ABQBD@?$__crt_char_traits@D@@SAXABQBD@Z 100479d5 f i libucrt:crtmbox.obj
 0001:000469eb       ??$output_debug_string@ABQB_W@?$__crt_char_traits@_W@@SAXABQB_W@Z 100479eb f i libucrt:crtmbox.obj
 0001:00046a01       ??0?$__crt_unique_handle_t@U__crt_handle_traits@@@@QAE@QAX@Z 10047a01 f i libucrt:crtmbox.obj
 0001:00046a15       ??1?$__crt_unique_handle_t@U__crt_handle_traits@@@@QAE@XZ 10047a15 f i libucrt:crtmbox.obj
 0001:00046a31       ??B?$__crt_unique_handle_t@U__crt_handle_traits@@@@QBE_NXZ 10047a31 f i libucrt:crtmbox.obj
 0001:00046a3c       ?close@?$__crt_unique_handle_t@U__crt_handle_traits@@@@QAEXXZ 10047a3c f i libucrt:crtmbox.obj
 0001:00046a58       ?close@__crt_handle_traits@@SA_NPAX@Z 10047a58 f i libucrt:crtmbox.obj
 0001:00046a73       ?get@?$__crt_unique_handle_t@U__crt_handle_traits@@@@QBEPAXXZ 10047a73 f i libucrt:crtmbox.obj
 0001:00046a76       ?get_invalid_value@__crt_handle_traits@@SAPAXXZ 10047a76 f i libucrt:crtmbox.obj
 0001:00046a7a       ?is_valid@?$__crt_unique_handle_t@U__crt_handle_traits@@@@QBE_NXZ 10047a7a f i libucrt:crtmbox.obj
 0001:00046a85       ___acrt_show_narrow_message_box 10047a85 f   libucrt:crtmbox.obj
 0001:00046a92       ___acrt_show_wide_message_box 10047a92 f   libucrt:crtmbox.obj
 0001:00046a9f       ??$?RV<lambda_d92cfe8357b99225085016881b624cb0>@@AAV<lambda_b721fa326cdb32351d23dfa67958c160>@@V<lambda_42d75b0848218ec137fa420c8ba9fdf9>@@@?$__crt_seh_guarded_call@H@@QAEH$$QAV<lambda_d92cfe8357b99225085016881b624cb0>@@AAV<lambda_b721fa326cdb32351d23dfa67958c160>@@$$QAV<lambda_42d75b0848218ec137fa420c8ba9fdf9>@@@Z 10047a9f f i libucrt:setvbuf.obj
 0001:00046b04       ??$__acrt_lock_stream_and_call@V<lambda_b721fa326cdb32351d23dfa67958c160>@@@@YAHQAU_iobuf@@$$QAV<lambda_b721fa326cdb32351d23dfa67958c160>@@@Z 10047b04 f i libucrt:setvbuf.obj
 0001:00046ca1       _setvbuf                   10047ca1 f   libucrt:setvbuf.obj
 0001:00046d34       ??$?B$$A6AXH@Z@__crt_fast_encoded_nullptr_t@@QBEP6AXH@ZXZ 10047d34 f i libucrt:signal.obj
 0001:00046d52       ??$?RV<lambda_a048d3beccc847880fc8490e18b82769>@@AAV<lambda_ec61778202f4f5fc7e7711acc23c3bca>@@V<lambda_f7496a158712204296dd6628a163878e>@@@?$__crt_seh_guarded_call@P6AXH@Z@@QAEP6AXH@Z$$QAV<lambda_a048d3beccc847880fc8490e18b82769>@@AAV<lambda_ec61778202f4f5fc7e7711acc23c3bca>@@$$QAV<lambda_f7496a158712204296dd6628a163878e>@@@Z 10047d52 f i libucrt:signal.obj
 0001:00046dc2       ??$__acrt_lock_and_call@V<lambda_ec61778202f4f5fc7e7711acc23c3bca>@@@@YAP6AXH@ZW4__acrt_lock_id@@$$QAV<lambda_ec61778202f4f5fc7e7711acc23c3bca>@@@Z 10047dc2 f i libucrt:signal.obj
 0001:00046df4       ??$__crt_fast_decode_pointer@P6AXH@Z@@YAP6AXH@ZQ6AXH@Z@Z 10047df4 f i libucrt:signal.obj
 0001:00046e0f       ??$__crt_fast_encode_pointer@P6AXH@Z@@YAP6AXH@ZQ6AXH@Z@Z 10047e0f f i libucrt:signal.obj
 0001:00046fb9       ?initialize@?$dual_state_global@P6AXH@Z@__crt_state_management@@QAEXQ6AXH@Z@Z 10047fb9 f i libucrt:signal.obj
 0001:00047065       ?value@?$dual_state_global@P6AXH@Z@__crt_state_management@@QAEAAP6AXH@ZXZ 10048065 f i libucrt:signal.obj
 0001:00047068       ___acrt_get_sigabrt_handler 10048068 f   libucrt:signal.obj
 0001:00047084       ___acrt_initialize_signal_handlers 10048084 f   libucrt:signal.obj
 0001:000470cd       ___fpecode                 100480cd f   libucrt:signal.obj
 0001:000470d8       ___pxcptinfoptrs           100480d8 f   libucrt:signal.obj
 0001:000470e3       _raise                     100480e3 f   libucrt:signal.obj
 0001:0004736d       _signal                    1004836d f   libucrt:signal.obj
 0001:0004758b       __realloc_base             1004858b f   libucrt:realloc_base.obj
 0001:0004760e       ___acrt_initialize_locks   1004860e f   libucrt:locks.obj
 0001:0004765f       ___acrt_lock               1004865f f   libucrt:locks.obj
 0001:0004767b       ___acrt_uninitialize_locks 1004867b f   libucrt:locks.obj
 0001:000476b8       ___acrt_unlock             100486b8 f   libucrt:locks.obj
 0001:000476d4       __lock_locales             100486d4 f   libucrt:locks.obj
 0001:000476df       __unlock_locales           100486df f   libucrt:locks.obj
 0001:000476ea       ??$?RV<lambda_123407a5e2ac06da108355a851863b7a>@@AAV<lambda_2fe9b910cf3cbf4a0ab98a02ba45b3ec>@@V<lambda_ae55bdf541ad94d75914d381c370e64d>@@@?$__crt_seh_guarded_call@H@@QAEH$$QAV<lambda_123407a5e2ac06da108355a851863b7a>@@AAV<lambda_2fe9b910cf3cbf4a0ab98a02ba45b3ec>@@$$QAV<lambda_ae55bdf541ad94d75914d381c370e64d>@@@Z 100486ea f i libucrt:close.obj
 0001:0004778c       ??$__acrt_lowio_lock_fh_and_call@V<lambda_2fe9b910cf3cbf4a0ab98a02ba45b3ec>@@@@YAHH$$QAV<lambda_2fe9b910cf3cbf4a0ab98a02ba45b3ec>@@@Z 1004878c f i libucrt:close.obj
 0001:000478df       __close                    100488df f   libucrt:close.obj
 0001:0004797d       __close_nolock             1004897d f   libucrt:close.obj
 0001:00047a40       ??$?RU__crt_stdio_stream_data@@@__crt_internal_free_policy@@QBEXQBU__crt_stdio_stream_data@@@Z 10048a40 f i libucrt:stream.obj
 0001:00047a56       ??0?$__crt_unique_heap_ptr@U__crt_stdio_stream_data@@U__crt_internal_free_policy@@@@QAE@QAU__crt_stdio_stream_data@@@Z 10048a56 f i libucrt:stream.obj
 0001:00047a6a       ??0__crt_stdio_stream@@QAE@XZ 10048a6a f i libucrt:stream.obj
 0001:00047a70       ??1?$__crt_unique_heap_ptr@U__crt_stdio_stream_data@@U__crt_internal_free_policy@@@@QAE@XZ 10048a70 f i libucrt:stream.obj
 0001:00047a86       ?__acrt_stdio_allocate_stream@@YA?AV__crt_stdio_stream@@XZ 10048a86 f   libucrt:stream.obj
 0001:00047afc       ?__acrt_stdio_free_stream@@YAXV__crt_stdio_stream@@@Z 10048afc f   libucrt:stream.obj
 0001:00047b45       ?deallocate@__crt_stdio_stream@@QAEXXZ 10048b45 f i libucrt:stream.obj
 0001:00047b51       ?detach@?$__crt_unique_heap_ptr@U__crt_stdio_stream_data@@U__crt_internal_free_policy@@@@QAEPAU__crt_stdio_stream_data@@XZ 10048b51 f i libucrt:stream.obj
 0001:00047c4a       ?lock@__crt_stdio_stream@@QBEXXZ 10048c4a f i libucrt:stream.obj
 0001:00047c55       ?release@?$__crt_unique_heap_ptr@U__crt_stdio_stream_data@@U__crt_internal_free_policy@@@@QAEXXZ 10048c55 f i libucrt:stream.obj
 0001:00047c6b       ?try_allocate@__crt_stdio_stream@@QAE_NXZ 10048c6b f i libucrt:stream.obj
 0001:00047c94       ??$__acrt_stdio_parse_mode@D@@YA?AU__acrt_stdio_stream_mode@@QBD@Z 10048c94 f i libucrt:openfile.obj
 0001:00047f52       ??$__acrt_stdio_parse_mode@_W@@YA?AU__acrt_stdio_stream_mode@@QB_W@Z 10048f52 f i libucrt:openfile.obj
 0001:00048373       ??$tcsncmp@AAPBDAAY02$$CBDI@?$__crt_char_traits@D@@SAHAAPBDAAY02$$CBD$$QAI@Z 10049373 f i libucrt:openfile.obj
 0001:00048396       ??$tcsncmp@AAPB_WAAY02$$CB_WI@?$__crt_char_traits@_W@@SAHAAPB_WAAY02$$CB_W$$QAI@Z 10049396 f i libucrt:openfile.obj
 0001:000483b9       ??$tcsnicmp@AAPBDAAY04$$CBDI@?$__crt_char_traits@D@@SAHAAPBDAAY04$$CBD$$QAI@Z 100493b9 f i libucrt:openfile.obj
 0001:000483dc       ??$tcsnicmp@AAPBDAAY06$$CBDI@?$__crt_char_traits@D@@SAHAAPBDAAY06$$CBD$$QAI@Z 100493dc f i libucrt:openfile.obj
 0001:000483ff       ??$tcsnicmp@AAPBDAAY07$$CBDI@?$__crt_char_traits@D@@SAHAAPBDAAY07$$CBD$$QAI@Z 100493ff f i libucrt:openfile.obj
 0001:00048422       ??$tcsnicmp@AAPB_WAAY04$$CB_WI@?$__crt_char_traits@_W@@SAHAAPB_WAAY04$$CB_W$$QAI@Z 10049422 f i libucrt:openfile.obj
 0001:00048445       ??$tcsnicmp@AAPB_WAAY06$$CB_WI@?$__crt_char_traits@_W@@SAHAAPB_WAAY06$$CB_W$$QAI@Z 10049445 f i libucrt:openfile.obj
 0001:00048468       ??$tcsnicmp@AAPB_WAAY07$$CB_WI@?$__crt_char_traits@_W@@SAHAAPB_WAAY07$$CB_W$$QAI@Z 10049468 f i libucrt:openfile.obj
 0001:0004848b       ??$tsopen_s@PAHABQBDABHABHH@?$__crt_char_traits@D@@SAH$$QAPAHABQBDABH2$$QAH@Z 1004948b f i libucrt:openfile.obj
 0001:000484bd       ??$tsopen_s@PAHABQB_WABHABHH@?$__crt_char_traits@_W@@SAH$$QAPAHABQB_WABH2$$QAH@Z 100494bd f i libucrt:openfile.obj
 0001:000484ef       ?__acrt_stdio_parse_mode_D@@YA_NAAU__acrt_stdio_stream_mode@@@Z 100494ef f i libucrt:openfile.obj
 0001:00048510       ?__acrt_stdio_parse_mode_N@@YA_NAAU__acrt_stdio_stream_mode@@@Z 10049510 f i libucrt:openfile.obj
 0001:00048526       ?__acrt_stdio_parse_mode_R@@YA_NAAU__acrt_stdio_stream_mode@@AA_N@Z 10049526 f i libucrt:openfile.obj
 0001:0004854b       ?__acrt_stdio_parse_mode_S@@YA_NAAU__acrt_stdio_stream_mode@@AA_N@Z 1004954b f i libucrt:openfile.obj
 0001:00048570       ?__acrt_stdio_parse_mode_T@@YA_NAAU__acrt_stdio_stream_mode@@@Z 10049570 f i libucrt:openfile.obj
 0001:00048596       ?__acrt_stdio_parse_mode_b@@YA_NAAU__acrt_stdio_stream_mode@@@Z 10049596 f i libucrt:openfile.obj
 0001:000485be       ?__acrt_stdio_parse_mode_c@@YA_NAAU__acrt_stdio_stream_mode@@AA_N@Z 100495be f i libucrt:openfile.obj
 0001:000485e8       ?__acrt_stdio_parse_mode_n@@YA_NAAU__acrt_stdio_stream_mode@@AA_N@Z 100495e8 f i libucrt:openfile.obj
 0001:00048612       ?__acrt_stdio_parse_mode_plus@@YA_NAAU__acrt_stdio_stream_mode@@AA_N@Z 10049612 f i libucrt:openfile.obj
 0001:00048654       ?__acrt_stdio_parse_mode_t@@YA_NAAU__acrt_stdio_stream_mode@@@Z 10049654 f i libucrt:openfile.obj
 0001:0004867c       __openfile                 1004967c f   libucrt:openfile.obj
 0001:00048689       __wopenfile                10049689 f   libucrt:openfile.obj
 0001:00048d2e       __read                     10049d2e f   libucrt:read.obj
 0001:00048e85       __read_nolock              10049e85 f   libucrt:read.obj
 0001:0004981d       ___acrt_stdio_refill_and_read_narrow_nolock 1004a81d f   libucrt:_filbuf.obj
 0001:0004982a       ___acrt_stdio_refill_and_read_wide_nolock 1004a82a f   libucrt:_filbuf.obj
 0001:00049f89       __write                    1004af89 f   libucrt:write.obj
 0001:0004a0ae       __write_nolock             1004b0ae f   libucrt:write.obj
 0001:0004a7f4       ___acrt_stdio_flush_and_write_narrow_nolock 1004b7f4 f   libucrt:_flsbuf.obj
 0001:0004a801       ___acrt_stdio_flush_and_write_wide_nolock 1004b801 f   libucrt:_flsbuf.obj
 0001:0004a80e       ___acrt_copy_path_to_wide_string 1004b80e f   libucrt:string_utilities.obj
 0001:0004a906       ___acrt_copy_to_char       1004b906 f   libucrt:string_utilities.obj
 0001:0004a9f1       __wremove                  1004b9f1 f   libucrt:wunlink.obj
 0001:0004aa23       __wunlink                  1004ba23 f   libucrt:wunlink.obj
 0001:0004ae97       __lseek                    1004be97 f   libucrt:lseek.obj
 0001:0004aea4       __lseek_nolock             1004bea4 f   libucrt:lseek.obj
 0001:0004aeb1       __lseeki64                 1004beb1 f   libucrt:lseek.obj
 0001:0004aed2       __lseeki64_nolock          1004bed2 f   libucrt:lseek.obj
 0001:0004aef3       __chgsign                  1004bef3 f   libucrt:ieeemisc.obj
 0001:0004af2d       __chgsignf                 1004bf2d f   libucrt:ieeemisc.obj
 0001:0004af58       __copysign                 1004bf58 f   libucrt:ieeemisc.obj
 0001:0004af8c       __copysignf                1004bf8c f   libucrt:ieeemisc.obj
 0001:0004afb1       __finite                   1004bfb1 f   libucrt:ieeemisc.obj
 0001:0004afd1       __fpclass                  1004bfd1 f   libucrt:ieeemisc.obj
 0001:0004b09e       __isnan                    1004c09e f   libucrt:ieeemisc.obj
 0001:0004b0e1       __logb                     1004c0e1 f   libucrt:ieeemisc.obj
 0001:0004b1e6       __nextafter                1004c1e6 f   libucrt:ieeemisc.obj
 0001:0004b20c       __scalb                    1004c20c f   libucrt:ieeemisc.obj
 0001:0004b22c       __add_exp                  1004c22c f   libucrt:util.obj
 0001:0004b266       __decomp                   1004c266 f   libucrt:util.obj
 0001:0004b36f       __get_exp                  1004c36f f   libucrt:util.obj
 0001:0004b38e       __set_bexp                 1004c38e f   libucrt:util.obj
 0001:0004b3c1       __set_exp                  1004c3c1 f   libucrt:util.obj
 0001:0004b3fb       __sptype                   1004c3fb f   libucrt:util.obj
 0001:0004b470       ___clrfp_sse2              1004c470 f   libucrt:fpctrl.obj
 0001:0004b499       ___ctrlfp_sse2             1004c499 f   libucrt:fpctrl.obj
 0001:0004b4e2       ___fclrf_sse2              1004c4e2 f   libucrt:fpctrl.obj
 0001:0004b508       ___get_fpsr_sse2           1004c508 f   libucrt:fpctrl.obj
 0001:0004b52d       ___set_fpsr_sse2           1004c52d f   libucrt:fpctrl.obj
 0001:0004b5c0       ___set_statfp_sse2         1004c5c0 f   libucrt:fpctrl.obj
 0001:0004b5e1       ___statfp_sse2             1004c5e1 f   libucrt:fpctrl.obj
 0001:0004b5fb       __clrfp                    1004c5fb f   libucrt:fpctrl.obj
 0001:0004b612       __ctrlfp                   1004c612 f   libucrt:fpctrl.obj
 0001:0004b649       __set_statfp               1004c649 f   libucrt:fpctrl.obj
 0001:0004b6ba       __statfp                   1004c6ba f   libucrt:fpctrl.obj
 0001:0004b6d0       ??$__crt_fast_decode_pointer@P6AHPAU_exception@@@Z@@YAP6AHPAU_exception@@@ZQ6AH0@Z@Z 1004c6d0 f i libucrt:matherr.obj
 0001:0004b6eb       ??$__crt_fast_encode_pointer@P6AHPAU_exception@@@Z@@YAP6AHPAU_exception@@@ZQ6AH0@Z@Z 1004c6eb f i libucrt:matherr.obj
 0001:0004b711       ?initialize@?$dual_state_global@P6AHPAU_exception@@@Z@__crt_state_management@@QAEXQ6AHPAU_exception@@@Z@Z 1004c711 f i libucrt:matherr.obj
 0001:0004b74e       ?value@?$dual_state_global@P6AHPAU_exception@@@Z@__crt_state_management@@QAEAAP6AHPAU_exception@@@ZXZ 1004c74e f i libucrt:matherr.obj
 0001:0004b751       ___acrt_has_user_matherr   1004c751 f   libucrt:matherr.obj
 0001:0004b770       ___acrt_initialize_user_matherr 1004c770 f   libucrt:matherr.obj
 0001:0004b789       ___acrt_invoke_user_matherr 1004c789 f   libucrt:matherr.obj
 0001:0004b7e4       ___setusermatherr          1004c7e4 f   libucrt:matherr.obj
 0001:0004c1f6       ??$find_first_file_ex@ABQADW4_FINDEX_INFO_LEVELS@@PAU_WIN32_FIND_DATAA@@W4_FINDEX_SEARCH_OPS@@$$TH@?$__crt_char_traits@D@@SAPAXABQAD$$QAW4_FINDEX_INFO_LEVELS@@$$QAPAU_WIN32_FIND_DATAA@@$$QAW4_FINDEX_SEARCH_OPS@@$$QA$$T$$QAH@Z 1004d1f6 f i libucrt:argv_wildcards.obj
 0001:0004c22b       ??$find_first_file_ex@ABQA_WW4_FINDEX_INFO_LEVELS@@PAU_WIN32_FIND_DATAW@@W4_FINDEX_SEARCH_OPS@@$$TH@?$__crt_char_traits@_W@@SAPAXABQA_W$$QAW4_FINDEX_INFO_LEVELS@@$$QAPAU_WIN32_FIND_DATAW@@$$QAW4_FINDEX_SEARCH_OPS@@$$QA$$T$$QAH@Z 1004d22b f i libucrt:argv_wildcards.obj
 0001:0004c260       ??$find_next_file@PAXPAU_WIN32_FIND_DATAA@@@?$__crt_char_traits@D@@SAH$$QAPAX$$QAPAU_WIN32_FIND_DATAA@@@Z 1004d260 f i libucrt:argv_wildcards.obj
 0001:0004c27c       ??$find_next_file@PAXPAU_WIN32_FIND_DATAW@@@?$__crt_char_traits@_W@@SAH$$QAPAX$$QAPAU_WIN32_FIND_DATAW@@@Z 1004d27c f i libucrt:argv_wildcards.obj
 0001:0004c298       ??$tcsncpy_s@AAPADIAAPADABI@?$__crt_char_traits@D@@SAHAAPAD$$QAI0ABI@Z 1004d298 f i libucrt:argv_wildcards.obj
 0001:0004c2c3       ??$tcsncpy_s@AAPA_WIAAPA_WABI@?$__crt_char_traits@_W@@SAHAAPA_W$$QAI0ABI@Z 1004d2c3 f i libucrt:argv_wildcards.obj
 0001:0004c2ee       ??$tcsncpy_s@PAD$$CBIABQBDABI@?$__crt_char_traits@D@@SAH$$QAPAD$$QBIABQBDABI@Z 1004d2ee f i libucrt:argv_wildcards.obj
 0001:0004c319       ??$tcsncpy_s@PADABIABQBDABI@?$__crt_char_traits@D@@SAH$$QAPADABIABQBD1@Z 1004d319 f i libucrt:argv_wildcards.obj
 0001:0004c344       ??$tcsncpy_s@PA_W$$CBIABQB_WABI@?$__crt_char_traits@_W@@SAH$$QAPA_W$$QBIABQB_WABI@Z 1004d344 f i libucrt:argv_wildcards.obj
 0001:0004c36f       ??$tcsncpy_s@PA_WABIABQB_WABI@?$__crt_char_traits@_W@@SAH$$QAPA_WABIABQB_W1@Z 1004d36f f i libucrt:argv_wildcards.obj
 0001:0004c39a       ??$tcspbrk@AAPADAAY02$$CBD@?$__crt_char_traits@D@@SAPADAAPADAAY02$$CBD@Z 1004d39a f i libucrt:argv_wildcards.obj
 0001:0004c3b5       ??$tcspbrk@AAPA_WAAY02$$CB_W@?$__crt_char_traits@_W@@SAPA_WAAPA_WAAY02$$CB_W@Z 1004d3b5 f i libucrt:argv_wildcards.obj
 0001:0004c3d0       ??0?$__crt_unique_handle_t@U__crt_findfile_traits@@@@QAE@QAX@Z 1004d3d0 f i libucrt:argv_wildcards.obj
 0001:0004c3e4       ??0?$argument_list@D@?A0xb0e4b824@@QAE@XZ 1004d3e4 f i libucrt:argv_wildcards.obj
 0001:0004c3f4       ??0?$argument_list@_W@?A0xb0e4b824@@QAE@XZ 1004d3f4 f i libucrt:argv_wildcards.obj
 0001:0004c404       ??1?$__crt_unique_handle_t@U__crt_findfile_traits@@@@QAE@XZ 1004d404 f i libucrt:argv_wildcards.obj
 0001:0004c420       ??1?$argument_list@D@?A0xb0e4b824@@QAE@XZ 1004d420 f i libucrt:argv_wildcards.obj
 0001:0004c44e       ??1?$argument_list@_W@?A0xb0e4b824@@QAE@XZ 1004d44e f i libucrt:argv_wildcards.obj
 0001:0004c4dc       ?append@?$argument_list@D@?A0xb0e4b824@@QAEHQAD@Z 1004d4dc f i libucrt:argv_wildcards.obj
 0001:0004c51e       ?append@?$argument_list@_W@?A0xb0e4b824@@QAEHQA_W@Z 1004d51e f i libucrt:argv_wildcards.obj
 0001:0004c560       ?begin@?$argument_list@D@?A0xb0e4b824@@QBEPAPADXZ 1004d560 f i libucrt:argv_wildcards.obj
 0001:0004c563       ?begin@?$argument_list@_W@?A0xb0e4b824@@QBEPAPA_WXZ 1004d563 f i libucrt:argv_wildcards.obj
 0001:0004c566       ?close@?$__crt_unique_handle_t@U__crt_findfile_traits@@@@QAEXXZ 1004d566 f i libucrt:argv_wildcards.obj
 0001:0004c582       ?close@__crt_findfile_traits@@SA_NPAX@Z 1004d582 f i libucrt:argv_wildcards.obj
 0001:0004c59d       ?end@?$argument_list@D@?A0xb0e4b824@@QBEPAPADXZ 1004d59d f i libucrt:argv_wildcards.obj
 0001:0004c5a1       ?end@?$argument_list@_W@?A0xb0e4b824@@QBEPAPA_WXZ 1004d5a1 f i libucrt:argv_wildcards.obj
 0001:0004c5a5       ?expand_if_necessary@?$argument_list@D@?A0xb0e4b824@@AAEHXZ 1004d5a5 f i libucrt:argv_wildcards.obj
 0001:0004c64d       ?expand_if_necessary@?$argument_list@_W@?A0xb0e4b824@@AAEHXZ 1004d64d f i libucrt:argv_wildcards.obj
 0001:0004c6f5       ?get@?$__crt_unique_handle_t@U__crt_findfile_traits@@@@QBEPAXXZ 1004d6f5 f i libucrt:argv_wildcards.obj
 0001:0004c6f8       ?get_invalid_value@__crt_findfile_traits@@SAPAXXZ 1004d6f8 f i libucrt:argv_wildcards.obj
 0001:0004c719       ?size@?$argument_list@D@?A0xb0e4b824@@QBEIXZ 1004d719 f i libucrt:argv_wildcards.obj
 0001:0004c724       ?size@?$argument_list@_W@?A0xb0e4b824@@QBEIXZ 1004d724 f i libucrt:argv_wildcards.obj
 0001:0004c72f       ?strpbrk@@YAPADQADQBD@Z    1004d72f f i libucrt:argv_wildcards.obj
 0001:0004c73c       ?wcspbrk@@YAPA_WPA_WPB_W@Z 1004d73c f i libucrt:argv_wildcards.obj
 0001:0004c749       ___acrt_expand_narrow_argv_wildcards 1004d749 f   libucrt:argv_wildcards.obj
 0001:0004c756       ___acrt_expand_wide_argv_wildcards 1004d756 f   libucrt:argv_wildcards.obj
 0001:0004c763       ??$?RV<lambda_978dc153c237d78434369da87b74ff60>@@AAV<lambda_ad1ced32f4ac17aa236e5ef05d6b3b7c>@@V<lambda_4a8533e2866a575feecb8298ce776b0d>@@@?$__crt_seh_guarded_call@X@@QAEX$$QAV<lambda_978dc153c237d78434369da87b74ff60>@@AAV<lambda_ad1ced32f4ac17aa236e5ef05d6b3b7c>@@$$QAV<lambda_4a8533e2866a575feecb8298ce776b0d>@@@Z 1004d763 f i libucrt:mbctype.obj
 0001:0004c7b6       ??$__acrt_lock_and_call@V<lambda_ad1ced32f4ac17aa236e5ef05d6b3b7c>@@@@YAXW4__acrt_lock_id@@$$QAV<lambda_ad1ced32f4ac17aa236e5ef05d6b3b7c>@@@Z 1004d7b6 f i libucrt:mbctype.obj
 0001:0004cdc7       ___acrt_initialize_multibyte 1004ddc7 f   libucrt:mbctype.obj
 0001:0004cdec       ___acrt_update_thread_multibyte_data 1004ddec f   libucrt:mbctype.obj
 0001:0004ceb6       ___p__mbcasemap            1004deb6 f   libucrt:mbctype.obj
 0001:0004cebc       ___p__mbctype              1004debc f   libucrt:mbctype.obj
 0001:0004cec2       __getmbcp                  1004dec2 f   libucrt:mbctype.obj
 0001:0004cf05       __setmbcp                  1004df05 f   libucrt:mbctype.obj
 0001:0004cf1c       __setmbcp_nolock           1004df1c f   libucrt:mbctype.obj
 0001:0004d299       __ismbbalnum               1004e299 f   libucrt:ismbbyte.obj
 0001:0004d2ba       __ismbbalnum_l             1004e2ba f   libucrt:ismbbyte.obj
 0001:0004d2dd       __ismbbalpha               1004e2dd f   libucrt:ismbbyte.obj
 0001:0004d2fe       __ismbbalpha_l             1004e2fe f   libucrt:ismbbyte.obj
 0001:0004d321       __ismbbblank               1004e321 f   libucrt:ismbbyte.obj
 0001:0004d34c       __ismbbblank_l             1004e34c f   libucrt:ismbbyte.obj
 0001:0004d379       __ismbbgraph               1004e379 f   libucrt:ismbbyte.obj
 0001:0004d39a       __ismbbgraph_l             1004e39a f   libucrt:ismbbyte.obj
 0001:0004d3bd       __ismbbkalnum              1004e3bd f   libucrt:ismbbyte.obj
 0001:0004d3db       __ismbbkalnum_l            1004e3db f   libucrt:ismbbyte.obj
 0001:0004d3fa       __ismbbkana                1004e3fa f   libucrt:ismbbyte.obj
 0001:0004d411       __ismbbkana_l              1004e411 f   libucrt:ismbbyte.obj
 0001:0004d476       __ismbbkprint              1004e476 f   libucrt:ismbbyte.obj
 0001:0004d494       __ismbbkprint_l            1004e494 f   libucrt:ismbbyte.obj
 0001:0004d4b3       __ismbbkpunct              1004e4b3 f   libucrt:ismbbyte.obj
 0001:0004d4d1       __ismbbkpunct_l            1004e4d1 f   libucrt:ismbbyte.obj
 0001:0004d4f0       __ismbblead                1004e4f0 f   libucrt:ismbbyte.obj
 0001:0004d50e       __ismbblead_l              1004e50e f   libucrt:ismbbyte.obj
 0001:0004d52d       __ismbbprint               1004e52d f   libucrt:ismbbyte.obj
 0001:0004d54e       __ismbbprint_l             1004e54e f   libucrt:ismbbyte.obj
 0001:0004d571       __ismbbpunct               1004e571 f   libucrt:ismbbyte.obj
 0001:0004d58f       __ismbbpunct_l             1004e58f f   libucrt:ismbbyte.obj
 0001:0004d5ae       __ismbbtrail               1004e5ae f   libucrt:ismbbyte.obj
 0001:0004d5cc       __ismbbtrail_l             1004e5cc f   libucrt:ismbbyte.obj
 0001:0004d5eb       ___acrt_initialize_command_line 1004e5eb f   libucrt:argv_data.obj
 0001:0004d60a       ___acrt_uninitialize_command_line 1004e60a f   libucrt:argv_data.obj
 0001:0004d60d       ___p___argc                1004e60d f   libucrt:argv_data.obj
 0001:0004d613       ___p___argv                1004e613 f   libucrt:argv_data.obj
 0001:0004d619       ___p___wargv               1004e619 f   libucrt:argv_data.obj
 0001:0004d61f       ___p__acmdln               1004e61f f   libucrt:argv_data.obj
 0001:0004d625       ___p__pgmptr               1004e625 f   libucrt:argv_data.obj
 0001:0004d62b       ___p__wcmdln               1004e62b f   libucrt:argv_data.obj
 0001:0004d631       ___p__wpgmptr              1004e631 f   libucrt:argv_data.obj
 0001:0004d637       __get_pgmptr               1004e637 f   libucrt:argv_data.obj
 0001:0004d674       __get_wpgmptr              1004e674 f   libucrt:argv_data.obj
 0001:0004d6b1       ??0?$__crt_unique_handle_t@Uenvironment_strings_traits@?A0x588e5281@@@@QAE@QA_W@Z 1004e6b1 f i libucrt:get_environment_from_os.obj
 0001:0004d6c5       ??1?$__crt_unique_handle_t@Uenvironment_strings_traits@?A0x588e5281@@@@QAE@XZ 1004e6c5 f i libucrt:get_environment_from_os.obj
 0001:0004d6e1       ??B?$__crt_unique_handle_t@Uenvironment_strings_traits@?A0x588e5281@@@@QBE_NXZ 1004e6e1 f i libucrt:get_environment_from_os.obj
 0001:0004d6eb       ?close@?$__crt_unique_handle_t@Uenvironment_strings_traits@?A0x588e5281@@@@QAEXXZ 1004e6eb f i libucrt:get_environment_from_os.obj
 0001:0004d707       ?close@environment_strings_traits@?A0x588e5281@@SA_NPA_W@Z 1004e707 f i libucrt:get_environment_from_os.obj
 0001:0004d761       ?get@?$__crt_unique_handle_t@Uenvironment_strings_traits@?A0x588e5281@@@@QBEPA_WXZ 1004e761 f i libucrt:get_environment_from_os.obj
 0001:0004d764       ?get_invalid_value@environment_strings_traits@?A0x588e5281@@SAPA_WXZ 1004e764 f i libucrt:get_environment_from_os.obj
 0001:0004d767       ?is_valid@?$__crt_unique_handle_t@Uenvironment_strings_traits@?A0x588e5281@@@@QBE_NXZ 1004e767 f i libucrt:get_environment_from_os.obj
 0001:0004d771       ___dcrt_get_narrow_environment_from_os 1004e771 f   libucrt:get_environment_from_os.obj
 0001:0004d814       ___dcrt_get_wide_environment_from_os 1004e814 f   libucrt:get_environment_from_os.obj
 0001:0004e0ac       ??$get_or_create_environment_nolock@$$$V@?$__crt_char_traits@D@@SAPAPADXZ 1004f0ac f i libucrt:setenv.obj
 0001:0004e0b1       ??$get_or_create_environment_nolock@$$$V@?$__crt_char_traits@_W@@SAPAPA_WXZ 1004f0b1 f i libucrt:setenv.obj
 0001:0004e0b6       ??$set_environment_variable@ABQADQAD@?$__crt_char_traits@D@@SAHABQAD$$QBQAD@Z 1004f0b6 f i libucrt:setenv.obj
 0001:0004e0d2       ??$set_environment_variable@ABQA_WQA_W@?$__crt_char_traits@_W@@SAHABQA_W$$QBQA_W@Z 1004f0d2 f i libucrt:setenv.obj
 0001:0004e0ee       ??$tcschr@ABQADD@?$__crt_char_traits@D@@SAPADABQAD$$QAD@Z 1004f0ee f i libucrt:setenv.obj
 0001:0004e10e       ??$tcschr@ABQA_WD@?$__crt_char_traits@_W@@SAPA_WABQA_W$$QAD@Z 1004f10e f i libucrt:setenv.obj
 0001:0004e133       ??$tcscpy_s@AAPADABIAAPAD@?$__crt_char_traits@D@@SAHAAPADABI0@Z 1004f133 f i libucrt:setenv.obj
 0001:0004e158       ??$tcscpy_s@AAPA_WABIAAPA_W@?$__crt_char_traits@_W@@SAHAAPA_WABI0@Z 1004f158 f i libucrt:setenv.obj
 0001:0004e17d       ??$tcscpy_s@ABQADABIABQAD@?$__crt_char_traits@D@@SAHABQADABI0@Z 1004f17d f i libucrt:setenv.obj
 0001:0004e1a2       ??$tcscpy_s@ABQA_WABIABQA_W@?$__crt_char_traits@_W@@SAHABQA_WABI0@Z 1004f1a2 f i libucrt:setenv.obj
 0001:0004e1c7       ??$tcsnicoll@ABQBDAAPADABI@?$__crt_char_traits@D@@SAHABQBDAAPADABI@Z 1004f1c7 f i libucrt:setenv.obj
 0001:0004e1ec       ??$tcsnicoll@ABQB_WAAPA_WABI@?$__crt_char_traits@_W@@SAHABQB_WAAPA_WABI@Z 1004f1ec f i libucrt:setenv.obj
 0001:0004e235       ?strchr@@YAPADQADH@Z       1004f235 f i libucrt:setenv.obj
 0001:0004e242       ?wcschr@@YAPA_WPA_W_W@Z    1004f242 f i libucrt:setenv.obj
 0001:0004e24f       ___dcrt_set_variable_in_narrow_environment_nolock 1004f24f f   libucrt:setenv.obj
 0001:0004e25c       ___dcrt_set_variable_in_wide_environment_nolock 1004f25c f   libucrt:setenv.obj
 0001:0004e269       __recalloc                 1004f269 f   libucrt:recalloc.obj
 0001:0004e276       __recalloc_base            1004f276 f   libucrt:recalloc.obj
 0001:0004e2fe       ___acrt_getheap            1004f2fe f   libucrt:heap_handle.obj
 0001:0004e304       ___acrt_initialize_heap    1004f304 f   libucrt:heap_handle.obj
 0001:0004e319       ___acrt_uninitialize_heap  1004f319 f   libucrt:heap_handle.obj
 0001:0004e325       __get_heap_handle          1004f325 f   libucrt:heap_handle.obj
 0001:0004e32b       ___acrt_execute_initializers 1004f32b f   libucrt:shared_initialization.obj
 0001:0004e3ce       ___acrt_execute_uninitializers 1004f3ce f   libucrt:shared_initialization.obj
 0001:0004e42e       ??$?B$$A6AHI@Z@__crt_fast_encoded_nullptr_t@@QBEP6AHI@ZXZ 1004f42e f i libucrt:new_handler.obj
 0001:0004e44c       ??$__crt_fast_decode_pointer@P6AHI@Z@@YAP6AHI@ZQ6AHI@Z@Z 1004f44c f i libucrt:new_handler.obj
 0001:0004e467       ??$__crt_fast_encode_pointer@P6AHI@Z@@YAP6AHI@ZQ6AHI@Z@Z 1004f467 f i libucrt:new_handler.obj
 0001:0004e48d       ?_set_new_handler@@YAP6AHI@ZH@Z 1004f48d f   libucrt:new_handler.obj
 0001:0004e4b3       ?initialize@?$dual_state_global@P6AHI@Z@__crt_state_management@@QAEXQ6AHI@Z@Z 1004f4b3 f i libucrt:new_handler.obj
 0001:0004e4f0       ?value@?$dual_state_global@P6AHI@Z@__crt_state_management@@QAEAAP6AHI@ZXZ 1004f4f0 f i libucrt:new_handler.obj
 0001:0004e4f3       ___acrt_initialize_new_handler 1004f4f3 f   libucrt:new_handler.obj
 0001:0004e50c       __callnewh                 1004f50c f   libucrt:new_handler.obj
 0001:0004e561       __query_new_handler        1004f561 f   libucrt:new_handler.obj
 0001:0004e5c7       __set_new_handler          1004f5c7 f   libucrt:new_handler.obj
 0001:0004e63f       ?value@?$dual_state_global@J@__crt_state_management@@QAEAAJXZ 1004f63f f i libucrt:new_mode.obj
 0001:0004e642       __query_new_mode           1004f642 f   libucrt:new_mode.obj
 0001:0004e648       __set_new_mode             1004f648 f   libucrt:new_mode.obj
 0001:0004e682       ___pctype_func             1004f682 f   libucrt:ctype.obj
 0001:0004e6b1       ___pwctype_func            1004f6b1 f   libucrt:ctype.obj
 0001:0004e6b7       __iswctype_l               1004f6b7 f   libucrt:iswctype.obj
 0001:0004e6d0       _iswctype                  1004f6d0 f   libucrt:iswctype.obj
 0001:0004e746       __isctype                  1004f746 f   libucrt:isctype.obj
 0001:0004e783       __isctype_l                1004f783 f   libucrt:isctype.obj
 0001:0004ea4a       ___acrt_DownlevelLCIDToLocaleName 1004fa4a f   libucrt:lcidtoname_downlevel.obj
 0001:0004eb1e       ___acrt_DownlevelLocaleNameToLCID 1004fb1e f   libucrt:lcidtoname_downlevel.obj
 0001:0004eb55       ??$?RV<lambda_61cee617f5178ae960314fd4d05640a0>@@AAV<lambda_6978c1fb23f02e42e1d9e99668cc68aa>@@V<lambda_9cd88cf8ad10232537feb2133f08c833>@@@?$__crt_seh_guarded_call@H@@QAEH$$QAV<lambda_61cee617f5178ae960314fd4d05640a0>@@AAV<lambda_6978c1fb23f02e42e1d9e99668cc68aa>@@$$QAV<lambda_9cd88cf8ad10232537feb2133f08c833>@@@Z 1004fb55 f i libucrt:commit.obj
 0001:0004ec13       ??$__acrt_lowio_lock_fh_and_call@V<lambda_6978c1fb23f02e42e1d9e99668cc68aa>@@@@YAHH$$QAV<lambda_6978c1fb23f02e42e1d9e99668cc68aa>@@@Z 1004fc13 f i libucrt:commit.obj
 0001:0004ed05       __commit                   1004fd05 f   libucrt:commit.obj
 0001:0004ed8f       ??$?RU__crt_lowio_handle_data@@@__crt_internal_free_policy@@QBEXQBU__crt_lowio_handle_data@@@Z 1004fd8f f i libucrt:osfinfo.obj
 0001:0004eda5       ??0?$__crt_unique_heap_ptr@U__crt_lowio_handle_data@@U__crt_internal_free_policy@@@@QAE@QAU__crt_lowio_handle_data@@@Z 1004fda5 f i libucrt:osfinfo.obj
 0001:0004edb9       ??1?$__crt_unique_heap_ptr@U__crt_lowio_handle_data@@U__crt_internal_free_policy@@@@QAE@XZ 1004fdb9 f i libucrt:osfinfo.obj
 0001:0004edcf       ??B?$__crt_unique_heap_ptr@U__crt_lowio_handle_data@@U__crt_internal_free_policy@@@@QBE_NXZ 1004fdcf f i libucrt:osfinfo.obj
 0001:0004edd9       ?detach@?$__crt_unique_heap_ptr@U__crt_lowio_handle_data@@U__crt_internal_free_policy@@@@QAEPAU__crt_lowio_handle_data@@XZ 1004fdd9 f i libucrt:osfinfo.obj
 0001:0004eddf       ?get@?$__crt_unique_heap_ptr@U__crt_lowio_handle_data@@U__crt_internal_free_policy@@@@QBEPAU__crt_lowio_handle_data@@XZ 1004fddf f i libucrt:osfinfo.obj
 0001:0004ede2       ?is_valid@?$__crt_unique_heap_ptr@U__crt_lowio_handle_data@@U__crt_internal_free_policy@@@@QBE_NXZ 1004fde2 f i libucrt:osfinfo.obj
 0001:0004edec       ?release@?$__crt_unique_heap_ptr@U__crt_lowio_handle_data@@U__crt_internal_free_policy@@@@QAEXXZ 1004fdec f i libucrt:osfinfo.obj
 0001:0004ee02       ___acrt_lowio_create_handle_array 1004fe02 f   libucrt:osfinfo.obj
 0001:0004ee9a       ___acrt_lowio_destroy_handle_array 1004fe9a f   libucrt:osfinfo.obj
 0001:0004eedc       ___acrt_lowio_ensure_fh_exists 1004fedc f   libucrt:osfinfo.obj
 0001:0004ef9a       ___acrt_lowio_lock_fh      1004ff9a f   libucrt:osfinfo.obj
 0001:0004efc5       ___acrt_lowio_set_os_handle 1004ffc5 f   libucrt:osfinfo.obj
 0001:0004f07e       ___acrt_lowio_unlock_fh    1005007e f   libucrt:osfinfo.obj
 0001:0004f0a9       __alloc_osfhnd             100500a9 f   libucrt:osfinfo.obj
 0001:0004f1ff       __free_osfhnd              100501ff f   libucrt:osfinfo.obj
 0001:0004f2b4       __get_osfhandle            100502b4 f   libucrt:osfinfo.obj
 0001:0004f338       __open_osfhandle           10050338 f   libucrt:osfinfo.obj
 0001:0004f489       ___iswcsym                 10050489 f i libucrt:_wctype.obj
 0001:0004f4b8       ___iswcsymf                100504b8 f i libucrt:_wctype.obj
 0001:0004f4e7       __isleadbyte_l             100504e7 f i libucrt:_wctype.obj
 0001:0004f52e       __iswalnum_l               1005052e f i libucrt:_wctype.obj
 0001:0004f549       __iswalpha_l               10050549 f i libucrt:_wctype.obj
 0001:0004f564       __iswblank_l               10050564 f i libucrt:_wctype.obj
 0001:0004f588       __iswcntrl_l               10050588 f i libucrt:_wctype.obj
 0001:0004f59f       __iswcsym_l                1005059f f i libucrt:_wctype.obj
 0001:0004f5ce       __iswcsymf_l               100505ce f i libucrt:_wctype.obj
 0001:0004f5fd       __iswdigit_l               100505fd f i libucrt:_wctype.obj
 0001:0004f614       __iswgraph_l               10050614 f i libucrt:_wctype.obj
 0001:0004f62f       __iswlower_l               1005062f f i libucrt:_wctype.obj
 0001:0004f646       __iswprint_l               10050646 f i libucrt:_wctype.obj
 0001:0004f661       __iswpunct_l               10050661 f i libucrt:_wctype.obj
 0001:0004f678       __iswspace_l               10050678 f i libucrt:_wctype.obj
 0001:0004f68f       __iswupper_l               1005068f f i libucrt:_wctype.obj
 0001:0004f6a6       __iswxdigit_l              100506a6 f i libucrt:_wctype.obj
 0001:0004f6c1       _isleadbyte                100506c1 f i libucrt:_wctype.obj
 0001:0004f6d8       _iswalnum                  100506d8 f i libucrt:_wctype.obj
 0001:0004f6f3       _iswalpha                  100506f3 f i libucrt:_wctype.obj
 0001:0004f70e       _iswascii                  1005070e f i libucrt:_wctype.obj
 0001:0004f727       _iswblank                  10050727 f i libucrt:_wctype.obj
 0001:0004f74b       _iswcntrl                  1005074b f i libucrt:_wctype.obj
 0001:0004f762       _iswdigit                  10050762 f i libucrt:_wctype.obj
 0001:0004f779       _iswgraph                  10050779 f i libucrt:_wctype.obj
 0001:0004f794       _iswlower                  10050794 f i libucrt:_wctype.obj
 0001:0004f7ab       _iswprint                  100507ab f i libucrt:_wctype.obj
 0001:0004f7c6       _iswpunct                  100507c6 f i libucrt:_wctype.obj
 0001:0004f7dd       _iswspace                  100507dd f i libucrt:_wctype.obj
 0001:0004f7f4       _iswupper                  100507f4 f i libucrt:_wctype.obj
 0001:0004f80b       _iswxdigit                 1005080b f i libucrt:_wctype.obj
 0001:0004f826       ??0?$__crt_scoped_stack_ptr@_W@@QAE@U?$__crt_scoped_stack_ptr_tag@_W@@@Z 10050826 f i libucrt:lcmapstringa.obj
 0001:0004f83a       ??0?$__crt_scoped_stack_ptr_tag@_W@@QAE@QA_W@Z 1005083a f i libucrt:lcmapstringa.obj
 0001:0004f84e       ??1?$__crt_scoped_stack_ptr@_W@@QAE@XZ 1005084e f i libucrt:lcmapstringa.obj
 0001:0004f859       ??B?$__crt_scoped_stack_ptr@_W@@QBE_NXZ 10050859 f i libucrt:lcmapstringa.obj
 0001:0004fb07       ?get@?$__crt_scoped_stack_ptr@_W@@QBEPA_WXZ 10050b07 f i libucrt:lcmapstringa.obj
 0001:0004fb0a       __MallocaComputeSize       10050b0a f i libucrt:lcmapstringa.obj
 0001:0004fb21       __MarkAllocaS              10050b21 f i libucrt:lcmapstringa.obj
 0001:0004fb3c       ___acrt_LCMapStringA       10050b3c f   libucrt:lcmapstringa.obj
 0001:0004fb99       __freea_crt                10050b99 f i libucrt:lcmapstringa.obj
 0001:0004fbc1       ??$?RG@__crt_internal_free_policy@@QBEXQBG@Z 10050bc1 f i libucrt:initctype.obj
 0001:0004fbd7       ??$?RJ@__crt_internal_free_policy@@QBEXQBJ@Z 10050bd7 f i libucrt:initctype.obj
 0001:0004fbed       ??0?$__crt_unique_heap_ptr@GU__crt_internal_free_policy@@@@QAE@QAG@Z 10050bed f i libucrt:initctype.obj
 0001:0004fc01       ??0?$__crt_unique_heap_ptr@JU__crt_internal_free_policy@@@@QAE@QAJ@Z 10050c01 f i libucrt:initctype.obj
 0001:0004fc15       ??1?$__crt_unique_heap_ptr@GU__crt_internal_free_policy@@@@QAE@XZ 10050c15 f i libucrt:initctype.obj
 0001:0004fc2b       ??1?$__crt_unique_heap_ptr@JU__crt_internal_free_policy@@@@QAE@XZ 10050c2b f i libucrt:initctype.obj
 0001:0004fc41       ?detach@?$__crt_unique_heap_ptr@GU__crt_internal_free_policy@@@@QAEPAGXZ 10050c41 f i libucrt:initctype.obj
 0001:0004fc47       ?detach@?$__crt_unique_heap_ptr@JU__crt_internal_free_policy@@@@QAEPAJXZ 10050c47 f i libucrt:initctype.obj
 0001:0004fc4d       ?release@?$__crt_unique_heap_ptr@GU__crt_internal_free_policy@@@@QAEXXZ 10050c4d f i libucrt:initctype.obj
 0001:0004fc63       ?release@?$__crt_unique_heap_ptr@JU__crt_internal_free_policy@@@@QAEXXZ 10050c63 f i libucrt:initctype.obj
 0001:0004fc79       ____lc_codepage_func       10050c79 f   libucrt:initctype.obj
 0001:0004fca9       ____lc_collate_cp_func     10050ca9 f   libucrt:initctype.obj
 0001:0004fcd9       ____lc_locale_name_func    10050cd9 f   libucrt:initctype.obj
 0001:0004fd0c       ____mb_cur_max_func        10050d0c f   libucrt:initctype.obj
 0001:0004fd3c       ____mb_cur_max_l_func      10050d3c f   libucrt:initctype.obj
 0001:0004fd5b       ___acrt_locale_initialize_ctype 10050d5b f   libucrt:initctype.obj
 0001:000501e0       ___acrt_add_locale_ref     100511e0 f   libucrt:locale_refcounting.obj
 0001:0005027c       ___acrt_free_locale        1005127c f   libucrt:locale_refcounting.obj
 0001:00050418       ___acrt_locale_add_lc_time_reference 10051418 f   libucrt:locale_refcounting.obj
 0001:0005044b       ___acrt_locale_free_lc_time_if_unreferenced 1005144b f   libucrt:locale_refcounting.obj
 0001:00050487       ___acrt_locale_release_lc_time_reference 10051487 f   libucrt:locale_refcounting.obj
 0001:000504ba       ___acrt_release_locale_ref 100514ba f   libucrt:locale_refcounting.obj
 0001:0005055b       ___acrt_update_thread_locale_data 1005155b f   libucrt:locale_refcounting.obj
 0001:000505ef       __updatetlocinfoEx_nolock  100515ef f   libucrt:locale_refcounting.obj
 0001:00050653       ___acrt_fp_strflt_to_string 10051653 f   libucrt:_fptostr.obj
 0001:00051e80       ??0big_integer@__crt_strtox@@QAE@ABU01@@Z 10052e80 f i libucrt:cfout.obj
 0001:00051ec0       ??0big_integer@__crt_strtox@@QAE@XZ 10052ec0 f i libucrt:cfout.obj
 0001:00051ecb       ??0scoped_fp_state_reset@?A0x48fbfdd4@@QAE@XZ 10052ecb f i libucrt:cfout.obj
 0001:00051eff       ??1scoped_fp_state_reset@?A0x48fbfdd4@@QAE@XZ 10052eff f i libucrt:cfout.obj
 0001:00051f10       ??4big_integer@__crt_strtox@@QAEAAU01@ABU01@@Z 10052f10 f i libucrt:cfout.obj
 0001:00051f50       ??8__crt_strtox@@YA_NABUbig_integer@0@0@Z 10052f50 f i libucrt:cfout.obj
 0001:00051fa0       ??9__crt_strtox@@YA_NABUbig_integer@0@0@Z 10052fa0 f i libucrt:cfout.obj
 0001:00052000       ?add_carry@__crt_strtox@@YAIAAIII@Z 10053000 f i libucrt:cfout.obj
 0001:00052030       ?add_multiply_carry@__crt_strtox@@YAIAAIIII@Z 10053030 f i libucrt:cfout.obj
 0001:00052060       ?bit_scan_reverse@__crt_strtox@@YAII@Z 10053060 f i libucrt:cfout.obj
 0001:00052090       ?count_sequential_high_zeroes@__crt_strtox@@YAII@Z 10053090 f i libucrt:cfout.obj
 0001:000520c0       ?divide@__crt_strtox@@YA_KAAUbig_integer@1@ABU21@@Z 100530c0 f i libucrt:cfout.obj
 0001:000526a0       ?is_zero@__crt_strtox@@YA_NABUbig_integer@1@@Z 100536a0 f i libucrt:cfout.obj
 0001:000526c0       ?make_big_integer@__crt_strtox@@YA?AUbig_integer@1@_K@Z 100536c0 f i libucrt:cfout.obj
 0001:000526f0       ?make_big_integer_power_of_two@__crt_strtox@@YA?AUbig_integer@1@I@Z 100536f0 f i libucrt:cfout.obj
 0001:00052750       ?multiply@__crt_strtox@@YA_NAAUbig_integer@1@ABU21@@Z 10053750 f i libucrt:cfout.obj
 0001:00052c00       ?multiply@__crt_strtox@@YA_NAAUbig_integer@1@I@Z 10053c00 f i libucrt:cfout.obj
 0001:00052d00       ?multiply_64_32@__crt_strtox@@YA_K_KI@Z 10053d00 f i libucrt:cfout.obj
 0001:00052d20       ?multiply_by_power_of_ten@__crt_strtox@@YA_NAAUbig_integer@1@I@Z 10053d20 f i libucrt:cfout.obj
 0001:00053420       ?multiply_core@__crt_strtox@@YAIQAIII@Z 10054420 f i libucrt:cfout.obj
 0001:00053470       ?shift_left@__crt_strtox@@YA_NAAUbig_integer@1@I@Z 10054470 f i libucrt:cfout.obj
 0001:00053612       ___acrt_fltout             10054612 f   libucrt:cfout.obj
 0001:00054f36       __isatty                   10055f36 f   libucrt:isatty.obj
 0001:00054fa1       ??$?RUlconv@@@__crt_internal_free_policy@@QBEXQBUlconv@@@Z 10055fa1 f i libucrt:initmon.obj
 0001:00054fb7       ??0?$__crt_unique_heap_ptr@Ulconv@@U__crt_internal_free_policy@@@@QAE@QAUlconv@@@Z 10055fb7 f i libucrt:initmon.obj
 0001:00054fcb       ??1?$__crt_unique_heap_ptr@Ulconv@@U__crt_internal_free_policy@@@@QAE@XZ 10055fcb f i libucrt:initmon.obj
 0001:00054fe1       ?detach@?$__crt_unique_heap_ptr@Ulconv@@U__crt_internal_free_policy@@@@QAEPAUlconv@@XZ 10055fe1 f i libucrt:initmon.obj
 0001:00054fe7       ?release@?$__crt_unique_heap_ptr@Ulconv@@U__crt_internal_free_policy@@@@QAEXXZ 10055fe7 f i libucrt:initmon.obj
 0001:00054ffd       ___acrt_locale_free_monetary 10055ffd f   libucrt:initmon.obj
 0001:0005513a       ___acrt_locale_initialize_monetary 1005613a f   libucrt:initmon.obj
 0001:0005562d       ___acrt_locale_free_numeric 1005662d f   libucrt:initnum.obj
 0001:000556b0       ___acrt_locale_initialize_numeric 100566b0 f   libucrt:initnum.obj
 0001:0005599b       ??$?RU__crt_lc_time_data@@@__crt_internal_free_policy@@QBEXQBU__crt_lc_time_data@@@Z 1005699b f i libucrt:inittime.obj
 0001:00055a3b       ??0?$__crt_unique_heap_ptr@U__crt_lc_time_data@@U__crt_internal_free_policy@@@@QAE@QAU__crt_lc_time_data@@@Z 10056a3b f i libucrt:inittime.obj
 0001:00055a4f       ??1?$__crt_unique_heap_ptr@U__crt_lc_time_data@@U__crt_internal_free_policy@@@@QAE@XZ 10056a4f f i libucrt:inittime.obj
 0001:00055a65       ??B?$__crt_unique_heap_ptr@U__crt_lc_time_data@@U__crt_internal_free_policy@@@@QBE_NXZ 10056a65 f i libucrt:inittime.obj
 0001:00055a6f       ?detach@?$__crt_unique_heap_ptr@U__crt_lc_time_data@@U__crt_internal_free_policy@@@@QAEPAU__crt_lc_time_data@@XZ 10056a6f f i libucrt:inittime.obj
 0001:00055ac0       ?get@?$__crt_unique_heap_ptr@U__crt_lc_time_data@@U__crt_internal_free_policy@@@@QBEPAU__crt_lc_time_data@@XZ 10056ac0 f i libucrt:inittime.obj
 0001:00055e58       ?is_valid@?$__crt_unique_heap_ptr@U__crt_lc_time_data@@U__crt_internal_free_policy@@@@QBE_NXZ 10056e58 f i libucrt:inittime.obj
 0001:00055e62       ?release@?$__crt_unique_heap_ptr@U__crt_lc_time_data@@U__crt_internal_free_policy@@@@QAEXXZ 10056e62 f i libucrt:inittime.obj
 0001:00055e78       ___acrt_locale_free_time   10056e78 f   libucrt:inittime.obj
 0001:00055f95       ___acrt_locale_initialize_time 10056f95 f   libucrt:inittime.obj
 0001:00056133       _wcsncpy_s                 10057133 f   libucrt:wcsncpy_s.obj
 0001:00056140       _wcscspn                   10057140 f   libucrt:wcscspn.obj
 0001:000561a4       _wcsncmp                   100571a4 f   libucrt:wcsncmp.obj
 0001:000561ec       _wcspbrk                   100571ec f   libucrt:wcspbrk.obj
 0001:00056242       ___acrt_GetStringTypeA     10057242 f   libucrt:getstringtypea.obj
 0001:00056cb6       ___acrt_get_qualified_locale 10057cb6 f   libucrt:get_qualified_locale.obj
 0001:0005785d       ___acrt_get_qualified_locale_downlevel 1005885d f   libucrt:getqloc_downlevel.obj
 0001:00057ae5       _localeconv                10058ae5 f   libucrt:localeconv.obj
 0001:00057b19       __wcsnicmp                 10058b19 f   libucrt:wcsnicmp.obj
 0001:00057bff       __wcsnicmp_l               10058bff f   libucrt:wcsnicmp.obj
 0001:00057d40       _strncmp                   10058d40 f   libucrt:strncmp.obj
 0001:00057dd6       __strnicmp                 10058dd6 f   libucrt:strnicmp.obj
 0001:00057e5d       __strnicmp_l               10058e5d f   libucrt:strnicmp.obj
 0001:00057f41       ??$__vcrt_va_start_verify_argument_type@$$CBH@@YAXXZ 10058f41 f i libucrt:open.obj
 0001:000582f8       ??$tsopen_nolock@PAHABQAHABQBDABHABHABHABH@?$__crt_char_traits@D@@SAH$$QAPAHABQAHABQBDABH333@Z 100592f8 f i libucrt:open.obj
 0001:00058336       ??$tsopen_nolock@PAHABQAHABQB_WABHABHABHABH@?$__crt_char_traits@_W@@SAH$$QAPAHABQAHABQB_WABH333@Z 10059336 f i libucrt:open.obj
 0001:00058374       ??$tsopen_nolock@PAHPAHABQBDABHHABHH@?$__crt_char_traits@D@@SAH$$QAPAH0ABQBDABH$$QAH23@Z 10059374 f i libucrt:open.obj
 0001:000583b2       ??$tsopen_nolock@PAHPAHABQB_WABHHABHH@?$__crt_char_traits@_W@@SAH$$QAPAH0ABQB_WABH$$QAH23@Z 100593b2 f i libucrt:open.obj
 0001:00058b80       __open                     10059b80 f   libucrt:open.obj
 0001:00058b9e       __sopen                    10059b9e f   libucrt:open.obj
 0001:00058be0       __sopen_dispatch           10059be0 f   libucrt:open.obj
 0001:00058bed       __sopen_nolock             10059bed f   libucrt:open.obj
 0001:00058c52       __sopen_s                  10059c52 f   libucrt:open.obj
 0001:00058c7a       __wopen                    10059c7a f   libucrt:open.obj
 0001:00058c98       __wsopen                   10059c98 f   libucrt:open.obj
 0001:00058cda       __wsopen_dispatch          10059cda f   libucrt:open.obj
 0001:00058ce7       __wsopen_nolock            10059ce7 f   libucrt:open.obj
 0001:000590da       __wsopen_s                 1005a0da f   libucrt:open.obj
 0001:00059102       ___p__commode              1005a102 f   libucrt:ncommode.obj
 0001:00059108       ___acrt_stdio_allocate_buffer_nolock 1005a108 f   libucrt:_getbuf.obj
 0001:0005917c       ??$?RV<lambda_4980db0136e49a56f91ef52c46ca659a>@@AAV<lambda_6e3e78bb6855d1e4040e022c1b427e22>@@V<lambda_9c074eaf62197b4fd0274ed9e7824161>@@@?$__crt_seh_guarded_call@G@@QAEG$$QAV<lambda_4980db0136e49a56f91ef52c46ca659a>@@AAV<lambda_6e3e78bb6855d1e4040e022c1b427e22>@@$$QAV<lambda_9c074eaf62197b4fd0274ed9e7824161>@@@Z 1005a17c f i libucrt:putwch.obj
 0001:000591f1       ??$__acrt_lock_and_call@V<lambda_6e3e78bb6855d1e4040e022c1b427e22>@@@@YAGW4__acrt_lock_id@@$$QAV<lambda_6e3e78bb6855d1e4040e022c1b427e22>@@@Z 1005a1f1 f i libucrt:putwch.obj
 0001:00059289       __putwch                   1005a289 f   libucrt:putwch.obj
 0001:000592ad       __putwch_nolock            1005a2ad f   libucrt:putwch.obj
 0001:00059303       _nextafter                 1005a303 f   libucrt:nextafter.obj
 0001:00059329       ??1scoped_global_state_reset@__crt_state_management@@QAE@XZ 1005a329 f i libucrt:qsort.obj
 0001:00059440       _qsort                     1005a440 f   libucrt:qsort.obj
 0001:0005999d       _strncpy_s                 1005a99d f   libucrt:strncpy_s.obj
 0001:000599b0       _strpbrk                   1005a9b0 f   libucrt:strpbrk.obj
 0001:00059a00       __mbsdec                   1005aa00 f   libucrt:mbsdec.obj
 0001:00059a1c       __mbsdec_l                 1005aa1c f   libucrt:mbsdec.obj
 0001:00059ade       __wcsnicoll                1005aade f   libucrt:wcsnicol.obj
 0001:00059be2       __wcsnicoll_l              1005abe2 f   libucrt:wcsnicol.obj
 0001:00059d5a       __strnicoll                1005ad5a f   libucrt:strnicol.obj
 0001:00059d8d       __strnicoll_l              1005ad8d f   libucrt:strnicol.obj
 0001:00059ec8       __msize                    1005aec8 f   libucrt:msize.obj
 0001:00059f07       ___strncnt                 1005af07 f   libucrt:strncnt.obj
 0001:0005a063       ___acrt_GetLocaleInfoA     1005b063 f   libucrt:getlocaleinfoa.obj
 0001:0005a281       _fegetenv                  1005b281 f   libucrt:fegetenv.obj
 0001:0005a2a5       _fesetenv                  1005b2a5 f   libucrt:fesetenv.obj
 0001:0005a300       _feholdexcept              1005b300 f   libucrt:feholdexcept.obj
 0001:0005a370       _log10                     1005b370 f   libucrt:log10.obj
 0001:0005a3b0       __CIlog10                  1005b3b0 f   libucrt:log10.obj
 0001:0005a3eb       __CIlog10_default          1005b3eb f   libucrt:log10.obj
 0001:0005a3ff       __log10_default            1005b3ff     libucrt:log10.obj
 0001:0005a520       _ceil                      1005b520 f   libucrt:ceil_pentium4.obj
 0001:0005a560       __ceil_pentium4            1005b560 f   libucrt:ceil_pentium4.obj
 0001:0005a684       __wcsicmp                  1005b684 f   libucrt:wcsicmp.obj
 0001:0005a73e       __wcsicmp_l                1005b73e f   libucrt:wcsicmp.obj
 0001:0005a856       __towlower_l               1005b856 f   libucrt:towlower.obj
 0001:0005a951       _towlower                  1005b951 f   libucrt:towlower.obj
 0001:0005a970       ___ascii_strnicmp          1005b970 f   libucrt:_strnicm.obj
 0001:0005a9e9       ??$__crt_interlocked_read@H@@YAHPDH@Z 1005b9e9 f i libucrt:setmode.obj
 0001:0005a9f8       __get_fmode                1005b9f8 f   libucrt:setmode.obj
 0001:0005aa2f       __set_fmode                1005ba2f f   libucrt:setmode.obj
 0001:0005aa7b       __setmode                  1005ba7b f   libucrt:setmode.obj
 0001:0005abcc       __setmode_nolock           1005bbcc f   libucrt:setmode.obj
 0001:0005acd1       ??$?RV<lambda_4cfda81533ccf5a03113a1ca40a30445>@@AAV<lambda_1cffa78e445b1da5fba1a2e0e533226f>@@V<lambda_68c952aa1b860373b2109ef12d0bba9d>@@@?$__crt_seh_guarded_call@H@@QAEH$$QAV<lambda_4cfda81533ccf5a03113a1ca40a30445>@@AAV<lambda_1cffa78e445b1da5fba1a2e0e533226f>@@$$QAV<lambda_68c952aa1b860373b2109ef12d0bba9d>@@@Z 1005bcd1 f i libucrt:chsize.obj
 0001:0005ad7b       ??$__acrt_lowio_lock_fh_and_call@V<lambda_1cffa78e445b1da5fba1a2e0e533226f>@@@@YAHH$$QAV<lambda_1cffa78e445b1da5fba1a2e0e533226f>@@@Z 1005bd7b f i libucrt:chsize.obj
 0001:0005ae5d       __chsize                   1005be5d f   libucrt:chsize.obj
 0001:0005ae80       __chsize_nolock            1005be80 f   libucrt:chsize.obj
 0001:0005b075       __chsize_s                 1005c075 f   libucrt:chsize.obj
 0001:0005b136       __umask                    1005c136 f   libucrt:umask.obj
 0001:0005b164       __umask_s                  1005c164 f   libucrt:umask.obj
 0001:0005b1ad       ___dcrt_lowio_initialize_console_output 1005c1ad f   libucrt:initcon.obj
 0001:0005b1d3       ___dcrt_terminate_console_output 1005c1d3 f   libucrt:initcon.obj
 0001:0005b1ef       _nexttoward                1005c1ef f   libucrt:nexttoward.obj
 0001:0005b3a0       ___acrt_CompareStringW     1005c3a0 f   libucrt:comparestringw.obj
 0001:0005b774       ___acrt_CompareStringA     1005c774 f   libucrt:comparestringa.obj
 0001:0005b7ce       ___acrt_fenv_get_fp_status_word_from_exception_mask 1005c7ce f   libucrt:_fenvutils.obj
 0001:0005bc11       __getfpcontrolword         1005cc11 f   libucrt:_fenvutils.obj
 0001:0005bc64       __getfpstatusword          1005cc64 f   libucrt:_fenvutils.obj
 0001:0005bd36       __setfpcontrolword         1005cd36 f   libucrt:_fenvutils.obj
 0001:0005bdd6       __setfpstatusword          1005cdd6 f   libucrt:_fenvutils.obj
 0001:0005c00c       ___control87_2             1005d00c f   libucrt:ieee87.obj
 0001:0005c5e0       ___fpreset_sse2            1005d5e0 f   libucrt:ieee87.obj
 0001:0005c833       __clearfp                  1005d833 f   libucrt:ieee87.obj
 0001:0005c948       __control87                1005d948 f   libucrt:ieee87.obj
 0001:0005cd0a       __controlfp                1005dd0a f   libucrt:ieee87.obj
 0001:0005cd2a       __fpreset                  1005dd2a f   libucrt:ieee87.obj
 0001:0005ce27       __set_controlfp            1005de27 f   libucrt:ieee87.obj
 0001:0005cebd       __statusfp                 1005debd f   libucrt:ieee87.obj
 0001:0005cf80       __statusfp2                1005df80 f   libucrt:ieee87.obj
 0001:0005cffd       ___acrt_initialize_sse2    1005dffd f   libucrt:mathfcns.obj
 0001:0005d00f       __set_SSE2_enable          1005e00f f   libucrt:mathfcns.obj
 0001:0005d040       __CIlog10_pentium4         1005e040 f   libucrt:log10_pentium4.obj
 0001:0005d058       __log10_pentium4           1005e058     libucrt:log10_pentium4.obj
 0001:0005d391       __fFEXP                    1005e391     libucrt:87tran.obj
 0001:0005d3e8       __rtinfpopse               1005e3e8     libucrt:87tran.obj
 0001:0005d3ea       __rtinfnpopse              1005e3ea     libucrt:87tran.obj
 0001:0005d3fa       __fFLN                     1005e3fa     libucrt:87tran.obj
 0001:0005d4af       __rtinfpop                 1005e4af     libucrt:87tran.obj
 0001:0005d4b1       __rtinfnpop                1005e4b1     libucrt:87tran.obj
 0001:0005d4ce       __ffexpm1                  1005e4ce     libucrt:87tran.obj
 0001:0005d600       __trandisp1                1005e600 f   libucrt:87disp.obj
 0001:0005d667       __trandisp2                1005e667 f   libucrt:87disp.obj
 0001:0005d6f3       __rttospopde               1005e6f3     libucrt:87disp.obj
 0001:0005d6f8       __rttospop                 1005e6f8     libucrt:87disp.obj
 0001:0005d6fa       __rtnospop                 1005e6fa     libucrt:87disp.obj
 0001:0005d6fc       __rttosnpop                1005e6fc     libucrt:87disp.obj
 0001:0005d6fd       __rtnospopde               1005e6fd     libucrt:87disp.obj
 0001:0005d704       __rtzeropop                1005e704     libucrt:87disp.obj
 0001:0005d706       __rtzeronpop               1005e706     libucrt:87disp.obj
 0001:0005d70b       __rtzerospop               1005e70b     libucrt:87disp.obj
 0001:0005d718       __rtonepop                 1005e718     libucrt:87disp.obj
 0001:0005d71a       __rtonenpop                1005e71a     libucrt:87disp.obj
 0001:0005d71f       __tosnan1                  1005e71f     libucrt:87disp.obj
 0001:0005d74a       __nosnan2                  1005e74a     libucrt:87disp.obj
 0001:0005d74c       __tosnan2                  1005e74c     libucrt:87disp.obj
 0001:0005d774       __nan2                     1005e774     libucrt:87disp.obj
 0001:0005d7b3       __rtindfpop                1005e7b3     libucrt:87disp.obj
 0001:0005d7b5       __rtindfnpop               1005e7b5     libucrt:87disp.obj
 0001:0005d7c6       __rttosnpopde              1005e7c6     libucrt:87disp.obj
 0001:0005d7d0       __rtatan2inf               1005e7d0     libucrt:87disp.obj
 0001:0005d7ed       __rtchsifneg               1005e7ed     libucrt:87disp.obj
 0001:0005d871       ___setfflag                1005e871 f   libucrt:fp_flags.obj
 0001:0005d890       __twoToTOS                 1005e890 f   libucrt:common.obj
 0001:0005d8a5       __load_CW                  1005e8a5 f   libucrt:common.obj
 0001:0005d8bc       __convertTOStoQNaN         1005e8bc f   libucrt:common.obj
 0001:0005d8d5       __fload_withFB             1005e8d5 f   libucrt:common.obj
 0001:0005d918       __checkTOS_withFB          1005e918 f   libucrt:common.obj
 0001:0005d92e       __fast_exit                1005e92e f   libucrt:common.obj
 0001:0005d93b       __math_exit                1005e93b f   libucrt:common.obj
 0001:0005d965       __check_overflow_exit      1005e965 f   libucrt:common.obj
 0001:0005d979       __check_range_exit         1005e979 f   libucrt:common.obj
 0001:0005da80       __startTwoArgErrorHandling 1005ea80 f   libucrt:genexcep.obj
 0001:0005da97       __startOneArgErrorHandling 1005ea97 f   libucrt:genexcep.obj
 0001:0005dae7       ___libm_error_support      1005eae7 f   libucrt:libm_error.obj
 0001:0005dd85       ___libm_setusermatherr     1005ed85 f   libucrt:libm_error.obj
 0001:0005ddbe       __ceil_default             1005edbe f   libucrt:ceil.obj
 0001:0005dea5       ___acrt_LCMapStringW       1005eea5 f   libucrt:lcmapstringw.obj
 0001:0005def2       ___p__fmode                1005eef2 f   libucrt:txtmode.obj
 0001:0005def8       __d_int                    1005eef8 f   libucrt:_test.obj
 0001:0005e040       __dtest                    1005f040 f   libucrt:_test.obj
 0001:0005e0bd       __fd_int                   1005f0bd f   libucrt:_test.obj
 0001:0005e1bf       __fdtest                   1005f1bf f   libucrt:_test.obj
 0001:0005e220       __fperrraise               1005f220 f   libucrt:_test.obj
 0001:0005e24b       __ld_int                   1005f24b f   libucrt:_test.obj
 0001:0005e258       __ldtest                   1005f258 f   libucrt:_test.obj
 0001:0005e2fd       __controlfp_s              1005f2fd f   libucrt:contrlfp.obj
 0001:0005e373       __d_inttype                1005f373 f   libucrt:powhlp.obj
 0001:0005e3f7       __powhlp                   1005f3f7 f   libucrt:powhlp.obj
 0001:0005e56c       __87except                 1005f56c f   libucrt:87except.obj
 0001:0005e6b9       __frnd                     1005f6b9 f   libucrt:frnd.obj
 0001:0005e6d4       _fegetexceptflag           1005f6d4 f   libucrt:fegetexceptflag.obj
 0001:0005e711       _fesetexceptflag           1005f711 f   libucrt:fesetexceptflag.obj
 0001:0005e772       _fetestexcept              1005f772 f   libucrt:fetestexcept.obj
 0001:0005e7a0       __FindPESection            1005f7a0 f   LIBCMT:pesect.obj
 0001:0005e800       __IsNonwritableInCurrentImage 1005f800 f   LIBCMT:pesect.obj
 0001:0005e8f0       __ValidateImageBase        1005f8f0 f   LIBCMT:pesect.obj
 0001:0005e930       __aulldvrm                 1005f930 f   LIBCMT:ulldvrm.obj
 0001:0005e9ea       ??1type_info@@UAE@XZ       1005f9ea f   LIBCMT:std_type_info_static.obj
 0001:0005e9f1       ??_Etype_info@@UAEPAXI@Z   1005f9f1 f i LIBCMT:std_type_info_static.obj
 0001:0005e9f1       ??_Gtype_info@@UAEPAXI@Z   1005f9f1 f i LIBCMT:std_type_info_static.obj
 0001:0005ea20       __SEH_prolog4_GS           1005fa20 f   LIBCMT:_sehprolg4gs_.obj
 0001:0005ea69       __SEH_epilog4_GS           1005fa69 f   LIBCMT:_sehprolg4gs_.obj
 0001:0005ea90       __allmul                   1005fa90 f   LIBCMT:llmul.obj
 0001:0005eae0       __alldvrm                  1005fae0 f   LIBCMT:lldvrm.obj
 0001:0005ec00       __aullshr                  1005fc00 f   LIBCMT:ullshr.obj
 0001:0005ec30       __chkstk                   1005fc30 f   LIBCMT:chkstk.obj
 0001:0005ec30       __alloca_probe             1005fc30 f   LIBCMT:chkstk.obj
 0001:0005ec70       __alloca_probe_16          1005fc70 f   LIBCMT:alloca16.obj
 0001:0005ec86       __alloca_probe_8           1005fc86     LIBCMT:alloca16.obj
 0001:0005ecb0       __allshl                   1005fcb0 f   LIBCMT:llshl.obj
 0001:0005ece0       __ftol2_sse                1005fce0 f   LIBCMT:_ftol2_.obj
 0001:0005ece9       __ftol2_pentium4           1005fce9 f   LIBCMT:_ftol2_.obj
 0001:0005ecfc       __ftol2_sse_excpt          1005fcfc f   LIBCMT:_ftol2_.obj
 0001:0005ed20       __ftol2                    1005fd20 f   LIBCMT:_ftol2_.obj
 0001:0005edc2       __initialize_default_precision 1005fdc2 f   LIBCMT:default_precision.obj
 0001:0005edeb       ??3@YAXPAXI@Z              1005fdeb f   LIBCMT:delete_scalar_size.obj
 0001:0005edfc       ??3@YAXPAX@Z               1005fdfc f   LIBCMT:delete_scalar.obj
 0001:0005ee02       _InterlockedPushEntrySList@8 1005fe02 f   kernel32:KERNEL32.dll
 0001:0005ee08       _InterlockedFlushSList@4   1005fe08 f   kernel32:KERNEL32.dll
 0001:0005ee0e       _RtlUnwind@16              1005fe0e f   kernel32:KERNEL32.dll
 0001:0005ee14       _GetLastError@0            1005fe14 f   kernel32:KERNEL32.dll
 0001:0005ee1a       _SetLastError@4            1005fe1a f   kernel32:KERNEL32.dll
 0001:0005ee20       _EnterCriticalSection@4    1005fe20 f   kernel32:KERNEL32.dll
 0001:0005ee26       _LeaveCriticalSection@4    1005fe26 f   kernel32:KERNEL32.dll
 0001:0005ee2c       _DeleteCriticalSection@4   1005fe2c f   kernel32:KERNEL32.dll
 0001:0005ee32       _InitializeCriticalSectionAndSpinCount@8 1005fe32 f   kernel32:KERNEL32.dll
 0001:0005ee38       _TlsAlloc@0                1005fe38 f   kernel32:KERNEL32.dll
 0001:0005ee3e       _TlsGetValue@4             1005fe3e f   kernel32:KERNEL32.dll
 0001:0005ee44       _TlsSetValue@8             1005fe44 f   kernel32:KERNEL32.dll
 0001:0005ee4a       _TlsFree@4                 1005fe4a f   kernel32:KERNEL32.dll
 0001:0005ee50       _FreeLibrary@4             1005fe50 f   kernel32:KERNEL32.dll
 0001:0005ee56       _LoadLibraryExW@12         1005fe56 f   kernel32:KERNEL32.dll
 0001:0005ee5c       _GetStdHandle@4            1005fe5c f   kernel32:KERNEL32.dll
 0001:0005ee62       _GetFileType@4             1005fe62 f   kernel32:KERNEL32.dll
 0001:0005ee68       _GetModuleFileNameA@12     1005fe68 f   kernel32:KERNEL32.dll
 0001:0005ee6e       _GetModuleFileNameW@12     1005fe6e f   kernel32:KERNEL32.dll
 0001:0005ee74       _GetModuleHandleExW@12     1005fe74 f   kernel32:KERNEL32.dll
 0001:0005ee7a       _WriteConsoleW@20          1005fe7a f   kernel32:KERNEL32.dll
 0001:0005ee80       _ExitProcess@4             1005fe80 f   kernel32:KERNEL32.dll
 0001:0005ee86       _RaiseException@16         1005fe86 f   kernel32:KERNEL32.dll
 0001:0005ee8c       _MultiByteToWideChar@24    1005fe8c f   kernel32:KERNEL32.dll
 0001:0005ee92       _WideCharToMultiByte@32    1005fe92 f   kernel32:KERNEL32.dll
 0001:0005ee98       _HeapFree@12               1005fe98 f   kernel32:KERNEL32.dll
 0001:0005ee9e       _HeapAlloc@12              1005fe9e f   kernel32:KERNEL32.dll
 0001:0005eea4       _GetDateFormatW@24         1005fea4 f   kernel32:KERNEL32.dll
 0001:0005eeaa       _GetTimeFormatW@24         1005feaa f   kernel32:KERNEL32.dll
 0001:0005eeb0       _CompareStringW@24         1005feb0 f   kernel32:KERNEL32.dll
 0001:0005eeb6       _LCMapStringW@24           1005feb6 f   kernel32:KERNEL32.dll
 0001:0005eebc       _GetLocaleInfoW@16         1005febc f   kernel32:KERNEL32.dll
 0001:0005eec2       _IsValidLocale@8           1005fec2 f   kernel32:KERNEL32.dll
 0001:0005eec8       _GetUserDefaultLCID@0      1005fec8 f   kernel32:KERNEL32.dll
 0001:0005eece       _EnumSystemLocalesW@8      1005fece f   kernel32:KERNEL32.dll
 0001:0005eed4       _GetCurrentThread@0        1005fed4 f   kernel32:KERNEL32.dll
 0001:0005eeda       _GetACP@0                  1005feda f   kernel32:KERNEL32.dll
 0001:0005eee0       _WriteFile@20              1005fee0 f   kernel32:KERNEL32.dll
 0001:0005eee6       _OutputDebugStringA@4      1005fee6 f   kernel32:KERNEL32.dll
 0001:0005eeec       _OutputDebugStringW@4      1005feec f   kernel32:KERNEL32.dll
 0001:0005eef2       _CloseHandle@4             1005fef2 f   kernel32:KERNEL32.dll
 0001:0005eef8       _WaitForSingleObjectEx@12  1005fef8 f   kernel32:KERNEL32.dll
 0001:0005eefe       _CreateThread@24           1005fefe f   kernel32:KERNEL32.dll
 0001:0005ef04       _SetConsoleCtrlHandler@8   1005ff04 f   kernel32:KERNEL32.dll
 0001:0005ef0a       _HeapReAlloc@16            1005ff0a f   kernel32:KERNEL32.dll
 0001:0005ef10       _ReadFile@20               1005ff10 f   kernel32:KERNEL32.dll
 0001:0005ef16       _GetConsoleMode@8          1005ff16 f   kernel32:KERNEL32.dll
 0001:0005ef1c       _ReadConsoleW@20           1005ff1c f   kernel32:KERNEL32.dll
 0001:0005ef22       _GetConsoleCP@0            1005ff22 f   kernel32:KERNEL32.dll
 0001:0005ef28       _DeleteFileW@4             1005ff28 f   kernel32:KERNEL32.dll
 0001:0005ef2e       _SetFilePointerEx@20       1005ff2e f   kernel32:KERNEL32.dll
 0001:0005ef34       _FindClose@4               1005ff34 f   kernel32:KERNEL32.dll
 0001:0005ef3a       _FindFirstFileExA@24       1005ff3a f   kernel32:KERNEL32.dll
 0001:0005ef40       _FindFirstFileExW@24       1005ff40 f   kernel32:KERNEL32.dll
 0001:0005ef46       _FindNextFileA@8           1005ff46 f   kernel32:KERNEL32.dll
 0001:0005ef4c       _FindNextFileW@8           1005ff4c f   kernel32:KERNEL32.dll
 0001:0005ef52       _IsValidCodePage@4         1005ff52 f   kernel32:KERNEL32.dll
 0001:0005ef58       _GetOEMCP@0                1005ff58 f   kernel32:KERNEL32.dll
 0001:0005ef5e       _GetCPInfo@8               1005ff5e f   kernel32:KERNEL32.dll
 0001:0005ef64       _GetCommandLineA@0         1005ff64 f   kernel32:KERNEL32.dll
 0001:0005ef6a       _GetCommandLineW@0         1005ff6a f   kernel32:KERNEL32.dll
 0001:0005ef70       _GetEnvironmentStringsW@0  1005ff70 f   kernel32:KERNEL32.dll
 0001:0005ef76       _FreeEnvironmentStringsW@4 1005ff76 f   kernel32:KERNEL32.dll
 0001:0005ef7c       _SetEnvironmentVariableA@8 1005ff7c f   kernel32:KERNEL32.dll
 0001:0005ef82       _SetEnvironmentVariableW@8 1005ff82 f   kernel32:KERNEL32.dll
 0001:0005ef88       _GetProcessHeap@0          1005ff88 f   kernel32:KERNEL32.dll
 0001:0005ef8e       _GetStringTypeW@16         1005ff8e f   kernel32:KERNEL32.dll
 0001:0005ef94       _FlushFileBuffers@4        1005ff94 f   kernel32:KERNEL32.dll
 0001:0005ef9a       _SetStdHandle@8            1005ff9a f   kernel32:KERNEL32.dll
 0001:0005efa0       _CreateFileW@28            1005ffa0 f   kernel32:KERNEL32.dll
 0001:0005efa6       _HeapSize@12               1005ffa6 f   kernel32:KERNEL32.dll
 0001:0005efac       _SetEndOfFile@4            1005ffac f   kernel32:KERNEL32.dll
 0001:0005efb2       _EncodePointer@4           1005ffb2 f   kernel32:KERNEL32.dll
 0001:0005efb8       _DecodePointer@4           1005ffb8 f   kernel32:KERNEL32.dll
 0001:0005efc0       _strrchr                   1005ffc0 f   libvcruntime:strrchr.obj
 0001:0005f2a7       _memcmp                    100602a7 f   libvcruntime:_memcmp_.obj
 0001:00062d8f       _wcschr                    10063d8f f   libvcruntime:wcschr.obj
 0002:00000000       ___xc_a                    10064000     LIBCMT:initializers.obj
 0002:00000104       ___xc_z                    10064104     LIBCMT:initializers.obj
 0002:00000208       ___xi_a                    10064208     LIBCMT:initializers.obj
 0002:0000030c       ___acrt_stdio_initializer  1006430c     libucrt:stdio_initializer.obj
 0002:00000310       ___acrt_multibyte_initializer 10064310     libucrt:multibyte_initializer.obj
 0002:00000314       ___acrt_tran_sse2_initializer 10064314     libucrt:sse2_initializer.obj
 0002:0000041c       ___xi_z                    1006441c     LIBCMT:initializers.obj
 0002:00000520       ___xp_a                    10064520     LIBCMT:initializers.obj
 0002:00000624       ___acrt_locale_terminator  10064624     libucrt:locale_initializer.obj
 0002:00000628       ___dcrt_console_output_terminator 10064628     libucrt:console_output_initializer.obj
 0002:00000730       ___acrt_stdio_terminator   10064730     libucrt:stdio_initializer.obj
 0002:00000834       ___xp_z                    10064834     LIBCMT:initializers.obj
 0002:00000938       ___xt_a                    10064938     LIBCMT:initializers.obj
 0002:00000a3c       ___xt_z                    10064a3c     LIBCMT:initializers.obj
 0002:00000b40       ??_C@_08INHBMDAJ@Setpoint?$AA@ 10064b40     PIDcontrol.obj
 0002:00000b4c       ??_C@_0M@OCJOIDIA@Error?5Sigal?$AA@ 10064b4c     PIDcontrol.obj
 0002:00000b5c       ??_C@_0P@HGGDJAMI@Motor?5Position?$AA@ 10064b5c     PIDcontrol.obj
 0002:00000b70       ??_C@_0BI@IIIHKFGJ@PIDcontrol?1setpoint_Out?$AA@ 10064b70     PIDcontrol.obj
 0002:00000b8c       ??_C@_0BL@FHBKMJHP@PIDcontrol?1errorSignal_Out?$AA@ 10064b8c     PIDcontrol.obj
 0002:00000bac       ??_C@_0BI@IGILOLHL@PIDcontrol?1motorPos_Out?$AA@ 10064bac     PIDcontrol.obj
 0002:00000bc8       _PIDcontrol_M              10064bc8     PIDcontrol.obj
 0002:00000c44       ??_C@_0BI@PEBACBDB@Error?5creating?5scope?53?6?$AA@ 10064c44     PIDcontrol.obj
 0002:00000c60       ??_C@_07PFAGFFFO@Gain?1s1?$AA@ 10064c60     PIDcontrol.obj
 0002:00000c6c       ??_C@_07NOCLAGJN@Gain?1s2?$AA@ 10064c6c     PIDcontrol.obj
 0002:00000c78       ??_C@_07MHDADHNM@Gain?1s3?$AA@ 10064c78     PIDcontrol.obj
 0002:00000c84       ??_C@_0BG@HCGNMBDA@Setpoint?5?5?5?5?5?5?5?5?$CF3?42f?$AA@ 10064c84     PIDcontrol.obj
 0002:00000ca0       ??_C@_0BG@KBNMBNLJ@Motor?5Position?5?5?$CF3?42f?$AA@ 10064ca0     PIDcontrol.obj
 0002:00000cbc       ??_C@_0BG@OKNLFNOK@Error?5Signal?5?5?5?5?$CF3?42f?$AA@ 10064cbc     PIDcontrol.obj
 0002:00000cd8       ??_C@_0BI@PFNCELAG@Error?5creating?5scope?52?6?$AA@ 10064cd8     PIDcontrol.obj
 0002:00000cf4       ??_C@_04JMNNLCJG@Sum1?$AA@ 10064cf4     PIDcontrol.obj
 0002:00000cfc       ??_C@_0BI@PDBJIJON@Error?5creating?5scope?57?6?$AA@ 10064cfc     PIDcontrol.obj
 0002:00000d18       ??_C@_0EN@BAAEGADN@Real?5motor?1angular_position?5?$DN?5?5?$FL@ 10064d18     PIDcontrol.obj
 0002:00000d74       ??_C@_0BI@PHJEPFFP@Error?5creating?5scope?51?6?$AA@ 10064d74     PIDcontrol.obj
 0002:00000d90       ??_C@_04CNCNIFFP@gain?$AA@ 10064d90     PIDcontrol.obj
 0002:00000d98       ??_C@_04CMIMOENB@ode3?$AA@ 10064d98     PIDcontrol.obj
 0002:00000da0       ??_C@_04EPKDLPPB@tout?$AA@ 10064da0     PIDcontrol.obj
 0002:00000da6       ??_C@_00CNPNBAHC@?$AA@     10064da6     PIDcontrol.obj
 0002:00000da8       ??_C@_03HBFGMJOD@rt_?$AA@  10064da8     PIDcontrol.obj
 0002:00000dac       ??_C@_04LHDDHLEA@yout?$AA@ 10064dac     PIDcontrol.obj
 0002:00000db4       ??_C@_0BO@FGDALDHL@Channel?50?5of?5?6Encoder?5Inputs?5?$AA@ 10064db4     PIDcontrol.obj
 0002:00000dd8       ??_C@_0DE@BGOOOILI@PIDcontrol?1Real?5motor?1Channel?50?5@ 10064dd8     PIDcontrol.obj
 0002:00000e18       ??_C@_0DH@LFMGCAGH@Channel?50?5?9Control?5signal?5to?5?6mo@ 10064e18     PIDcontrol.obj
 0002:00000e60       ??_C@_0EN@BENKKMHD@PIDcontrol?1Real?5motor?1Channel?50?5@ 10064e60     PIDcontrol.obj
 0002:00000ec0       __real@3f50624dd2f1a9fc    10064ec0     PIDcontrol.obj
 0002:00000ed0       __real@3fcc71c71c71c71c    10064ed0     PIDcontrol.obj
 0002:00000ee0       __real@3fd5555555555555    10064ee0     PIDcontrol.obj
 0002:00000ef0       __real@3fdc71c71c71c71c    10064ef0     PIDcontrol.obj
 0002:00000f00       __real@3fe0000000000000    10064f00     PIDcontrol.obj
 0002:00000f10       __real@3fe8000000000000    10064f10     PIDcontrol.obj
 0002:00000f20       __real@4008000000000000    10064f20     PIDcontrol.obj
 0002:00000f30       __real@4024000000000000    10064f30     PIDcontrol.obj
 0002:00000f40       __real@4065400000000000    10064f40     PIDcontrol.obj
 0002:00000f50       __real@4066800000000000    10064f50     PIDcontrol.obj
 0002:00000f60       __real@4069000000000000    10064f60     PIDcontrol.obj
 0002:00000f70       __real@407f400000000000    10064f70     PIDcontrol.obj
 0002:00000f80       __real@41f0000000000000    10064f80     PIDcontrol.obj
 0002:00000f90       __real@bff0000000000000    10064f90     PIDcontrol.obj
 0002:00000fa0       __real@c066800000000000    10064fa0     PIDcontrol.obj
 0002:00000fb0       __xmm@00000001000000010000000100000001 10064fb0     PIDcontrol.obj
 0002:00000fd0       __xmm@00000051000000140000002a00000002 10064fd0     PIDcontrol.obj
 0002:00000ff0       __xmm@3f50624dd2f1a9fc0000000000000000 10064ff0     PIDcontrol.obj
 0002:00001010       __xmm@41f00000000000000000000000000000 10065010     PIDcontrol.obj
 0002:00001030       __xmm@7fffffffffffffff7fffffffffffffff 10065030     PIDcontrol.obj
 0002:00001048       __real@3cb0000000000000    10065048     rt_matrx.obj
 0002:00001058       __real@3ff0000000000000    10065058     rt_matrx.obj
 0002:0000182c       ??_C@_09MODAECCC@AbsDError?$AA@ 1006582c     PIDcontrol_capi.obj
 0002:00001838       ??_C@_09BMOBNNCE@AbsError1?$AA@ 10065838     PIDcontrol_capi.obj
 0002:00001844       ??_C@_09DHMMIOOH@AbsError2?$AA@ 10065844     PIDcontrol_capi.obj
 0002:00001850       ??_C@_0O@KMOEPDCA@DerivativePID?$AA@ 10065850     PIDcontrol_capi.obj
 0002:00001860       ??_C@_04OMOMKKFL@Gain?$AA@ 10065860     PIDcontrol_capi.obj
 0002:00001868       ??_C@_02HNOAOKGP@Kd?$AA@   10065868     PIDcontrol_capi.obj
 0002:0000186c       ??_C@_02MIEOJECC@Ki?$AA@   1006586c     PIDcontrol_capi.obj
 0002:00001870       ??_C@_07BAKDLIDH@KiSmall?$AA@ 10065870     PIDcontrol_capi.obj
 0002:0000187c       ??_C@_02FDEODNDK@Kp?$AA@   1006587c     PIDcontrol_capi.obj
 0002:00001880       ??_C@_07OCOFGBCK@KpSmall?$AA@ 10065880     PIDcontrol_capi.obj
 0002:0000188c       ??_C@_0O@IAJKEFBN@IntegratorPID?$AA@ 1006588c     PIDcontrol_capi.obj
 0002:0000189c       ??_C@_06LCNENILN@Merge1?$AA@ 1006589c     PIDcontrol_capi.obj
 0002:000018a4       ??_C@_06JJPJILHO@Merge2?$AA@ 100658a4     PIDcontrol_capi.obj
 0002:000018ac       ??_C@_04LHPAOBFF@Sum2?$AA@ 100658ac     PIDcontrol_capi.obj
 0002:000018b4       ??_C@_04OBKKEGND@Sum4?$AA@ 100658b4     PIDcontrol_capi.obj
 0002:000018bc       ??_C@_0BE@OOAAJOME@Else1?5Subsystem?1In1?$AA@ 100658bc     PIDcontrol_capi.obj
 0002:000018d4       ??_C@_0BE@MHMICKDG@Else2?5Subsystem?1In1?$AA@ 100658d4     PIDcontrol_capi.obj
 0002:000018ec       ??_C@_0BC@CBADEKHF@If1?5Subsystem?1In1?$AA@ 100658ec     PIDcontrol_capi.obj
 0002:00001904       ??_C@_0BC@IMLPOIH@If2?5Subsystem?1In1?$AA@ 10065904     PIDcontrol_capi.obj
 0002:0000191c       ??_C@_0BG@IEJBBPNL@Real?5motor?1Saturation?$AA@ 1006591c     PIDcontrol_capi.obj
 0002:00001938       ??_C@_0CJ@GBFCCONM@Real?5motor?1Channel?50?5of?5?5Encoder@ 10065938     PIDcontrol_capi.obj
 0002:0000196c       ??_C@_06DGFMLKGB@Degree?$AA@ 1006596c     PIDcontrol_capi.obj
 0002:00001974       ??_C@_05LPIJGKJ@Value?$AA@ 10065974     PIDcontrol_capi.obj
 0002:0000197c       ??_C@_0BC@JJDNPNE@DegreeErrorThresh?$AA@ 1006597c     PIDcontrol_capi.obj
 0002:00001994       ??_C@_0O@OACABCGF@NullConstant1?$AA@ 10065994     PIDcontrol_capi.obj
 0002:000019a4       ??_C@_0O@MLANEBKG@NullConstant2?$AA@ 100659a4     PIDcontrol_capi.obj
 0002:000019b4       ??_C@_0BA@JBLOPHPB@RateErrorThresh?$AA@ 100659b4     PIDcontrol_capi.obj
 0002:000019c8       ??_C@_0N@HEODHKMC@SmallDegree1?$AA@ 100659c8     PIDcontrol_capi.obj
 0002:000019d8       ??_C@_0N@FPMOCJAB@SmallDegree2?$AA@ 100659d8     PIDcontrol_capi.obj
 0002:000019e8       ??_C@_0BB@CFEOEMDC@InitialCondition?$AA@ 100659e8     PIDcontrol_capi.obj
 0002:000019fc       ??_C@_0L@FBCGKKEN@UpperLimit?$AA@ 100659fc     PIDcontrol_capi.obj
 0002:00001a0c       ??_C@_0L@DGFJOHKP@LowerLimit?$AA@ 10065a0c     PIDcontrol_capi.obj
 0002:00001a20       ??_C@_0EC@LJCFPBCG@Real?5motor?1Channel?50?5?9Control?5si@ 10065a20     PIDcontrol_capi.obj
 0002:00001a70       ??_C@_02KKFPAPOP@P1?$AA@   10065a70     PIDcontrol_capi.obj
 0002:00001a74       ??_C@_02IBHCFMCM@P2?$AA@   10065a74     PIDcontrol_capi.obj
 0002:00001a78       ??_C@_02JIGJGNGN@P3?$AA@   10065a78     PIDcontrol_capi.obj
 0002:00001a7c       ??_C@_02NHCIPLKK@P4?$AA@   10065a7c     PIDcontrol_capi.obj
 0002:00001a80       ??_C@_02MODDMKOL@P5?$AA@   10065a80     PIDcontrol_capi.obj
 0002:00001a84       ??_C@_02OFBOJJCI@P6?$AA@   10065a84     PIDcontrol_capi.obj
 0002:00001a88       ??_C@_02PMAFKIGJ@P7?$AA@   10065a88     PIDcontrol_capi.obj
 0002:00001a8c       ??_C@_02HLJNLEKG@P8?$AA@   10065a8c     PIDcontrol_capi.obj
 0002:00001a90       ??_C@_02GCIGIFOH@P9?$AA@   10065a90     PIDcontrol_capi.obj
 0002:00001a94       ??_C@_03OPFJJGBF@P10?$AA@  10065a94     PIDcontrol_capi.obj
 0002:00001a98       ??_C@_03PGECKHFE@P11?$AA@  10065a98     PIDcontrol_capi.obj
 0002:00001a9c       ??_C@_03NNGPPEJH@P12?$AA@  10065a9c     PIDcontrol_capi.obj
 0002:00001aa0       ??_C@_06BNJCAIGJ@double?$AA@ 10065aa0     PIDcontrol_capi.obj
 0002:00001aa8       ??_C@_06CNMIJIPB@real_T?$AA@ 10065aa8     PIDcontrol_capi.obj
 0002:00001ab0       ??_C@_05KNFBNCOH@float?$AA@ 10065ab0     PIDcontrol_capi.obj
 0002:00001ab8       _serialfifoground          10065ab8     xpc_datatype_ground.obj
 0002:00001ac4       _bcmsg1553ground           10065ac4     xpc_datatype_ground.obj
 0002:00001ad4       _bcstatground              10065ad4     xpc_datatype_ground.obj
 0002:00001aec       _bmmsg1553ground           10065aec     xpc_datatype_ground.obj
 0002:00001b28       ??_C@_0BI@INNPNFJN@Memory?5Allocation?5Error?$AA@ 10065b28     rtw_modelmap_utils.obj
 0002:00001b48       ??_C@_1HC@IFMGIDHA@?$AAC?$AA?3?$AA?2?$AAP?$AAR?$AAO?$AAG?$AAR?$AAA?$AA?$HO?$AA1?$AA?2?$AAM?$AAA?$AAT?$AAL?$AAA?$AAB?$AA?2?$AAR?$AA2?$AA0?$AA1?$AA7?$AAa?$AA?2?$AAr?$AAt?$AAw?$AA?2?$AAc?$AA?2@ 10065b48     rtw_modelmap_utils.obj
 0002:00001bd0       ??_C@_1CI@OEAJCJND@?$AAj?$AA?5?$AA?$DN?$AA?$DN?$AA?5?$AAe?$AAn?$AAc?$AAo?$AAd?$AAe?$AAd?$AAP?$AAa?$AAt?$AAh?$AAL?$AAe?$AAn?$AA?$AA@ 10065bd0     rtw_modelmap_utils.obj
 0002:00001c00       ??_C@_1DC@NFAOIFKB@?$AAe?$AAn?$AAc?$AAo?$AAd?$AAe?$AAd?$AAP?$AAa?$AAt?$AAh?$AA?$FL?$AAj?$AA?9?$AA1?$AA?$FN?$AA?5?$AA?$DN?$AA?$DN?$AA?5?$AA?8?$AA?2?$AA0?$AA?8?$AA?$AA@ 10065c00     rtw_modelmap_utils.obj
 0002:00001c3c       ??_C@_1DI@FLNJGPEE@?$AAs?$AAi?$AAg?$AAC?$AAo?$AAm?$AAp?$AAl?$AAe?$AAx?$AAi?$AAt?$AAy?$AA?$FL?$AA?$CK?$AAs?$AAi?$AAg?$AAI?$AAd?$AAx?$AA?$FN?$AA?5?$AA?$CB?$AA?$DN?$AA?5?$AA1?$AA?$AA@ 10065c3c     rtw_modelmap_utils.obj
 0002:00001c80       ??_C@_1KI@OFELMGBG@?$AA?$CI?$AA?$CI?$AA?$CI?$AAd?$AAa?$AAt?$AAa?$AAT?$AAy?$AAp?$AAe?$AAM?$AAa?$AAp?$AA?$CJ?$AA?$FL?$AA?$CI?$AA?$CI?$AA?$CI?$AAs?$AAt?$AAa?$AAt?$AAe?$AAs?$AA?$CJ?$AA?$FL?$AA?$CI?$AAi?$AA?$CJ?$AA?$FN?$AA?4@ 10065c80     rtw_modelmap_utils.obj
 0002:00001d4c       ??_C@_1DA@ILCMPHNE@?$AAf?$AAu?$AAl?$AAl?$AAP?$AAa?$AAt?$AAh?$AA?5?$AA?$CB?$AA?$DN?$AA?5?$AA?$CI?$AA?$CI?$AAv?$AAo?$AAi?$AAd?$AA?5?$AA?$CK?$AA?$CJ?$AA0?$AA?$CJ?$AA?$AA@ 10065d4c     rtw_modelmap_utils.obj
 0002:00001d88       ??_C@_1CI@OEPPFCCA@?$AAp?$AAa?$AAt?$AAh?$AA?5?$AA?$CB?$AA?$DN?$AA?5?$AA?$CI?$AA?$CI?$AAv?$AAo?$AAi?$AAd?$AA?5?$AA?$CK?$AA?$CJ?$AA0?$AA?$CJ?$AA?$AA@ 10065d88     rtw_modelmap_utils.obj
 0002:00001db8       ??_C@_1FK@GLJIMFHB@?$AA?$CI?$AA?$CI?$AAm?$AAm?$AAi?$AA?$CJ?$AA?9?$AA?$DO?$AAI?$AAn?$AAs?$AAt?$AAa?$AAn?$AAc?$AAe?$AAM?$AAa?$AAp?$AA?4?$AAf?$AAu?$AAl?$AAl?$AAP?$AAa?$AAt?$AAh?$AA?$CJ?$AA?5?$AA?$DN?$AA?$DN@ 10065db8     rtw_modelmap_utils.obj
 0002:00001e24       ??_C@_1DG@HPCJGNCE@?$AAm?$AAm?$AAi?$AAP?$AAa?$AAt?$AAh?$AA?$FL?$AAp?$AAa?$AAt?$AAh?$AAL?$AAe?$AAn?$AA?9?$AA1?$AA?$FN?$AA?5?$AA?$DN?$AA?$DN?$AA?5?$AA?8?$AA?2?$AA0?$AA?8?$AA?$AA@ 10065e24     rtw_modelmap_utils.obj
 0002:00001e64       ??_C@_1DM@DBAOGGOO@?$AAm?$AAm?$AAi?$AAP?$AAa?$AAt?$AAh?$AA?$FL?$AAm?$AAm?$AAi?$AAP?$AAa?$AAt?$AAh?$AAL?$AAe?$AAn?$AA?9?$AA1?$AA?$FN?$AA?5?$AA?$DN?$AA?$DN?$AA?5?$AA?8?$AA?2?$AA0?$AA?8?$AA?$AA@ 10065e64     rtw_modelmap_utils.obj
 0002:00001eac       ??_C@_1DC@LHIAKAFE@?$AAb?$AAl?$AAo?$AAc?$AAk?$AAP?$AAa?$AAt?$AAh?$AA?5?$AA?$CB?$AA?$DN?$AA?5?$AA?$CI?$AA?$CI?$AAv?$AAo?$AAi?$AAd?$AA?5?$AA?$CK?$AA?$CJ?$AA0?$AA?$CJ?$AA?$AA@ 10065eac     rtw_modelmap_utils.obj
 0002:00001ee8       ??_C@_1GI@KIEJKPGC@?$AAf?$AAu?$AAl?$AAl?$AAS?$AAt?$AAa?$AAt?$AAe?$AAB?$AAl?$AAo?$AAc?$AAk?$AAP?$AAa?$AAt?$AAh?$AA?$FL?$AAf?$AAu?$AAl?$AAl?$AAS?$AAt?$AAa?$AAt?$AAe?$AAB?$AAl?$AAo?$AAc@ 10065ee8     rtw_modelmap_utils.obj
 0002:00001f68       ??_C@_1EE@DNPIBJHC@?$AA?$CI?$AA?$CI?$AAd?$AAi?$AAm?$AAM?$AAa?$AAp?$AA?$CJ?$AA?$FL?$AA?$CI?$AAm?$AAa?$AAp?$AAI?$AAd?$AAx?$AA?$CJ?$AA?$FN?$AA?4?$AAn?$AAu?$AAm?$AAD?$AAi?$AAm?$AAs?$AA?$CJ?$AA?5?$AA?$DN?$AA?$DN?$AA?5@ 10065f68     rtw_modelmap_utils.obj
 0002:00001fbc       ??_C@_06JFOKFOED@CSTATE?$AA@ 10065fbc     rtw_modelmap_utils.obj
 0002:00001fc4       ??_C@_06FAENGAMN@DSTATE?$AA@ 10065fc4     rtw_modelmap_utils.obj
 0002:00001fcc       ??_C@_1BI@LEBJNOGG@?$AAc?$AAs?$AAv?$AAI?$AAd?$AAx?$AA?5?$AA?$DO?$AA?$DN?$AA?5?$AA0?$AA?$AA@ 10065fcc     rtw_modelmap_utils.obj
 0002:00001fe8       ??_C@_1BA@KDMGHCHP@?$AAT?$AAI?$AAD?$AA?$DN?$AA?$DN?$AA?9?$AA1?$AA?$AA@ 10065fe8     rtw_modelmap_utils.obj
 0002:00001ffc       ??_C@_1DM@DHGKBPCE@?$AAs?$AAi?$AAg?$AAP?$AAa?$AAt?$AAh?$AA?$FL?$AAs?$AAi?$AAg?$AAP?$AAa?$AAt?$AAh?$AAL?$AAe?$AAn?$AA?9?$AA1?$AA?$FN?$AA?5?$AA?$DN?$AA?$DN?$AA?5?$AA?8?$AA?2?$AA0?$AA?8?$AA?$AA@ 10065ffc     rtw_modelmap_utils.obj
 0002:000028a8       ??_C@_0DJ@FHKINPLE@Unexpected?5itemKind?5?$DN?5DATA_ITEM?5@ 100668a8     rt_logging.obj
 0002:000028ec       ??_C@_0DA@IEHFPFCJ@Unexpected?5itemKind?$DN?$CFd?5in?5rt_Pro@ 100668ec     rt_logging.obj
 0002:00002928       ??_C@_0DA@IFLHJPBO@Unexpected?5itemKind?$DN?$CFd?5in?5rt_Pro@ 10066928     rt_logging.obj
 0002:00002964       ??_C@_0DA@IAPIIJJL@Unexpected?5itemKind?$DN?$CFd?5in?5rt_Pro@ 10066964     rt_logging.obj
 0002:000029a0       ??_C@_0BE@LCIGPJIG@MATLAB?55?40?5MAT?9file?$AA@ 100669a0     rt_logging.obj
 0002:000029b8       ??_C@_0FB@PCJEAJIB@?$CK?$CK?$CK?5Log?5variable?5?$CFs?5has?5wrapped?5@ 100669b8     rt_logging.obj
 0002:00002a20       ??_C@_0MG@NKMLMOGF@?$CK?$CK?$CK?5To?5avoid?5wrapping?0?5explicitl@ 10066a20     rt_logging.obj
 0002:00002b10       ??_C@_0N@IPAEOLLP@_rtw_tmw?4tmw?$AA@ 10066b10     rt_logging.obj
 0002:00002b20       ??_C@_04HDOCAJNK@?$CFs?$CFs?$AA@ 10066b20     rt_logging.obj
 0002:00002b28       ??_C@_03ELIABIOC@w?$CLb?$AA@ 10066b28     rt_logging.obj
 0002:00002b2c       ??_C@_0BF@JPILDDFA@?$CK?$CK?$CK?5Error?5opening?5?$CFs?$AA@ 10066b2c     rt_logging.obj
 0002:00002b48       ??_C@_0BK@EEMDELA@unable?5to?5open?5data?5file?6?$AA@ 10066b48     rt_logging.obj
 0002:00002b68       ??_C@_04CGFJFPFD@none?$AA@ 10066b68     rt_logging.obj
 0002:00002b70       ??_C@_0EE@LCGFPNON@?$CK?$CK?$CK?5Error?5creating?5signals?5struc@ 10066b70     rt_logging.obj
 0002:00002bc4       ??_C@_0CE@NHECEDMK@?$CK?$CK?$CK?5Error?5creating?5log?5variable?5@ 10066bc4     rt_logging.obj
 0002:00002bf0       ??_C@_0DB@IOCGKAGH@?$CK?$CK?$CK?5Errors?5occurred?5when?5startin@ 10066bf0     rt_logging.obj
 0002:00002c2c       ??_C@_0BO@BBLOGEBK@?$CK?$CK?$CK?5Memory?5allocation?5error?4?6?$AA@ 10066c2c     rt_logging.obj
 0002:00002c50       ??_C@_0N@LGFBAGEL@?5?$CIreal?5part?$CJ?$AA@ 10066c50     rt_logging.obj
 0002:00002c60       ??_C@_0KH@CGNMHNFE@?5?5?5?5varName?5?5?5?5?5?5?5?5?5?5?$DN?5?$CFs?$CFs?6?5?5?5?5@ 10066c60     rt_logging.obj
 0002:00002d28       ??_C@_0LE@OALKKEFM@?5?5?5?5varName?5?5?5?5?5?5?5?5?5?5?$DN?5?$CFs?5?$CIcompl@ 10066d28     rt_logging.obj
 0002:00002e00       ??_C@_0KF@JDDLEOKO@?5?5?5?5varName?5?5?5?5?5?5?5?5?5?5?$DN?5?$CFs?6?5?5?5?5nR@ 10066e00     rt_logging.obj
 0002:00002ec8       ??_C@_0DP@HPDMIOFM@?$CK?$CK?$CK?5Using?5a?5default?5buffer?5of?5si@ 10066ec8     rt_logging.obj
 0002:00002f18       ??_C@_0KE@JEFOLKNF@?6?$CK?$CK?$CK?5Memory?5required?5to?5log?5vari@ 10066f18     rt_logging.obj
 0002:00002fe0       ??_C@_0JP@DKLMHCBI@?$CK?$CK?$CK?5Details?3?6?5?5?5?5?5?5?5varName?5?5?5?5?5@ 10066fe0     rt_logging.obj
 0002:000030a0       ??_C@_0CM@CAMILBED@?$CK?$CK?$CK?5Error?5allocating?5memory?5for?5@ 100670a0     rt_logging.obj
 0002:000030d4       ??_C@_0DF@BBCNMOPM@?$CK?$CK?$CK?5Error?5allocating?5memory?5for?5@ 100670d4     rt_logging.obj
 0002:00003118       ??_C@_0JP@DBCLPCCI@?$CK?$CK?$CK?5Details?3?6?5?5?5?5?5?5?5varName?5?5?5?5?5@ 10067118     rt_logging.obj
 0002:000031d8       ??_C@_0FK@DPGAOBGA@?$CK?$CK?$CK?5Error?5allocating?5memory?5for?5@ 100671d8     rt_logging.obj
 0002:00003244       ??_C@_0BI@GGDNPHLJ@?$CK?$CK?$CK?5Error?5writing?5to?5?$CFs?$AA@ 10067244     rt_logging.obj
 0002:00003260       ??_C@_0CB@IBGJGELG@?$CK?$CK?$CK?5Error?5writing?5?$CFs?5due?5to?3?5?$CFs?6@ 10067260     rt_logging.obj
 0002:00003288       ??_C@_0CN@FLMCHCPB@?$CK?$CK?$CK?5Error?5writing?5log?5variable?5?$CF@ 10067288     rt_logging.obj
 0002:000032c0       ??_C@_0DH@GAJCNOJP@?$CK?$CK?$CK?5Error?5writing?5structure?5log?5@ 100672c0     rt_logging.obj
 0002:00003304       ??_C@_0BD@POEALECL@?$CK?$CK?5created?5?$CFs?5?$CK?$CK?6?6?$AA@ 10067304     rt_logging.obj
 0002:00003320       __real@0000000000000000    10067320     rt_logging.obj
 0002:00003330       __real@4020000000000000    10067330     rt_logging.obj
 0002:00003340       __real@41dfffffffc00000    10067340     rt_logging.obj
 0002:00003350       __real@41efffffffe00000    10067350     rt_logging.obj
 0002:00003360       __real@4330000000000000    10067360     rt_logging.obj
 0002:00003370       __real@8000000000000000    10067370     rt_logging.obj
 0002:00003380       __real@bfbf9add3afd2773    10067380     rt_logging.obj
 0002:00003390       __real@c000000000000000    10067390     rt_logging.obj
 0002:000033a0       __xmm@20202020202020202020202020202020 100673a0     rt_logging.obj
 0002:000033b4       ??_C@_0L@FLNEJOIG@PIDcontrol?$AA@ 100673b4     xpctarget.obj
 0002:000033c4       _ptsetfilename             100673c4     xpctarget.obj
 0002:000033c8       _xmlfile                   100673c8     xpctarget.obj
 0002:000033d0       ??_C@_0L@CHBJKKFC@xpceSetVar?$AA@ 100673d0     xpctarget.obj
 0002:000033e0       ??_C@_03LADEHNAB@6?46?$AA@ 100673e0     xpctarget.obj
 0002:000033e8       __real@3fb999999999999a    100673e8     xpctarget.obj
 0002:000033f8       __real@408f400000000000    100673f8     xpctarget.obj
 0002:00003408       _PIDcontrol_BIOMAP         10067408     appmappingData.obj
 0002:00003534       _PIDcontrol_dtmap          10067534     appmappingData.obj
 0002:00003540       _PIDcontrol_LBLMAP         10067540     appmappingData.obj
 0002:00003670       _PIDcontrol_SIDMAP         10067670     appmappingData.obj
 0002:000037a0       _PIDcontrol_SBIO           100677a0     appmappingData.obj
 0002:00003808       _PIDcontrol_SLBL           10067808     appmappingData.obj
 0002:00003870       _PIDcontrol_PTIDSMAP       10067870     appmappingData.obj
 0002:000039b0       _PIDcontrol_PTNAMESMAP     100679b0     appmappingData.obj
 0002:00003af0       _PIDcontrol_SPTMAP         10067af0     appmappingData.obj
 0002:00003b90       _appInfo                   10067b90     appmappingData.obj
 0002:00003d6c       ??_C@_0CC@FIFFDAB@?$CFd?5input?5args?5expected?0?5?$CFd?5passe@ 10067d6c     daquanserq8.obj
 0002:00003d94       ??_C@_0L@GPCJJFPH@Quanser?5Q8?$AA@ 10067d94     daquanserq8.obj
 0002:00003da4       ??_C@_0L@MDJMNKPL@Quanser?5Q4?$AA@ 10067da4     daquanserq8.obj
 0002:00003db4       ??_C@_0BI@IHCNPKCM@No?5?$CFs?5at?5bus?5?$CFd?5slot?5?$CFd?$AA@ 10067db4     daquanserq8.obj
 0002:00003dd0       ??_C@_0BK@DJPPGIA@Bad?5channel?5in?5?$CFs?5D?1A?3?5?$CFn?$AA@ 10067dd0     daquanserq8.obj
 0002:00003df0       ??_C@_0BI@OLGKMIEO@Bad?5range?5in?5?$CFs?5D?1A?3?5?$CFd?$AA@ 10067df0     daquanserq8.obj
 0002:00003e10       __real@4014000000000000    10067e10     daquanserq8.obj
 0002:00003e20       __real@406999999999999a    10067e20     daquanserq8.obj
 0002:00003e30       __real@407999999999999a    10067e30     daquanserq8.obj
 0002:00003e3c       ??_C@_0BL@NBOIGMKP@Q8?1Q4?5encoder?5error?5?$CFx?5?$CFx?6?$AA@ 10067e3c     encquanserq8.obj
 0002:00003e5c       ??_C@_0CC@DMFKNLL@VendorId?5?$DN?50x?$CFx?0?5DeviceId?5?$DN?50x?$CFx@ 10067e5c     xpcruntime:xpcimports.obj
 0002:00003e84       ??_C@_0DH@OHCBLNMG@Subsystem?5Device?5ID?5?$DN?50x?$CFx?6Subsy@ 10067e84     xpcruntime:xpcimports.obj
 0002:00003ec8       ??_C@_0BD@MMMMEFCM@Class?5Code?5?$DN?50x?$CFx?6?$AA@ 10067ec8     xpcruntime:xpcimports.obj
 0002:00003ee0       ??_C@_0BE@OLDDDNHM@InterruptLine?5?$DN?5?$CFd?6?$AA@ 10067ee0     xpcruntime:xpcimports.obj
 0002:00003ef8       ??_C@_0BF@OLKLEKBD@bus?5?$DN?5?$CFd?0?5slot?5?$DN?5?$CFd?6?$AA@ 10067ef8     xpcruntime:xpcimports.obj
 0002:00003f14       ??_C@_0CE@DGLLGDFH@?5?5?5?5Phys?5?5?5Virtual?5?5?5Length?5IO?1M@ 10067f14     xpcruntime:xpcimports.obj
 0002:00003f40       ??_C@_0BI@FEOPLEMG@?$CF08x?5?$CF08x?5?$CF08x?5?5?5?5?5?5?$CFc?6?$AA@ 10067f40     xpcruntime:xpcimports.obj
 0002:00003f5c       ??_C@_0BB@BNNCEDPC@rl32eScopeExists?$AA@ 10067f5c     xpcruntime:xpcimports.obj
 0002:00003f70       ??_C@_0BM@FJBFEGFG@rl32eScopeExists?5not?5found?6?$AA@ 10067f70     xpcruntime:xpcimports.obj
 0002:00003f94       ??_C@_0O@BNNGKJEA@rl32eDefScope?$AA@ 10067f94     xpcruntime:xpcimports.obj
 0002:00003fa4       ??_C@_0BJ@CDNOENKA@rl32eDefScope?5not?5found?6?$AA@ 10067fa4     xpcruntime:xpcimports.obj
 0002:00003fc4       ??_C@_0P@CKNKILDP@rl32eAddSignal?$AA@ 10067fc4     xpcruntime:xpcimports.obj
 0002:00003fd8       ??_C@_0BK@GMJAJBAI@rl32eAddSignal?5not?5found?6?$AA@ 10067fd8     xpcruntime:xpcimports.obj
 0002:00003ff8       ??_C@_0BB@LDMIHGCE@rl32eGetSignalNo?$AA@ 10067ff8     xpcruntime:xpcimports.obj
 0002:0000400c       ??_C@_0BM@LGAMBAID@rl32eGetSignalNo?5not?5found?6?$AA@ 1006800c     xpcruntime:xpcimports.obj
 0002:00004030       ??_C@_0O@CFDGALBP@rl32eSetScope?$AA@ 10068030     xpcruntime:xpcimports.obj
 0002:00004040       ??_C@_0BJ@JCLHHIN@rl32eSetScope?5not?5found?6?$AA@ 10068040     xpcruntime:xpcimports.obj
 0002:00004060       ??_C@_0P@IKMCBMHH@xpceFSScopeSet?$AA@ 10068060     xpcruntime:xpcimports.obj
 0002:00004074       ??_C@_0BK@JODJPNNH@xpceFSScopeSet?5not?5found?6?$AA@ 10068074     xpcruntime:xpcimports.obj
 0002:00004094       ??_C@_0BE@DLACEEJM@rl32eSetTargetScope?$AA@ 10068094     xpcruntime:xpcimports.obj
 0002:000040ac       ??_C@_0BP@JCHFMKPJ@rl32eSetTargetScope?5not?5found?6?$AA@ 100680ac     xpcruntime:xpcimports.obj
 0002:000040d4       ??_C@_0BJ@LIDLNDHC@rl32eSetTargetScopeSigFt?$AA@ 100680d4     xpcruntime:xpcimports.obj
 0002:000040f4       ??_C@_0CE@JLGHCFHI@rl32eSetTargetScopeSigFt?5not?5fou@ 100680f4     xpcruntime:xpcimports.obj
 0002:00004120       ??_C@_0BI@JAPOIDNG@rl32eRestartAcquisition?$AA@ 10068120     xpcruntime:xpcimports.obj
 0002:0000413c       ??_C@_0CD@LLBEFFBO@rl32eRestartAcquisition?5not?5foun@ 1006813c     xpcruntime:xpcimports.obj
 0002:00004168       ??_C@_0P@IEIIADJB@xpceScopeAcqOK?$AA@ 10068168     xpcruntime:xpcimports.obj
 0002:0000417c       ??_C@_0BK@NJCKNFPN@xpceScopeAcqOK?5not?5found?6?$AA@ 1006817c     xpcruntime:xpcimports.obj
 0002:0000419c       ??_C@_0BA@IJINKAHF@xpceRegisterISR?$AA@ 1006819c     xpcruntime:xpcimports.obj
 0002:000041b0       ??_C@_0BL@NNDLOEJE@xpceRegisterISR?5not?5found?6?$AA@ 100681b0     xpcruntime:xpcimports.obj
 0002:000041d0       ??_C@_0BC@NLBADGKF@xpceDeRegisterISR?$AA@ 100681d0     xpcruntime:xpcimports.obj
 0002:000041e8       ??_C@_0BN@DCAIKFFD@xpceDeRegisterISR?5not?5found?6?$AA@ 100681e8     xpcruntime:xpcimports.obj
 0002:0000420c       ??_C@_07JPMEPILD@xpcInpB?$AA@ 1006820c     xpcruntime:xpcimports.obj
 0002:00004218       ??_C@_0BD@PGABEJOL@xpcInpB?5not?5found?6?$AA@ 10068218     xpcruntime:xpcimports.obj
 0002:00004230       ??_C@_07KIHBBOKH@xpcInpW?$AA@ 10068230     xpcruntime:xpcimports.obj
 0002:0000423c       ??_C@_0BD@FPCJFMCC@xpcInpW?5not?5found?6?$AA@ 1006823c     xpcruntime:xpcimports.obj
 0002:00004254       ??_C@_08KDIAJBOP@xpcInpDW?$AA@ 10068254     xpcruntime:xpcimports.obj
 0002:00004260       ??_C@_0BE@PIELDNIL@xpcInpDW?5not?5found?6?$AA@ 10068260     xpcruntime:xpcimports.obj
 0002:00004278       ??_C@_08PJFMOIGO@xpcOutpB?$AA@ 10068278     xpcruntime:xpcimports.obj
 0002:00004284       ??_C@_0BE@HCKNCEKF@xpcOutpB?5not?5found?6?$AA@ 10068284     xpcruntime:xpcimports.obj
 0002:0000429c       ??_C@_08MOOJAOHK@xpcOutpW?$AA@ 1006829c     xpcruntime:xpcimports.obj
 0002:000042a8       ??_C@_0BE@NLIFDBGM@xpcOutpW?5not?5found?6?$AA@ 100682a8     xpcruntime:xpcimports.obj
 0002:000042c0       ??_C@_09FLIEKHJG@xpcOutpDW?$AA@ 100682c0     xpcruntime:xpcimports.obj
 0002:000042cc       ??_C@_0BF@GJKLPNHB@xpcOutpDW?5not?5found?6?$AA@ 100682cc     xpcruntime:xpcimports.obj
 0002:000042e8       ??_C@_0BH@EHOLELHH@xpcReserveMemoryRegion?$AA@ 100682e8     xpcruntime:xpcimports.obj
 0002:00004304       ??_C@_0CC@KAAAGPI@xpcReserveMemoryRegion?5not?5found@ 10068304     xpcruntime:xpcimports.obj
 0002:0000432c       ??_C@_0BA@JGPMHGAF@rl32eShowPCIDev?$AA@ 1006832c     xpcruntime:xpcimports.obj
 0002:00004340       ??_C@_0BL@DDFFLNHI@rl32eShowPCIDev?5not?5found?6?$AA@ 10068340     xpcruntime:xpcimports.obj
 0002:00004360       ??_C@_0BB@KBCOJPFB@rl32eShowPCIInfo?$AA@ 10068360     xpcruntime:xpcimports.obj
 0002:00004374       ??_C@_0BM@IFDMAGLO@rl32eShowPCIInfo?5not?5found?6?$AA@ 10068374     xpcruntime:xpcimports.obj
 0002:00004398       ??_C@_0BA@BGPAADB@rl32eGetPCIInfo?$AA@ 10068398     xpcruntime:xpcimports.obj
 0002:000043ac       ??_C@_0BL@IGOMLDCK@rl32eGetPCIInfo?5not?5found?6?$AA@ 100683ac     xpcruntime:xpcimports.obj
 0002:000043cc       ??_C@_0BG@NJPFKFDP@rl32eGetPCIInfoAtSlot?$AA@ 100683cc     xpcruntime:xpcimports.obj
 0002:000043e8       ??_C@_0CB@BBKIPMLA@rl32eGetPCIInfoAtSlot?5not?5found?6@ 100683e8     xpcruntime:xpcimports.obj
 0002:00004410       ??_C@_0BH@OKBOPNFG@xpceAssignPCIInterrupt?$AA@ 10068410     xpcruntime:xpcimports.obj
 0002:0000442c       ??_C@_0CC@CDNDNJBJ@xpceAssignPCIInterrupt?5not?5found@ 1006842c     xpcruntime:xpcimports.obj
 0002:00004454       ??_C@_0BD@PCKOKHO@xpceGetSignalValue?$AA@ 10068454     xpcruntime:xpcimports.obj
 0002:0000446c       ??_C@_0BO@GCBDJHMB@xpceGetSignalValue?5not?5found?6?$AA@ 1006846c     xpcruntime:xpcimports.obj
 0002:00004490       ??_C@_0BB@BJONJAGA@xpceSetParameter?$AA@ 10068490     xpcruntime:xpcimports.obj
 0002:000044a4       ??_C@_0BM@BJIKDLHA@xpceSetParameter?5not?5found?6?$AA@ 100684a4     xpcruntime:xpcimports.obj
 0002:000044c8       ??_C@_0BB@GNFDFMCM@xpceGetParameter?$AA@ 100684c8     xpcruntime:xpcimports.obj
 0002:000044dc       ??_C@_0BM@POHNKBC@xpceGetParameter?5not?5found?6?$AA@ 100684dc     xpcruntime:xpcimports.obj
 0002:00004500       ??_C@_0BB@CEIJLFCD@xpceGetParamDims?$AA@ 10068500     xpcruntime:xpcimports.obj
 0002:00004514       ??_C@_0BM@OABDBKAO@xpceGetParamDims?5not?5found?6?$AA@ 10068514     xpcruntime:xpcimports.obj
 0002:00004538       ??_C@_0L@OCBLLHBM@xpceGetTET?$AA@ 10068538     xpcruntime:xpcimports.obj
 0002:00004548       ??_C@_0BG@HNOFBOB@xpceGetTET?5not?5found?6?$AA@ 10068548     xpcruntime:xpcimports.obj
 0002:00004564       ??_C@_0P@OKGNGAGH@xpcIsModelInit?$AA@ 10068564     xpcruntime:xpcimports.obj
 0002:00004578       ??_C@_0BK@DHEMLBIM@xpcIsModelInit?5not?5found?6?$AA@ 10068578     xpcruntime:xpcimports.obj
 0002:00004598       ??_C@_0BH@KJJLCAOJ@xpcAllocPhysicalMemory?$AA@ 10068598     xpcruntime:xpcimports.obj
 0002:000045b4       ??_C@_0CC@MOJPNHKL@xpcAllocPhysicalMemory?5not?5found@ 100685b4     xpcruntime:xpcimports.obj
 0002:000045dc       ??_C@_0BG@CBNPGAEL@xpcFreePhysicalMemory?$AA@ 100685dc     xpcruntime:xpcimports.obj
 0002:000045f8       ??_C@_0CB@PKJEBPOG@xpcFreePhysicalMemory?5not?5found?6@ 100685f8     xpcruntime:xpcimports.obj
 0002:00004620       ??_C@_0BC@JGKNLICL@xpcGetElapsedTime?$AA@ 10068620     xpcruntime:xpcimports.obj
 0002:00004638       ??_C@_0BN@OEOAHCIO@xpcGetElapsedTime?5not?5found?6?$AA@ 10068638     xpcruntime:xpcimports.obj
 0002:0000465c       ??_C@_0M@ICBLMODA@xpcBusyWait?$AA@ 1006865c     xpcruntime:xpcimports.obj
 0002:0000466c       ??_C@_0BH@FBOPECBI@xpcBusyWait?5not?5found?6?$AA@ 1006866c     xpcruntime:xpcimports.obj
 0002:00004688       ??_C@_0N@LKKJEKKA@TBCreateSpin?$AA@ 10068688     xpcruntime:xpcimports.obj
 0002:00004698       ??_C@_0BI@FHKMLKOE@TBCreateSpin?5not?5found?6?$AA@ 10068698     xpcruntime:xpcimports.obj
 0002:000046b4       ??_C@_0N@HOAJHNBD@TBDeleteSpin?$AA@ 100686b4     xpcruntime:xpcimports.obj
 0002:000046c4       ??_C@_0BI@BKCPAAG@TBDeleteSpin?5not?5found?6?$AA@ 100686c4     xpcruntime:xpcimports.obj
 0002:000046e0       ??_C@_0P@DAHDDBJG@TBTakeSpinFast?$AA@ 100686e0     xpcruntime:xpcimports.obj
 0002:000046f4       ??_C@_0BK@NKAIBHGB@TBTakeSpinFast?5not?5found?6?$AA@ 100686f4     xpcruntime:xpcimports.obj
 0002:00004714       ??_C@_0P@FKNAAELA@TBGiveSpinFast?$AA@ 10068714     xpcruntime:xpcimports.obj
 0002:00004728       ??_C@_0BK@KGPJBJND@TBGiveSpinFast?5not?5found?6?$AA@ 10068728     xpcruntime:xpcimports.obj
 0002:00004748       ??_C@_0BE@IIGBFDHK@xpceCreateSemaphore?$AA@ 10068748     xpcruntime:xpcimports.obj
 0002:00004760       ??_C@_0BP@KFBAFFKJ@xpceCreateSemaphore?5not?5found?6?$AA@ 10068760     xpcruntime:xpcimports.obj
 0002:00004788       ??_C@_0BC@IFNIONKJ@xpceWaitSemaphore?$AA@ 10068788     xpcruntime:xpcimports.obj
 0002:000047a0       ??_C@_0BN@NMFAADIO@xpceWaitSemaphore?5not?5found?6?$AA@ 100687a0     xpcruntime:xpcimports.obj
 0002:000047c4       ??_C@_0BE@NNDIOBKE@xpceSignalSemaphore?$AA@ 100687c4     xpcruntime:xpcimports.obj
 0002:000047dc       ??_C@_0BP@LBANMHJP@xpceSignalSemaphore?5not?5found?6?$AA@ 100687dc     xpcruntime:xpcimports.obj
 0002:00004804       ??_C@_0BE@MEBEKOIM@xpceDeleteSemaphore?$AA@ 10068804     xpcruntime:xpcimports.obj
 0002:0000481c       ??_C@_0BP@OFNCKOJH@xpceDeleteSemaphore?5not?5found?6?$AA@ 1006881c     xpcruntime:xpcimports.obj
 0002:00004844       ??_C@_0BD@MFNDMBOF@FindUsbVideoDevice?$AA@ 10068844     xpcruntime:xpcimports.obj
 0002:0000485c       ??_C@_0BO@POKLDHMI@FindUsbVideoDevice?5not?5found?6?$AA@ 1006885c     xpcruntime:xpcimports.obj
 0002:00004880       ??_C@_0BA@PLPAPNAB@GetVideoConfigs?$AA@ 10068880     xpcruntime:xpcimports.obj
 0002:00004894       ??_C@_0BL@DALDHKHC@GetVideoConfigs?5not?5found?6?$AA@ 10068894     xpcruntime:xpcimports.obj
 0002:000048b4       ??_C@_0L@GBAEMHMH@StartVideo?$AA@ 100688b4     xpcruntime:xpcimports.obj
 0002:000048c4       ??_C@_0BG@HDCELEBP@StartVideo?5not?5found?6?$AA@ 100688c4     xpcruntime:xpcimports.obj
 0002:000048e0       ??_C@_0BA@FDNPOCLN@ReadFrameBuffer?$AA@ 100688e0     xpcruntime:xpcimports.obj
 0002:000048f4       ??_C@_0BL@JHGHPNBI@ReadFrameBuffer?5not?5found?6?$AA@ 100688f4     xpcruntime:xpcimports.obj
 0002:00004914       ??_C@_09FAHCLKAG@StopVideo?$AA@ 10068914     xpcruntime:xpcimports.obj
 0002:00004920       ??_C@_0BF@NKGKKADL@StopVideo?5not?5found?6?$AA@ 10068920     xpcruntime:xpcimports.obj
 0002:0000493c       ??_C@_0O@MCPKDLLL@ConvertUImage?$AA@ 1006893c     xpcruntime:xpcimports.obj
 0002:0000494c       ??_C@_0BJ@PHJKOAFL@ConvertUImage?5not?5found?6?$AA@ 1006894c     xpcruntime:xpcimports.obj
 0002:0000496c       ??_C@_0BD@NKCBPBJJ@CreateVideoDisplay?$AA@ 1006896c     xpcruntime:xpcimports.obj
 0002:00004984       ??_C@_0BO@HPPLLNFP@CreateVideoDisplay?5not?5found?6?$AA@ 10068984     xpcruntime:xpcimports.obj
 0002:000049a8       ??_C@_0BE@KJCKGPHA@DestroyVideoDisplay?$AA@ 100689a8     xpcruntime:xpcimports.obj
 0002:000049c0       ??_C@_0BP@FMGLJAIJ@DestroyVideoDisplay?5not?5found?6?$AA@ 100689c0     xpcruntime:xpcimports.obj
 0002:000049e8       ??_C@_0BC@HCMIMIDN@StartVideoDisplay?$AA@ 100689e8     xpcruntime:xpcimports.obj
 0002:00004a00       ??_C@_0BN@EFIEBGOO@StartVideoDisplay?5not?5found?6?$AA@ 10068a00     xpcruntime:xpcimports.obj
 0002:00004a24       ??_C@_0BB@JBBLMILG@StopVideoDisplay?$AA@ 10068a24     xpcruntime:xpcimports.obj
 0002:00004a38       ??_C@_0BM@DBJBPLEL@StopVideoDisplay?5not?5found?6?$AA@ 10068a38     xpcruntime:xpcimports.obj
 0002:00004a5c       ??_C@_0M@MFJEGMHC@StreamVideo?$AA@ 10068a5c     xpcruntime:xpcimports.obj
 0002:00004a6c       ??_C@_0BH@OINCDMLA@StreamVideo?5not?5found?6?$AA@ 10068a6c     xpcruntime:xpcimports.obj
 0002:00004a88       ??_C@_0N@IGGLCIGE@xpceaddEvent?$AA@ 10068a88     xpcruntime:xpcimports.obj
 0002:00004a98       ??_C@_0BI@NHJNFMKH@xpceaddEvent?5not?5found?6?$AA@ 10068a98     xpcruntime:xpcimports.obj
 0002:00004ab4       ??_C@_0BB@HDPOIJAB@xpceDAQPostEvent?$AA@ 10068ab4     xpcruntime:xpcimports.obj
 0002:00004ac8       ??_C@_0BM@IHANBKGN@xpceDAQPostEvent?5not?5found?6?$AA@ 10068ac8     xpcruntime:xpcimports.obj
 0002:00004aec       ??_C@_0BH@MBACMOD@xpceDAQUpdateTimeStamp?$AA@ 10068aec     xpcruntime:xpcimports.obj
 0002:00004b08       ??_C@_0CC@DAKBBINL@xpceDAQUpdateTimeStamp?5not?5found@ 10068b08     xpcruntime:xpcimports.obj
 0002:00004b30       ??_C@_0BN@HJOHIFOM@xpceGetIntTimerGranularityNS?$AA@ 10068b30     xpcruntime:xpcimports.obj
 0002:00004b54       ??_C@_0CI@OADDPMKB@xpceGetIntTimerGranularityNS?5not@ 10068b54     xpcruntime:xpcimports.obj
 0002:00004b84       ??_C@_0BG@CCHICKPN@slrteSetStepSizeDelta?$AA@ 10068b84     xpcruntime:xpcimports.obj
 0002:00004ba0       ??_C@_0CB@MKHINEIJ@slrteSetStepSizeDelta?5not?5found?6@ 10068ba0     xpcruntime:xpcimports.obj
 0002:00004bc8       ??_C@_0BI@CLNBLDKJ@slrteGetCurrentStepSize?$AA@ 10068bc8     xpcruntime:xpcimports.obj
 0002:00004be4       ??_C@_0CD@GIOJPGJA@slrteGetCurrentStepSize?5not?5foun@ 10068be4     xpcruntime:xpcimports.obj
 0002:00004c10       ??_C@_0BE@FCLCBOC@registerPTPTimeRead?$AA@ 10068c10     xpcruntime:xpcimports.obj
 0002:00004c28       ??_C@_0BP@LHPKAJIP@registerPTPTimeRead?5not?5found?6?$AA@ 10068c28     xpcruntime:xpcimports.obj
 0002:00004c50       ??_C@_0BG@KIGCDDJI@unRegisterPTPTimeRead?$AA@ 10068c50     xpcruntime:xpcimports.obj
 0002:00004c6c       ??_C@_0CB@MLFFBFCM@unRegisterPTPTimeRead?5not?5found?6@ 10068c6c     xpcruntime:xpcimports.obj
 0002:00004c94       ??_C@_0BB@IPMDDBHK@slTestInitialize?$AA@ 10068c94     xpcruntime:xpcimports.obj
 0002:00004ca8       ??_C@_0BM@LAJFCCJH@slTestInitialize?5not?5found?6?$AA@ 10068ca8     xpcruntime:xpcimports.obj
 0002:00004ccc       ??_C@_0BF@OOMPMEBC@slTestLogAssessments?$AA@ 10068ccc     xpcruntime:xpcimports.obj
 0002:00004ce8       ??_C@_0CA@FGJCEBAG@slTestLogAssessments?5not?5found?6?$AA@ 10068ce8     xpcruntime:xpcimports.obj
 0002:00004d10       ??_C@_0BB@HJHKONHO@slTestEvalOnFail?$AA@ 10068d10     xpcruntime:xpcimports.obj
 0002:00004d24       ??_C@_0BM@JIKCFFNJ@slTestEvalOnFail?5not?5found?6?$AA@ 10068d24     xpcruntime:xpcimports.obj
 0002:00004d48       ??_C@_0BA@LBHLABFP@slTestTerminate?$AA@ 10068d48     xpcruntime:xpcimports.obj
 0002:00004d5c       ??_C@_0BL@EMFGKAPA@slTestTerminate?5not?5found?6?$AA@ 10068d5c     xpcruntime:xpcimports.obj
 0002:00004d7c       ??_C@_0BE@JPNPBBEO@slTestRegAssessment?$AA@ 10068d7c     xpcruntime:xpcimports.obj
 0002:00004d94       ??_C@_0BP@FBDEJJJH@slTestRegAssessment?5not?5found?6?$AA@ 10068d94     xpcruntime:xpcimports.obj
 0002:00004dbc       ??_C@_0O@NCLGDNIB@slrteSetupMSI?$AA@ 10068dbc     xpcruntime:xpcimports.obj
 0002:00004dcc       ??_C@_0BJ@HEFMECLM@slrteSetupMSI?5not?5found?6?$AA@ 10068dcc     xpcruntime:xpcimports.obj
 0002:00004dec       ??_C@_0BH@BPOLALHD@slrtGetCRBScratchSpace?$AA@ 10068dec     xpcruntime:xpcimports.obj
 0002:00004e08       ??_C@_0CC@KCKAJKKJ@slrtGetCRBScratchSpace?5not?5found@ 10068e08     xpcruntime:xpcimports.obj
 0002:00004e30       ??_C@_0BC@MKFDAKOL@slrtGetSgCRBSpace?$AA@ 10068e30     xpcruntime:xpcimports.obj
 0002:00004e48       ??_C@_0BN@JDPHPLHL@slrtGetSgCRBSpace?5not?5found?6?$AA@ 10068e48     xpcruntime:xpcimports.obj
 0002:00004e6c       ??_C@_0P@EPAPKLIF@slrtfsOpenFile?$AA@ 10068e6c     xpcruntime:xpcimports.obj
 0002:00004e80       ??_C@_0BK@FIHCBOHG@slrtfsOpenFile?5not?5found?6?$AA@ 10068e80     xpcruntime:xpcimports.obj
 0002:00004ea0       ??_C@_0BA@LILAFDDL@slrtfsCloseFile?$AA@ 10068ea0     xpcruntime:xpcimports.obj
 0002:00004eb4       ??_C@_0BL@DEGHJFIB@slrtfsCloseFile?5not?5found?6?$AA@ 10068eb4     xpcruntime:xpcimports.obj
 0002:00004ed4       ??_C@_0BC@OKMJDIEH@slrtfsWriteToFile?$AA@ 10068ed4     xpcruntime:xpcimports.obj
 0002:00004eec       ??_C@_0BN@KCFLCLAH@slrtfsWriteToFile?5not?5found?6?$AA@ 10068eec     xpcruntime:xpcimports.obj
 0002:00004f10       ??_C@_0BK@GIPNFFFF@slrtfsGetFileErrorMessage?$AA@ 10068f10     xpcruntime:xpcimports.obj
 0002:00004f30       ??_C@_0CF@BCBLMKLE@slrtfsGetFileErrorMessage?5not?5fo@ 10068f30     xpcruntime:xpcimports.obj
 0002:00004f5c       ??_C@_0BD@ICBOKMK@slrtfsGetFileError?$AA@ 10068f5c     xpcruntime:xpcimports.obj
 0002:00004f74       ??_C@_0BO@FNBANAE@slrtfsGetFileError?5not?5found?6?$AA@ 10068f74     xpcruntime:xpcimports.obj
 0002:00004f98       ??_C@_0BE@PPAJMHJP@slrtfsOpenFileAsync?$AA@ 10068f98     xpcruntime:xpcimports.obj
 0002:00004fb0       ??_C@_0BP@HKBMMJOK@slrtfsOpenFileAsync?5not?5found?6?$AA@ 10068fb0     xpcruntime:xpcimports.obj
 0002:00004fd8       ??_C@_0BF@IGNDIBPF@slrtfsCloseFileAsync?$AA@ 10068fd8     xpcruntime:xpcimports.obj
 0002:00004ff4       ??_C@_0CA@GJPFDBKN@slrtfsCloseFileAsync?5not?5found?6?$AA@ 10068ff4     xpcruntime:xpcimports.obj
 0002:0000501c       ??_C@_0BE@IOLEBNB@slrtfsGetFileStatus?$AA@ 1006901c     xpcruntime:xpcimports.obj
 0002:00005034       ??_C@_0BP@PEFHDGHL@slrtfsGetFileStatus?5not?5found?6?$AA@ 10069034     xpcruntime:xpcimports.obj
 0002:0000505c       ??_C@_0M@HKIJIMG@slrtfsFread?$AA@ 1006905c     xpcruntime:xpcimports.obj
 0002:0000506c       ??_C@_0BH@OOKBGONO@slrtfsFread?5not?5found?6?$AA@ 1006906c     xpcruntime:xpcimports.obj
 0002:00005088       ??_C@_0BE@OGCMPLAP@slrtGetDefaultDrive?$AA@ 10069088     xpcruntime:xpcimports.obj
 0002:000050a0       ??_C@_0BP@HKFGLHOE@slrtGetDefaultDrive?5not?5found?6?$AA@ 100690a0     xpcruntime:xpcimports.obj
 0002:000050c8       ??_C@_0N@NAJIKFFI@slrtLogEvent?$AA@ 100690c8     xpcruntime:xpcimports.obj
 0002:000050d8       ??_C@_0BI@NKCEACND@slrtLogEvent?5not?5found?6?$AA@ 100690d8     xpcruntime:xpcimports.obj
 0002:000050f4       ??_C@_0N@IDKFJOHI@getlasterror?$AA@ 100690f4     xpcruntime:xpcimports.obj
 0002:00005104       ??_C@_0BI@MIHMCHGL@getlasterror?5not?5found?6?$AA@ 10069104     xpcruntime:xpcimports.obj
 0002:00005120       ??_C@_0P@OKHGKJKN@geterrorstring?$AA@ 10069120     xpcruntime:xpcimports.obj
 0002:00005134       ??_C@_0BK@NOHFDMLP@geterrorstring?5not?5found?6?$AA@ 10069134     xpcruntime:xpcimports.obj
 0002:00005154       ??_C@_0BD@HNFFKMGJ@slrtGetCPUTCelsius?$AA@ 10069154     xpcruntime:xpcimports.obj
 0002:0000516c       ??_C@_0BO@LHBFKLIH@slrtGetCPUTCelsius?5not?5found?6?$AA@ 1006916c     xpcruntime:xpcimports.obj
 0002:00005190       ??_C@_0M@OONCNCLM@slrtWarning?$AA@ 10069190     xpcruntime:xpcimports.obj
 0002:000051a0       ??_C@_0BH@ICKGIEMB@slrtWarning?5not?5found?6?$AA@ 100691a0     xpcruntime:xpcimports.obj
 0002:000051bc       ??_C@_0N@EAAOMIIE@isUsedByRTIP?$AA@ 100691bc     xpcruntime:xpcimports.obj
 0002:000051cc       ??_C@_0BI@GNHHHICK@isUsedByRTIP?5not?5found?6?$AA@ 100691cc     xpcruntime:xpcimports.obj
 0002:000051e8       ??_C@_0BC@HLDKJAG@SetIPTASKPriority?$AA@ 100691e8     xpcruntime:xpcimports.obj
 0002:00005200       ??_C@_0BN@OGKMHHAE@SetIPTASKPriority?5not?5found?6?$AA@ 10069200     xpcruntime:xpcimports.obj
 0002:00005224       ??_C@_0O@LHENMBDD@OpenInterface?$AA@ 10069224     xpcruntime:xpcimports.obj
 0002:00005234       ??_C@_0BJ@PFGDBKHB@OpenInterface?5not?5found?6?$AA@ 10069234     xpcruntime:xpcimports.obj
 0002:00005254       ??_C@_0P@IINFELKD@CloseInterface?$AA@ 10069254     xpcruntime:xpcimports.obj
 0002:00005268       ??_C@_0BK@PAPDNDBK@CloseInterface?5not?5found?6?$AA@ 10069268     xpcruntime:xpcimports.obj
 0002:00005288       ??_C@_05LEFIAAOI@SetIP?$AA@ 10069288     xpcruntime:xpcimports.obj
 0002:00005290       ??_C@_0BB@CGLIBAMM@SetIP?5not?5found?6?$AA@ 10069290     xpcruntime:xpcimports.obj
 0002:000052a4       ??_C@_0BA@HIJJHHMD@AddGatewayRoute?$AA@ 100692a4     xpcruntime:xpcimports.obj
 0002:000052b8       ??_C@_0BL@BFCFMDMN@AddGatewayRoute?5not?5found?6?$AA@ 100692b8     xpcruntime:xpcimports.obj
 0002:000052d8       ??_C@_0M@PHMABFPI@DeleteRoute?$AA@ 100692d8     xpcruntime:xpcimports.obj
 0002:000052e8       ??_C@_0BH@JPJGLLID@DeleteRoute?5not?5found?6?$AA@ 100692e8     xpcruntime:xpcimports.obj
 0002:00005304       ??_C@_0BA@FCDIMKIJ@GetHostTarIPAdd?$AA@ 10069304     xpcruntime:xpcimports.obj
 0002:00005318       ??_C@_0BL@MBKDGKBO@GetHostTarIPAdd?5not?5found?6?$AA@ 10069318     xpcruntime:xpcimports.obj
 0002:00005338       ??_C@_0M@HPMIPIBI@GetDCUUsage?$AA@ 10069338     xpcruntime:xpcimports.obj
 0002:00005348       ??_C@_0BH@EBLJKCJC@GetDCUUsage?5not?5found?6?$AA@ 10069348     xpcruntime:xpcimports.obj
 0002:00005364       ??_C@_06MPKMECK@accept?$AA@ 10069364     xpcruntime:xpcimports.obj
 0002:0000536c       ??_C@_0BC@GBGIEMNO@accept?5not?5found?6?$AA@ 1006936c     xpcruntime:xpcimports.obj
 0002:00005384       ??_C@_04NPNJNMMP@bind?$AA@ 10069384     xpcruntime:xpcimports.obj
 0002:0000538c       ??_C@_0BA@DAJNENLO@bind?5not?5found?6?$AA@ 1006938c     xpcruntime:xpcimports.obj
 0002:000053a0       ??_C@_0L@CKHNIFCM@setsockopt?$AA@ 100693a0     xpcruntime:xpcimports.obj
 0002:000053b0       ??_C@_0BG@MFIIOMFE@setsockopt?5not?5found?6?$AA@ 100693b0     xpcruntime:xpcimports.obj
 0002:000053cc       ??_C@_0M@ODDJDCDK@closesocket?$AA@ 100693cc     xpcruntime:xpcimports.obj
 0002:000053dc       ??_C@_0BH@JHGHMIL@closesocket?5not?5found?6?$AA@ 100693dc     xpcruntime:xpcimports.obj
 0002:000053f8       ??_C@_07KAIBNCHO@connect?$AA@ 100693f8     xpcruntime:xpcimports.obj
 0002:00005404       ??_C@_0BD@MKLLMBM@connect?5not?5found?6?$AA@ 10069404     xpcruntime:xpcimports.obj
 0002:0000541c       ??_C@_0M@PBPOCKDG@ioctlsocket?$AA@ 1006941c     xpcruntime:xpcimports.obj
 0002:0000542c       ??_C@_0BH@NFCNHHIH@ioctlsocket?5not?5found?6?$AA@ 1006942c     xpcruntime:xpcimports.obj
 0002:00005448       ??_C@_06OODDLKLE@listen?$AA@ 10069448     xpcruntime:xpcimports.obj
 0002:00005450       ??_C@_0BC@NHBILEKI@listen?5not?5found?6?$AA@ 10069450     xpcruntime:xpcimports.obj
 0002:00005468       ??_C@_08HMBBGFHE@recvfrom?$AA@ 10069468     xpcruntime:xpcimports.obj
 0002:00005474       ??_C@_0BE@BJAJFFLF@recvfrom?5not?5found?6?$AA@ 10069474     xpcruntime:xpcimports.obj
 0002:0000548c       ??_C@_06MEPBGKEC@sendto?$AA@ 1006948c     xpcruntime:xpcimports.obj
 0002:00005494       ??_C@_0BC@BHPIMDJO@sendto?5not?5found?6?$AA@ 10069494     xpcruntime:xpcimports.obj
 0002:000054ac       ??_C@_09JKBDEEOB@inet_addr?$AA@ 100694ac     xpcruntime:xpcimports.obj
 0002:000054b8       ??_C@_0BF@HKJPGECN@inet_addr?5not?5found?6?$AA@ 100694b8     xpcruntime:xpcimports.obj
 0002:000054d4       ??_C@_06HBELJPBO@socket?$AA@ 100694d4     xpcruntime:xpcimports.obj
 0002:000054dc       ??_C@_0BC@NAGFFJGA@socket?5not?5found?6?$AA@ 100694dc     xpcruntime:xpcimports.obj
 0002:000054f4       ??_C@_09ICJIFGNC@GetSocket?$AA@ 100694f4     xpcruntime:xpcimports.obj
 0002:00005500       ??_C@_0BF@KDBCKMOJ@GetSocket?5not?5found?6?$AA@ 10069500     xpcruntime:xpcimports.obj
 0002:0000551c       ??_C@_0P@KJEGJMJI@GetSocketState?$AA@ 1006951c     xpcruntime:xpcimports.obj
 0002:00005530       ??_C@_0BK@IALBJHEB@GetSocketState?5not?5found?6?$AA@ 10069530     xpcruntime:xpcimports.obj
 0002:00005550       ??_C@_0L@MEAJHNHB@SocketSend?$AA@ 10069550     xpcruntime:xpcimports.obj
 0002:00005560       ??_C@_0BG@EOCMBFJA@SocketSend?5not?5found?6?$AA@ 10069560     xpcruntime:xpcimports.obj
 0002:0000557c       ??_C@_0O@PFPCLEMF@SocketReceive?$AA@ 1006957c     xpcruntime:xpcimports.obj
 0002:0000558c       ??_C@_0BJ@HIBADDFO@SocketReceive?5not?5found?6?$AA@ 1006958c     xpcruntime:xpcimports.obj
 0002:000055ac       ??_C@_0BD@OOGFNAIK@CreateServerSocket?$AA@ 100695ac     xpcruntime:xpcimports.obj
 0002:000055c4       ??_C@_0BO@GKIJHIPH@CreateServerSocket?5not?5found?6?$AA@ 100695c4     xpcruntime:xpcimports.obj
 0002:000055e8       ??_C@_0BB@KGHJGFFO@OpenServerListen?$AA@ 100695e8     xpcruntime:xpcimports.obj
 0002:000055fc       ??_C@_0BM@NFMMLIO@OpenServerListen?5not?5found?6?$AA@ 100695fc     xpcruntime:xpcimports.obj
 0002:00005620       ??_C@_0BE@BAJLDJAH@ConnectServerSocket?$AA@ 10069620     xpcruntime:xpcimports.obj
 0002:00005638       ??_C@_0BP@KJNODIKE@ConnectServerSocket?5not?5found?6?$AA@ 10069638     xpcruntime:xpcimports.obj
 0002:00005660       ??_C@_0BC@PLKKJDIM@CloseServerSocket?$AA@ 10069660     xpcruntime:xpcimports.obj
 0002:00005678       ??_C@_0BN@KEJEPNMB@CloseServerSocket?5not?5found?6?$AA@ 10069678     xpcruntime:xpcimports.obj
 0002:0000569c       ??_C@_0BD@MCLPKCPP@CreateClientSocket?$AA@ 1006969c     xpcruntime:xpcimports.obj
 0002:000056b4       ??_C@_0BO@DILAGPFN@CreateClientSocket?5not?5found?6?$AA@ 100696b4     xpcruntime:xpcimports.obj
 0002:000056d8       ??_C@_0BB@DAPKNNLG@BindClientSocket?$AA@ 100696d8     xpcruntime:xpcimports.obj
 0002:000056ec       ??_C@_0BM@LLLMMDFN@BindClientSocket?5not?5found?6?$AA@ 100696ec     xpcruntime:xpcimports.obj
 0002:00005710       ??_C@_0BE@DMEBELHC@ConnectClientSocket?$AA@ 10069710     xpcruntime:xpcimports.obj
 0002:00005728       ??_C@_0BP@PLOHCPAO@ConnectClientSocket?5not?5found?6?$AA@ 10069728     xpcruntime:xpcimports.obj
 0002:00005750       ??_C@_0BC@NHHAOBPJ@CloseClientSocket?$AA@ 10069750     xpcruntime:xpcimports.obj
 0002:00005768       ??_C@_0BN@PGKNOKGL@CloseClientSocket?5not?5found?6?$AA@ 10069768     xpcruntime:xpcimports.obj
 0002:00005838       __pRawDllMain              10069838     LIBCMT:dll_dllmain.obj
 0002:00005838       __pDefaultRawDllMain       10069838     LIBCMT:dll_dllmain.obj
 0002:00005850       ??_C@_1BC@DNHGCMLG@?$AAa?$AAd?$AAv?$AAa?$AAp?$AAi?$AA3?$AA2?$AA?$AA@ 10069850     libvcruntime:winapi_downlevel.obj
 0002:00005868       ??_C@_1DM@KHCHBNEB@?$AAa?$AAp?$AAi?$AA?9?$AAm?$AAs?$AA?9?$AAw?$AAi?$AAn?$AA?9?$AAc?$AAo?$AAr?$AAe?$AA?9?$AAf?$AAi?$AAb?$AAe?$AAr?$AAs?$AA?9?$AAl?$AA1?$AA?9?$AA1?$AA?9?$AA1?$AA?$AA@ 10069868     libvcruntime:winapi_downlevel.obj
 0002:000058b0       ??_C@_1DK@LPPGFMPP@?$AAa?$AAp?$AAi?$AA?9?$AAm?$AAs?$AA?9?$AAw?$AAi?$AAn?$AA?9?$AAc?$AAo?$AAr?$AAe?$AA?9?$AAs?$AAy?$AAn?$AAc?$AAh?$AA?9?$AAl?$AA1?$AA?9?$AA2?$AA?9?$AA0?$AA?$AA@ 100698b0     libvcruntime:winapi_downlevel.obj
 0002:000058f8       ??_C@_1BC@GDMECMAK@?$AAk?$AAe?$AAr?$AAn?$AAe?$AAl?$AA3?$AA2?$AA?$AA@ 100698f8     libvcruntime:winapi_downlevel.obj
 0002:00005914       ??_C@_0O@BAMBGLIE@EventRegister?$AA@ 10069914     libvcruntime:winapi_downlevel.obj
 0002:00005928       ??_C@_0BE@BJEEGHGK@EventSetInformation?$AA@ 10069928     libvcruntime:winapi_downlevel.obj
 0002:00005944       ??_C@_0BA@FAKLIPIC@EventUnregister?$AA@ 10069944     libvcruntime:winapi_downlevel.obj
 0002:0000595c       ??_C@_0BD@PKLHJPHD@EventWriteTransfer?$AA@ 1006995c     libvcruntime:winapi_downlevel.obj
 0002:00005980       ??_C@_08KNHFBNJ@FlsAlloc?$AA@ 10069980     libvcruntime:winapi_downlevel.obj
 0002:00005998       ??_C@_07PEJMOBNF@FlsFree?$AA@ 10069998     libvcruntime:winapi_downlevel.obj
 0002:000059b0       ??_C@_0M@GDNOONDI@FlsGetValue?$AA@ 100699b0     libvcruntime:winapi_downlevel.obj
 0002:000059cc       ??_C@_0M@JCPCPOEF@FlsSetValue?$AA@ 100699cc     libvcruntime:winapi_downlevel.obj
 0002:000059e8       ??_C@_0BM@HCFOFFN@InitializeCriticalSectionEx?$AA@ 100699e8     libvcruntime:winapi_downlevel.obj
 0002:00005bf0       ??_C@_08EHJDFFNH@__based?$CI?$AA@ 10069bf0     libvcruntime:undname.obj
 0002:00005bfc       ??_C@_07KOLFKCDI@__cdecl?$AA@ 10069bfc     libvcruntime:undname.obj
 0002:00005c08       ??_C@_08GHMPAG@__pascal?$AA@ 10069c08     libvcruntime:undname.obj
 0002:00005c14       ??_C@_09IFJBGAPI@__stdcall?$AA@ 10069c14     libvcruntime:undname.obj
 0002:00005c20       ??_C@_0L@NPHFGOKO@__thiscall?$AA@ 10069c20     libvcruntime:undname.obj
 0002:00005c30       ??_C@_0L@JMKHOMEK@__fastcall?$AA@ 10069c30     libvcruntime:undname.obj
 0002:00005c40       ??_C@_0N@BCKKPABJ@__vectorcall?$AA@ 10069c40     libvcruntime:undname.obj
 0002:00005c50       ??_C@_09HIJEGCPM@__clrcall?$AA@ 10069c50     libvcruntime:undname.obj
 0002:00005c5c       ??_C@_06GHPCKEAG@__eabi?$AA@ 10069c5c     libvcruntime:undname.obj
 0002:00005c64       ??_C@_07JOMMBBKO@__ptr64?$AA@ 10069c64     libvcruntime:undname.obj
 0002:00005c70       ??_C@_0L@PILCLIHE@__restrict?$AA@ 10069c70     libvcruntime:undname.obj
 0002:00005c80       ??_C@_0M@GFIIJFMG@__unaligned?$AA@ 10069c80     libvcruntime:undname.obj
 0002:00005c90       ??_C@_09DHDLOLLB@restrict?$CI?$AA@ 10069c90     libvcruntime:undname.obj
 0002:00005c9c       ??_C@_04NIHEBCM@?5new?$AA@ 10069c9c     libvcruntime:undname.obj
 0002:00005ca4       ??_C@_07FPCDHGMM@?5delete?$AA@ 10069ca4     libvcruntime:undname.obj
 0002:00005cb0       ??_C@_01NEMOKFLO@?$DN?$AA@ 10069cb0     libvcruntime:undname.obj
 0002:00005cb4       ??_C@_02GPIOPFAK@?$DO?$DO?$AA@ 10069cb4     libvcruntime:undname.obj
 0002:00005cb8       ??_C@_02FODMEDOG@?$DM?$DM?$AA@ 10069cb8     libvcruntime:undname.obj
 0002:00005cbc       ??_C@_01DCLJPIOD@?$CB?$AA@ 10069cbc     libvcruntime:undname.obj
 0002:00005cc0       ??_C@_02EGOFBIJA@?$DN?$DN?$AA@ 10069cc0     libvcruntime:undname.obj
 0002:00005cc4       ??_C@_02FDNJECIE@?$CB?$DN?$AA@ 10069cc4     libvcruntime:undname.obj
 0002:00005cc8       ??_C@_02GPECMEKF@?$FL?$FN?$AA@ 10069cc8     libvcruntime:undname.obj
 0002:00005ccc       ??_C@_08LHJFAFGD@operator?$AA@ 10069ccc     libvcruntime:undname.obj
 0002:00005cd8       ??_C@_02HBOOOICD@?9?$DO?$AA@ 10069cd8     libvcruntime:undname.obj
 0002:00005cdc       ??_C@_01NBENCBCI@?$CK?$AA@ 10069cdc     libvcruntime:undname.obj
 0002:00005ce0       ??_C@_02ECNGHCIF@?$CL?$CL?$AA@ 10069ce0     libvcruntime:undname.obj
 0002:00005ce4       ??_C@_02BAABKJLB@?9?9?$AA@ 10069ce4     libvcruntime:undname.obj
 0002:00005ce8       ??_C@_01JOAMLHOP@?9?$AA@   10069ce8     libvcruntime:undname.obj
 0002:00005cec       ??_C@_01MIFGBAGJ@?$CL?$AA@ 10069cec     libvcruntime:undname.obj
 0002:00005cf0       ??_C@_01HNPIGOCE@?$CG?$AA@ 10069cf0     libvcruntime:undname.obj
 0002:00005cf4       ??_C@_03MNHNFDLC@?9?$DO?$CK?$AA@ 10069cf4     libvcruntime:undname.obj
 0002:00005cf8       ??_C@_01KMDKNFGN@?1?$AA@   10069cf8     libvcruntime:undname.obj
 0002:00005cfc       ??_C@_01FGNFDNOH@?$CF?$AA@ 10069cfc     libvcruntime:undname.obj
 0002:00005d00       ??_C@_01MNNFJEPP@?$DM?$AA@ 10069d00     libvcruntime:undname.obj
 0002:00005d04       ??_C@_02EHCHHCKH@?$DM?$DN?$AA@ 10069d04     libvcruntime:undname.obj
 0002:00005d08       ??_C@_01PPODPGHN@?$DO?$AA@ 10069d08     libvcruntime:undname.obj
 0002:00005d0c       ??_C@_02EEKDKGMJ@?$DO?$DN?$AA@ 10069d0c     libvcruntime:undname.obj
 0002:00005d10       ??_C@_01IHBHIGKO@?0?$AA@   10069d10     libvcruntime:undname.obj
 0002:00005d14       ??_C@_02HCKGKOFO@?$CI?$CJ?$AA@ 10069d14     libvcruntime:undname.obj
 0002:00005d18       ??_C@_01PJKLJHI@?$HO?$AA@  10069d18     libvcruntime:undname.obj
 0002:00005d1c       ??_C@_01JKBOJNNK@?$FO?$AA@ 10069d1c     libvcruntime:undname.obj
 0002:00005d20       ??_C@_01DNKMNLPK@?$HM?$AA@ 10069d20     libvcruntime:undname.obj
 0002:00005d24       ??_C@_02PPKAJPJL@?$CG?$CG?$AA@ 10069d24     libvcruntime:undname.obj
 0002:00005d28       ??_C@_02NONPIBCD@?$HM?$HM?$AA@ 10069d28     libvcruntime:undname.obj
 0002:00005d2c       ??_C@_02FPIMKNGF@?$CK?$DN?$AA@ 10069d2c     libvcruntime:undname.obj
 0002:00005d30       ??_C@_02FOEOMHFC@?$CL?$DN?$AA@ 10069d30     libvcruntime:undname.obj
 0002:00005d34       ??_C@_02FKMDLLOA@?9?$DN?$AA@ 10069d34     libvcruntime:undname.obj
 0002:00005d38       ??_C@_02FJEHGPIO@?1?$DN?$AA@ 10069d38     libvcruntime:undname.obj
 0002:00005d3c       ??_C@_02FENAOKFI@?$CF?$DN?$AA@ 10069d3c     libvcruntime:undname.obj
 0002:00005d40       ??_C@_03IKFCCPFF@?$DO?$DO?$DN?$AA@ 10069d40     libvcruntime:undname.obj
 0002:00005d44       ??_C@_03CDNPDDLA@?$DM?$DM?$DN?$AA@ 10069d44     libvcruntime:undname.obj
 0002:00005d48       ??_C@_02FGJGFEAB@?$CG?$DN?$AA@ 10069d48     libvcruntime:undname.obj
 0002:00005d4c       ??_C@_02DHLNPPGH@?$HM?$DN?$AA@ 10069d4c     libvcruntime:undname.obj
 0002:00005d50       ??_C@_02MHEGNOJ@?$FO?$DN?$AA@ 10069d50     libvcruntime:undname.obj
 0002:00005d54       ??_C@_09IFPLHPGF@?$GAvftable?8?$AA@ 10069d54     libvcruntime:undname.obj
 0002:00005d60       ??_C@_09BLBHBJP@?$GAvbtable?8?$AA@ 10069d60     libvcruntime:undname.obj
 0002:00005d6c       ??_C@_07FEEIOKP@?$GAvcall?8?$AA@ 10069d6c     libvcruntime:undname.obj
 0002:00005d78       ??_C@_08LLFFHHDJ@?$GAtypeof?8?$AA@ 10069d78     libvcruntime:undname.obj
 0002:00005d84       ??_C@_0BF@KDPPACIK@?$GAlocal?5static?5guard?8?$AA@ 10069d84     libvcruntime:undname.obj
 0002:00005da0       ??_C@_08OBABFOLI@?$GAstring?8?$AA@ 10069da0     libvcruntime:undname.obj
 0002:00005dac       ??_C@_0BD@JDLKDPAB@?$GAvbase?5destructor?8?$AA@ 10069dac     libvcruntime:undname.obj
 0002:00005dc4       ??_C@_0BN@DEGPLNFK@?$GAvector?5deleting?5destructor?8?$AA@ 10069dc4     libvcruntime:undname.obj
 0002:00005de8       ??_C@_0BO@OBMKPJIG@?$GAdefault?5constructor?5closure?8?$AA@ 10069de8     libvcruntime:undname.obj
 0002:00005e0c       ??_C@_0BN@IMDCHIKM@?$GAscalar?5deleting?5destructor?8?$AA@ 10069e0c     libvcruntime:undname.obj
 0002:00005e30       ??_C@_0BO@PFGOCPJJ@?$GAvector?5constructor?5iterator?8?$AA@ 10069e30     libvcruntime:undname.obj
 0002:00005e54       ??_C@_0BN@LFPFMEDL@?$GAvector?5destructor?5iterator?8?$AA@ 10069e54     libvcruntime:undname.obj
 0002:00005e78       ??_C@_0CE@IKBNEHA@?$GAvector?5vbase?5constructor?5iterat@ 10069e78     libvcruntime:undname.obj
 0002:00005ea4       ??_C@_0BL@NILFHHPC@?$GAvirtual?5displacement?5map?8?$AA@ 10069ea4     libvcruntime:undname.obj
 0002:00005ec4       ??_C@_0CB@JONCMFFK@?$GAeh?5vector?5constructor?5iterator?8@ 10069ec4     libvcruntime:undname.obj
 0002:00005eec       ??_C@_0CA@GCEOPDGL@?$GAeh?5vector?5destructor?5iterator?8?$AA@ 10069eec     libvcruntime:undname.obj
 0002:00005f14       ??_C@_0CH@OOJPLCPH@?$GAeh?5vector?5vbase?5constructor?5ite@ 10069f14     libvcruntime:undname.obj
 0002:00005f44       ??_C@_0BL@LLKPOHJI@?$GAcopy?5constructor?5closure?8?$AA@ 10069f44     libvcruntime:undname.obj
 0002:00005f64       ??_C@_0BA@KBCDOMBN@?$GAudt?5returning?8?$AA@ 10069f64     libvcruntime:undname.obj
 0002:00005f78       ??_C@_03KLGMFNMG@?$GAEH?$AA@ 10069f78     libvcruntime:undname.obj
 0002:00005f7c       ??_C@_05KHLCHHI@?$GARTTI?$AA@ 10069f7c     libvcruntime:undname.obj
 0002:00005f84       ??_C@_0BA@KKLDJDLB@?$GAlocal?5vftable?8?$AA@ 10069f84     libvcruntime:undname.obj
 0002:00005f98       ??_C@_0CE@IIHCMGGL@?$GAlocal?5vftable?5constructor?5closu@ 10069f98     libvcruntime:undname.obj
 0002:00005fc4       ??_C@_06FHBGPFGH@?5new?$FL?$FN?$AA@ 10069fc4     libvcruntime:undname.obj
 0002:00005fcc       ??_C@_09LBNFPBCA@?5delete?$FL?$FN?$AA@ 10069fcc     libvcruntime:undname.obj
 0002:00005fd8       ??_C@_0P@HJKNJFNN@?$GAomni?5callsig?8?$AA@ 10069fd8     libvcruntime:undname.obj
 0002:00005fec       ??_C@_0BL@CNOONJFP@?$GAplacement?5delete?5closure?8?$AA@ 10069fec     libvcruntime:undname.obj
 0002:0000600c       ??_C@_0BN@CKNJLHMB@?$GAplacement?5delete?$FL?$FN?5closure?8?$AA@ 1006a00c     libvcruntime:undname.obj
 0002:00006030       ??_C@_0CG@CFDHKGGD@?$GAmanaged?5vector?5constructor?5iter@ 1006a030     libvcruntime:undname.obj
 0002:00006060       ??_C@_0CF@IMGKMJNO@?$GAmanaged?5vector?5destructor?5itera@ 1006a060     libvcruntime:undname.obj
 0002:0000608c       ??_C@_0CG@HLDDJMAG@?$GAeh?5vector?5copy?5constructor?5iter@ 1006a08c     libvcruntime:undname.obj
 0002:000060bc       ??_C@_0CM@FCBBDIGB@?$GAeh?5vector?5vbase?5copy?5constructo@ 1006a0bc     libvcruntime:undname.obj
 0002:000060f0       ??_C@_0BL@CLIPGLGB@?$GAdynamic?5initializer?5for?5?8?$AA@ 1006a0f0     libvcruntime:undname.obj
 0002:00006110       ??_C@_0CB@PDBIFEP@?$GAdynamic?5atexit?5destructor?5for?5?8@ 1006a110     libvcruntime:undname.obj
 0002:00006138       ??_C@_0CD@CGAJBKEJ@?$GAvector?5copy?5constructor?5iterato@ 1006a138     libvcruntime:undname.obj
 0002:00006164       ??_C@_0CJ@GJELGAMM@?$GAvector?5vbase?5copy?5constructor?5i@ 1006a164     libvcruntime:undname.obj
 0002:00006198       ??_C@_0CL@FGIJHLCE@?$GAmanaged?5vector?5copy?5constructor@ 1006a198     libvcruntime:undname.obj
 0002:000061cc       ??_C@_0BM@PMGGMLDN@?$GAlocal?5static?5thread?5guard?8?$AA@ 1006a1cc     libvcruntime:undname.obj
 0002:000061f0       ??_C@_0N@BDNMDMOL@operator?5?$CC?$CC?5?$AA@ 1006a1f0     libvcruntime:undname.obj
 0002:00006200       ??_C@_0BC@DAFEJGAK@?5Type?5Descriptor?8?$AA@ 1006a200     libvcruntime:undname.obj
 0002:00006218       ??_C@_0BM@LDKODKLH@?5Base?5Class?5Descriptor?5at?5?$CI?$AA@ 1006a218     libvcruntime:undname.obj
 0002:0000623c       ??_C@_0BD@LGICGFMM@?5Base?5Class?5Array?8?$AA@ 1006a23c     libvcruntime:undname.obj
 0002:00006254       ??_C@_0BN@MECKDCOJ@?5Class?5Hierarchy?5Descriptor?8?$AA@ 1006a254     libvcruntime:undname.obj
 0002:00006278       ??_C@_0BK@CFCOFLF@?5Complete?5Object?5Locator?8?$AA@ 1006a278     libvcruntime:undname.obj
 0002:00006298       ??_C@_04HEJADOOB@CV?3?5?$AA@ 1006a298     libvcruntime:undname.obj
 0002:000062a0       ??_C@_02MOLJINC@?3?3?$AA@  1006a2a0     libvcruntime:undname.obj
 0002:000062a4       ??_C@_0BE@JAEOCHPE@template?9parameter?9?$AA@ 1006a2a4     libvcruntime:undname.obj
 0002:000062bc       ??_C@_0O@KHGCOMHP@generic?9type?9?$AA@ 1006a2bc     libvcruntime:undname.obj
 0002:000062cc       ??_C@_01NLNLIGKH@?$GA?$AA@ 1006a2cc     libvcruntime:undname.obj
 0002:000062d0       ??_C@_01GEODFPGF@?8?$AA@   1006a2d0     libvcruntime:undname.obj
 0002:000062d4       ??_C@_0BG@JNJLAMPM@?$GAanonymous?5namespace?8?$AA@ 1006a2d4     libvcruntime:undname.obj
 0002:000062f0       ??_C@_02OHHJMEON@?8?8?$AA@ 1006a2f0     libvcruntime:undname.obj
 0002:000062f4       ??_C@_0BN@IBLMMFAP@?$GAnon?9type?9template?9parameter?$AA@ 1006a2f4     libvcruntime:undname.obj
 0002:00006318       ??_C@_04GKJNKENE@void?$AA@ 1006a318     libvcruntime:undname.obj
 0002:00006320       ??_C@_0BE@EODMJLIF@?$GAtemplate?9parameter?$AA@ 1006a320     libvcruntime:undname.obj
 0002:00006338       ??_C@_03KHICJKCI@?4?4?4?$AA@ 1006a338     libvcruntime:undname.obj
 0002:0000633c       ??_C@_04HIBGFPH@NULL?$AA@  1006a33c     libvcruntime:undname.obj
 0002:00006344       ??_C@_02DPKJAMEF@?$CFd?$AA@ 1006a344     libvcruntime:undname.obj
 0002:00006348       ??_C@_0BK@IHCCFNEL@?$GAtemplate?9type?9parameter?9?$AA@ 1006a348     libvcruntime:undname.obj
 0002:00006368       ??_C@_0BK@OFCNNNKO@?$GAgeneric?9class?9parameter?9?$AA@ 1006a368     libvcruntime:undname.obj
 0002:00006388       ??_C@_0BL@NGJBLFIL@?$GAgeneric?9method?9parameter?9?$AA@ 1006a388     libvcruntime:undname.obj
 0002:000063a8       ??_C@_03OPGICMGF@?$HN?8?5?$AA@ 1006a3a8     libvcruntime:undname.obj
 0002:000063ac       ??_C@_02IGFCGPIL@?$HN?8?$AA@ 1006a3ac     libvcruntime:undname.obj
 0002:000063b0       ??_C@_01CLKCMJKC@?5?$AA@   1006a3b0     libvcruntime:undname.obj
 0002:000063b4       ??_C@_0N@CBHHHENL@?$GAvtordispex?$HL?$AA@ 1006a3b4     libvcruntime:undname.obj
 0002:000063c4       ??_C@_0L@GHPFDFH@?$GAvtordisp?$HL?$AA@ 1006a3c4     libvcruntime:undname.obj
 0002:000063d4       ??_C@_0L@HNGCOGAE@?$GAadjustor?$HL?$AA@ 1006a3d4     libvcruntime:undname.obj
 0002:000063e4       ??_C@_0CB@KJDOOODE@?$GAlocal?5static?5destructor?5helper?8@ 1006a3e4     libvcruntime:undname.obj
 0002:0000640c       ??_C@_0DB@ILEFOCIJ@?$GAtemplate?5static?5data?5member?5con@ 1006a40c     libvcruntime:undname.obj
 0002:00006448       ??_C@_0DA@HGFJFBBE@?$GAtemplate?5static?5data?5member?5des@ 1006a448     libvcruntime:undname.obj
 0002:00006484       ??_C@_07PGOEDBHP@static?5?$AA@ 1006a484     libvcruntime:undname.obj
 0002:00006490       ??_C@_08NIEOINHE@virtual?5?$AA@ 1006a490     libvcruntime:undname.obj
 0002:0000649c       ??_C@_09LAPHOOG@private?3?5?$AA@ 1006a49c     libvcruntime:undname.obj
 0002:000064a8       ??_C@_0M@GAIFPFIP@protected?3?5?$AA@ 1006a4a8     libvcruntime:undname.obj
 0002:000064b8       ??_C@_08GPDDCMKI@public?3?5?$AA@ 1006a4b8     libvcruntime:undname.obj
 0002:000064c4       ??_C@_08KJLFOPNE@?$FLthunk?$FN?3?$AA@ 1006a4c4     libvcruntime:undname.obj
 0002:000064d0       ??_C@_0M@DHNBOJMP@extern?5?$CCC?$CC?5?$AA@ 1006a4d0     libvcruntime:undname.obj
 0002:000064e0       ??_C@_02KCKGHPCA@?$CJ?5?$AA@ 1006a4e0     libvcruntime:undname.obj
 0002:000064e4       ??_C@_05CIHEBHNO@char?5?$AA@ 1006a4e4     libvcruntime:undname.obj
 0002:000064ec       ??_C@_06EHJMALKF@short?5?$AA@ 1006a4ec     libvcruntime:undname.obj
 0002:000064f4       ??_C@_04LAHKHJMA@int?5?$AA@ 1006a4f4     libvcruntime:undname.obj
 0002:000064fc       ??_C@_05CJIMAING@long?5?$AA@ 1006a4fc     libvcruntime:undname.obj
 0002:00006504       ??_C@_09EBBEKKIH@unsigned?5?$AA@ 1006a504     libvcruntime:undname.obj
 0002:00006510       ??_C@_05BEFAKPML@void?5?$AA@ 1006a510     libvcruntime:undname.obj
 0002:00006518       ??_C@_08PABEKFH@volatile?$AA@ 1006a518     libvcruntime:undname.obj
 0002:00006524       ??_C@_0BA@LKIJLKPP@std?3?3nullptr_t?5?$AA@ 1006a524     libvcruntime:undname.obj
 0002:00006538       ??_C@_0P@GCOCNKDM@std?3?3nullptr_t?$AA@ 1006a538     libvcruntime:undname.obj
 0002:0000654c       ??_C@_0L@EGPHHEKN@?$DMellipsis?$DO?$AA@ 1006a54c     libvcruntime:undname.obj
 0002:0000655c       ??_C@_04EENFHACM@?0?4?4?4?$AA@ 1006a55c     libvcruntime:undname.obj
 0002:00006564       ??_C@_0M@ELJOJFFH@?0?$DMellipsis?$DO?$AA@ 1006a564     libvcruntime:undname.obj
 0002:00006574       ??_C@_07HDJPLPEK@?5throw?$CI?$AA@ 1006a574     libvcruntime:undname.obj
 0002:00006580       ??_C@_03PBJBJNON@cpu?$AA@  1006a580     libvcruntime:undname.obj
 0002:00006584       ??_C@_03DCBBJBAA@amp?$AA@  1006a584     libvcruntime:undname.obj
 0002:00006588       ??_C@_02KEGNLNML@?0?5?$AA@ 1006a588     libvcruntime:undname.obj
 0002:0000658c       ??_C@_04ENMBGAPA@char?$AA@ 1006a58c     libvcruntime:undname.obj
 0002:00006594       ??_C@_05BFKKPKCG@short?$AA@ 1006a594     libvcruntime:undname.obj
 0002:0000659c       ??_C@_03JBIPMCLC@int?$AA@  1006a59c     libvcruntime:undname.obj
 0002:000065a0       ??_C@_04GOKPGOLB@long?$AA@ 1006a5a0     libvcruntime:undname.obj
 0002:000065a8       ??_C@_04DDKJGDCM@bool?$AA@ 1006a5a8     libvcruntime:undname.obj
 0002:000065b0       ??_C@_06EBGKOKIG@__int8?$AA@ 1006a5b0     libvcruntime:undname.obj
 0002:000065b8       ??_C@_07ICFHOGAF@__int16?$AA@ 1006a5b8     libvcruntime:undname.obj
 0002:000065c4       ??_C@_07OFLPPHGP@__int32?$AA@ 1006a5c4     libvcruntime:undname.obj
 0002:000065d0       ??_C@_07LFCOJCAC@__int64?$AA@ 1006a5d0     libvcruntime:undname.obj
 0002:000065dc       ??_C@_08GAHOLHEO@__int128?$AA@ 1006a5dc     libvcruntime:undname.obj
 0002:000065e8       ??_C@_09EEKGDCPH@?$DMunknown?$DO?$AA@ 1006a5e8     libvcruntime:undname.obj
 0002:000065f4       ??_C@_08HBIPOFJB@char16_t?$AA@ 1006a5f4     libvcruntime:undname.obj
 0002:00006600       ??_C@_08IECNCBKG@char32_t?$AA@ 1006a600     libvcruntime:undname.obj
 0002:0000660c       ??_C@_07CLGGIAMF@wchar_t?$AA@ 1006a60c     libvcruntime:undname.obj
 0002:00006618       ??_C@_06GCICPBLB@__w64?5?$AA@ 1006a618     libvcruntime:undname.obj
 0002:00006620       ??_C@_07NFANNNEC@UNKNOWN?$AA@ 1006a620     libvcruntime:undname.obj
 0002:0000662c       ??_C@_07EDHNAJHC@signed?5?$AA@ 1006a62c     libvcruntime:undname.obj
 0002:00006638       ??_C@_05BNCCCJPP@const?$AA@ 1006a638     libvcruntime:undname.obj
 0002:00006640       ??_C@_09EFNPDFFP@?5volatile?$AA@ 1006a640     libvcruntime:undname.obj
 0002:0000664c       ??_C@_0P@GCIFDJCJ@?$GAunknown?5ecsu?8?$AA@ 1006a64c     libvcruntime:undname.obj
 0002:00006660       ??_C@_06MOJHIBMG@union?5?$AA@ 1006a660     libvcruntime:undname.obj
 0002:00006668       ??_C@_07DIBCDNGL@struct?5?$AA@ 1006a668     libvcruntime:undname.obj
 0002:00006674       ??_C@_06LJBABKPM@class?5?$AA@ 1006a674     libvcruntime:undname.obj
 0002:0000667c       ??_C@_08KOFANOFK@coclass?5?$AA@ 1006a67c     libvcruntime:undname.obj
 0002:00006688       ??_C@_0N@DLIEFKNA@cointerface?5?$AA@ 1006a688     libvcruntime:undname.obj
 0002:00006698       ??_C@_05LJGMCFOG@enum?5?$AA@ 1006a698     libvcruntime:undname.obj
 0002:000066a0       ??_C@_09GAIEOBLP@volatile?5?$AA@ 1006a6a0     libvcruntime:undname.obj
 0002:000066ac       ??_C@_06LIJLOJAG@const?5?$AA@ 1006a6ac     libvcruntime:undname.obj
 0002:000066b4       ??_C@_02KJPKDIBN@?$CG?5?$AA@ 1006a6b4     libvcruntime:undname.obj
 0002:000066b8       ??_C@_03PCKGMOPB@?$CG?$CG?5?$AA@ 1006a6b8     libvcruntime:undname.obj
 0002:000066bc       ??_C@_0M@EALIELKG@cli?3?3array?$DM?$AA@ 1006a6bc     libvcruntime:undname.obj
 0002:000066cc       ??_C@_0O@GKABPPIF@cli?3?3pin_ptr?$DM?$AA@ 1006a6cc     libvcruntime:undname.obj
 0002:000066dc       ??_C@_02GOGNNPBN@?$CJ?$FL?$AA@ 1006a6dc     libvcruntime:undname.obj
 0002:000066e0       ??_C@_06EEGAIFAK@?$HLflat?$HN?$AA@ 1006a6e0     libvcruntime:undname.obj
 0002:000066e8       ??_C@_05JIBOFOHK@?$HLfor?5?$AA@ 1006a6e8     libvcruntime:undname.obj
 0002:000066f0       ??_C@_02MDINNEEG@s?5?$AA@  1006a6f0     libvcruntime:undname.obj
 0002:000066f8       ??_7DNameNode@@6B@         1006a6f8     libvcruntime:undname.obj
 0002:0000670c       ??_7charNode@@6B@          1006a70c     libvcruntime:undname.obj
 0002:00006720       ??_7pcharNode@@6B@         1006a720     libvcruntime:undname.obj
 0002:00006734       ??_7pDNameNode@@6B@        1006a734     libvcruntime:undname.obj
 0002:00006748       ??_7DNameStatusNode@@6B@   1006a748     libvcruntime:undname.obj
 0002:0000675c       ??_7pairNode@@6B@          1006a75c     libvcruntime:undname.obj
 0002:0000676c       ??_C@_04OKOHEJBO@?5?$DP?$DP?5?$AA@ 1006a76c     libvcruntime:undname.obj
 0002:00006778       _standard_lookup_table     1006a778     libucrt:output.obj
 0002:000067e8       _format_validation_lookup_table 1006a7e8     libucrt:output.obj
 0002:00006858       ??_C@_06OJHGLDPL@?$CInull?$CJ?$AA@ 1006a858     libucrt:output.obj
 0002:00006860       ??_C@_1O@CEDCILHN@?$AA?$CI?$AAn?$AAu?$AAl?$AAl?$AA?$CJ?$AA?$AA@ 1006a860     libucrt:output.obj
 0002:00006870       ??_C@_0CF@GOGNBNAK@Microsoft?5Visual?5C?$CL?$CL?5Runtime?5Lib@ 1006a870     libucrt:assert.obj
 0002:000068a0       ??_C@_1EK@MBDPDCGA@?$AAM?$AAi?$AAc?$AAr?$AAo?$AAs?$AAo?$AAf?$AAt?$AA?5?$AAV?$AAi?$AAs?$AAu?$AAa?$AAl?$AA?5?$AAC?$AA?$CL?$AA?$CL?$AA?5?$AAR?$AAu?$AAn?$AAt?$AAi?$AAm?$AAe?$AA?5?$AAL?$AAi?$AAb@ 1006a8a0     libucrt:assert.obj
 0002:000068f8       ??_C@_0CK@CFPGFGGO@Assertion?5failed?3?5?$CFTs?0?5file?5?$CFTs?0@ 1006a8f8     libucrt:assert.obj
 0002:00006930       ??_C@_1FE@LHBLIKM@?$AAA?$AAs?$AAs?$AAe?$AAr?$AAt?$AAi?$AAo?$AAn?$AA?5?$AAf?$AAa?$AAi?$AAl?$AAe?$AAd?$AA?3?$AA?5?$AA?$CF?$AAT?$AAs?$AA?0?$AA?5?$AAf?$AAi?$AAl?$AAe?$AA?5?$AA?$CF?$AAT?$AAs?$AA?0@ 1006a930     libucrt:assert.obj
 0002:00006994       ??_C@_0BC@LAIDCHCH@Assertion?5failed?$CB?$AA@ 1006a994     libucrt:assert.obj
 0002:000069ac       ??_C@_1CE@OJBNHDMO@?$AAA?$AAs?$AAs?$AAe?$AAr?$AAt?$AAi?$AAo?$AAn?$AA?5?$AAf?$AAa?$AAi?$AAl?$AAe?$AAd?$AA?$CB?$AA?$AA@ 1006a9ac     libucrt:assert.obj
 0002:000069d8       ??_C@_09KLGCKDOD@Program?3?5?$AA@ 1006a9d8     libucrt:assert.obj
 0002:000069e4       ??_C@_1BE@PHKBBGE@?$AAP?$AAr?$AAo?$AAg?$AAr?$AAa?$AAm?$AA?3?$AA?5?$AA?$AA@ 1006a9e4     libucrt:assert.obj
 0002:000069fc       ??_C@_06IGPBOHMJ@File?3?5?$AA@ 1006a9fc     libucrt:assert.obj
 0002:00006a04       ??_C@_1O@HEMHKNDC@?$AAF?$AAi?$AAl?$AAe?$AA?3?$AA?5?$AA?$AA@ 1006aa04     libucrt:assert.obj
 0002:00006a14       ??_C@_06FIEBOLOH@Line?3?5?$AA@ 1006aa14     libucrt:assert.obj
 0002:00006a1c       ??_C@_1O@KCAFKHJE@?$AAL?$AAi?$AAn?$AAe?$AA?3?$AA?5?$AA?$AA@ 1006aa1c     libucrt:assert.obj
 0002:00006a2c       ??_C@_0N@MEECIJGN@Expression?3?5?$AA@ 1006aa2c     libucrt:assert.obj
 0002:00006a3c       ??_C@_1BK@PEDCIPMA@?$AAE?$AAx?$AAp?$AAr?$AAe?$AAs?$AAs?$AAi?$AAo?$AAn?$AA?3?$AA?5?$AA?$AA@ 1006aa3c     libucrt:assert.obj
 0002:00006a60       ??_C@_0HA@OJHAGA@For?5information?5on?5how?5your?5prog@ 1006aa60     libucrt:assert.obj
 0002:00006ae8       ??_C@_1OA@EGMLFBHJ@?$AAF?$AAo?$AAr?$AA?5?$AAi?$AAn?$AAf?$AAo?$AAr?$AAm?$AAa?$AAt?$AAi?$AAo?$AAn?$AA?5?$AAo?$AAn?$AA?5?$AAh?$AAo?$AAw?$AA?5?$AAy?$AAo?$AAu?$AAr?$AA?5?$AAp?$AAr?$AAo?$AAg@ 1006aae8     libucrt:assert.obj
 0002:00006bf4       ??_C@_0DN@EBBNMLME@?$CIPress?5Retry?5to?5debug?5the?5applic@ 1006abf4     libucrt:assert.obj
 0002:00006c40       ??_C@_1HK@POCJMFGK@?$AA?$CI?$AAP?$AAr?$AAe?$AAs?$AAs?$AA?5?$AAR?$AAe?$AAt?$AAr?$AAy?$AA?5?$AAt?$AAo?$AA?5?$AAd?$AAe?$AAb?$AAu?$AAg?$AA?5?$AAt?$AAh?$AAe?$AA?5?$AAa?$AAp?$AAp?$AAl?$AAi?$AAc@ 1006ac40     libucrt:assert.obj
 0002:00006cd4       ??_C@_17LGKOMLJ@?$AA?4?$AA?4?$AA?4?$AA?$AA@ 1006acd4     libucrt:assert.obj
 0002:00006ce0       ??_C@_01EEMJAFIK@?6?$AA@   1006ace0     libucrt:assert.obj
 0002:00006ce4       ??_C@_13LBAGMAIH@?$AA?6?$AA?$AA@ 1006ace4     libucrt:assert.obj
 0002:00006ce8       ??_C@_02PHMGELLB@?6?6?$AA@ 1006ace8     libucrt:assert.obj
 0002:00006cec       ??_C@_15IABLJNFO@?$AA?6?$AA?6?$AA?$AA@ 1006acec     libucrt:assert.obj
 0002:00006cf4       ??_C@_0BH@DNAGHKFM@?$DMprogram?5name?5unknown?$DO?$AA@ 1006acf4     libucrt:assert.obj
 0002:00006d10       ??_C@_1CO@EAEJAADC@?$AA?$DM?$AAp?$AAr?$AAo?$AAg?$AAr?$AAa?$AAm?$AA?5?$AAn?$AAa?$AAm?$AAe?$AA?5?$AAu?$AAn?$AAk?$AAn?$AAo?$AAw?$AAn?$AA?$DO?$AA?$AA@ 1006ad10     libucrt:assert.obj
 0002:00006d48       _RtlNtPathSeperatorString  1006ad48     libucrt:exit.obj
 0002:00006d54       ??_C@_13FPGAJAPJ@?$AA?2?$AA?$AA@ 1006ad54     libucrt:exit.obj
 0002:00006d58       _RtlDosPathSeperatorsString 1006ad58     libucrt:exit.obj
 0002:00006d64       ??_C@_15MNCACJLI@?$AA?2?$AA?1?$AA?$AA@ 1006ad64     libucrt:exit.obj
 0002:00006d6c       _RtlAlternateDosPathSeperatorString 1006ad6c     libucrt:exit.obj
 0002:00006d78       ??_C@_13CGOKJPIL@?$AA?1?$AA?$AA@ 1006ad78     libucrt:exit.obj
 0002:00006d7c       ??_C@_1BI@BGOHAHKC@?$AAm?$AAs?$AAc?$AAo?$AAr?$AAe?$AAe?$AA?4?$AAd?$AAl?$AAl?$AA?$AA@ 1006ad7c     libucrt:exit.obj
 0002:00006d98       ??_C@_0P@MIGLKIOC@CorExitProcess?$AA@ 1006ad98     libucrt:exit.obj
 0002:00006dac       ??_C@_04FJHINJAO@tanh?$AA@ 1006adac     libucrt:fpexcept.obj
 0002:00006db4       ??_C@_04FIHNOPOL@asin?$AA@ 1006adb4     libucrt:fpexcept.obj
 0002:00006dbc       ??_C@_04PDIFKINK@acos?$AA@ 1006adbc     libucrt:fpexcept.obj
 0002:00006dc4       ??_C@_04MLLJIGOK@atan?$AA@ 1006adc4     libucrt:fpexcept.obj
 0002:00006dcc       ??_C@_05KNGEOGJB@atan2?$AA@ 1006adcc     libucrt:fpexcept.obj
 0002:00006dd4       ??_C@_04EIAKFFMI@sqrt?$AA@ 1006add4     libucrt:fpexcept.obj
 0002:00006ddc       ??_C@_03BLEJJJBH@sin?$AA@  1006addc     libucrt:fpexcept.obj
 0002:00006de0       ??_C@_03LALBNOCG@cos?$AA@  1006ade0     libucrt:fpexcept.obj
 0002:00006de4       ??_C@_03IIINPABG@tan?$AA@  1006ade4     libucrt:fpexcept.obj
 0002:00006de8       ??_C@_04GFPJNGEK@ceil?$AA@ 1006ade8     libucrt:fpexcept.obj
 0002:00006df0       ??_C@_05PBJFFIGL@floor?$AA@ 1006adf0     libucrt:fpexcept.obj
 0002:00006df8       ??_C@_04ODHECPBC@fabs?$AA@ 1006adf8     libucrt:fpexcept.obj
 0002:00006e00       ??_C@_04EHEDPDJG@modf?$AA@ 1006ae00     libucrt:fpexcept.obj
 0002:00006e08       ??_C@_05CEJMAHNP@ldexp?$AA@ 1006ae08     libucrt:fpexcept.obj
 0002:00006e10       ??_C@_05KBKMEMPO@_cabs?$AA@ 1006ae10     libucrt:fpexcept.obj
 0002:00006e18       ??_C@_06MEIMCGCF@_hypot?$AA@ 1006ae18     libucrt:fpexcept.obj
 0002:00006e20       ??_C@_04KEPJIHGP@fmod?$AA@ 1006ae20     libucrt:fpexcept.obj
 0002:00006e28       ??_C@_05GKKHEGJL@frexp?$AA@ 1006ae28     libucrt:fpexcept.obj
 0002:00006e30       ??_C@_03MJLDFKDL@_y0?$AA@  1006ae30     libucrt:fpexcept.obj
 0002:00006e34       ??_C@_03NAKIGLHK@_y1?$AA@  1006ae34     libucrt:fpexcept.obj
 0002:00006e38       ??_C@_03ONILCKOB@_yn?$AA@  1006ae38     libucrt:fpexcept.obj
 0002:00006e3c       ??_C@_05JGDBENOH@_logb?$AA@ 1006ae3c     libucrt:fpexcept.obj
 0002:00006e44       ??_C@_0L@KDOEJCKC@_nextafter?$AA@ 1006ae44     libucrt:fpexcept.obj
 0002:00006f70       ??_C@_03KHJOGHMM@exp?$AA@  1006af70     libucrt:fpexcept.obj
 0002:00006f74       ??_C@_03JGHBODFD@pow?$AA@  1006af74     libucrt:fpexcept.obj
 0002:00006f78       ??_C@_03MGHMBJCF@log?$AA@  1006af78     libucrt:fpexcept.obj
 0002:00006f7c       ??_C@_05HGHHAHAP@log10?$AA@ 1006af7c     libucrt:fpexcept.obj
 0002:00006f84       ??_C@_04COOMCNPB@sinh?$AA@ 1006af84     libucrt:fpexcept.obj
 0002:00006f8c       ??_C@_04HPJJNFIM@cosh?$AA@ 1006af8c     libucrt:fpexcept.obj
 0002:00006f98       ___acrt_exception_action_table 1006af98     libucrt:exception_filter.obj
 0002:00007044       ___acrt_signal_action_table_count 1006b044     libucrt:exception_filter.obj
 0002:00007048       ___acrt_signal_action_table_size 1006b048     libucrt:exception_filter.obj
 0002:0000704c       ___acrt_signal_action_first_fpe_index 1006b04c     libucrt:exception_filter.obj
 0002:00007050       ___acrt_signal_action_fpe_count 1006b050     libucrt:exception_filter.obj
 0002:000070e8       ??_C@_1BG@HHIFPOEK@?$AAm?$AAs?$AAv?$AAc?$AAr?$AAt?$AA?4?$AAd?$AAl?$AAl?$AA?$AA@ 1006b0e8     libucrt:free_base.obj
 0002:00007104       __Fenv0                    1006b104     libucrt:atox.obj
 0002:00007320       ??_C@_1EG@CNNIPFIM@?$AAa?$AAp?$AAi?$AA?9?$AAm?$AAs?$AA?9?$AAw?$AAi?$AAn?$AA?9?$AAa?$AAp?$AAp?$AAm?$AAo?$AAd?$AAe?$AAl?$AA?9?$AAr?$AAu?$AAn?$AAt?$AAi?$AAm?$AAe?$AA?9?$AAl?$AA1?$AA?9?$AA1@ 1006b320     libucrt:winapi_thunks.obj
 0002:00007378       ??_C@_1EA@JGEFHKEI@?$AAa?$AAp?$AAi?$AA?9?$AAm?$AAs?$AA?9?$AAw?$AAi?$AAn?$AA?9?$AAc?$AAo?$AAr?$AAe?$AA?9?$AAd?$AAa?$AAt?$AAe?$AAt?$AAi?$AAm?$AAe?$AA?9?$AAl?$AA1?$AA?9?$AA1?$AA?9?$AA1?$AA?$AA@ 1006b378     libucrt:winapi_thunks.obj
 0002:000073c4       ??_C@_1DI@GCIAAENM@?$AAa?$AAp?$AAi?$AA?9?$AAm?$AAs?$AA?9?$AAw?$AAi?$AAn?$AA?9?$AAc?$AAo?$AAr?$AAe?$AA?9?$AAf?$AAi?$AAl?$AAe?$AA?9?$AAl?$AA2?$AA?9?$AA1?$AA?9?$AA1?$AA?$AA@ 1006b3c4     libucrt:winapi_thunks.obj
 0002:00007408       ??_C@_1EI@MPIAOHOC@?$AAa?$AAp?$AAi?$AA?9?$AAm?$AAs?$AA?9?$AAw?$AAi?$AAn?$AA?9?$AAc?$AAo?$AAr?$AAe?$AA?9?$AAl?$AAo?$AAc?$AAa?$AAl?$AAi?$AAz?$AAa?$AAt?$AAi?$AAo?$AAn?$AA?9?$AAl?$AA1?$AA?9@ 1006b408     libucrt:winapi_thunks.obj
 0002:00007460       ??_C@_1FK@FPHCKFIE@?$AAa?$AAp?$AAi?$AA?9?$AAm?$AAs?$AA?9?$AAw?$AAi?$AAn?$AA?9?$AAc?$AAo?$AAr?$AAe?$AA?9?$AAl?$AAo?$AAc?$AAa?$AAl?$AAi?$AAz?$AAa?$AAt?$AAi?$AAo?$AAn?$AA?9?$AAo?$AAb?$AAs@ 1006b460     libucrt:winapi_thunks.obj
 0002:000074d0       ??_C@_1EM@DILCGIIO@?$AAa?$AAp?$AAi?$AA?9?$AAm?$AAs?$AA?9?$AAw?$AAi?$AAn?$AA?9?$AAc?$AAo?$AAr?$AAe?$AA?9?$AAp?$AAr?$AAo?$AAc?$AAe?$AAs?$AAs?$AAt?$AAh?$AAr?$AAe?$AAa?$AAd?$AAs?$AA?9?$AAl@ 1006b4d0     libucrt:winapi_thunks.obj
 0002:0000752c       ??_C@_1DM@LNCGDDPN@?$AAa?$AAp?$AAi?$AA?9?$AAm?$AAs?$AA?9?$AAw?$AAi?$AAn?$AA?9?$AAc?$AAo?$AAr?$AAe?$AA?9?$AAs?$AAt?$AAr?$AAi?$AAn?$AAg?$AA?9?$AAl?$AA1?$AA?9?$AA1?$AA?9?$AA0?$AA?$AA@ 1006b52c     libucrt:winapi_thunks.obj
 0002:00007574       ??_C@_1DO@FPAPJEMD@?$AAa?$AAp?$AAi?$AA?9?$AAm?$AAs?$AA?9?$AAw?$AAi?$AAn?$AA?9?$AAc?$AAo?$AAr?$AAe?$AA?9?$AAs?$AAy?$AAs?$AAi?$AAn?$AAf?$AAo?$AA?9?$AAl?$AA1?$AA?9?$AA2?$AA?9?$AA1?$AA?$AA@ 1006b574     libucrt:winapi_thunks.obj
 0002:000075c0       ??_C@_1DK@NDHNAHIO@?$AAa?$AAp?$AAi?$AA?9?$AAm?$AAs?$AA?9?$AAw?$AAi?$AAn?$AA?9?$AAc?$AAo?$AAr?$AAe?$AA?9?$AAw?$AAi?$AAn?$AAr?$AAt?$AA?9?$AAl?$AA1?$AA?9?$AA1?$AA?9?$AA0?$AA?$AA@ 1006b5c0     libucrt:winapi_thunks.obj
 0002:00007608       ??_C@_1DM@KGHDGBCM@?$AAa?$AAp?$AAi?$AA?9?$AAm?$AAs?$AA?9?$AAw?$AAi?$AAn?$AA?9?$AAc?$AAo?$AAr?$AAe?$AA?9?$AAx?$AAs?$AAt?$AAa?$AAt?$AAe?$AA?9?$AAl?$AA2?$AA?9?$AA1?$AA?9?$AA0?$AA?$AA@ 1006b608     libucrt:winapi_thunks.obj
 0002:00007650       ??_C@_1EO@IJIOEFOH@?$AAa?$AAp?$AAi?$AA?9?$AAm?$AAs?$AA?9?$AAw?$AAi?$AAn?$AA?9?$AAr?$AAt?$AAc?$AAo?$AAr?$AAe?$AA?9?$AAn?$AAt?$AAu?$AAs?$AAe?$AAr?$AA?9?$AAw?$AAi?$AAn?$AAd?$AAo?$AAw?$AA?9@ 1006b650     libucrt:winapi_thunks.obj
 0002:000076b0       ??_C@_1FG@HHGEKANL@?$AAa?$AAp?$AAi?$AA?9?$AAm?$AAs?$AA?9?$AAw?$AAi?$AAn?$AA?9?$AAs?$AAe?$AAc?$AAu?$AAr?$AAi?$AAt?$AAy?$AA?9?$AAs?$AAy?$AAs?$AAt?$AAe?$AAm?$AAf?$AAu?$AAn?$AAc?$AAt?$AAi@ 1006b6b0     libucrt:winapi_thunks.obj
 0002:00007718       ??_C@_1FG@NCKKOLKO@?$AAe?$AAx?$AAt?$AA?9?$AAm?$AAs?$AA?9?$AAw?$AAi?$AAn?$AA?9?$AAk?$AAe?$AAr?$AAn?$AAe?$AAl?$AA3?$AA2?$AA?9?$AAp?$AAa?$AAc?$AAk?$AAa?$AAg?$AAe?$AA?9?$AAc?$AAu?$AAr?$AAr@ 1006b718     libucrt:winapi_thunks.obj
 0002:00007780       ??_C@_1EG@DBIOJECG@?$AAe?$AAx?$AAt?$AA?9?$AAm?$AAs?$AA?9?$AAw?$AAi?$AAn?$AA?9?$AAn?$AAt?$AAu?$AAs?$AAe?$AAr?$AA?9?$AAd?$AAi?$AAa?$AAl?$AAo?$AAg?$AAb?$AAo?$AAx?$AA?9?$AAl?$AA1?$AA?9?$AA1@ 1006b780     libucrt:winapi_thunks.obj
 0002:000077d8       ??_C@_1EO@FIHMJCLF@?$AAe?$AAx?$AAt?$AA?9?$AAm?$AAs?$AA?9?$AAw?$AAi?$AAn?$AA?9?$AAn?$AAt?$AAu?$AAs?$AAe?$AAr?$AA?9?$AAw?$AAi?$AAn?$AAd?$AAo?$AAw?$AAs?$AAt?$AAa?$AAt?$AAi?$AAo?$AAn?$AA?9@ 1006b7d8     libucrt:winapi_thunks.obj
 0002:00007838       ??_C@_1O@BCCLBEOE@?$AAu?$AAs?$AAe?$AAr?$AA3?$AA2?$AA?$AA@ 1006b838     libucrt:winapi_thunks.obj
 0002:0000784c       ??_C@_0BA@FHFNEAED@AreFileApisANSI?$AA@ 1006b84c     libucrt:winapi_thunks.obj
 0002:0000786c       ??_C@_0BA@IHGNDAEB@CompareStringEx?$AA@ 1006b86c     libucrt:winapi_thunks.obj
 0002:0000788c       ??_C@_0BE@LJANKFHF@EnumSystemLocalesEx?$AA@ 1006b88c     libucrt:winapi_thunks.obj
 0002:000078e0       ??_C@_0BA@HNOPNCHB@GetActiveWindow?$AA@ 1006b8e0     libucrt:winapi_thunks.obj
 0002:00007900       ??_C@_0BE@JOGNEJCI@GetCurrentPackageId?$AA@ 1006b900     libucrt:winapi_thunks.obj
 0002:00007924       ??_C@_0BA@EPCJIIPD@GetDateFormatEx?$AA@ 1006b924     libucrt:winapi_thunks.obj
 0002:00007944       ??_C@_0BJ@DIBIJBHA@GetEnabledXStateFeatures?$AA@ 1006b944     libucrt:winapi_thunks.obj
 0002:00007970       ??_C@_0BN@NEEHBBPO@GetFileInformationByHandleEx?$AA@ 1006b970     libucrt:winapi_thunks.obj
 0002:000079a0       ??_C@_0BD@HHGDFDBJ@GetLastActivePopup?$AA@ 1006b9a0     libucrt:winapi_thunks.obj
 0002:000079c4       ??_C@_0BA@ONOKGCMP@GetLocaleInfoEx?$AA@ 1006b9c4     libucrt:winapi_thunks.obj
 0002:000079e4       ??_C@_0BI@DFKBFLJE@GetProcessWindowStation?$AA@ 1006b9e4     libucrt:winapi_thunks.obj
 0002:00007a04       ??_C@_0BP@FPNJPEJC@GetSystemTimePreciseAsFileTime?$AA@ 1006ba04     libucrt:winapi_thunks.obj
 0002:00007a38       ??_C@_0BA@CIJJKCJJ@GetTimeFormatEx?$AA@ 1006ba38     libucrt:winapi_thunks.obj
 0002:00007a58       ??_C@_0BJ@PBCCBIPI@GetUserDefaultLocaleName?$AA@ 1006ba58     libucrt:winapi_thunks.obj
 0002:00007a84       ??_C@_0BK@DEKFELLI@GetUserObjectInformationW?$AA@ 1006ba84     libucrt:winapi_thunks.obj
 0002:00007ab0       ??_C@_0BG@IKLDMBLM@GetXStateFeaturesMask?$AA@ 1006bab0     libucrt:winapi_thunks.obj
 0002:00007ae4       ??_C@_0BC@CELBKLLA@IsValidLocaleName?$AA@ 1006bae4     libucrt:winapi_thunks.obj
 0002:00007b08       ??_C@_0O@KKBNKAPF@LCMapStringEx?$AA@ 1006bb08     libucrt:winapi_thunks.obj
 0002:00007b24       ??_C@_0BB@CDHDDLLP@LCIDToLocaleName?$AA@ 1006bb24     libucrt:winapi_thunks.obj
 0002:00007b44       ??_C@_0BB@HBDEELFH@LocaleNameToLCID?$AA@ 1006bb44     libucrt:winapi_thunks.obj
 0002:00007b64       ??_C@_0BE@KINNKFDA@LocateXStateFeature?$AA@ 1006bb64     libucrt:winapi_thunks.obj
 0002:00007b88       ??_C@_0M@CHKKJDAI@MessageBoxA?$AA@ 1006bb88     libucrt:winapi_thunks.obj
 0002:00007ba4       ??_C@_0M@DLDCCGNP@MessageBoxW?$AA@ 1006bba4     libucrt:winapi_thunks.obj
 0002:00007bb8       ??_C@_0N@PPOMPGGK@RoInitialize?$AA@ 1006bbb8     libucrt:winapi_thunks.obj
 0002:00007bcc       ??_C@_0P@LLFHBIJD@RoUninitialize?$AA@ 1006bbcc     libucrt:winapi_thunks.obj
 0002:00007bec       ??_C@_0BI@BKLFFAPO@SetThreadStackGuarantee?$AA@ 1006bbec     libucrt:winapi_thunks.obj
 0002:00007c14       ??_C@_0BC@JEAENNKH@SystemFunction036?$AA@ 1006bc14     libucrt:winapi_thunks.obj
 0002:00007c2c       ??_C@_03OEIAHPBN@INF?$AA@  1006bc2c     libucrt:cvt.obj
 0002:00007c30       ??_C@_03OJHLLCGB@inf?$AA@  1006bc30     libucrt:cvt.obj
 0002:00007c34       ??_C@_03LKNCIKJB@NAN?$AA@  1006bc34     libucrt:cvt.obj
 0002:00007c38       ??_C@_03LHCJEHON@nan?$AA@  1006bc38     libucrt:cvt.obj
 0002:00007c3c       ??_C@_09OFJJIMPC@NAN?$CISNAN?$CJ?$AA@ 1006bc3c     libucrt:cvt.obj
 0002:00007c48       ??_C@_09IPFBKMDL@nan?$CIsnan?$CJ?$AA@ 1006bc48     libucrt:cvt.obj
 0002:00007c54       ??_C@_08IKHNHAJ@NAN?$CIIND?$CJ?$AA@ 1006bc54     libucrt:cvt.obj
 0002:00007c60       ??_C@_08OFCDMILK@nan?$CIind?$CJ?$AA@ 1006bc60     libucrt:cvt.obj
 0002:00007c6c       ??_C@_05KLBDPFGC@e?$CL000?$AA@ 1006bc6c     libucrt:cvt.obj
 0002:00007c78       ___lc_category             1006bc78     libucrt:wsetlocale.obj
 0002:00007cd0       ??_C@_1O@GIFLHMA@?$AAL?$AAC?$AA_?$AAA?$AAL?$AAL?$AA?$AA@ 1006bcd0     libucrt:wsetlocale.obj
 0002:00007ce0       ??_C@_1BG@PPOMIBNJ@?$AAL?$AAC?$AA_?$AAC?$AAO?$AAL?$AAL?$AAA?$AAT?$AAE?$AA?$AA@ 1006bce0     libucrt:wsetlocale.obj
 0002:00007cfc       ??_C@_1BC@FFJGAPJM@?$AAL?$AAC?$AA_?$AAC?$AAT?$AAY?$AAP?$AAE?$AA?$AA@ 1006bcfc     libucrt:wsetlocale.obj
 0002:00007d14       ??_C@_1BI@PCKFNJFB@?$AAL?$AAC?$AA_?$AAM?$AAO?$AAN?$AAE?$AAT?$AAA?$AAR?$AAY?$AA?$AA@ 1006bd14     libucrt:wsetlocale.obj
 0002:00007d30       ??_C@_1BG@ENIEDKID@?$AAL?$AAC?$AA_?$AAN?$AAU?$AAM?$AAE?$AAR?$AAI?$AAC?$AA?$AA@ 1006bd30     libucrt:wsetlocale.obj
 0002:00007d4c       ??_C@_1BA@HAAOMIIG@?$AAL?$AAC?$AA_?$AAT?$AAI?$AAM?$AAE?$AA?$AA@ 1006bd4c     libucrt:wsetlocale.obj
 0002:00007df8       ??_C@_15NBPDDFIP@?$AA?$DN?$AA?$DL?$AA?$AA@ 1006bdf8     libucrt:wsetlocale.obj
 0002:00007e00       ??_C@_13PJJBFPED@?$AA?$DL?$AA?$AA@ 1006be00     libucrt:wsetlocale.obj
 0002:00007e04       ??_C@_13NMPKAAJP@?$AA?$DN?$AA?$AA@ 1006be04     libucrt:wsetlocale.obj
 0002:00007e08       ??_C@_13FHBKNHDA@?$AAC?$AA?$AA@ 1006be08     libucrt:wsetlocale.obj
 0002:00007e0c       ??_C@_17MBJJLFDM@?$AA_?$AA?4?$AA?0?$AA?$AA@ 1006be0c     libucrt:wsetlocale.obj
 0002:00007e18       ??_C@_13ENNFDPBH@?$AA_?$AA?$AA@ 1006be18     libucrt:wsetlocale.obj
 0002:00007e1c       ??_C@_13JOFGPIOO@?$AA?4?$AA?$AA@ 1006be1c     libucrt:wsetlocale.obj
 0002:00007e20       ??_C@_03KOEHGMDN@Sun?$AA@  1006be20     libucrt:nlsdata.obj
 0002:00007e24       ??_C@_03PDAGKDH@Mon?$AA@   1006be24     libucrt:nlsdata.obj
 0002:00007e28       ??_C@_03NAGEINEP@Tue?$AA@  1006be28     libucrt:nlsdata.obj
 0002:00007e2c       ??_C@_03MHOMLAJA@Wed?$AA@  1006be2c     libucrt:nlsdata.obj
 0002:00007e30       ??_C@_03IOFIKPDN@Thu?$AA@  1006be30     libucrt:nlsdata.obj
 0002:00007e34       ??_C@_03IDIOELNC@Fri?$AA@  1006be34     libucrt:nlsdata.obj
 0002:00007e38       ??_C@_03FEFJNEK@Sat?$AA@   1006be38     libucrt:nlsdata.obj
 0002:00007e3c       ??_C@_06OOPIFAJ@Sunday?$AA@ 1006be3c     libucrt:nlsdata.obj
 0002:00007e44       ??_C@_06JLEDEDGH@Monday?$AA@ 1006be44     libucrt:nlsdata.obj
 0002:00007e4c       ??_C@_07BAAGCFCM@Tuesday?$AA@ 1006be4c     libucrt:nlsdata.obj
 0002:00007e58       ??_C@_09DLIGFAKA@Wednesday?$AA@ 1006be58     libucrt:nlsdata.obj
 0002:00007e64       ??_C@_08HACCIKIA@Thursday?$AA@ 1006be64     libucrt:nlsdata.obj
 0002:00007e70       ??_C@_06JECMNKMI@Friday?$AA@ 1006be70     libucrt:nlsdata.obj
 0002:00007e78       ??_C@_08INBOOONO@Saturday?$AA@ 1006be78     libucrt:nlsdata.obj
 0002:00007e84       ??_C@_03JIHJHPIE@Jan?$AA@  1006be84     libucrt:nlsdata.obj
 0002:00007e88       ??_C@_03HJBDCHOM@Feb?$AA@  1006be88     libucrt:nlsdata.obj
 0002:00007e8c       ??_C@_03ODNJBKGA@Mar?$AA@  1006be8c     libucrt:nlsdata.obj
 0002:00007e90       ??_C@_03LEOLGMJP@Apr?$AA@  1006be90     libucrt:nlsdata.obj
 0002:00007e94       ??_C@_03CNMDKL@May?$AA@    1006be94     libucrt:nlsdata.obj
 0002:00007e98       ??_C@_03IDFGHECI@Jun?$AA@  1006be98     libucrt:nlsdata.obj
 0002:00007e9c       ??_C@_03LBGABGKK@Jul?$AA@  1006be9c     libucrt:nlsdata.obj
 0002:00007ea0       ??_C@_03IFJFEIGA@Aug?$AA@  1006bea0     libucrt:nlsdata.obj
 0002:00007ea4       ??_C@_03GGCAPAJC@Sep?$AA@  1006bea4     libucrt:nlsdata.obj
 0002:00007ea8       ??_C@_03BMAOKBAD@Oct?$AA@  1006bea8     libucrt:nlsdata.obj
 0002:00007eac       ??_C@_03JPJOFNIA@Nov?$AA@  1006beac     libucrt:nlsdata.obj
 0002:00007eb0       ??_C@_03MKABNOCG@Dec?$AA@  1006beb0     libucrt:nlsdata.obj
 0002:00007eb4       ??_C@_07CGJPFGJA@January?$AA@ 1006beb4     libucrt:nlsdata.obj
 0002:00007ec0       ??_C@_08GNJGEPFN@February?$AA@ 1006bec0     libucrt:nlsdata.obj
 0002:00007ecc       ??_C@_05HPCKOFNC@March?$AA@ 1006becc     libucrt:nlsdata.obj
 0002:00007ed4       ??_C@_05DMJDNLEJ@April?$AA@ 1006bed4     libucrt:nlsdata.obj
 0002:00007edc       ??_C@_04CNLMGBGM@June?$AA@ 1006bedc     libucrt:nlsdata.obj
 0002:00007ee4       ??_C@_04MIEPOIFP@July?$AA@ 1006bee4     libucrt:nlsdata.obj
 0002:00007eec       ??_C@_06LBBHFDDG@August?$AA@ 1006beec     libucrt:nlsdata.obj
 0002:00007ef4       ??_C@_09BHHEALKD@September?$AA@ 1006bef4     libucrt:nlsdata.obj
 0002:00007f00       ??_C@_07JJNFCEND@October?$AA@ 1006bf00     libucrt:nlsdata.obj
 0002:00007f0c       ??_C@_08HCHEGEOA@November?$AA@ 1006bf0c     libucrt:nlsdata.obj
 0002:00007f18       ??_C@_08EDHMEBNP@December?$AA@ 1006bf18     libucrt:nlsdata.obj
 0002:00007f24       ??_C@_02DEDBPAFC@AM?$AA@   1006bf24     libucrt:nlsdata.obj
 0002:00007f28       ??_C@_02CJNFDJBF@PM?$AA@   1006bf28     libucrt:nlsdata.obj
 0002:00007f2c       ??_C@_08BPBNCDIB@MM?1dd?1yy?$AA@ 1006bf2c     libucrt:nlsdata.obj
 0002:00007f38       ??_C@_0BE@CKGJFCPC@dddd?0?5MMMM?5dd?0?5yyyy?$AA@ 1006bf38     libucrt:nlsdata.obj
 0002:00007f50       ??_C@_08JCCMCCIL@HH?3mm?3ss?$AA@ 1006bf50     libucrt:nlsdata.obj
 0002:00007f5c       ??_C@_17MBGCMIPB@?$AAS?$AAu?$AAn?$AA?$AA@ 1006bf5c     libucrt:nlsdata.obj
 0002:00007f68       ??_C@_17KBOMKBF@?$AAM?$AAo?$AAn?$AA?$AA@ 1006bf68     libucrt:nlsdata.obj
 0002:00007f74       ??_C@_17BMKGEGOJ@?$AAT?$AAu?$AAe?$AA?$AA@ 1006bf74     libucrt:nlsdata.obj
 0002:00007f80       ??_C@_17CJEDCEPE@?$AAW?$AAe?$AAd?$AA?$AA@ 1006bf80     libucrt:nlsdata.obj
 0002:00007f8c       ??_C@_17PDPHAADD@?$AAT?$AAh?$AAu?$AA?$AA@ 1006bf8c     libucrt:nlsdata.obj
 0002:00007f98       ??_C@_17HFOLPPLP@?$AAF?$AAr?$AAi?$AA?$AA@ 1006bf98     libucrt:nlsdata.obj
 0002:00007fa4       ??_C@_17GGIBDPIH@?$AAS?$AAa?$AAt?$AA?$AA@ 1006bfa4     libucrt:nlsdata.obj
 0002:00007fb0       ??_C@_1O@IHNHDHPB@?$AAS?$AAu?$AAn?$AAd?$AAa?$AAy?$AA?$AA@ 1006bfb0     libucrt:nlsdata.obj
 0002:00007fc0       ??_C@_1O@MMNBFLIA@?$AAM?$AAo?$AAn?$AAd?$AAa?$AAy?$AA?$AA@ 1006bfc0     libucrt:nlsdata.obj
 0002:00007fd0       ??_C@_1BA@ENFBFFEK@?$AAT?$AAu?$AAe?$AAs?$AAd?$AAa?$AAy?$AA?$AA@ 1006bfd0     libucrt:nlsdata.obj
 0002:00007fe4       ??_C@_1BE@EBOGMDOH@?$AAW?$AAe?$AAd?$AAn?$AAe?$AAs?$AAd?$AAa?$AAy?$AA?$AA@ 1006bfe4     libucrt:nlsdata.obj
 0002:00007ffc       ??_C@_1BC@HHMNLIHE@?$AAT?$AAh?$AAu?$AAr?$AAs?$AAd?$AAa?$AAy?$AA?$AA@ 1006bffc     libucrt:nlsdata.obj
 0002:00008014       ??_C@_1O@PDICJHAG@?$AAF?$AAr?$AAi?$AAd?$AAa?$AAy?$AA?$AA@ 1006c014     libucrt:nlsdata.obj
 0002:00008024       ??_C@_1BC@ENMNNPAJ@?$AAS?$AAa?$AAt?$AAu?$AAr?$AAd?$AAa?$AAy?$AA?$AA@ 1006c024     libucrt:nlsdata.obj
 0002:0000803c       ??_C@_17DKNBKCHM@?$AAJ?$AAa?$AAn?$AA?$AA@ 1006c03c     libucrt:nlsdata.obj
 0002:00008048       ??_C@_17LMDJEKJN@?$AAF?$AAe?$AAb?$AA?$AA@ 1006c048     libucrt:nlsdata.obj
 0002:00008054       ??_C@_17CKNLEDEC@?$AAM?$AAa?$AAr?$AA?$AA@ 1006c054     libucrt:nlsdata.obj
 0002:00008060       ??_C@_17LFPOIHDD@?$AAA?$AAp?$AAr?$AA?$AA@ 1006c060     libucrt:nlsdata.obj
 0002:0000806c       ??_C@_17PNNKMEED@?$AAM?$AAa?$AAy?$AA?$AA@ 1006c06c     libucrt:nlsdata.obj
 0002:00008078       ??_C@_17KCJGOCPB@?$AAJ?$AAu?$AAn?$AA?$AA@ 1006c078     libucrt:nlsdata.obj
 0002:00008084       ??_C@_17IJPCKHK@?$AAJ?$AAu?$AAl?$AA?$AA@ 1006c084     libucrt:nlsdata.obj
 0002:00008090       ??_C@_17ICPELBCN@?$AAA?$AAu?$AAg?$AA?$AA@ 1006c090     libucrt:nlsdata.obj
 0002:0000809c       ??_C@_17HCHCOKMG@?$AAS?$AAe?$AAp?$AA?$AA@ 1006c09c     libucrt:nlsdata.obj
 0002:000080a8       ??_C@_17FNLKOI@?$AAO?$AAc?$AAt?$AA?$AA@ 1006c0a8     libucrt:nlsdata.obj
 0002:000080b4       ??_C@_17BBDMLCIG@?$AAN?$AAo?$AAv?$AA?$AA@ 1006c0b4     libucrt:nlsdata.obj
 0002:000080c0       ??_C@_17EGKACKIF@?$AAD?$AAe?$AAc?$AA?$AA@ 1006c0c0     libucrt:nlsdata.obj
 0002:000080cc       ??_C@_1BA@EFMEIEBA@?$AAJ?$AAa?$AAn?$AAu?$AAa?$AAr?$AAy?$AA?$AA@ 1006c0cc     libucrt:nlsdata.obj
 0002:000080e0       ??_C@_1BC@JGDDFFAM@?$AAF?$AAe?$AAb?$AAr?$AAu?$AAa?$AAr?$AAy?$AA?$AA@ 1006c0e0     libucrt:nlsdata.obj
 0002:000080f8       ??_C@_1M@IKEENEDF@?$AAM?$AAa?$AAr?$AAc?$AAh?$AA?$AA@ 1006c0f8     libucrt:nlsdata.obj
 0002:00008108       ??_C@_1M@GJNLMHFD@?$AAA?$AAp?$AAr?$AAi?$AAl?$AA?$AA@ 1006c108     libucrt:nlsdata.obj
 0002:00008118       ??_C@_19EPFLPGAP@?$AAJ?$AAu?$AAn?$AAe?$AA?$AA@ 1006c118     libucrt:nlsdata.obj
 0002:00008124       ??_C@_19BIFMLPCD@?$AAJ?$AAu?$AAl?$AAy?$AA?$AA@ 1006c124     libucrt:nlsdata.obj
 0002:00008130       ??_C@_1O@PAHLKOAC@?$AAA?$AAu?$AAg?$AAu?$AAs?$AAt?$AA?$AA@ 1006c130     libucrt:nlsdata.obj
 0002:00008140       ??_C@_1BE@DKAAMBJL@?$AAS?$AAe?$AAp?$AAt?$AAe?$AAm?$AAb?$AAe?$AAr?$AA?$AA@ 1006c140     libucrt:nlsdata.obj
 0002:00008158       ??_C@_1BA@EPANDLNG@?$AAO?$AAc?$AAt?$AAo?$AAb?$AAe?$AAr?$AA?$AA@ 1006c158     libucrt:nlsdata.obj
 0002:0000816c       ??_C@_1BC@BGLIFPF@?$AAN?$AAo?$AAv?$AAe?$AAm?$AAb?$AAe?$AAr?$AA?$AA@ 1006c16c     libucrt:nlsdata.obj
 0002:00008184       ??_C@_1BC@FEMKIFH@?$AAD?$AAe?$AAc?$AAe?$AAm?$AAb?$AAe?$AAr?$AA?$AA@ 1006c184     libucrt:nlsdata.obj
 0002:0000819c       ??_C@_15ODEHAHHF@?$AAA?$AAM?$AA?$AA@ 1006c19c     libucrt:nlsdata.obj
 0002:000081a4       ??_C@_15CLMNNGEL@?$AAP?$AAM?$AA?$AA@ 1006c1a4     libucrt:nlsdata.obj
 0002:000081ac       ??_C@_1BC@IEBCMHCM@?$AAM?$AAM?$AA?1?$AAd?$AAd?$AA?1?$AAy?$AAy?$AA?$AA@ 1006c1ac     libucrt:nlsdata.obj
 0002:000081c4       ??_C@_1CI@KNAKOEBC@?$AAd?$AAd?$AAd?$AAd?$AA?0?$AA?5?$AAM?$AAM?$AAM?$AAM?$AA?5?$AAd?$AAd?$AA?0?$AA?5?$AAy?$AAy?$AAy?$AAy?$AA?$AA@ 1006c1c4     libucrt:nlsdata.obj
 0002:000081f4       ??_C@_1BC@GDGBMEMK@?$AAH?$AAH?$AA?3?$AAm?$AAm?$AA?3?$AAs?$AAs?$AA?$AA@ 1006c1f4     libucrt:nlsdata.obj
 0002:0000820c       ??_C@_1M@BMHNFIME@?$AAe?$AAn?$AA?9?$AAU?$AAS?$AA?$AA@ 1006c20c     libucrt:nlsdata.obj
 0002:00008220       ___lc_time_c               1006c220     libucrt:nlsdata.obj
 0002:000083cc       ??_C@_1DE@JNGNBFGO@?$AAR?$AAu?$AAn?$AAt?$AAi?$AAm?$AAe?$AA?5?$AAE?$AAr?$AAr?$AAo?$AAr?$AA?$CB?$AA?6?$AA?6?$AAP?$AAr?$AAo?$AAg?$AAr?$AAa?$AAm?$AA?3?$AA?5?$AA?$AA@ 1006c3cc     libucrt:report_runtime_error.obj
 0002:0000840c       ?ccs@?BL@???$__acrt_stdio_parse_mode@D@@YA?AU__acrt_stdio_stream_mode@@QBD@Z@4QBDB 1006c40c     libucrt:openfile.obj
 0002:00008410       ?utf8_encoding@?BL@???$__acrt_stdio_parse_mode@D@@YA?AU__acrt_stdio_stream_mode@@QBD@Z@4QBDB 1006c410     libucrt:openfile.obj
 0002:00008418       ?utf16_encoding@?BL@???$__acrt_stdio_parse_mode@D@@YA?AU__acrt_stdio_stream_mode@@QBD@Z@4QBDB 1006c418     libucrt:openfile.obj
 0002:00008424       ?unicode_encoding@?BL@???$__acrt_stdio_parse_mode@D@@YA?AU__acrt_stdio_stream_mode@@QBD@Z@4QBDB 1006c424     libucrt:openfile.obj
 0002:0000842c       ?ccs@?BL@???$__acrt_stdio_parse_mode@_W@@YA?AU__acrt_stdio_stream_mode@@QB_W@Z@4QB_WB 1006c42c     libucrt:openfile.obj
 0002:00008434       ?utf8_encoding@?BL@???$__acrt_stdio_parse_mode@_W@@YA?AU__acrt_stdio_stream_mode@@QB_W@Z@4QB_WB 1006c434     libucrt:openfile.obj
 0002:00008440       ?utf16_encoding@?BL@???$__acrt_stdio_parse_mode@_W@@YA?AU__acrt_stdio_stream_mode@@QB_W@Z@4QB_WB 1006c440     libucrt:openfile.obj
 0002:00008454       ?unicode_encoding@?BL@???$__acrt_stdio_parse_mode@_W@@YA?AU__acrt_stdio_stream_mode@@QB_W@Z@4QB_WB 1006c454     libucrt:openfile.obj
 0002:00008468       __d_inf                    1006c468     libucrt:util.obj
 0002:00008478       __d_ind                    1006c478     libucrt:util.obj
 0002:00008488       __d_max                    1006c488     libucrt:util.obj
 0002:00008498       __d_min                    1006c498     libucrt:util.obj
 0002:000084a8       __d_mzero                  1006c4a8     libucrt:util.obj
 0002:000084e8       ??_C@_1M@HPNHIDJI@?$AAj?$AAa?$AA?9?$AAJ?$AAP?$AA?$AA@ 1006c4e8     libucrt:mbctype.obj
 0002:000084f8       ??_C@_1M@BIBDDEMK@?$AAz?$AAh?$AA?9?$AAC?$AAN?$AA?$AA@ 1006c4f8     libucrt:mbctype.obj
 0002:00008508       ??_C@_1M@JLOOOEGK@?$AAk?$AAo?$AA?9?$AAK?$AAR?$AA?$AA@ 1006c508     libucrt:mbctype.obj
 0002:00008518       ??_C@_1M@CLNBBOPM@?$AAz?$AAh?$AA?9?$AAT?$AAW?$AA?$AA@ 1006c518     libucrt:mbctype.obj
 0002:00008528       __wctype                   1006c528     libucrt:ctype.obj
 0002:00008798       ___newctype                1006c798     libucrt:ctype.obj
 0002:00008b38       ___newclmap                1006cb38     libucrt:ctype.obj
 0002:00008d08       ___newcumap                1006cd08     libucrt:ctype.obj
 0002:00009764       ??_C@_15EMKDOKLE@?$AAa?$AAr?$AA?$AA@ 1006d764     libucrt:lcidtoname_downlevel.obj
 0002:0000976c       ??_C@_15KNPADPLH@?$AAb?$AAg?$AA?$AA@ 1006d76c     libucrt:lcidtoname_downlevel.obj
 0002:00009774       ??_C@_15EDMHLDMO@?$AAc?$AAa?$AA?$AA@ 1006d774     libucrt:lcidtoname_downlevel.obj
 0002:0000977c       ??_C@_1O@BPEAJADD@?$AAz?$AAh?$AA?9?$AAC?$AAH?$AAS?$AA?$AA@ 1006d77c     libucrt:lcidtoname_downlevel.obj
 0002:0000978c       ??_C@_15LJNHCMNK@?$AAc?$AAs?$AA?$AA@ 1006d78c     libucrt:lcidtoname_downlevel.obj
 0002:00009794       ??_C@_15FOMCIDHG@?$AAd?$AAa?$AA?$AA@ 1006d794     libucrt:lcidtoname_downlevel.obj
 0002:0000979c       ??_C@_15NBKABECB@?$AAd?$AAe?$AA?$AA@ 1006d79c     libucrt:lcidtoname_downlevel.obj
 0002:000097a4       ??_C@_15GHPEIIAO@?$AAe?$AAl?$AA?$AA@ 1006d7a4     libucrt:lcidtoname_downlevel.obj
 0002:000097ac       ??_C@_15MNPNEAIF@?$AAe?$AAn?$AA?$AA@ 1006d7ac     libucrt:lcidtoname_downlevel.obj
 0002:000097b4       ??_C@_15GPIOMPMH@?$AAe?$AAs?$AA?$AA@ 1006d7b4     libucrt:lcidtoname_downlevel.obj
 0002:000097bc       ??_C@_15NGLOAKJC@?$AAf?$AAi?$AA?$AA@ 1006d7bc     libucrt:lcidtoname_downlevel.obj
 0002:000097c4       ??_C@_15FBKGNKAM@?$AAf?$AAr?$AA?$AA@ 1006d7c4     libucrt:lcidtoname_downlevel.obj
 0002:000097cc       ??_C@_15KGGCNEFK@?$AAh?$AAe?$AA?$AA@ 1006d7cc     libucrt:lcidtoname_downlevel.obj
 0002:000097d4       ??_C@_15PGHLIDMF@?$AAh?$AAu?$AA?$AA@ 1006d7d4     libucrt:lcidtoname_downlevel.obj
 0002:000097dc       ??_C@_15BIEMAPLM@?$AAi?$AAs?$AA?$AA@ 1006d7dc     libucrt:lcidtoname_downlevel.obj
 0002:000097e4       ??_C@_15IFJLDHAF@?$AAi?$AAt?$AA?$AA@ 1006d7e4     libucrt:lcidtoname_downlevel.obj
 0002:000097ec       ??_C@_15GEMIOCAG@?$AAj?$AAa?$AA?$AA@ 1006d7ec     libucrt:lcidtoname_downlevel.obj
 0002:000097f4       ??_C@_15EPELEGJA@?$AAk?$AAo?$AA?$AA@ 1006d7f4     libucrt:lcidtoname_downlevel.obj
 0002:000097fc       ??_C@_15NDDHIMN@?$AAn?$AAl?$AA?$AA@ 1006d7fc     libucrt:lcidtoname_downlevel.obj
 0002:00009804       ??_C@_15BPIGNHCD@?$AAn?$AAo?$AA?$AA@ 1006d804     libucrt:lcidtoname_downlevel.obj
 0002:0000980c       ??_C@_15DEOPBLCG@?$AAp?$AAl?$AA?$AA@ 1006d80c     libucrt:lcidtoname_downlevel.obj
 0002:00009814       ??_C@_15KBECGEFG@?$AAp?$AAt?$AA?$AA@ 1006d814     libucrt:lcidtoname_downlevel.obj
 0002:0000981c       ??_C@_15GLJCBFMD@?$AAr?$AAo?$AA?$AA@ 1006d81c     libucrt:lcidtoname_downlevel.obj
 0002:00009824       ??_C@_15FEDGKCDI@?$AAr?$AAu?$AA?$AA@ 1006d824     libucrt:lcidtoname_downlevel.obj
 0002:0000982c       ??_C@_15GLKMLLHM@?$AAh?$AAr?$AA?$AA@ 1006d82c     libucrt:lcidtoname_downlevel.obj
 0002:00009834       ??_C@_15CPKMFBDB@?$AAs?$AAk?$AA?$AA@ 1006d834     libucrt:lcidtoname_downlevel.obj
 0002:0000983c       ??_C@_15BAAIOGMK@?$AAs?$AAq?$AA?$AA@ 1006d83c     libucrt:lcidtoname_downlevel.obj
 0002:00009844       ??_C@_15INNPNOHD@?$AAs?$AAv?$AA?$AA@ 1006d844     libucrt:lcidtoname_downlevel.obj
 0002:0000984c       ??_C@_15CABMMOGH@?$AAt?$AAh?$AA?$AA@ 1006d84c     libucrt:lcidtoname_downlevel.obj
 0002:00009854       ??_C@_15BPLIHJJM@?$AAt?$AAr?$AA?$AA@ 1006d854     libucrt:lcidtoname_downlevel.obj
 0002:0000985c       ??_C@_15NEOEKKDJ@?$AAu?$AAr?$AA?$AA@ 1006d85c     libucrt:lcidtoname_downlevel.obj
 0002:00009864       ??_C@_15NFICGAJK@?$AAi?$AAd?$AA?$AA@ 1006d864     libucrt:lcidtoname_downlevel.obj
 0002:0000986c       ??_C@_15PJPFLCCM@?$AAu?$AAk?$AA?$AA@ 1006d86c     libucrt:lcidtoname_downlevel.obj
 0002:00009874       ??_C@_15HPJPHDM@?$AAb?$AAe?$AA?$AA@ 1006d874     libucrt:lcidtoname_downlevel.obj
 0002:0000987c       ??_C@_15LCHLGJII@?$AAs?$AAl?$AA?$AA@ 1006d87c     libucrt:lcidtoname_downlevel.obj
 0002:00009884       ??_C@_15PCFJPHHO@?$AAe?$AAt?$AA?$AA@ 1006d884     libucrt:lcidtoname_downlevel.obj
 0002:0000988c       ??_C@_15HPFPGODN@?$AAl?$AAv?$AA?$AA@ 1006d88c     libucrt:lcidtoname_downlevel.obj
 0002:00009894       ??_C@_15NFFGKGLG@?$AAl?$AAt?$AA?$AA@ 1006d894     libucrt:lcidtoname_downlevel.obj
 0002:0000989c       ??_C@_15BDAKCCHN@?$AAf?$AAa?$AA?$AA@ 1006d89c     libucrt:lcidtoname_downlevel.obj
 0002:000098a4       ??_C@_15NFGIAIAJ@?$AAv?$AAi?$AA?$AA@ 1006d8a4     libucrt:lcidtoname_downlevel.obj
 0002:000098ac       ??_C@_15LMKNDMHN@?$AAh?$AAy?$AA?$AA@ 1006d8ac     libucrt:lcidtoname_downlevel.obj
 0002:000098b4       ??_C@_15IJBHMCFL@?$AAa?$AAz?$AA?$AA@ 1006d8b4     libucrt:lcidtoname_downlevel.obj
 0002:000098bc       ??_C@_15EKOFJABL@?$AAe?$AAu?$AA?$AA@ 1006d8bc     libucrt:lcidtoname_downlevel.obj
 0002:000098c4       ??_C@_15BGHADCNK@?$AAm?$AAk?$AA?$AA@ 1006d8c4     libucrt:lcidtoname_downlevel.obj
 0002:000098cc       ??_C@_15JDNICKHM@?$AAa?$AAf?$AA?$AA@ 1006d8cc     libucrt:lcidtoname_downlevel.obj
 0002:000098d4       ??_C@_15KPJEDBKD@?$AAk?$AAa?$AA?$AA@ 1006d8d4     libucrt:lcidtoname_downlevel.obj
 0002:000098dc       ??_C@_15PDNFFFEO@?$AAf?$AAo?$AA?$AA@ 1006d8dc     libucrt:lcidtoname_downlevel.obj
 0002:000098e4       ??_C@_15OMLEGLOC@?$AAh?$AAi?$AA?$AA@ 1006d8e4     libucrt:lcidtoname_downlevel.obj
 0002:000098ec       ??_C@_15IDNNENKK@?$AAm?$AAs?$AA?$AA@ 1006d8ec     libucrt:lcidtoname_downlevel.obj
 0002:000098f4       ??_C@_15MACJNBMH@?$AAk?$AAk?$AA?$AA@ 1006d8f4     libucrt:lcidtoname_downlevel.obj
 0002:000098fc       ??_C@_15DKDJEOND@?$AAk?$AAy?$AA?$AA@ 1006d8fc     libucrt:lcidtoname_downlevel.obj
 0002:00009904       ??_C@_15DFGDLJBG@?$AAs?$AAw?$AA?$AA@ 1006d904     libucrt:lcidtoname_downlevel.obj
 0002:0000990c       ??_C@_15BBFAICNG@?$AAu?$AAz?$AA?$AA@ 1006d90c     libucrt:lcidtoname_downlevel.obj
 0002:00009914       ??_C@_15DKNDCGEA@?$AAt?$AAt?$AA?$AA@ 1006d914     libucrt:lcidtoname_downlevel.obj
 0002:0000991c       ??_C@_15MGIFMDPL@?$AAp?$AAa?$AA?$AA@ 1006d91c     libucrt:lcidtoname_downlevel.obj
 0002:00009924       ??_C@_15HCNDBBA@?$AAg?$AAu?$AA?$AA@ 1006d924     libucrt:lcidtoname_downlevel.obj
 0002:0000992c       ??_C@_15FNBEIBON@?$AAt?$AAa?$AA?$AA@ 1006d92c     libucrt:lcidtoname_downlevel.obj
 0002:00009934       ??_C@_15NCHGBGLK@?$AAt?$AAe?$AA?$AA@ 1006d934     libucrt:lcidtoname_downlevel.obj
 0002:0000993c       ??_C@_15PHPHCBPF@?$AAk?$AAn?$AA?$AA@ 1006d93c     libucrt:lcidtoname_downlevel.obj
 0002:00009944       ??_C@_15DLGBCKMP@?$AAm?$AAr?$AA?$AA@ 1006d944     libucrt:lcidtoname_downlevel.obj
 0002:0000994c       ??_C@_15EABBLBFF@?$AAs?$AAa?$AA?$AA@ 1006d94c     libucrt:lcidtoname_downlevel.obj
 0002:00009954       ??_C@_15CBKOMCOI@?$AAm?$AAn?$AA?$AA@ 1006d954     libucrt:lcidtoname_downlevel.obj
 0002:0000995c       ??_C@_15CKDMCJAF@?$AAg?$AAl?$AA?$AA@ 1006d95c     libucrt:lcidtoname_downlevel.obj
 0002:00009964       ??_C@_17CNJFBPG@?$AAk?$AAo?$AAk?$AA?$AA@ 1006d964     libucrt:lcidtoname_downlevel.obj
 0002:00009970       ??_C@_17FFBJICPL@?$AAs?$AAy?$AAr?$AA?$AA@ 1006d970     libucrt:lcidtoname_downlevel.obj
 0002:0000997c       ??_C@_17KPNDCPAF@?$AAd?$AAi?$AAv?$AA?$AA@ 1006d97c     libucrt:lcidtoname_downlevel.obj
 0002:00009988       ??_C@_11LOCGONAA@?$AA?$AA@ 1006d988     libucrt:lcidtoname_downlevel.obj
 0002:0000998c       ??_C@_1M@OKAHONE@?$AAa?$AAr?$AA?9?$AAS?$AAA?$AA?$AA@ 1006d98c     libucrt:lcidtoname_downlevel.obj
 0002:0000999c       ??_C@_1M@FFFIGIGK@?$AAb?$AAg?$AA?9?$AAB?$AAG?$AA?$AA@ 1006d99c     libucrt:lcidtoname_downlevel.obj
 0002:000099ac       ??_C@_1M@BJNKEDC@?$AAc?$AAa?$AA?9?$AAE?$AAS?$AA?$AA@ 1006d9ac     libucrt:lcidtoname_downlevel.obj
 0002:000099bc       ??_C@_1M@IJJHFJHA@?$AAc?$AAs?$AA?9?$AAC?$AAZ?$AA?$AA@ 1006d9bc     libucrt:lcidtoname_downlevel.obj
 0002:000099cc       ??_C@_1M@CLPEOBGI@?$AAd?$AAa?$AA?9?$AAD?$AAK?$AA?$AA@ 1006d9cc     libucrt:lcidtoname_downlevel.obj
 0002:000099dc       ??_C@_1M@MCMADGCB@?$AAd?$AAe?$AA?9?$AAD?$AAE?$AA?$AA@ 1006d9dc     libucrt:lcidtoname_downlevel.obj
 0002:000099ec       ??_C@_1M@OOCKEMAM@?$AAe?$AAl?$AA?9?$AAG?$AAR?$AA?$AA@ 1006d9ec     libucrt:lcidtoname_downlevel.obj
 0002:000099fc       ??_C@_1M@DDNJFGID@?$AAf?$AAi?$AA?9?$AAF?$AAI?$AA?$AA@ 1006d9fc     libucrt:lcidtoname_downlevel.obj
 0002:00009a0c       ??_C@_1M@GLIPPMAC@?$AAf?$AAr?$AA?9?$AAF?$AAR?$AA?$AA@ 1006da0c     libucrt:lcidtoname_downlevel.obj
 0002:00009a1c       ??_C@_1M@GFMCHPE@?$AAh?$AAe?$AA?9?$AAI?$AAL?$AA?$AA@ 1006da1c     libucrt:lcidtoname_downlevel.obj
 0002:00009a2c       ??_C@_1M@MHLPGNKM@?$AAh?$AAu?$AA?9?$AAH?$AAU?$AA?$AA@ 1006da2c     libucrt:lcidtoname_downlevel.obj
 0002:00009a3c       ??_C@_1M@LPDDNNPN@?$AAi?$AAs?$AA?9?$AAI?$AAS?$AA?$AA@ 1006da3c     libucrt:lcidtoname_downlevel.obj
 0002:00009a4c       ??_C@_1M@MADIPODN@?$AAi?$AAt?$AA?9?$AAI?$AAT?$AA?$AA@ 1006da4c     libucrt:lcidtoname_downlevel.obj
 0002:00009a5c       ??_C@_1M@IHBJJGG@?$AAn?$AAl?$AA?9?$AAN?$AAL?$AA?$AA@ 1006da5c     libucrt:lcidtoname_downlevel.obj
 0002:00009a6c       ??_C@_1M@EANAGDL@?$AAn?$AAb?$AA?9?$AAN?$AAO?$AA?$AA@ 1006da6c     libucrt:lcidtoname_downlevel.obj
 0002:00009a7c       ??_C@_1M@NEIEMEGP@?$AAp?$AAl?$AA?9?$AAP?$AAL?$AA?$AA@ 1006da7c     libucrt:lcidtoname_downlevel.obj
 0002:00009a8c       ??_C@_1M@BOCFIGEP@?$AAp?$AAt?$AA?9?$AAB?$AAR?$AA?$AA@ 1006da8c     libucrt:lcidtoname_downlevel.obj
 0002:00009a9c       ??_C@_1M@IMPFOPBG@?$AAr?$AAo?$AA?9?$AAR?$AAO?$AA?$AA@ 1006da9c     libucrt:lcidtoname_downlevel.obj
 0002:00009aac       ??_C@_1M@IDNNEJMM@?$AAr?$AAu?$AA?9?$AAR?$AAU?$AA?$AA@ 1006daac     libucrt:lcidtoname_downlevel.obj
 0002:00009abc       ??_C@_1M@LILEEOGM@?$AAh?$AAr?$AA?9?$AAH?$AAR?$AA?$AA@ 1006dabc     libucrt:lcidtoname_downlevel.obj
 0002:00009acc       ??_C@_1M@FKIFEHPB@?$AAs?$AAk?$AA?9?$AAS?$AAK?$AA?$AA@ 1006dacc     libucrt:lcidtoname_downlevel.obj
 0002:00009adc       ??_C@_1M@LJMAMNPJ@?$AAs?$AAq?$AA?9?$AAA?$AAL?$AA?$AA@ 1006dadc     libucrt:lcidtoname_downlevel.obj
 0002:00009aec       ??_C@_1M@GIAKDKJK@?$AAs?$AAv?$AA?9?$AAS?$AAE?$AA?$AA@ 1006daec     libucrt:lcidtoname_downlevel.obj
 0002:00009afc       ??_C@_1M@MKJKIKCL@?$AAt?$AAh?$AA?9?$AAT?$AAH?$AA?$AA@ 1006dafc     libucrt:lcidtoname_downlevel.obj
 0002:00009b0c       ??_C@_1M@MFLCCMPB@?$AAt?$AAr?$AA?9?$AAT?$AAR?$AA?$AA@ 1006db0c     libucrt:lcidtoname_downlevel.obj
 0002:00009b1c       ??_C@_1M@OIJHDKJN@?$AAu?$AAr?$AA?9?$AAP?$AAK?$AA?$AA@ 1006db1c     libucrt:lcidtoname_downlevel.obj
 0002:00009b2c       ??_C@_1M@LHIPCIEK@?$AAi?$AAd?$AA?9?$AAI?$AAD?$AA?$AA@ 1006db2c     libucrt:lcidtoname_downlevel.obj
 0002:00009b3c       ??_C@_1M@MFMOBGI@?$AAu?$AAk?$AA?9?$AAU?$AAA?$AA?$AA@ 1006db3c     libucrt:lcidtoname_downlevel.obj
 0002:00009b4c       ??_C@_1M@OBGLJIPL@?$AAb?$AAe?$AA?9?$AAB?$AAY?$AA?$AA@ 1006db4c     libucrt:lcidtoname_downlevel.obj
 0002:00009b5c       ??_C@_1M@BCFAJEAD@?$AAs?$AAl?$AA?9?$AAS?$AAI?$AA?$AA@ 1006db5c     libucrt:lcidtoname_downlevel.obj
 0002:00009b6c       ??_C@_1M@FKFFEDDN@?$AAe?$AAt?$AA?9?$AAE?$AAE?$AA?$AA@ 1006db6c     libucrt:lcidtoname_downlevel.obj
 0002:00009b7c       ??_C@_1M@KGKKAACI@?$AAl?$AAv?$AA?9?$AAL?$AAV?$AA?$AA@ 1006db7c     libucrt:lcidtoname_downlevel.obj
 0002:00009b8c       ??_C@_1M@IFGBIJO@?$AAl?$AAt?$AA?9?$AAL?$AAT?$AA?$AA@ 1006db8c     libucrt:lcidtoname_downlevel.obj
 0002:00009b9c       ??_C@_1M@FGEAHEDM@?$AAf?$AAa?$AA?9?$AAI?$AAR?$AA?$AA@ 1006db9c     libucrt:lcidtoname_downlevel.obj
 0002:00009bac       ??_C@_1M@KBMAIBFN@?$AAv?$AAi?$AA?9?$AAV?$AAN?$AA?$AA@ 1006dbac     libucrt:lcidtoname_downlevel.obj
 0002:00009bbc       ??_C@_1M@GPCBKDJK@?$AAh?$AAy?$AA?9?$AAA?$AAM?$AA?$AA@ 1006dbbc     libucrt:lcidtoname_downlevel.obj
 0002:00009bcc       ??_C@_1BG@BECMDDJB@?$AAa?$AAz?$AA?9?$AAA?$AAZ?$AA?9?$AAL?$AAa?$AAt?$AAn?$AA?$AA@ 1006dbcc     libucrt:lcidtoname_downlevel.obj
 0002:00009be8       ??_C@_1M@MAOFCAEA@?$AAe?$AAu?$AA?9?$AAE?$AAS?$AA?$AA@ 1006dbe8     libucrt:lcidtoname_downlevel.obj
 0002:00009bf8       ??_C@_1M@IGHABKPI@?$AAm?$AAk?$AA?9?$AAM?$AAK?$AA?$AA@ 1006dbf8     libucrt:lcidtoname_downlevel.obj
 0002:00009c08       ??_C@_1M@IAIGNEJG@?$AAt?$AAn?$AA?9?$AAZ?$AAA?$AA?$AA@ 1006dc08     libucrt:lcidtoname_downlevel.obj
 0002:00009c18       ??_C@_1M@IIJCOJFA@?$AAx?$AAh?$AA?9?$AAZ?$AAA?$AA?$AA@ 1006dc18     libucrt:lcidtoname_downlevel.obj
 0002:00009c28       ??_C@_1M@LGPJHNJH@?$AAz?$AAu?$AA?9?$AAZ?$AAA?$AA?$AA@ 1006dc28     libucrt:lcidtoname_downlevel.obj
 0002:00009c38       ??_C@_1M@HOKAOIO@?$AAa?$AAf?$AA?9?$AAZ?$AAA?$AA?$AA@ 1006dc38     libucrt:lcidtoname_downlevel.obj
 0002:00009c48       ??_C@_1M@DPCLHLIE@?$AAk?$AAa?$AA?9?$AAG?$AAE?$AA?$AA@ 1006dc48     libucrt:lcidtoname_downlevel.obj
 0002:00009c58       ??_C@_1M@BLKMHJBI@?$AAf?$AAo?$AA?9?$AAF?$AAO?$AA?$AA@ 1006dc58     libucrt:lcidtoname_downlevel.obj
 0002:00009c68       ??_C@_1M@LGGJAPPB@?$AAh?$AAi?$AA?9?$AAI?$AAN?$AA?$AA@ 1006dc68     libucrt:lcidtoname_downlevel.obj
 0002:00009c78       ??_C@_1M@FIKPIHFE@?$AAm?$AAt?$AA?9?$AAM?$AAT?$AA?$AA@ 1006dc78     libucrt:lcidtoname_downlevel.obj
 0002:00009c88       ??_C@_1M@HEGGPBFA@?$AAs?$AAe?$AA?9?$AAN?$AAO?$AA?$AA@ 1006dc88     libucrt:lcidtoname_downlevel.obj
 0002:00009c98       ??_C@_1M@EIBJEEPA@?$AAm?$AAs?$AA?9?$AAM?$AAY?$AA?$AA@ 1006dc98     libucrt:lcidtoname_downlevel.obj
 0002:00009ca8       ??_C@_1M@FHLBGMPP@?$AAk?$AAk?$AA?9?$AAK?$AAZ?$AA?$AA@ 1006dca8     libucrt:lcidtoname_downlevel.obj
 0002:00009cb8       ??_C@_1M@NGJJLCGI@?$AAk?$AAy?$AA?9?$AAK?$AAG?$AA?$AA@ 1006dcb8     libucrt:lcidtoname_downlevel.obj
 0002:00009cc8       ??_C@_1M@GIENNBFC@?$AAs?$AAw?$AA?9?$AAK?$AAE?$AA?$AA@ 1006dcc8     libucrt:lcidtoname_downlevel.obj
 0002:00009cd8       ??_C@_1BG@NDGMJIMJ@?$AAu?$AAz?$AA?9?$AAU?$AAZ?$AA?9?$AAL?$AAa?$AAt?$AAn?$AA?$AA@ 1006dcd8     libucrt:lcidtoname_downlevel.obj
 0002:00009cf4       ??_C@_1M@IDCCIHBC@?$AAt?$AAt?$AA?9?$AAR?$AAU?$AA?$AA@ 1006dcf4     libucrt:lcidtoname_downlevel.obj
 0002:00009d04       ??_C@_1M@LOICPMOJ@?$AAb?$AAn?$AA?9?$AAI?$AAN?$AA?$AA@ 1006dd04     libucrt:lcidtoname_downlevel.obj
 0002:00009d14       ??_C@_1M@KPKKNEAH@?$AAp?$AAa?$AA?9?$AAI?$AAN?$AA?$AA@ 1006dd14     libucrt:lcidtoname_downlevel.obj
 0002:00009d24       ??_C@_1M@PJGPPBOG@?$AAg?$AAu?$AA?9?$AAI?$AAN?$AA?$AA@ 1006dd24     libucrt:lcidtoname_downlevel.obj
 0002:00009d34       ??_C@_1M@KMKMOPHI@?$AAt?$AAa?$AA?9?$AAI?$AAN?$AA?$AA@ 1006dd34     libucrt:lcidtoname_downlevel.obj
 0002:00009d44       ??_C@_1M@KFEHEPAC@?$AAt?$AAe?$AA?9?$AAI?$AAN?$AA?$AA@ 1006dd44     libucrt:lcidtoname_downlevel.obj
 0002:00009d54       ??_C@_1M@CDCLMGHI@?$AAk?$AAn?$AA?9?$AAI?$AAN?$AA?$AA@ 1006dd54     libucrt:lcidtoname_downlevel.obj
 0002:00009d64       ??_C@_1M@MIODLDKF@?$AAm?$AAl?$AA?9?$AAI?$AAN?$AA?$AA@ 1006dd64     libucrt:lcidtoname_downlevel.obj
 0002:00009d74       ??_C@_1M@PBIEACPO@?$AAm?$AAr?$AA?9?$AAI?$AAN?$AA?$AA@ 1006dd74     libucrt:lcidtoname_downlevel.obj
 0002:00009d84       ??_C@_1M@NIDEAGPH@?$AAs?$AAa?$AA?9?$AAI?$AAN?$AA?$AA@ 1006dd84     libucrt:lcidtoname_downlevel.obj
 0002:00009d94       ??_C@_1M@FHIHCBIO@?$AAm?$AAn?$AA?9?$AAM?$AAN?$AA?$AA@ 1006dd94     libucrt:lcidtoname_downlevel.obj
 0002:00009da4       ??_C@_1M@JAIJPENP@?$AAc?$AAy?$AA?9?$AAG?$AAB?$AA?$AA@ 1006dda4     libucrt:lcidtoname_downlevel.obj
 0002:00009db4       ??_C@_1M@PHGFBEPN@?$AAg?$AAl?$AA?9?$AAE?$AAS?$AA?$AA@ 1006ddb4     libucrt:lcidtoname_downlevel.obj
 0002:00009dc4       ??_C@_1O@KPIPDNCP@?$AAk?$AAo?$AAk?$AA?9?$AAI?$AAN?$AA?$AA@ 1006ddc4     libucrt:lcidtoname_downlevel.obj
 0002:00009dd4       ??_C@_1O@KNHJLDJA@?$AAs?$AAy?$AAr?$AA?9?$AAS?$AAY?$AA?$AA@ 1006ddd4     libucrt:lcidtoname_downlevel.obj
 0002:00009de4       ??_C@_1O@MKEKBLAH@?$AAd?$AAi?$AAv?$AA?9?$AAM?$AAV?$AA?$AA@ 1006dde4     libucrt:lcidtoname_downlevel.obj
 0002:00009df4       ??_C@_1O@OHDCKDDF@?$AAq?$AAu?$AAz?$AA?9?$AAB?$AAO?$AA?$AA@ 1006ddf4     libucrt:lcidtoname_downlevel.obj
 0002:00009e04       ??_C@_1M@LEPJNLFD@?$AAn?$AAs?$AA?9?$AAZ?$AAA?$AA?$AA@ 1006de04     libucrt:lcidtoname_downlevel.obj
 0002:00009e14       ??_C@_1M@OMLEIIJB@?$AAm?$AAi?$AA?9?$AAN?$AAZ?$AA?$AA@ 1006de14     libucrt:lcidtoname_downlevel.obj
 0002:00009e24       ??_C@_1M@PMPEAILG@?$AAa?$AAr?$AA?9?$AAI?$AAQ?$AA?$AA@ 1006de24     libucrt:lcidtoname_downlevel.obj
 0002:00009e34       ??_C@_1M@CNKPNOEE@?$AAd?$AAe?$AA?9?$AAC?$AAH?$AA?$AA@ 1006de34     libucrt:lcidtoname_downlevel.obj
 0002:00009e44       ??_C@_1M@LKMGMLKO@?$AAe?$AAn?$AA?9?$AAG?$AAB?$AA?$AA@ 1006de44     libucrt:lcidtoname_downlevel.obj
 0002:00009e54       ??_C@_1M@PGKJFFGL@?$AAe?$AAs?$AA?9?$AAM?$AAX?$AA?$AA@ 1006de54     libucrt:lcidtoname_downlevel.obj
 0002:00009e64       ??_C@_1M@DNNANBDC@?$AAf?$AAr?$AA?9?$AAB?$AAE?$AA?$AA@ 1006de64     libucrt:lcidtoname_downlevel.obj
 0002:00009e74       ??_C@_1M@HLGMDFHM@?$AAi?$AAt?$AA?9?$AAC?$AAH?$AA?$AA@ 1006de74     libucrt:lcidtoname_downlevel.obj
 0002:00009e84       ??_C@_1M@CLLBGJH@?$AAn?$AAl?$AA?9?$AAB?$AAE?$AA?$AA@ 1006de84     libucrt:lcidtoname_downlevel.obj
 0002:00009e94       ??_C@_1M@BODBOGLF@?$AAn?$AAn?$AA?9?$AAN?$AAO?$AA?$AA@ 1006de94     libucrt:lcidtoname_downlevel.obj
 0002:00009ea4       ??_C@_1M@HFFAHKAD@?$AAp?$AAt?$AA?9?$AAP?$AAT?$AA?$AA@ 1006dea4     libucrt:lcidtoname_downlevel.obj
 0002:00009eb4       ??_C@_1BG@LNOAKHIE@?$AAs?$AAr?$AA?9?$AAS?$AAP?$AA?9?$AAL?$AAa?$AAt?$AAn?$AA?$AA@ 1006deb4     libucrt:lcidtoname_downlevel.obj
 0002:00009ed0       ??_C@_1M@HBMHBGAK@?$AAs?$AAv?$AA?9?$AAF?$AAI?$AA?$AA@ 1006ded0     libucrt:lcidtoname_downlevel.obj
 0002:00009ee0       ??_C@_1BG@DGCJGJBE@?$AAa?$AAz?$AA?9?$AAA?$AAZ?$AA?9?$AAC?$AAy?$AAr?$AAl?$AA?$AA@ 1006dee0     libucrt:lcidtoname_downlevel.obj
 0002:00009efc       ??_C@_1M@KEJDAAHB@?$AAs?$AAe?$AA?9?$AAS?$AAE?$AA?$AA@ 1006defc     libucrt:lcidtoname_downlevel.obj
 0002:00009f0c       ??_C@_1M@HEIBJJAD@?$AAm?$AAs?$AA?9?$AAB?$AAN?$AA?$AA@ 1006df0c     libucrt:lcidtoname_downlevel.obj
 0002:00009f1c       ??_C@_1BG@PBGJMCEM@?$AAu?$AAz?$AA?9?$AAU?$AAZ?$AA?9?$AAC?$AAy?$AAr?$AAl?$AA?$AA@ 1006df1c     libucrt:lcidtoname_downlevel.obj
 0002:00009f38       ??_C@_1O@LAOBCMDF@?$AAq?$AAu?$AAz?$AA?9?$AAE?$AAC?$AA?$AA@ 1006df38     libucrt:lcidtoname_downlevel.obj
 0002:00009f48       ??_C@_1M@POEEMAIO@?$AAa?$AAr?$AA?9?$AAE?$AAG?$AA?$AA@ 1006df48     libucrt:lcidtoname_downlevel.obj
 0002:00009f58       ??_C@_1M@EFAKDEDL@?$AAz?$AAh?$AA?9?$AAH?$AAK?$AA?$AA@ 1006df58     libucrt:lcidtoname_downlevel.obj
 0002:00009f68       ??_C@_1M@HKKIJHGI@?$AAd?$AAe?$AA?9?$AAA?$AAT?$AA?$AA@ 1006df68     libucrt:lcidtoname_downlevel.obj
 0002:00009f78       ??_C@_1M@KBFBEHJF@?$AAe?$AAn?$AA?9?$AAA?$AAU?$AA?$AA@ 1006df78     libucrt:lcidtoname_downlevel.obj
 0002:00009f88       ??_C@_1M@MNPLFAAH@?$AAe?$AAs?$AA?9?$AAE?$AAS?$AA?$AA@ 1006df88     libucrt:lcidtoname_downlevel.obj
 0002:00009f98       ??_C@_1M@HJOOJFMA@?$AAf?$AAr?$AA?9?$AAC?$AAA?$AA?$AA@ 1006df98     libucrt:lcidtoname_downlevel.obj
 0002:00009fa8       ??_C@_1BG@JPOFPNAB@?$AAs?$AAr?$AA?9?$AAS?$AAP?$AA?9?$AAC?$AAy?$AAr?$AAl?$AA?$AA@ 1006dfa8     libucrt:lcidtoname_downlevel.obj
 0002:00009fc4       ??_C@_1M@LNFOCMOB@?$AAs?$AAe?$AA?9?$AAF?$AAI?$AA?$AA@ 1006dfc4     libucrt:lcidtoname_downlevel.obj
 0002:00009fd4       ??_C@_1O@MGJBOAMB@?$AAq?$AAu?$AAz?$AA?9?$AAP?$AAE?$AA?$AA@ 1006dfd4     libucrt:lcidtoname_downlevel.obj
 0002:00009fe4       ??_C@_1M@GJINLBOK@?$AAa?$AAr?$AA?9?$AAL?$AAY?$AA?$AA@ 1006dfe4     libucrt:lcidtoname_downlevel.obj
 0002:00009ff4       ??_C@_1M@GGMNHJNL@?$AAz?$AAh?$AA?9?$AAS?$AAG?$AA?$AA@ 1006dff4     libucrt:lcidtoname_downlevel.obj
 0002:0000a004       ??_C@_1M@HOIKODND@?$AAd?$AAe?$AA?9?$AAL?$AAU?$AA?$AA@ 1006e004     libucrt:lcidtoname_downlevel.obj
 0002:0000a014       ??_C@_1M@DDOCCGFG@?$AAe?$AAn?$AA?9?$AAC?$AAA?$AA?$AA@ 1006e014     libucrt:lcidtoname_downlevel.obj
 0002:0000a024       ??_C@_1M@BNOEMJLF@?$AAe?$AAs?$AA?9?$AAG?$AAT?$AA?$AA@ 1006e024     libucrt:lcidtoname_downlevel.obj
 0002:0000a034       ??_C@_1M@EOGNKEK@?$AAf?$AAr?$AA?9?$AAC?$AAH?$AA?$AA@ 1006e034     libucrt:lcidtoname_downlevel.obj
 0002:0000a044       ??_C@_1M@FLIDJFHL@?$AAh?$AAr?$AA?9?$AAB?$AAA?$AA?$AA@ 1006e044     libucrt:lcidtoname_downlevel.obj
 0002:0000a054       ??_C@_1O@FMCELNAJ@?$AAs?$AAm?$AAj?$AA?9?$AAN?$AAO?$AA?$AA@ 1006e054     libucrt:lcidtoname_downlevel.obj
 0002:0000a064       ??_C@_1M@JHGLJMGJ@?$AAa?$AAr?$AA?9?$AAD?$AAZ?$AA?$AA@ 1006e064     libucrt:lcidtoname_downlevel.obj
 0002:0000a074       ??_C@_1M@JKKFDCNP@?$AAz?$AAh?$AA?9?$AAM?$AAO?$AA?$AA@ 1006e074     libucrt:lcidtoname_downlevel.obj
 0002:0000a084       ??_C@_1M@GEEFALPE@?$AAd?$AAe?$AA?9?$AAL?$AAI?$AA?$AA@ 1006e084     libucrt:lcidtoname_downlevel.obj
 0002:0000a094       ??_C@_1M@IGEOFBG@?$AAe?$AAn?$AA?9?$AAN?$AAZ?$AA?$AA@ 1006e094     libucrt:lcidtoname_downlevel.obj
 0002:0000a0a4       ??_C@_1M@KDBONEHP@?$AAe?$AAs?$AA?9?$AAC?$AAR?$AA?$AA@ 1006e0a4     libucrt:lcidtoname_downlevel.obj
 0002:0000a0b4       ??_C@_1M@FHMDOHNN@?$AAf?$AAr?$AA?9?$AAL?$AAU?$AA?$AA@ 1006e0b4     libucrt:lcidtoname_downlevel.obj
 0002:0000a0c4       ??_C@_1BG@NFKKMAFG@?$AAb?$AAs?$AA?9?$AAB?$AAA?$AA?9?$AAL?$AAa?$AAt?$AAn?$AA?$AA@ 1006e0c4     libucrt:lcidtoname_downlevel.obj
 0002:0000a0e0       ??_C@_1O@IMNBEMCI@?$AAs?$AAm?$AAj?$AA?9?$AAS?$AAE?$AA?$AA@ 1006e0e0     libucrt:lcidtoname_downlevel.obj
 0002:0000a0f0       ??_C@_1M@DHHMBNDP@?$AAa?$AAr?$AA?9?$AAM?$AAA?$AA?$AA@ 1006e0f0     libucrt:lcidtoname_downlevel.obj
 0002:0000a100       ??_C@_1M@BNBLJCGH@?$AAe?$AAn?$AA?9?$AAI?$AAE?$AA?$AA@ 1006e100     libucrt:lcidtoname_downlevel.obj
 0002:0000a110       ??_C@_1M@GEPAFMDL@?$AAe?$AAs?$AA?9?$AAP?$AAA?$AA?$AA@ 1006e110     libucrt:lcidtoname_downlevel.obj
 0002:0000a120       ??_C@_1M@OJONDMDL@?$AAf?$AAr?$AA?9?$AAM?$AAC?$AA?$AA@ 1006e120     libucrt:lcidtoname_downlevel.obj
 0002:0000a130       ??_C@_1BG@OBCNFJB@?$AAs?$AAr?$AA?9?$AAB?$AAA?$AA?9?$AAL?$AAa?$AAt?$AAn?$AA?$AA@ 1006e130     libucrt:lcidtoname_downlevel.obj
 0002:0000a14c       ??_C@_1O@KEMEEGPO@?$AAs?$AAm?$AAa?$AA?9?$AAN?$AAO?$AA?$AA@ 1006e14c     libucrt:lcidtoname_downlevel.obj
 0002:0000a15c       ??_C@_1M@ELMGFODK@?$AAa?$AAr?$AA?9?$AAT?$AAN?$AA?$AA@ 1006e15c     libucrt:lcidtoname_downlevel.obj
 0002:0000a16c       ??_C@_1M@BHDLHFAF@?$AAe?$AAn?$AA?9?$AAZ?$AAA?$AA?$AA@ 1006e16c     libucrt:lcidtoname_downlevel.obj
 0002:0000a17c       ??_C@_1M@BMGIGLIF@?$AAe?$AAs?$AA?9?$AAD?$AAO?$AA?$AA@ 1006e17c     libucrt:lcidtoname_downlevel.obj
 0002:0000a18c       ??_C@_1BG@CMBHIPBE@?$AAs?$AAr?$AA?9?$AAB?$AAA?$AA?9?$AAC?$AAy?$AAr?$AAl?$AA?$AA@ 1006e18c     libucrt:lcidtoname_downlevel.obj
 0002:0000a1a8       ??_C@_1O@HEDBLHNP@?$AAs?$AAm?$AAa?$AA?9?$AAS?$AAE?$AA?$AA@ 1006e1a8     libucrt:lcidtoname_downlevel.obj
 0002:0000a1b8       ??_C@_1M@DAGCADIM@?$AAa?$AAr?$AA?9?$AAO?$AAM?$AA?$AA@ 1006e1b8     libucrt:lcidtoname_downlevel.obj
 0002:0000a1c8       ??_C@_1M@FODLMICG@?$AAe?$AAn?$AA?9?$AAJ?$AAM?$AA?$AA@ 1006e1c8     libucrt:lcidtoname_downlevel.obj
 0002:0000a1d8       ??_C@_1M@DNMLCIHB@?$AAe?$AAs?$AA?9?$AAV?$AAE?$AA?$AA@ 1006e1d8     libucrt:lcidtoname_downlevel.obj
 0002:0000a1e8       ??_C@_1O@EOKHMKJK@?$AAs?$AAm?$AAs?$AA?9?$AAF?$AAI?$AA?$AA@ 1006e1e8     libucrt:lcidtoname_downlevel.obj
 0002:0000a1f8       ??_C@_1M@CAFJMKOF@?$AAa?$AAr?$AA?9?$AAY?$AAE?$AA?$AA@ 1006e1f8     libucrt:lcidtoname_downlevel.obj
 0002:0000a208       ??_C@_1M@CBFHIJLI@?$AAe?$AAn?$AA?9?$AAC?$AAB?$AA?$AA@ 1006e208     libucrt:lcidtoname_downlevel.obj
 0002:0000a218       ??_C@_1M@BGNFLDN@?$AAe?$AAs?$AA?9?$AAC?$AAO?$AA?$AA@ 1006e218     libucrt:lcidtoname_downlevel.obj
 0002:0000a228       ??_C@_1O@JMPHMAMC@?$AAs?$AAm?$AAn?$AA?9?$AAF?$AAI?$AA?$AA@ 1006e228     libucrt:lcidtoname_downlevel.obj
 0002:0000a238       ??_C@_1M@JLANABKE@?$AAa?$AAr?$AA?9?$AAS?$AAY?$AA?$AA@ 1006e238     libucrt:lcidtoname_downlevel.obj
 0002:0000a248       ??_C@_1M@HPKGCFGN@?$AAe?$AAn?$AA?9?$AAB?$AAZ?$AA?$AA@ 1006e248     libucrt:lcidtoname_downlevel.obj
 0002:0000a258       ??_C@_1M@OLJCMLGM@?$AAe?$AAs?$AA?9?$AAP?$AAE?$AA?$AA@ 1006e258     libucrt:lcidtoname_downlevel.obj
 0002:0000a268       ??_C@_1M@MKKGFKLE@?$AAa?$AAr?$AA?9?$AAJ?$AAO?$AA?$AA@ 1006e268     libucrt:lcidtoname_downlevel.obj
 0002:0000a278       ??_C@_1M@EKPGLDNI@?$AAe?$AAn?$AA?9?$AAT?$AAT?$AA?$AA@ 1006e278     libucrt:lcidtoname_downlevel.obj
 0002:0000a288       ??_C@_1M@OONGHFHE@?$AAe?$AAs?$AA?9?$AAA?$AAR?$AA?$AA@ 1006e288     libucrt:lcidtoname_downlevel.obj
 0002:0000a298       ??_C@_1M@OOJFGBHE@?$AAa?$AAr?$AA?9?$AAL?$AAB?$AA?$AA@ 1006e298     libucrt:lcidtoname_downlevel.obj
 0002:0000a2a8       ??_C@_1M@GCEJHNEG@?$AAe?$AAn?$AA?9?$AAZ?$AAW?$AA?$AA@ 1006e2a8     libucrt:lcidtoname_downlevel.obj
 0002:0000a2b8       ??_C@_1M@JNOCAHJI@?$AAe?$AAs?$AA?9?$AAE?$AAC?$AA?$AA@ 1006e2b8     libucrt:lcidtoname_downlevel.obj
 0002:0000a2c8       ??_C@_1M@JEFHPGGB@?$AAa?$AAr?$AA?9?$AAK?$AAW?$AA?$AA@ 1006e2c8     libucrt:lcidtoname_downlevel.obj
 0002:0000a2d8       ??_C@_1M@MLKIBJOJ@?$AAe?$AAn?$AA?9?$AAP?$AAH?$AA?$AA@ 1006e2d8     libucrt:lcidtoname_downlevel.obj
 0002:0000a2e8       ??_C@_1M@BDNIPEND@?$AAe?$AAs?$AA?9?$AAC?$AAL?$AA?$AA@ 1006e2e8     libucrt:lcidtoname_downlevel.obj
 0002:0000a2f8       ??_C@_1M@MPNMEKBD@?$AAa?$AAr?$AA?9?$AAA?$AAE?$AA?$AA@ 1006e2f8     libucrt:lcidtoname_downlevel.obj
 0002:0000a308       ??_C@_1M@KBJALCPI@?$AAe?$AAs?$AA?9?$AAU?$AAY?$AA?$AA@ 1006e308     libucrt:lcidtoname_downlevel.obj
 0002:0000a318       ??_C@_1M@LLCCOAGA@?$AAa?$AAr?$AA?9?$AAB?$AAH?$AA?$AA@ 1006e318     libucrt:lcidtoname_downlevel.obj
 0002:0000a328       ??_C@_1M@PBFNCDEL@?$AAe?$AAs?$AA?9?$AAP?$AAY?$AA?$AA@ 1006e328     libucrt:lcidtoname_downlevel.obj
 0002:0000a338       ??_C@_1M@EDGINPNP@?$AAa?$AAr?$AA?9?$AAQ?$AAA?$AA?$AA@ 1006e338     libucrt:lcidtoname_downlevel.obj
 0002:0000a348       ??_C@_1M@MKDBIIJI@?$AAe?$AAs?$AA?9?$AAB?$AAO?$AA?$AA@ 1006e348     libucrt:lcidtoname_downlevel.obj
 0002:0000a358       ??_C@_1M@CPKKEBLD@?$AAe?$AAs?$AA?9?$AAS?$AAV?$AA?$AA@ 1006e358     libucrt:lcidtoname_downlevel.obj
 0002:0000a368       ??_C@_1M@NDBGMMJL@?$AAe?$AAs?$AA?9?$AAH?$AAN?$AA?$AA@ 1006e368     libucrt:lcidtoname_downlevel.obj
 0002:0000a378       ??_C@_1M@JIJIBHDP@?$AAe?$AAs?$AA?9?$AAN?$AAI?$AA?$AA@ 1006e378     libucrt:lcidtoname_downlevel.obj
 0002:0000a388       ??_C@_1M@CGFMKEEK@?$AAe?$AAs?$AA?9?$AAP?$AAR?$AA?$AA@ 1006e388     libucrt:lcidtoname_downlevel.obj
 0002:0000a398       ??_C@_1O@ICJHKIIK@?$AAz?$AAh?$AA?9?$AAC?$AAH?$AAT?$AA?$AA@ 1006e398     libucrt:lcidtoname_downlevel.obj
 0002:0000a3a8       ??_C@_15CLNEJCE@?$AAs?$AAr?$AA?$AA@ 1006e3a8     libucrt:lcidtoname_downlevel.obj
 0002:0000ac3c       ??_C@_1M@KAHEKEIG@?$AAa?$AAf?$AA?9?$AAz?$AAa?$AA?$AA@ 1006ec3c     libucrt:lcidtoname_downlevel.obj
 0002:0000ac4c       ??_C@_1M@GIECOABL@?$AAa?$AAr?$AA?9?$AAa?$AAe?$AA?$AA@ 1006ec4c     libucrt:lcidtoname_downlevel.obj
 0002:0000ac5c       ??_C@_1M@BMLMEKGI@?$AAa?$AAr?$AA?9?$AAb?$AAh?$AA?$AA@ 1006ec5c     libucrt:lcidtoname_downlevel.obj
 0002:0000ac6c       ??_C@_1M@DAPFDGGB@?$AAa?$AAr?$AA?9?$AAd?$AAz?$AA?$AA@ 1006ec6c     libucrt:lcidtoname_downlevel.obj
 0002:0000ac7c       ??_C@_1M@FJNKGKIG@?$AAa?$AAr?$AA?9?$AAe?$AAg?$AA?$AA@ 1006ec7c     libucrt:lcidtoname_downlevel.obj
 0002:0000ac8c       ??_C@_1M@FLGKKCLO@?$AAa?$AAr?$AA?9?$AAi?$AAq?$AA?$AA@ 1006ec8c     libucrt:lcidtoname_downlevel.obj
 0002:0000ac9c       ??_C@_1M@GNDIPALM@?$AAa?$AAr?$AA?9?$AAj?$AAo?$AA?$AA@ 1006ec9c     libucrt:lcidtoname_downlevel.obj
 0002:0000acac       ??_C@_1M@DDMJFMGJ@?$AAa?$AAr?$AA?9?$AAk?$AAw?$AA?$AA@ 1006ecac     libucrt:lcidtoname_downlevel.obj
 0002:0000acbc       ??_C@_1M@EJALMLHM@?$AAa?$AAr?$AA?9?$AAl?$AAb?$AA?$AA@ 1006ecbc     libucrt:lcidtoname_downlevel.obj
 0002:0000accc       ??_C@_1M@MOBDBLOC@?$AAa?$AAr?$AA?9?$AAl?$AAy?$AA?$AA@ 1006eccc     libucrt:lcidtoname_downlevel.obj
 0002:0000acdc       ??_C@_1M@JAOCLHDH@?$AAa?$AAr?$AA?9?$AAm?$AAa?$AA?$AA@ 1006ecdc     libucrt:lcidtoname_downlevel.obj
 0002:0000acec       ??_C@_1M@JHPMKJIE@?$AAa?$AAr?$AA?9?$AAo?$AAm?$AA?$AA@ 1006ecec     libucrt:lcidtoname_downlevel.obj
 0002:0000acfc       ??_C@_1M@OEPGHFNH@?$AAa?$AAr?$AA?9?$AAq?$AAa?$AA?$AA@ 1006ecfc     libucrt:lcidtoname_downlevel.obj
 0002:0000ad0c       ??_C@_1M@KJDONENM@?$AAa?$AAr?$AA?9?$AAs?$AAa?$AA?$AA@ 1006ed0c     libucrt:lcidtoname_downlevel.obj
 0002:0000ad1c       ??_C@_1M@DMJDKLKM@?$AAa?$AAr?$AA?9?$AAs?$AAy?$AA?$AA@ 1006ed1c     libucrt:lcidtoname_downlevel.obj
 0002:0000ad2c       ??_C@_1M@OMFIPEDC@?$AAa?$AAr?$AA?9?$AAt?$AAn?$AA?$AA@ 1006ed2c     libucrt:lcidtoname_downlevel.obj
 0002:0000ad3c       ??_C@_1M@IHMHGAON@?$AAa?$AAr?$AA?9?$AAy?$AAe?$AA?$AA@ 1006ed3c     libucrt:lcidtoname_downlevel.obj
 0002:0000ad4c       ??_C@_1BG@KDCPGJGB@?$AAa?$AAz?$AA?9?$AAa?$AAz?$AA?9?$AAc?$AAy?$AAr?$AAl?$AA?$AA@ 1006ed4c     libucrt:lcidtoname_downlevel.obj
 0002:0000ad68       ??_C@_1BG@IBCKDDOE@?$AAa?$AAz?$AA?9?$AAa?$AAz?$AA?9?$AAl?$AAa?$AAt?$AAn?$AA?$AA@ 1006ed68     libucrt:lcidtoname_downlevel.obj
 0002:0000ad84       ??_C@_1M@EGPFDCPD@?$AAb?$AAe?$AA?9?$AAb?$AAy?$AA?$AA@ 1006ed84     libucrt:lcidtoname_downlevel.obj
 0002:0000ad94       ??_C@_1M@PCMGMCGC@?$AAb?$AAg?$AA?9?$AAb?$AAg?$AA?$AA@ 1006ed94     libucrt:lcidtoname_downlevel.obj
 0002:0000ada4       ??_C@_1M@BJBMFGOB@?$AAb?$AAn?$AA?9?$AAi?$AAn?$AA?$AA@ 1006eda4     libucrt:lcidtoname_downlevel.obj
 0002:0000adb4       ??_C@_1BG@EAKMMACD@?$AAb?$AAs?$AA?9?$AAb?$AAa?$AA?9?$AAl?$AAa?$AAt?$AAn?$AA?$AA@ 1006edb4     libucrt:lcidtoname_downlevel.obj
 0002:0000add0       ??_C@_1M@KGADAODK@?$AAc?$AAa?$AA?9?$AAe?$AAs?$AA?$AA@ 1006edd0     libucrt:lcidtoname_downlevel.obj
 0002:0000ade0       ??_C@_1M@COAJPDHI@?$AAc?$AAs?$AA?9?$AAc?$AAz?$AA?$AA@ 1006ede0     libucrt:lcidtoname_downlevel.obj
 0002:0000adf0       ??_C@_1M@DHBHFONH@?$AAc?$AAy?$AA?9?$AAg?$AAb?$AA?$AA@ 1006edf0     libucrt:lcidtoname_downlevel.obj
 0002:0000ae00       ??_C@_1M@IMGKELGA@?$AAd?$AAa?$AA?9?$AAd?$AAk?$AA?$AA@ 1006ee00     libucrt:lcidtoname_downlevel.obj
 0002:0000ae10       ??_C@_1M@NNDGDNGA@?$AAd?$AAe?$AA?9?$AAa?$AAt?$AA?$AA@ 1006ee10     libucrt:lcidtoname_downlevel.obj
 0002:0000ae20       ??_C@_1M@IKDBHEEM@?$AAd?$AAe?$AA?9?$AAc?$AAh?$AA?$AA@ 1006ee20     libucrt:lcidtoname_downlevel.obj
 0002:0000ae30       ??_C@_1M@GFFOJMCJ@?$AAd?$AAe?$AA?9?$AAd?$AAe?$AA?$AA@ 1006ee30     libucrt:lcidtoname_downlevel.obj
 0002:0000ae40       ??_C@_1M@MDNLKBPM@?$AAd?$AAe?$AA?9?$AAl?$AAi?$AA?$AA@ 1006ee40     libucrt:lcidtoname_downlevel.obj
 0002:0000ae50       ??_C@_1M@NJBEEJNL@?$AAd?$AAe?$AA?9?$AAl?$AAu?$AA?$AA@ 1006ee50     libucrt:lcidtoname_downlevel.obj
