 PID_LoadCell_Magnet_slrt

 Timestamp is 5ad7b408 (Wed Apr 18 17:09:28 2018)

 Preferred load address is 10000000

 Start         Length     Name                   Class
 0001:00000000 00064918H .text$mn                CODE
 0002:00000000 00000104H .CRT$XCA                DATA
 0002:00000104 00000104H .CRT$XCZ                DATA
 0002:00000208 00000104H .CRT$XIA                DATA
 0002:0000030c 00000110H .CRT$XIC                DATA
 0002:0000041c 00000104H .CRT$XIZ                DATA
 0002:00000520 00000104H .CRT$XPA                DATA
 0002:00000624 0000010cH .CRT$XPX                DATA
 0002:00000730 00000104H .CRT$XPXA               DATA
 0002:00000834 00000104H .CRT$XPZ                DATA
 0002:00000938 00000104H .CRT$XTA                DATA
 0002:00000a3c 00000104H .CRT$XTZ                DATA
 0002:00000b40 0000dfe0H .rdata                  DATA
 0002:0000eb20 00000390H .rdata$r                DATA
 0002:0000eeb0 00000110H .rdata$sxdata           DATA
 0002:0000efc0 000001ccH .rdata$zzzdbg           DATA
 0002:0000f18c 00000104H .rtc$IAA                DATA
 0002:0000f290 00000104H .rtc$IZZ                DATA
 0002:0000f394 00000104H .rtc$TAA                DATA
 0002:0000f498 00000108H .rtc$TZZ                DATA
 0002:0000f5a0 00000ac0H .xdata$x                DATA
 0002:00010060 000001eeH .edata                  DATA
 0003:00000000 00001664H .data                   DATA
 0003:00001664 000001dcH .data$r                 DATA
 0003:00001840 00015568H .bss                    DATA
 0004:00000000 000001d4H .idata$5                DATA
 0004:000001d4 00000014H .idata$2                DATA
 0004:000001e8 00000014H .idata$3                DATA
 0004:000001fc 000001d4H .idata$4                DATA
 0004:000003d0 00000843H .idata$6                DATA
 0005:00000000 00000224H .gfids$x                DATA
 0005:00000224 000001a5H .gfids$y                DATA
 0006:00000000 00000104H .00cfg                  DATA

  Address         Publics by Value              Rva+Base       Lib:Object

 0000:00000000       ___guard_iat_count         00000000     <absolute>
 0000:00000000       ___guard_fids_count        00000000     <absolute>
 0000:00000000       ___guard_longjmp_count     00000000     <absolute>
 0000:00000000       __except_list              00000000     <absolute>
 0000:00000000       ___dynamic_value_reloc_table 00000000     <absolute>
 0000:00000000       ___guard_fids_table        00000000     <absolute>
 0000:00000000       ___guard_longjmp_table     00000000     <absolute>
 0000:00000000       ___guard_iat_table         00000000     <absolute>
 0000:00000003       ___safe_se_handler_count   00000003     <absolute>
 0000:00000100       ___guard_flags             00000100     <absolute>
 0000:00000000       ___ImageBase               10000000     <linker-defined>
 0001:00005f40       _MdlInitialize             10006f40 f   PID_LoadCell_Magnet.obj
 0001:00005f50       _MdlInitializeSampleTimes  10006f50 f   PID_LoadCell_Magnet.obj
 0001:00005f60       _MdlInitializeSizes        10006f60 f   PID_LoadCell_Magnet.obj
 0001:00005f70       _MdlOutputs                10006f70 f   PID_LoadCell_Magnet.obj
 0001:00005f80       _MdlStart                  10006f80 f   PID_LoadCell_Magnet.obj
 0001:00005f90       _MdlTerminate              10006f90 f   PID_LoadCell_Magnet.obj
 0001:00005fa0       _MdlUpdate                 10006fa0 f   PID_LoadCell_Magnet.obj
 0001:00005fb0       _PID_LoadCell_Magnet       10006fb0 f   PID_LoadCell_Magnet.obj
 0001:00007280       _PID_LoadCell_Magnet_IfSubsystem 10008280 f   PID_LoadCell_Magnet.obj
 0001:000072a0       _PID_LoadCell_Magnet_derivatives 100082a0 f   PID_LoadCell_Magnet.obj
 0001:00007300       _PID_LoadCell_Magnet_initialize 10008300 f   PID_LoadCell_Magnet.obj
 0001:00007c80       _PID_LoadCell_Magnet_output 10008c80 f   PID_LoadCell_Magnet.obj
 0001:00008200       _PID_LoadCell_Magnet_terminate 10009200 f   PID_LoadCell_Magnet.obj
 0001:00008270       _PID_LoadCell_Magnet_update 10009270 f   PID_LoadCell_Magnet.obj
 0001:000083c0       ___local_stdio_printf_options 100093c0 f i PID_LoadCell_Magnet.obj
 0001:000083d0       __vfprintf_l               100093d0 f i PID_LoadCell_Magnet.obj
 0001:00008400       _printf                    10009400 f i PID_LoadCell_Magnet.obj
 0001:00008440       _rt_ODECreateIntegrationData 10009440 f   PID_LoadCell_Magnet.obj
 0001:00008450       _rt_ODEDestroyIntegrationData 10009450 f   PID_LoadCell_Magnet.obj
 0001:00008460       _rt_ODEUpdateContinuousStates 10009460 f   PID_LoadCell_Magnet.obj
 0001:000087c0       _rt_mxCreateCharMatrixFromStrings 100097c0 f   rt_matrx.obj
 0001:00008920       _rt_mxCreateDoubleMatrix   10009920 f   rt_matrx.obj
 0001:00008980       _rt_mxCreateNumericArray   10009980 f   rt_matrx.obj
 0001:00008a00       _rt_mxCreateString         10009a00 f   rt_matrx.obj
 0001:00008a90       _rt_mxDuplicateArray       10009a90 f   rt_matrx.obj
 0001:00008af0       _rt_mxGetDimensions        10009af0 f   rt_matrx.obj
 0001:00008b30       _rt_mxGetEps               10009b30 f   rt_matrx.obj
 0001:00008b40       _rt_mxGetString            10009b40 f   rt_matrx.obj
 0001:00008bc0       _rtPrintfNoOp              10009bc0 f   rt_printf.obj
 0001:00008bd0       _PID_LoadCell_Magnet_GetCAPIStaticMap 10009bd0 f   PID_LoadCell_Magnet_capi.obj
 0001:00008be0       _PID_LoadCell_Magnet_InitializeDataMapInfo 10009be0 f   PID_LoadCell_Magnet_capi.obj
 0001:00008c70       _rtGetInf                  10009c70 f   rtGetInf.obj
 0001:00008ca0       _rtGetInfF                 10009ca0 f   rtGetInf.obj
 0001:00008cc0       _rtGetMinusInf             10009cc0 f   rtGetInf.obj
 0001:00008cf0       _rtGetMinusInfF            10009cf0 f   rtGetInf.obj
 0001:00008d10       _rtGetNaN                  10009d10 f   rtGetNaN.obj
 0001:00008d40       _rtGetNaNF                 10009d40 f   rtGetNaN.obj
 0001:00008d60       _rtIsInf                   10009d60 f   rt_nonfinite.obj
 0001:00008da0       _rtIsInfF                  10009da0 f   rt_nonfinite.obj
 0001:00008de0       _rtIsNaN                   10009de0 f   rt_nonfinite.obj
 0001:00008e00       _rtIsNaNF                  10009e00 f   rt_nonfinite.obj
 0001:00008e20       _rt_InitInfAndNaN          10009e20 f   rt_nonfinite.obj
 0001:00008e80       _rt_CleanUpForStateLogWithMMI 10009e80 f   rt_logging_mmi.obj
 0001:00008f90       _rt_FillStateSigInfoFromMMI 10009f90 f   rt_logging_mmi.obj
 0001:00009330       _rtwCAPI_CountSysRan       1000a330 f   rtw_modelmap_utils.obj
 0001:000093d0       _rtwCAPI_EncodePath        1000a3d0 f   rtw_modelmap_utils.obj
 0001:000094d0       _rtwCAPI_FillSysRan        1000a4d0 f   rtw_modelmap_utils.obj
 0001:000095c0       _rtwCAPI_FreeFullPaths     1000a5c0 f   rtw_modelmap_utils.obj
 0001:00009650       _rtwCAPI_GetFullStateBlockPath 1000a650 f   rtw_modelmap_utils.obj
 0001:00009800       _rtwCAPI_GetNumContStateRecords 1000a800 f   rtw_modelmap_utils.obj
 0001:000098c0       _rtwCAPI_GetNumSigLogRecords 1000a8c0 f   rtw_modelmap_utils.obj
 0001:00009910       _rtwCAPI_GetNumSigLogRecordsForRTWLogging 1000a910 f   rtw_modelmap_utils.obj
 0001:000099b0       _rtwCAPI_GetNumStateRecords 1000a9b0 f   rtw_modelmap_utils.obj
 0001:00009a00       _rtwCAPI_GetNumStateRecordsForRTWLogging 1000aa00 f   rtw_modelmap_utils.obj
 0001:00009aa0       _rtwCAPI_GetSigAddrFromMap 1000aaa0 f   rtw_modelmap_utils.obj
 0001:00009b60       _rtwCAPI_GetSigLogRecordInfo 1000ab60 f   rtw_modelmap_utils.obj
 0001:00009f90       _rtwCAPI_GetStateRecordInfo 1000af90 f   rtw_modelmap_utils.obj
 0001:0000a440       _rtwCAPI_GetStateWidth     1000b440 f   rtw_modelmap_utils.obj
 0001:0000a4a0       _rtwCAPI_HasStates         1000b4a0 f   rtw_modelmap_utils.obj
 0001:0000a510       _rtwCAPI_UpdateFullPaths   1000b510 f   rtw_modelmap_utils.obj
 0001:0000a6f0       __vsnprintf_l              1000b6f0 f i rt_logging.obj
 0001:0000a730       __vsprintf_l               1000b730 f i rt_logging.obj
 0001:0000a770       _fprintf                   1000b770 f i rt_logging.obj
 0001:0000b080       _rt_CreateLogVar           1000c080 f   rt_logging.obj
 0001:0000b110       _rt_CreateLogVarWithConvert 1000c110 f   rt_logging.obj
 0001:0000ba90       _rt_CreateStructLogVar     1000ca90 f   rt_logging.obj
 0001:0000c7f0       _rt_GetMxIdFromDTypeId     1000d7f0 f   rt_logging.obj
 0001:0000c820       _rt_GetMxIdFromDTypeIdForRSim 1000d820 f   rt_logging.obj
 0001:0000f0f0       _rt_StartDataLogging       100100f0 f   rt_logging.obj
 0001:0000f5b0       _rt_StartDataLoggingWithStartTime 100105b0 f   rt_logging.obj
 0001:0000ff10       _rt_StopDataLogging        10010f10 f   rt_logging.obj
 0001:0000ff30       _rt_StopDataLoggingImpl    10010f30 f   rt_logging.obj
 0001:00010260       _rt_UpdateLogVar           10011260 f   rt_logging.obj
 0001:00011380       _rt_UpdateStructLogVar     10012380 f   rt_logging.obj
 0001:00011410       _rt_UpdateTXXFYLogVars     10012410 f   rt_logging.obj
 0001:00011740       _rt_UpdateTXYLogVars       10012740 f   rt_logging.obj
 0001:00011990       _sprintf                   10012990 f i rt_logging.obj
 0001:000119d0       _DllMain@12                100129d0 f   xpctarget.obj
 0001:000119e0       _PID_LoadCell_Magnet_ChangeStepSize 100129e0 f   xpctarget.obj
 0001:00011a50       _SLRTSetErrorStatus        10012a50 f   xpctarget.obj
 0001:00011a70       _changeStepSize            10012a70 f   xpctarget.obj
 0001:00011ae0       _getDLMVersion             10012ae0 f   xpctarget.obj
 0001:00011af0       _getRefMdlPath             10012af0 f   xpctarget.obj
 0001:00011b70       _getRefMdlSignalNumber     10012b70 f   xpctarget.obj
 0001:00011c20       _getrlmdlinfo              10012c20 f   xpctarget.obj
 0001:00011e00       _updateDiscreteEvents      10012e00 f   xpctarget.obj
 0001:00011e10       _getNumRef                 10012e10 f   appmappingData.obj
 0001:00011e20       _vprintf                   10012e20 f i legacy_stdio.obj
 0001:00011e60       _adquanserq8               10012e60 f   adquanserq8.obj
 0001:00012580       _daquanserq8               10013580 f   daquanserq8.obj
 0001:00012ef0       _diquanserq8               10013ef0 f   diquanserq8.obj
 0001:000132e0       _doquanserq8               100142e0 f   doquanserq8.obj
 0001:00013810       _encquanserq8              10014810 f   encquanserq8.obj
 0001:00014350       _GetPCIDeviceFull          10015350 f   xpcruntime:xpcimports.obj
 0001:00014390       _ShowPCIDevice             10015390 f   xpcruntime:xpcimports.obj
 0001:00014b50       _xpcGetPciConfigAtSlot     10015b50 f   xpcruntime:xpcimports.obj
 0001:00014e60       _xpcInitProcs              10015e60 f   xpcruntime:xpcimports.obj
 0001:000161c0       _xpceuploadevent           100171c0 f   xpcruntime:xpcimports.obj
 0001:000161d0       __ftoui3                   100171d0 f   LIBCMT:_ftol3_.obj
 0001:000161df       __ftoul3                   100171df f   LIBCMT:_ftol3_.obj
 0001:000161ee       __ftol3                    100171ee f   LIBCMT:_ftol3_.obj
 0001:000161fb       __ftol3_NaN                100171fb f   LIBCMT:_ftol3_.obj
 0001:00016213       __ftol3_work               10017213 f   LIBCMT:_ftol3_.obj
 0001:00016299       __ftol3_common             10017299 f   LIBCMT:_ftol3_.obj
 0001:0001635b       __ftol3_arg_error          1001735b f   LIBCMT:_ftol3_.obj
 0001:0001636d       __ftol3_except             1001736d f   LIBCMT:_ftol3_.obj
 0001:000163b1       __dtoui3                   100173b1 f   LIBCMT:_ftol3_.obj
 0001:000163c0       __dtoul3                   100173c0 f   LIBCMT:_ftol3_.obj
 0001:000163cf       __dtol3                    100173cf f   LIBCMT:_ftol3_.obj
 0001:000163dc       __dtol3_NaN                100173dc f   LIBCMT:_ftol3_.obj
 0001:000163f9       __dtol3_work               100173f9 f   LIBCMT:_ftol3_.obj
 0001:000164e0       __ultod3                   100174e0 f   LIBCMT:_ftol3_.obj
 0001:00016520       __ltod3                    10017520 f   LIBCMT:_ftol3_.obj
 0001:00016624       ___raise_securityfailure   10017624 f   LIBCMT:gs_report.obj
 0001:00016656       ___report_gsfailure        10017656 f   LIBCMT:gs_report.obj
 0001:0001678f       ___report_rangecheckfailure 1001778f f   LIBCMT:gs_report.obj
 0001:0001679e       ___report_securityfailure  1001779e f   LIBCMT:gs_report.obj
 0001:000168a2       ___report_securityfailureEx 100178a2 f   LIBCMT:gs_report.obj
 0001:000169fd       @__security_check_cookie@4 100179fd f   LIBCMT:_secchk_.obj
 0001:00016a12       ___isa_available_init      10017a12 f   LIBCMT:_cpu_disp_.obj
 0001:00016fda       __CRT_INIT@12              10017fda f   LIBCMT:dll_dllmain.obj
 0001:00016fe5       __DllMainCRTStartup@12     10017fe5 f   LIBCMT:dll_dllmain.obj
 0001:00017010       ??$__crt_fast_decode_pointer@PAP6AXXZ@@YAPAP6AXXZQAP6AXXZ@Z 10018010 f i LIBCMT:utility.obj
 0001:00017029       ??$__crt_fast_encode_pointer@PAP6AXXZ@@YAPAP6AXXZQAP6AXXZ@Z 10018029 f i LIBCMT:utility.obj
 0001:0001704d       ?__crt_rotate_pointer_value@@YAIIH@Z 1001804d f i LIBCMT:utility.obj
 0001:0001705d       ?configure_argv@__scrt_narrow_argv_policy@@SAHXZ 1001805d f i LIBCMT:utility.obj
 0001:00017101       _NtCurrentTeb              10018101 f i LIBCMT:utility.obj
 0001:00017108       ___scrt_acquire_startup_lock 10018108 f   LIBCMT:utility.obj
 0001:0001714a       ___scrt_dllmain_after_initialize_c 1001814a f   LIBCMT:utility.obj
 0001:0001717f       ___scrt_dllmain_before_initialize_c 1001817f f   LIBCMT:utility.obj
 0001:00017190       ___scrt_dllmain_crt_thread_attach 10018190 f   LIBCMT:utility.obj
 0001:000171b6       ___scrt_dllmain_crt_thread_detach 100181b6 f   LIBCMT:utility.obj
 0001:000171c6       ___scrt_dllmain_exception_filter 100181c6 f   LIBCMT:utility.obj
 0001:00017205       ___scrt_dllmain_uninitialize_c 10018205 f   LIBCMT:utility.obj
 0001:00017230       ___scrt_dllmain_uninitialize_critical 10018230 f   LIBCMT:utility.obj
 0001:00017240       ___scrt_initialize_crt     10018240 f   LIBCMT:utility.obj
 0001:00017287       ___scrt_initialize_onexit_tables 10018287 f   LIBCMT:utility.obj
 0001:00017343       ___scrt_is_nonwritable_in_current_image 10018343 f   LIBCMT:utility.obj
 0001:000173ef       ___scrt_release_startup_lock 100183ef f   LIBCMT:utility.obj
 0001:00017413       ___scrt_uninitialize_crt   10018413 f   LIBCMT:utility.obj
 0001:00017445       __onexit                   10018445 f   LIBCMT:utility.obj
 0001:0001748e       _at_quick_exit             1001848e f   LIBCMT:utility.obj
 0001:000174cb       _atexit                    100184cb f   LIBCMT:utility.obj
 0001:000174e5       ___security_init_cookie    100184e5 f   LIBCMT:gs_support.obj
 0001:000175a8       ?__scrt_initialize_type_info@@YAXXZ 100185a8 f   LIBCMT:tncleanup.obj
 0001:000175b7       ?__scrt_uninitialize_type_info@@YAXXZ 100185b7 f   LIBCMT:tncleanup.obj
 0001:000175c6       ___local_stdio_scanf_options 100185c6 f i LIBCMT:default_local_stdio_options.obj
 0001:000175cc       ___scrt_initialize_default_local_stdio_options 100185cc f   LIBCMT:default_local_stdio_options.obj
 0001:000175f0       ___scrt_get_dyn_tls_init_callback 100185f0 f   LIBCMT:dyn_tls_init.obj
 0001:000175f6       ___scrt_fastfail           100185f6 f   LIBCMT:utility_desktop.obj
 0001:00017757       ___scrt_get_show_window_mode 10018757 f   LIBCMT:utility_desktop.obj
 0001:00017796       ___scrt_initialize_winrt   10018796 f   LIBCMT:utility_desktop.obj
 0001:00017799       ___scrt_is_managed_app     10018799 f   LIBCMT:utility_desktop.obj
 0001:000177ee       ___scrt_set_unhandled_exception_filter 100187ee f   LIBCMT:utility_desktop.obj
 0001:000177fd       ___scrt_unhandled_exception_filter@4 100187fd f   LIBCMT:utility_desktop.obj
 0001:0001784e       __crt_debugger_hook        1001884e f   LIBCMT:utility_desktop.obj
 0001:00017858       __RTC_Initialize           10018858 f   LIBCMT:_initsect_.obj
 0001:0001788d       __RTC_Terminate            1001888d f   LIBCMT:_initsect_.obj
 0001:000178c2       @_guard_check_icall@4      100188c2 f i LIBCMT:checkcfg.obj
 0001:000178d0       __SEH_prolog4              100188d0 f   LIBCMT:_sehprolg4_.obj
 0001:00017916       __SEH_epilog4              10018916 f   LIBCMT:_sehprolg4_.obj
 0001:00017941       __get_startup_argv_mode    10018941 f   LIBCMT:argv_mode.obj
 0001:00017945       ___scrt_is_ucrt_dll_in_use 10018945 f   LIBCMT:ucrt_detection.obj
 0001:00017954       @_guard_check_icall_nop@4  10018954 f i LIBCMT:guard_support.obj
 0001:00017955       __guard_icall_checks_enforced 10018955 f i LIBCMT:guard_support.obj
 0001:0001796c       _GetModuleHandleA@4        1001896c f   kernel32:KERNEL32.dll
 0001:00017972       _GetProcAddress@8          10018972 f   kernel32:KERNEL32.dll
 0001:00017978       _UnhandledExceptionFilter@4 10018978 f   kernel32:KERNEL32.dll
 0001:0001797e       _SetUnhandledExceptionFilter@4 1001897e f   kernel32:KERNEL32.dll
 0001:00017984       _GetCurrentProcess@0       10018984 f   kernel32:KERNEL32.dll
 0001:0001798a       _TerminateProcess@8        1001898a f   kernel32:KERNEL32.dll
 0001:00017990       _IsProcessorFeaturePresent@4 10018990 f   kernel32:KERNEL32.dll
 0001:00017996       _QueryPerformanceCounter@4 10018996 f   kernel32:KERNEL32.dll
 0001:0001799c       _GetCurrentProcessId@0     1001899c f   kernel32:KERNEL32.dll
 0001:000179a2       _GetCurrentThreadId@0      100189a2 f   kernel32:KERNEL32.dll
 0001:000179a8       _GetSystemTimeAsFileTime@4 100189a8 f   kernel32:KERNEL32.dll
 0001:000179ae       _InitializeSListHead@4     100189ae f   kernel32:KERNEL32.dll
 0001:000179b4       _IsDebuggerPresent@0       100189b4 f   kernel32:KERNEL32.dll
 0001:000179ba       _GetStartupInfoW@4         100189ba f   kernel32:KERNEL32.dll
 0001:000179c0       _GetModuleHandleW@4        100189c0 f   kernel32:KERNEL32.dll
 0001:000179d0       _memset                    100189d0 f   libvcruntime:memset.obj
 0001:00017b80       _memcpy                    10018b80 f   libvcruntime:memcpy.obj
 0001:00018260       _memmove                   10019260 f   libvcruntime:memmove.obj
 0001:00018940       _strchr                    10019940 f   libvcruntime:strchr.obj
 0001:000189ae       ___from_strstr_to_strchr   100199ae     libvcruntime:strchr.obj
 0001:00018b00       __except_handler4          10019b00 f   libvcruntime:_chandler4_.obj
 0001:00018cbf       ___vcrt_initialize         10019cbf f   libvcruntime:initialization.obj
 0001:00018cf2       ___vcrt_thread_attach      10019cf2 f   libvcruntime:initialization.obj
 0001:00018cff       ___vcrt_thread_detach      10019cff f   libvcruntime:initialization.obj
 0001:00018d0c       ___vcrt_uninitialize       10019d0c f   libvcruntime:initialization.obj
 0001:00018d32       ___vcrt_uninitialize_critical 10019d32 f   libvcruntime:initialization.obj
 0001:00018d4d       ??$?RD@__crt_internal_free_policy@@QBEXQBD@Z 10019d4d f i libvcruntime:std_type_info.obj
 0001:00018d61       ??$?RX@__crt_internal_free_policy@@QBEXQBX@Z 10019d61 f i libvcruntime:std_type_info.obj
 0001:00018d75       ??$__crt_interlocked_compare_exchange_pointer@$$CBD$$T$$T@@YAPBDPDSBD$$T1@Z 10019d75 f i libvcruntime:std_type_info.obj
 0001:00018d8b       ??$__crt_interlocked_compare_exchange_pointer@$$CBDPAD$$T@@YAPBDPDSBDQAD$$T@Z 10019d8b f i libvcruntime:std_type_info.obj
 0001:00018da1       ??$__crt_interlocked_read_pointer@$$CBD@@YAPBDPDSBD@Z 10019da1 f i libvcruntime:std_type_info.obj
 0001:00018db5       ??0?$__crt_unique_heap_ptr@DU__crt_internal_free_policy@@@@QAE@QAD@Z 10019db5 f i libvcruntime:std_type_info.obj
 0001:00018dc6       ??0?$__crt_unique_heap_ptr@XU__crt_internal_free_policy@@@@QAE@QAX@Z 10019dc6 f i libvcruntime:std_type_info.obj
 0001:00018dd7       ??1?$__crt_unique_heap_ptr@DU__crt_internal_free_policy@@@@QAE@XZ 10019dd7 f i libvcruntime:std_type_info.obj
 0001:00018deb       ??1?$__crt_unique_heap_ptr@XU__crt_internal_free_policy@@@@QAE@XZ 10019deb f i libvcruntime:std_type_info.obj
 0001:00018e0b       ??B?$__crt_unique_heap_ptr@DU__crt_internal_free_policy@@@@QBE_NXZ 10019e0b f i libvcruntime:std_type_info.obj
 0001:00018e12       ??B?$__crt_unique_heap_ptr@XU__crt_internal_free_policy@@@@QBE_NXZ 10019e12 f i libvcruntime:std_type_info.obj
 0001:00018e41       ?detach@?$__crt_unique_heap_ptr@XU__crt_internal_free_policy@@@@QAEPAXXZ 10019e41 f i libvcruntime:std_type_info.obj
 0001:00018e47       ?get@?$__crt_unique_heap_ptr@DU__crt_internal_free_policy@@@@QBEPADXZ 10019e47 f i libvcruntime:std_type_info.obj
 0001:00018e4a       ?get@?$__crt_unique_heap_ptr@XU__crt_internal_free_policy@@@@QBEPAXXZ 10019e4a f i libvcruntime:std_type_info.obj
 0001:00018e4d       ?is_valid@?$__crt_unique_heap_ptr@DU__crt_internal_free_policy@@@@QBE_NXZ 10019e4d f i libvcruntime:std_type_info.obj
 0001:00018e54       ?is_valid@?$__crt_unique_heap_ptr@XU__crt_internal_free_policy@@@@QBE_NXZ 10019e54 f i libvcruntime:std_type_info.obj
 0001:00018e5b       ?release@?$__crt_unique_heap_ptr@DU__crt_internal_free_policy@@@@QAEXXZ 10019e5b f i libvcruntime:std_type_info.obj
 0001:00018e6f       ?release@?$__crt_unique_heap_ptr@XU__crt_internal_free_policy@@@@QAEXXZ 10019e6f f i libvcruntime:std_type_info.obj
 0001:00018e83       ___std_type_info_compare   10019e83 f   libvcruntime:std_type_info.obj
 0001:00018ece       ___std_type_info_destroy_list 10019ece f   libvcruntime:std_type_info.obj
 0001:00018ef9       ___std_type_info_hash      10019ef9 f   libvcruntime:std_type_info.obj
 0001:00018f28       ___std_type_info_name      10019f28 f   libvcruntime:std_type_info.obj
 0001:00019030       __local_unwind4            1001a030 f   libvcruntime:_exsup4_.obj
 0001:00019106       __seh_longjmp_unwind4@4    1001a106 f   libvcruntime:_exsup4_.obj
 0001:0001912e       @_EH4_CallFilterFunc@8     1001a12e f   libvcruntime:_exsup4_.obj
 0001:00019145       @_EH4_TransferToHandler@8  1001a145 f   libvcruntime:_exsup4_.obj
 0001:0001915e       @_EH4_GlobalUnwind2@8      1001a15e f   libvcruntime:_exsup4_.obj
 0001:00019177       @_EH4_LocalUnwind@16       1001a177 f   libvcruntime:_exsup4_.obj
 0001:000191e5       ___except_validate_context_record 1001a1e5 f   libvcruntime:jbcxrval.obj
 0001:000191e6       ___except_validate_jump_buffer 1001a1e6 f   libvcruntime:jbcxrval.obj
 0001:000191e7       ??$?RU__vcrt_ptd@@@__crt_internal_free_policy@@QBEXQBU__vcrt_ptd@@@Z 1001a1e7 f i libvcruntime:per_thread_data.obj
 0001:000191fb       ??0?$__crt_unique_heap_ptr@U__vcrt_ptd@@U__crt_internal_free_policy@@@@QAE@QAU__vcrt_ptd@@@Z 1001a1fb f i libvcruntime:per_thread_data.obj
 0001:0001921e       ??1?$__crt_unique_heap_ptr@U__vcrt_ptd@@U__crt_internal_free_policy@@@@QAE@XZ 1001a21e f i libvcruntime:per_thread_data.obj
 0001:0001923d       ??B?$__crt_unique_heap_ptr@U__vcrt_ptd@@U__crt_internal_free_policy@@@@QBE_NXZ 1001a23d f i libvcruntime:per_thread_data.obj
 0001:00019244       ?detach@?$__crt_unique_heap_ptr@U__vcrt_ptd@@U__crt_internal_free_policy@@@@QAEPAU__vcrt_ptd@@XZ 1001a244 f i libvcruntime:per_thread_data.obj
 0001:0001924a       ?get@?$__crt_unique_heap_ptr@U__vcrt_ptd@@U__crt_internal_free_policy@@@@QBEPAU__vcrt_ptd@@XZ 1001a24a f i libvcruntime:per_thread_data.obj
 0001:0001924d       ?is_valid@?$__crt_unique_heap_ptr@U__vcrt_ptd@@U__crt_internal_free_policy@@@@QBE_NXZ 1001a24d f i libvcruntime:per_thread_data.obj
 0001:00019254       ?release@?$__crt_unique_heap_ptr@U__vcrt_ptd@@U__crt_internal_free_policy@@@@QAEXXZ 1001a254 f i libvcruntime:per_thread_data.obj
 0001:00019288       ___vcrt_freefls@4          1001a288 f   libvcruntime:per_thread_data.obj
 0001:000192ab       ___vcrt_freeptd            1001a2ab f   libvcruntime:per_thread_data.obj
 0001:000192ee       ___vcrt_getptd             1001a2ee f   libvcruntime:per_thread_data.obj
 0001:000192ff       ___vcrt_getptd_noexit      1001a2ff f   libvcruntime:per_thread_data.obj
 0001:000193b5       ___vcrt_initialize_ptd     1001a3b5 f   libvcruntime:per_thread_data.obj
 0001:000193f4       ___vcrt_uninitialize_ptd   1001a3f4 f   libvcruntime:per_thread_data.obj
 0001:00019415       ___vcrt_initialize_locks   1001a415 f   libvcruntime:locks.obj
 0001:00019460       ___vcrt_lock               1001a460 f   libvcruntime:locks.obj
 0001:0001947a       ___vcrt_uninitialize_locks 1001a47a f   libvcruntime:locks.obj
 0001:000194b4       ___vcrt_unlock             1001a4b4 f   libvcruntime:locks.obj
 0001:000194ce       ??$?BX@__crt_fast_encoded_nullptr_t@@QBEPAXXZ 1001a4ce f i libvcruntime:winapi_downlevel.obj
 0001:000194ec       ??$__crt_fast_decode_pointer@PAX@@YAPAXQAX@Z 1001a4ec f i libvcruntime:winapi_downlevel.obj
 0001:00019505       ??$__crt_fast_encode_pointer@PAX@@YAPAXQAX@Z 1001a505 f i libvcruntime:winapi_downlevel.obj
 0001:00019529       ??$__crt_interlocked_compare_exchange_pointer@UHINSTANCE__@@$$T$$T@@YAPAUHINSTANCE__@@PDSAU0@$$T1@Z 1001a529 f i libvcruntime:winapi_downlevel.obj
 0001:0001953f       ??$__crt_interlocked_compare_exchange_pointer@X$$T$$T@@YAPAXPDSAX$$T1@Z 1001a53f f i libvcruntime:winapi_downlevel.obj
 0001:00019555       ??$__crt_interlocked_exchange_pointer@UHINSTANCE__@@PAU1@@@YAPAUHINSTANCE__@@PDSAU0@QAU0@@Z 1001a555 f i libvcruntime:winapi_downlevel.obj
 0001:00019565       ??$__crt_interlocked_exchange_pointer@UHINSTANCE__@@PAX@@YAPAUHINSTANCE__@@PDSAU0@QAX@Z 1001a565 f i libvcruntime:winapi_downlevel.obj
 0001:00019575       ??$__crt_interlocked_exchange_pointer@XPAX@@YAPAXPDSAXQAX@Z 1001a575 f i libvcruntime:winapi_downlevel.obj
 0001:00019585       ??$__crt_interlocked_read_pointer@UHINSTANCE__@@@@YAPAUHINSTANCE__@@PDSAU0@@Z 1001a585 f i libvcruntime:winapi_downlevel.obj
 0001:00019599       ??$__crt_interlocked_read_pointer@X@@YAPAXPDSAX@Z 1001a599 f i libvcruntime:winapi_downlevel.obj
 0001:000195ad       ?__crt_fast_encode_pointer@@YA?AU__crt_fast_encoded_nullptr_t@@$$T@Z 1001a5ad f i libvcruntime:winapi_downlevel.obj
 0001:000198f1       ___vcrt_EventRegister      1001a8f1 f   libvcruntime:winapi_downlevel.obj
 0001:00019941       ___vcrt_EventSetInformation 1001a941 f   libvcruntime:winapi_downlevel.obj
 0001:00019994       ___vcrt_EventUnregister    1001a994 f   libvcruntime:winapi_downlevel.obj
 0001:000199dc       ___vcrt_EventWriteTransfer 1001a9dc f   libvcruntime:winapi_downlevel.obj
 0001:00019a37       ___vcrt_FlsAlloc           1001aa37 f   libvcruntime:winapi_downlevel.obj
 0001:00019a7f       ___vcrt_FlsFree            1001aa7f f   libvcruntime:winapi_downlevel.obj
 0001:00019ac7       ___vcrt_FlsGetValue        1001aac7 f   libvcruntime:winapi_downlevel.obj
 0001:00019b0f       ___vcrt_FlsSetValue        1001ab0f f   libvcruntime:winapi_downlevel.obj
 0001:00019b5b       ___vcrt_InitializeCriticalSectionEx 1001ab5b f   libvcruntime:winapi_downlevel.obj
 0001:00019bb2       ___vcrt_initialize_winapi_thunks 1001abb2 f   libvcruntime:winapi_downlevel.obj
 0001:00019bfa       ___vcrt_uninitialize_winapi_thunks 1001abfa f   libvcruntime:winapi_downlevel.obj
 0001:00019c38       ??$?B$$A6AXXZ@__crt_fast_encoded_nullptr_t@@QBEP6AXXZXZ 1001ac38 f i libvcruntime:purevirt_data.obj
 0001:00019c56       ??$__crt_fast_encode_pointer@P6AXXZ@@YAP6AXXZQ6AXXZ@Z 1001ac56 f i libvcruntime:purevirt_data.obj
 0001:00019c7a       ___vcrt_initialize_pure_virtual_call_handler 1001ac7a f   libvcruntime:purevirt_data.obj
 0001:00019c9e       ??$__vcrt_va_start_verify_argument_type@QBD@@YAXXZ 1001ac9e f i libvcruntime:undname.obj
 0001:00019c9f       ??0Block@_HeapManager@@QAE@XZ 1001ac9f f i libvcruntime:undname.obj
 0001:00019ca5       ??0DName@@QAE@AAPBDD@Z     1001aca5 f   libvcruntime:undname.obj
 0001:00019d8c       ??0DName@@QAE@ABV0@@Z      1001ad8c f i libvcruntime:undname.obj
 0001:00019da7       ??0DName@@QAE@D@Z          1001ada7 f   libvcruntime:undname.obj
 0001:00019dde       ??0DName@@QAE@PAV0@@Z      1001adde f   libvcruntime:undname.obj
 0001:00019e3e       ??0DName@@QAE@PBD@Z        1001ae3e f   libvcruntime:undname.obj
 0001:00019e86       ??0DName@@QAE@W4DNameStatus@@@Z 1001ae86 f   libvcruntime:undname.obj
 0001:00019ed9       ??0DName@@QAE@XZ           1001aed9 f i libvcruntime:undname.obj
 0001:00019eee       ??0DName@@QAE@_J@Z         1001aeee f   libvcruntime:undname.obj
 0001:00019fa8       ??0DName@@QAE@_K@Z         1001afa8 f   libvcruntime:undname.obj
 0001:0001a032       ??0DNameNode@@IAE@XZ       1001b032 f   libvcruntime:undname.obj
 0001:0001a03d       ??0DNameStatusNode@@AAE@W4DNameStatus@@@Z 1001b03d f   libvcruntime:undname.obj
 0001:0001a068       ??0Replicator@@QAE@XZ      1001b068 f i libvcruntime:undname.obj
 0001:0001a06e       ??0UnDecorator@@QAE@PADPBDHP6APADJ@ZK@Z 1001b06e f i libvcruntime:undname.obj
 0001:0001a0f1       ??0charNode@@QAE@D@Z       1001b0f1 f   libvcruntime:undname.obj
 0001:0001a10b       ??0pDNameNode@@QAE@PAVDName@@@Z 1001b10b f   libvcruntime:undname.obj
 0001:0001a13d       ??0pairNode@@QAE@PAVDNameNode@@0@Z 1001b13d f   libvcruntime:undname.obj
 0001:0001a163       ??0pcharNode@@QAE@PBDH@Z   1001b163 f   libvcruntime:undname.obj
 0001:0001a1d2       ??2@YAPAXIAAV_HeapManager@@H@Z 1001b1d2 f i libvcruntime:undname.obj
 0001:0001a1ec       ??4DName@@QAEAAV0@ABV0@@Z  1001b1ec f   libvcruntime:undname.obj
 0001:0001a207       ??4DName@@QAEAAV0@D@Z      1001b207 f i libvcruntime:undname.obj
 0001:0001a23e       ??4DName@@QAEAAV0@PAV0@@Z  1001b23e f   libvcruntime:undname.obj
 0001:0001a299       ??4DName@@QAEAAV0@PBD@Z    1001b299 f   libvcruntime:undname.obj
 0001:0001a2d7       ??4DName@@QAEAAV0@W4DNameStatus@@@Z 1001b2d7 f   libvcruntime:undname.obj
 0001:0001a319       ??AReplicator@@QBE?AVDName@@H@Z 1001b319 f   libvcruntime:undname.obj
 0001:0001a364       ??BUnDecorator@@QAEPADXZ   1001b364 f i libvcruntime:undname.obj
 0001:0001a53b       ??H@YA?AVDName@@DABV0@@Z   1001b53b f i libvcruntime:undname.obj
 0001:0001a568       ??H@YA?AVDName@@PBDABV0@@Z 1001b568 f i libvcruntime:undname.obj
 0001:0001a595       ??H@YA?AVDName@@W4DNameStatus@@ABV0@@Z 1001b595 f i libvcruntime:undname.obj
 0001:0001a5c2       ??HDName@@QBE?AV0@ABV0@@Z  1001b5c2 f   libvcruntime:undname.obj
 0001:0001a5ec       ??HDName@@QBE?AV0@D@Z      1001b5ec f   libvcruntime:undname.obj
 0001:0001a616       ??HDName@@QBE?AV0@PAV0@@Z  1001b616 f   libvcruntime:undname.obj
 0001:0001a640       ??HDName@@QBE?AV0@PBD@Z    1001b640 f   libvcruntime:undname.obj
 0001:0001a66a       ??HDName@@QBE?AV0@W4DNameStatus@@@Z 1001b66a f   libvcruntime:undname.obj
 0001:0001a694       ??YDName@@QAEAAV0@ABV0@@Z  1001b694 f   libvcruntime:undname.obj
 0001:0001a6e7       ??YDName@@QAEAAV0@D@Z      1001b6e7 f   libvcruntime:undname.obj
 0001:0001a74b       ??YDName@@QAEAAV0@PAV0@@Z  1001b74b f   libvcruntime:undname.obj
 0001:0001a7c9       ??YDName@@QAEAAV0@PBD@Z    1001b7c9 f   libvcruntime:undname.obj
 0001:0001a842       ??YDName@@QAEAAV0@W4DNameStatus@@@Z 1001b842 f   libvcruntime:undname.obj
 0001:0001a892       ??YReplicator@@QAEAAV0@ABVDName@@@Z 1001b892 f   libvcruntime:undname.obj
 0001:0001a8ee       ??_5DName@@QAEAAV0@ABV0@@Z 1001b8ee f   libvcruntime:undname.obj
 0001:0001a911       ?Constructor@_HeapManager@@QAEXP6APAXI@ZP6AXPAX@Z@Z 1001b911 f i libvcruntime:undname.obj
 0001:0001a935       ?Destructor@_HeapManager@@QAEXXZ 1001b935 f i libvcruntime:undname.obj
 0001:0001a97c       ?UScore@UnDecorator@@SAPBDW4Tokens@@@Z 1001b97c f   libvcruntime:undname.obj
 0001:0001a9a0       ?append@DName@@AAEXPAVDNameNode@@@Z 1001b9a0 f   libvcruntime:undname.obj
 0001:0001a9f7       ?composeDeclaration@UnDecorator@@CA?AVDName@@ABV2@@Z 1001b9f7 f i libvcruntime:undname.obj
 0001:0001ba32       ?doAccessSpecifiers@UnDecorator@@SAHXZ 1001ca32 f i libvcruntime:undname.obj
 0001:0001ba43       ?doAllocationLanguage@UnDecorator@@SAHXZ 1001ca43 f i libvcruntime:undname.obj
 0001:0001ba54       ?doAllocationModel@UnDecorator@@SAHXZ 1001ca54 f i libvcruntime:undname.obj
 0001:0001ba65       ?doEcsu@UnDecorator@@SAHXZ 1001ca65 f i libvcruntime:undname.obj
 0001:0001ba76       ?doEllipsis@UnDecorator@@SAHXZ 1001ca76 f i libvcruntime:undname.obj
 0001:0001ba87       ?doFunctionReturns@UnDecorator@@SAHXZ 1001ca87 f i libvcruntime:undname.obj
 0001:0001ba98       ?doMSKeywords@UnDecorator@@SAHXZ 1001ca98 f i libvcruntime:undname.obj
 0001:0001baa8       ?doMemberTypes@UnDecorator@@SAHXZ 1001caa8 f i libvcruntime:undname.obj
 0001:0001bab9       ?doNameOnly@UnDecorator@@SAHXZ 1001cab9 f i libvcruntime:undname.obj
 0001:0001bac6       ?doNoIdentCharCheck@UnDecorator@@SAHXZ 1001cac6 f i libvcruntime:undname.obj
 0001:0001bad3       ?doPchar@DName@@AAEXPBDH@Z 1001cad3 f   libvcruntime:undname.obj
 0001:0001bb7f       ?doPtr64@UnDecorator@@SAHXZ 1001cb7f f i libvcruntime:undname.obj
 0001:0001bb90       ?doRestrictionSpec@UnDecorator@@SAHXZ 1001cb90 f i libvcruntime:undname.obj
 0001:0001bba1       ?doThisTypes@UnDecorator@@SAHXZ 1001cba1 f i libvcruntime:undname.obj
 0001:0001bbb7       ?doThrowTypes@UnDecorator@@SAHXZ 1001cbb7 f i libvcruntime:undname.obj
 0001:0001bbc8       ?doTypeOnly@UnDecorator@@SAHXZ 1001cbc8 f i libvcruntime:undname.obj
 0001:0001bbd5       ?doUnderScore@UnDecorator@@SAHXZ 1001cbd5 f i libvcruntime:undname.obj
 0001:0001bbe2       ?getArgumentList@UnDecorator@@CA?AVDName@@XZ 1001cbe2 f   libvcruntime:undname.obj
 0001:0001bd31       ?getArgumentTypes@UnDecorator@@CA?AVDName@@XZ 1001cd31 f   libvcruntime:undname.obj
 0001:0001be49       ?getArrayType@UnDecorator@@CA?AVDName@@ABV2@@Z 1001ce49 f i libvcruntime:undname.obj
 0001:0001c0cb       ?getBasedType@UnDecorator@@CA?AVDName@@XZ 1001d0cb f   libvcruntime:undname.obj
 0001:0001c18a       ?getBasicDataType@UnDecorator@@CA?AVDName@@ABV2@@Z 1001d18a f   libvcruntime:undname.obj
 0001:0001c674       ?getCallIndex@UnDecorator@@CA?AVDName@@XZ 1001d674 f i libvcruntime:undname.obj
 0001:0001c68d       ?getCallingConvention@UnDecorator@@CA?AVDName@@XZ 1001d68d f   libvcruntime:undname.obj
 0001:0001c77b       ?getDataIndirectType@UnDecorator@@CA?AVDName@@ABV2@PBD0H@Z 1001d77b f   libvcruntime:undname.obj
 0001:0001cf26       ?getDataIndirectType@UnDecorator@@CA?AVDName@@XZ 1001df26 f i libvcruntime:undname.obj
 0001:0001cf6d       ?getDataType@UnDecorator@@CA?AVDName@@PAV2@@Z 1001df6d f   libvcruntime:undname.obj
 0001:0001d073       ?getDecoratedName@UnDecorator@@CA?AVDName@@XZ 1001e073 f   libvcruntime:undname.obj
 0001:0001d352       ?getDimension@UnDecorator@@CA?AVDName@@_N@Z 1001e352 f   libvcruntime:undname.obj
 0001:0001d4d6       ?getDispatchTarget@UnDecorator@@CA?AVDName@@XZ 1001e4d6 f   libvcruntime:undname.obj
 0001:0001d547       ?getDisplacement@UnDecorator@@CA?AVDName@@XZ 1001e547 f i libvcruntime:undname.obj
 0001:0001d560       ?getECSUDataType@UnDecorator@@CA?AVDName@@XZ 1001e560 f   libvcruntime:undname.obj
 0001:0001d6c4       ?getECSUName@UnDecorator@@CA?AVDName@@XZ 1001e6c4 f i libvcruntime:undname.obj
 0001:0001d6d9       ?getEnumType@UnDecorator@@CA?AVDName@@XZ 1001e6d9 f i libvcruntime:undname.obj
 0001:0001d800       ?getExtendedDataIndirectType@UnDecorator@@CA?AVDName@@AAPBDAA_NH@Z 1001e800 f   libvcruntime:undname.obj
 0001:0001da13       ?getExternalDataType@UnDecorator@@CA?AVDName@@ABV2@@Z 1001ea13 f i libvcruntime:undname.obj
 0001:0001daaa       ?getFunctionIndirectType@UnDecorator@@CA?AVDName@@ABV2@@Z 1001eaaa f   libvcruntime:undname.obj
 0001:0001dfb5       ?getGuardNumber@UnDecorator@@CA?AVDName@@XZ 1001efb5 f i libvcruntime:undname.obj
 0001:0001dfce       ?getLastChar@DName@@QBEDXZ 1001efce f i libvcruntime:undname.obj
 0001:0001dff4       ?getLastChar@DNameStatusNode@@UBEDXZ 1001eff4 f i libvcruntime:undname.obj
 0001:0001e003       ?getLastChar@charNode@@UBEDXZ 1001f003 f i libvcruntime:undname.obj
 0001:0001e007       ?getLastChar@pDNameNode@@UBEDXZ 1001f007 f i libvcruntime:undname.obj
 0001:0001e018       ?getLastChar@pairNode@@UBEDXZ 1001f018 f i libvcruntime:undname.obj
 0001:0001e057       ?getLastChar@pcharNode@@UBEDXZ 1001f057 f i libvcruntime:undname.obj
 0001:0001e06d       ?getLexicalFrame@UnDecorator@@CA?AVDName@@XZ 1001f06d f i libvcruntime:undname.obj
 0001:0001e0b9       ?getMemory@_HeapManager@@QAEPAXIH@Z 1001f0b9 f   libvcruntime:undname.obj
 0001:0001e16a       ?getNumberOfDimensions@UnDecorator@@CAHXZ 1001f16a f   libvcruntime:undname.obj
 0001:0001e1e3       ?getOperatorName@UnDecorator@@CA?AVDName@@_NPA_N@Z 1001f1e3 f i libvcruntime:undname.obj
 0001:0001e993       ?getPointerType@UnDecorator@@CA?AVDName@@ABV2@0@Z 1001f993 f i libvcruntime:undname.obj
 0001:0001e9b8       ?getPointerTypeArray@UnDecorator@@CA?AVDName@@ABV2@0@Z 1001f9b8 f i libvcruntime:undname.obj
 0001:0001e9dd       ?getPrimaryDataType@UnDecorator@@CA?AVDName@@ABV2@@Z 1001f9dd f   libvcruntime:undname.obj
 0001:0001ec4e       ?getPtrRefDataType@UnDecorator@@CA?AVDName@@ABV2@H@Z 1001fc4e f   libvcruntime:undname.obj
 0001:0001ed90       ?getPtrRefType@UnDecorator@@CA?AVDName@@ABV2@0PBD@Z 1001fd90 f   libvcruntime:undname.obj
 0001:0001eecb       ?getReferenceType@UnDecorator@@CA?AVDName@@ABV2@0PBD@Z 1001fecb f i libvcruntime:undname.obj
 0001:0001eeee       ?getRestrictionSpec@UnDecorator@@CA?AVDName@@XZ 1001feee f   libvcruntime:undname.obj
 0001:0001f01c       ?getReturnType@UnDecorator@@CA?AVDName@@PAV2@@Z 1002001c f   libvcruntime:undname.obj
 0001:0001f056       ?getScope@UnDecorator@@CA?AVDName@@XZ 10020056 f   libvcruntime:undname.obj
 0001:0001f52b       ?getScopedName@UnDecorator@@CA?AVDName@@XZ 1002052b f   libvcruntime:undname.obj
 0001:0001f664       ?getSignedDimension@UnDecorator@@CA?AVDName@@XZ 10020664 f   libvcruntime:undname.obj
 0001:0001f6cb       ?getStorageConvention@UnDecorator@@CA?AVDName@@XZ 100206cb f i libvcruntime:undname.obj
 0001:0001f6e0       ?getString@DName@@QBEPADPAD0@Z 100206e0 f i libvcruntime:undname.obj
 0001:0001f717       ?getString@DName@@QBEPADPADH@Z 10020717 f i libvcruntime:undname.obj
 0001:0001f782       ?getString@DNameStatusNode@@UBEPADPAD0@Z 10020782 f i libvcruntime:undname.obj
 0001:0001f7b2       ?getString@charNode@@UBEPADPAD0@Z 100207b2 f i libvcruntime:undname.obj
 0001:0001f7cc       ?getString@pDNameNode@@UBEPADPAD0@Z 100207cc f i libvcruntime:undname.obj
 0001:0001f7e8       ?getString@pairNode@@UBEPADPAD0@Z 100207e8 f i libvcruntime:undname.obj
 0001:0001f83d       ?getString@pcharNode@@UBEPADPAD0@Z 1002083d f i libvcruntime:undname.obj
 0001:0001f85e       ?getStringEncoding@UnDecorator@@CA?AVDName@@PADH@Z 1002085e f   libvcruntime:undname.obj
 0001:0001f929       ?getStringHelper@@YAPADPAD00H@Z 10020929 f i libvcruntime:undname.obj
 0001:0001f96d       ?getSymbolName@UnDecorator@@CA?AVDName@@XZ 1002096d f i libvcruntime:undname.obj
 0001:0001f9c7       ?getTemplateArgumentList@UnDecorator@@CA?AVDName@@XZ 100209c7 f   libvcruntime:undname.obj
 0001:0001fd14       ?getTemplateConstant@UnDecorator@@CA?AVDName@@XZ 10020d14 f   libvcruntime:undname.obj
 0001:00020129       ?getTemplateName@UnDecorator@@CA?AVDName@@_N@Z 10021129 f   libvcruntime:undname.obj
 0001:000202d4       ?getThisType@UnDecorator@@CA?AVDName@@XZ 100212d4 f i libvcruntime:undname.obj
 0001:0002031c       ?getThrowTypes@UnDecorator@@CA?AVDName@@XZ 1002131c f   libvcruntime:undname.obj
 0001:000203c8       ?getTypeEncoding@UnDecorator@@CAHXZ 100213c8 f i libvcruntime:undname.obj
 0001:000207c4       ?getVCallThunkType@UnDecorator@@CA?AVDName@@XZ 100217c4 f i libvcruntime:undname.obj
 0001:0002080d       ?getVbTableType@UnDecorator@@CA?AVDName@@ABV2@@Z 1002180d f i libvcruntime:undname.obj
 0001:00020827       ?getVdispMapType@UnDecorator@@CA?AVDName@@ABV2@@Z 10021827 f i libvcruntime:undname.obj
 0001:00020892       ?getVfTableType@UnDecorator@@CA?AVDName@@ABV2@@Z 10021892 f i libvcruntime:undname.obj
 0001:00020a50       ?getZName@UnDecorator@@CA?AVDName@@_N0@Z 10021a50 f   libvcruntime:undname.obj
 0001:00020d20       ?haveTemplateParameters@UnDecorator@@SAHXZ 10021d20 f i libvcruntime:undname.obj
 0001:00020d2d       ?isArray@DName@@QBEHXZ     10021d2d f i libvcruntime:undname.obj
 0001:00020d39       ?isComArray@DName@@QBEHXZ  10021d39 f i libvcruntime:undname.obj
 0001:00020d45       ?isEmpty@DName@@QBEHXZ     10021d45 f i libvcruntime:undname.obj
 0001:00020d4f       ?isFull@Replicator@@QBEHXZ 10021d4f f i libvcruntime:undname.obj
 0001:00020d5a       ?isNoTE@DName@@QBEHXZ      10021d5a f i libvcruntime:undname.obj
 0001:00020d66       ?isPinPtr@DName@@QBEHXZ    10021d66 f i libvcruntime:undname.obj
 0001:00020d72       ?isPtrRef@DName@@QBEHXZ    10021d72 f i libvcruntime:undname.obj
 0001:00020d7e       ?isUDC@DName@@QBEHXZ       10021d7e f i libvcruntime:undname.obj
 0001:00020d93       ?isUDTThunk@DName@@QBEHXZ  10021d93 f i libvcruntime:undname.obj
 0001:00020da8       ?isVCallThunk@DName@@QBEHXZ 10021da8 f i libvcruntime:undname.obj
 0001:00020db4       ?isValid@DName@@QBEHXZ     10021db4 f i libvcruntime:undname.obj
 0001:00020dc0       ?length@DName@@QBEHXZ      10021dc0 f i libvcruntime:undname.obj
 0001:00020de5       ?length@DNameStatusNode@@UBEHXZ 10021de5 f i libvcruntime:undname.obj
 0001:00020de9       ?length@charNode@@UBEHXZ   10021de9 f i libvcruntime:undname.obj
 0001:00020ded       ?length@pDNameNode@@UBEHXZ 10021ded f i libvcruntime:undname.obj
 0001:00020dfe       ?length@pairNode@@UBEHXZ   10021dfe f i libvcruntime:undname.obj
 0001:00020e5a       ?length@pcharNode@@UBEHXZ  10021e5a f i libvcruntime:undname.obj
 0001:00020e5e       ?make@DNameStatusNode@@SAPAV1@W4DNameStatus@@@Z 10021e5e f i libvcruntime:undname.obj
 0001:00020f05       ?setIsArray@DName@@QAEXXZ  10021f05 f i libvcruntime:undname.obj
 0001:00020f0f       ?setIsComArray@DName@@QAEXXZ 10021f0f f i libvcruntime:undname.obj
 0001:00020f19       ?setIsNoTE@DName@@QAEXXZ   10021f19 f i libvcruntime:undname.obj
 0001:00020f23       ?setIsPinPtr@DName@@QAEXXZ 10021f23 f i libvcruntime:undname.obj
 0001:00020f2d       ?setIsUDC@DName@@QAEXXZ    10021f2d f i libvcruntime:undname.obj
 0001:00020f3d       ?setIsVCallThunk@DName@@QAEXXZ 10021f3d f i libvcruntime:undname.obj
 0001:00020f47       ?setPtrRef@DName@@QAEAAV1@XZ 10021f47 f i libvcruntime:undname.obj
 0001:00020f53       ?status@DName@@QBE?AW4DNameStatus@@XZ 10021f53 f i libvcruntime:undname.obj
 0001:00020fd8       ___unDName                 10021fd8 f   libvcruntime:undname.obj
 0001:00021092       ___unDNameEx               10022092 f   libvcruntime:undname.obj
 0001:0002114c       __vsprintf_s_l             1002214c f i libvcruntime:undname.obj
 0001:00021184       _sprintf_s                 10022184 f i libvcruntime:undname.obj
 0001:000211b0       __global_unwind2           100221b0 f   libvcruntime:_exsup_.obj
 0001:00021215       __local_unwind2            10022215 f   libvcruntime:_exsup_.obj
 0001:00021299       __abnormal_termination     10022299 f   libvcruntime:_exsup_.obj
 0001:000212bc       __NLG_Notify1              100222bc f   libvcruntime:_exsup_.obj
 0001:000212c5       __NLG_Notify               100222c5 f   libvcruntime:_exsup_.obj
 0001:000212dc       __NLG_Dispatch2            100222dc     libvcruntime:_exsup_.obj
 0001:000212dc       __NLG_Dispatch             100222dc     libvcruntime:_exsup_.obj
 0001:000212e4       __NLG_Call                 100222e4 f   libvcruntime:_exsup_.obj
 0001:000212e6       __NLG_Return2              100222e6     libvcruntime:_exsup_.obj
 0001:00021334       ??$__crt_fast_decode_pointer@P6AXXZ@@YAP6AXXZQ6AXXZ@Z 10022334 f i libvcruntime:purevirt.obj
 0001:0002134d       ??$__crt_interlocked_compare_exchange_pointer@$$A6AXXZ$$T$$T@@YAP6AXXZPDS6AXXZ$$T1@Z 1002234d f i libvcruntime:purevirt.obj
 0001:00021363       ??$__crt_interlocked_exchange_pointer@$$A6AXXZP6AXXZ@@YAP6AXXZPDS6AXXZQ6AXXZ@Z 10022363 f i libvcruntime:purevirt.obj
 0001:00021373       ??$__crt_interlocked_read_pointer@$$A6AXXZ@@YAP6AXXZPDS6AXXZ@Z 10022373 f i libvcruntime:purevirt.obj
 0001:00021387       __get_purecall_handler     10022387 f   libvcruntime:purevirt.obj
 0001:000213ad       __purecall                 100223ad f   libvcruntime:purevirt.obj
 0001:000213ce       __set_purecall_handler     100223ce f   libvcruntime:purevirt.obj
 0001:000213fc       _malloc                    100223fc f   libucrt:malloc.obj
 0001:00021409       ??$?RPAU__crt_stdio_stream_data@@@__crt_internal_free_policy@@QBEXQBQAU__crt_stdio_stream_data@@@Z 10022409 f i libucrt:_file.obj
 0001:0002141f       ??0?$__crt_unique_heap_ptr@PAU__crt_stdio_stream_data@@U__crt_internal_free_policy@@@@QAE@QAPAU__crt_stdio_stream_data@@@Z 1002241f f i libucrt:_file.obj
 0001:00021433       ??0__crt_stdio_stream@@QAE@QAU_iobuf@@@Z 10022433 f i libucrt:_file.obj
 0001:00021447       ??1?$__crt_unique_heap_ptr@PAU__crt_stdio_stream_data@@U__crt_internal_free_policy@@@@QAE@XZ 10022447 f i libucrt:_file.obj
 0001:0002145d       ??C__crt_stdio_stream@@QBEPAU__crt_stdio_stream_data@@XZ 1002245d f i libucrt:_file.obj
 0001:00021460       ?detach@?$__crt_unique_heap_ptr@PAU__crt_stdio_stream_data@@U__crt_internal_free_policy@@@@QAEPAPAU__crt_stdio_stream_data@@XZ 10022460 f i libucrt:_file.obj
 0001:00021466       ?release@?$__crt_unique_heap_ptr@PAU__crt_stdio_stream_data@@U__crt_internal_free_policy@@@@QAEXXZ 10022466 f i libucrt:_file.obj
 0001:0002147c       ___acrt_initialize_stdio   1002247c f   libucrt:_file.obj
 0001:00021576       ___acrt_iob_func           10022576 f   libucrt:_file.obj
 0001:0002158a       ___acrt_uninitialize_stdio 1002258a f   libucrt:_file.obj
 0001:000215e9       __get_stream_buffer_pointers 100225e9 f   libucrt:_file.obj
 0001:00021640       __lock_file                10022640 f   libucrt:_file.obj
 0001:00021659       __unlock_file              10022659 f   libucrt:_file.obj
 0001:00021672       ??$?0ABV?$stream_output_adapter@D@__crt_stdio_output@@AB_KABQBDABQAU__crt_locale_pointers@@ABQAD@?$format_validation_base@DV?$stream_output_adapter@D@__crt_stdio_output@@@__crt_stdio_output@@IAE@ABV?$stream_output_adapter@D@1@AB_KABQBDABQAU__crt_locale_pointers@@ABQAD@Z 10022672 f i libucrt:output.obj
 0001:0002169d       ??$?0ABV?$stream_output_adapter@D@__crt_stdio_output@@AB_KABQBDABQAU__crt_locale_pointers@@ABQAD@?$positional_parameter_base@DV?$stream_output_adapter@D@__crt_stdio_output@@@__crt_stdio_output@@IAE@ABV?$stream_output_adapter@D@1@AB_KABQBDABQAU__crt_locale_pointers@@ABQAD@Z 1002269d f i libucrt:output.obj
 0001:000216f7       ??$?0ABV?$stream_output_adapter@D@__crt_stdio_output@@AB_KABQBDABQAU__crt_locale_pointers@@ABQAD@?$standard_base@DV?$stream_output_adapter@D@__crt_stdio_output@@@__crt_stdio_output@@IAE@ABV?$stream_output_adapter@D@1@AB_KABQBDABQAU__crt_locale_pointers@@ABQAD@Z 100226f7 f i libucrt:output.obj
 0001:00021739       ??$?0ABV?$stream_output_adapter@_W@__crt_stdio_output@@AB_KABQB_WABQAU__crt_locale_pointers@@ABQAD@?$format_validation_base@_WV?$stream_output_adapter@_W@__crt_stdio_output@@@__crt_stdio_output@@IAE@ABV?$stream_output_adapter@_W@1@AB_KABQB_WABQAU__crt_locale_pointers@@ABQAD@Z 10022739 f i libucrt:output.obj
 0001:00021764       ??$?0ABV?$stream_output_adapter@_W@__crt_stdio_output@@AB_KABQB_WABQAU__crt_locale_pointers@@ABQAD@?$positional_parameter_base@_WV?$stream_output_adapter@_W@__crt_stdio_output@@@__crt_stdio_output@@IAE@ABV?$stream_output_adapter@_W@1@AB_KABQB_WABQAU__crt_locale_pointers@@ABQAD@Z 10022764 f i libucrt:output.obj
 0001:000217be       ??$?0ABV?$stream_output_adapter@_W@__crt_stdio_output@@AB_KABQB_WABQAU__crt_locale_pointers@@ABQAD@?$standard_base@_WV?$stream_output_adapter@_W@__crt_stdio_output@@@__crt_stdio_output@@IAE@ABV?$stream_output_adapter@_W@1@AB_KABQB_WABQAU__crt_locale_pointers@@ABQAD@Z 100227be f i libucrt:output.obj
 0001:00021800       ??$?0ABV?$string_output_adapter@D@__crt_stdio_output@@AB_KABQBDABQAU__crt_locale_pointers@@ABQAD@?$format_validation_base@DV?$string_output_adapter@D@__crt_stdio_output@@@__crt_stdio_output@@IAE@ABV?$string_output_adapter@D@1@AB_KABQBDABQAU__crt_locale_pointers@@ABQAD@Z 10022800 f i libucrt:output.obj
 0001:0002182b       ??$?0ABV?$string_output_adapter@D@__crt_stdio_output@@AB_KABQBDABQAU__crt_locale_pointers@@ABQAD@?$positional_parameter_base@DV?$string_output_adapter@D@__crt_stdio_output@@@__crt_stdio_output@@IAE@ABV?$string_output_adapter@D@1@AB_KABQBDABQAU__crt_locale_pointers@@ABQAD@Z 1002282b f i libucrt:output.obj
 0001:00021885       ??$?0ABV?$string_output_adapter@D@__crt_stdio_output@@AB_KABQBDABQAU__crt_locale_pointers@@ABQAD@?$standard_base@DV?$string_output_adapter@D@__crt_stdio_output@@@__crt_stdio_output@@IAE@ABV?$string_output_adapter@D@1@AB_KABQBDABQAU__crt_locale_pointers@@ABQAD@Z 10022885 f i libucrt:output.obj
 0001:000218c7       ??$?0ABV?$string_output_adapter@_W@__crt_stdio_output@@AB_KABQB_WABQAU__crt_locale_pointers@@ABQAD@?$format_validation_base@_WV?$string_output_adapter@_W@__crt_stdio_output@@@__crt_stdio_output@@IAE@ABV?$string_output_adapter@_W@1@AB_KABQB_WABQAU__crt_locale_pointers@@ABQAD@Z 100228c7 f i libucrt:output.obj
 0001:000218f2       ??$?0ABV?$string_output_adapter@_W@__crt_stdio_output@@AB_KABQB_WABQAU__crt_locale_pointers@@ABQAD@?$positional_parameter_base@_WV?$string_output_adapter@_W@__crt_stdio_output@@@__crt_stdio_output@@IAE@ABV?$string_output_adapter@_W@1@AB_KABQB_WABQAU__crt_locale_pointers@@ABQAD@Z 100228f2 f i libucrt:output.obj
 0001:0002194c       ??$?0ABV?$string_output_adapter@_W@__crt_stdio_output@@AB_KABQB_WABQAU__crt_locale_pointers@@ABQAD@?$standard_base@_WV?$string_output_adapter@_W@__crt_stdio_output@@@__crt_stdio_output@@IAE@ABV?$string_output_adapter@_W@1@AB_KABQB_WABQAU__crt_locale_pointers@@ABQAD@Z 1002294c f i libucrt:output.obj
 0001:0002198e       ??$?RV<lambda_2293f24e3ce1ad6fe22ccfb9dec07671>@@AAV<lambda_2565fc715a641e539f44ad02d6823606>@@V<lambda_d3217f279b832965d9ca670dc2993570>@@@?$__crt_seh_guarded_call@H@@QAEH$$QAV<lambda_2293f24e3ce1ad6fe22ccfb9dec07671>@@AAV<lambda_2565fc715a641e539f44ad02d6823606>@@$$QAV<lambda_d3217f279b832965d9ca670dc2993570>@@@Z 1002298e f i libucrt:output.obj
 0001:000219f3       ??$?RV<lambda_4d4ac866be0fa3c441830420fabdd2cb>@@AAV<lambda_63a10c2dc8dbb9e4dd1890be52af7c93>@@V<lambda_002af9fa0f8fe472b648c51882d4fc32>@@@?$__crt_seh_guarded_call@H@@QAEH$$QAV<lambda_4d4ac866be0fa3c441830420fabdd2cb>@@AAV<lambda_63a10c2dc8dbb9e4dd1890be52af7c93>@@$$QAV<lambda_002af9fa0f8fe472b648c51882d4fc32>@@@Z 100229f3 f i libucrt:output.obj
 0001:00021a58       ??$?RV<lambda_5be909dfbae0a631386585770cd7b676>@@AAV<lambda_e516058a9c289d98c8ca9fea99247804>@@V<lambda_afe2e0cdc5e0ecf6f0d6f5e2f8985e38>@@@?$__crt_seh_guarded_call@H@@QAEH$$QAV<lambda_5be909dfbae0a631386585770cd7b676>@@AAV<lambda_e516058a9c289d98c8ca9fea99247804>@@$$QAV<lambda_afe2e0cdc5e0ecf6f0d6f5e2f8985e38>@@@Z 10022a58 f i libucrt:output.obj
 0001:00021abd       ??$?RV<lambda_823d65812123d985753d53e2a8c25d20>@@AAV<lambda_0a97c9e57da7be065955385c79108ff2>@@V<lambda_4d2973f3ad2d226f00468307185dca1b>@@@?$__crt_seh_guarded_call@H@@QAEH$$QAV<lambda_823d65812123d985753d53e2a8c25d20>@@AAV<lambda_0a97c9e57da7be065955385c79108ff2>@@$$QAV<lambda_4d2973f3ad2d226f00468307185dca1b>@@@Z 10022abd f i libucrt:output.obj
 0001:00021b22       ??$?RV<lambda_ab9923ffb5d694ec0d78876dd103e44f>@@AAV<lambda_481dd5778c961fbcd3b60b650e9b9dc4>@@V<lambda_7923d86c9e3f319b415918ec4b39749c>@@@?$__crt_seh_guarded_call@H@@QAEH$$QAV<lambda_ab9923ffb5d694ec0d78876dd103e44f>@@AAV<lambda_481dd5778c961fbcd3b60b650e9b9dc4>@@$$QAV<lambda_7923d86c9e3f319b415918ec4b39749c>@@@Z 10022b22 f i libucrt:output.obj
 0001:00021b87       ??$?RV<lambda_db08b09ef7aa9d4f8620ce68402612bc>@@AAV<lambda_4f2c1eaeead2a5fc776db5b62ea0fb9b>@@V<lambda_3ae262bc35d4ba6a3825c4f6bcaaf95c>@@@?$__crt_seh_guarded_call@H@@QAEH$$QAV<lambda_db08b09ef7aa9d4f8620ce68402612bc>@@AAV<lambda_4f2c1eaeead2a5fc776db5b62ea0fb9b>@@$$QAV<lambda_3ae262bc35d4ba6a3825c4f6bcaaf95c>@@@Z 10022b87 f i libucrt:output.obj
 0001:00021bec       ??$__acrt_lock_stream_and_call@V<lambda_0a97c9e57da7be065955385c79108ff2>@@@@YAHQAU_iobuf@@$$QAV<lambda_0a97c9e57da7be065955385c79108ff2>@@@Z 10022bec f i libucrt:output.obj
 0001:00021c1e       ??$__acrt_lock_stream_and_call@V<lambda_2565fc715a641e539f44ad02d6823606>@@@@YAHQAU_iobuf@@$$QAV<lambda_2565fc715a641e539f44ad02d6823606>@@@Z 10022c1e f i libucrt:output.obj
 0001:00021c50       ??$__acrt_lock_stream_and_call@V<lambda_481dd5778c961fbcd3b60b650e9b9dc4>@@@@YAHQAU_iobuf@@$$QAV<lambda_481dd5778c961fbcd3b60b650e9b9dc4>@@@Z 10022c50 f i libucrt:output.obj
 0001:00021c82       ??$__acrt_lock_stream_and_call@V<lambda_4f2c1eaeead2a5fc776db5b62ea0fb9b>@@@@YAHQAU_iobuf@@$$QAV<lambda_4f2c1eaeead2a5fc776db5b62ea0fb9b>@@@Z 10022c82 f i libucrt:output.obj
 0001:00021cb4       ??$__acrt_lock_stream_and_call@V<lambda_63a10c2dc8dbb9e4dd1890be52af7c93>@@@@YAHQAU_iobuf@@$$QAV<lambda_63a10c2dc8dbb9e4dd1890be52af7c93>@@@Z 10022cb4 f i libucrt:output.obj
 0001:00021ce6       ??$__acrt_lock_stream_and_call@V<lambda_e516058a9c289d98c8ca9fea99247804>@@@@YAHQAU_iobuf@@$$QAV<lambda_e516058a9c289d98c8ca9fea99247804>@@@Z 10022ce6 f i libucrt:output.obj
 0001:00021d18       ??$__crt_interlocked_read@J@@YAJPDJ@Z 10022d18 f i libucrt:output.obj
 0001:00022f63       ??$count@D@formatting_buffer@__crt_stdio_output@@QBEIXZ 10023f63 f i libucrt:output.obj
 0001:00022f81       ??$data@D@formatting_buffer@__crt_stdio_output@@QAEPADXZ 10023f81 f i libucrt:output.obj
 0001:00022f91       ??$data@_W@formatting_buffer@__crt_stdio_output@@QAEPA_WXZ 10023f91 f i libucrt:output.obj
 0001:00022fa1       ??$ensure_buffer_is_big_enough@D@formatting_buffer@__crt_stdio_output@@QAE_NI@Z 10023fa1 f i libucrt:output.obj
 0001:00023048       ??$extract_argument_from_va_list@C_J@?$positional_parameter_base@DV?$stream_output_adapter@D@__crt_stdio_output@@@__crt_stdio_output@@IAE_NAA_J@Z 10024048 f i libucrt:output.obj
 0001:000230e6       ??$extract_argument_from_va_list@C_J@?$positional_parameter_base@DV?$string_output_adapter@D@__crt_stdio_output@@@__crt_stdio_output@@IAE_NAA_J@Z 100240e6 f i libucrt:output.obj
 0001:00023184       ??$extract_argument_from_va_list@C_J@?$positional_parameter_base@_WV?$stream_output_adapter@_W@__crt_stdio_output@@@__crt_stdio_output@@IAE_NAA_J@Z 10024184 f i libucrt:output.obj
 0001:00023222       ??$extract_argument_from_va_list@C_J@?$positional_parameter_base@_WV?$string_output_adapter@_W@__crt_stdio_output@@@__crt_stdio_output@@IAE_NAA_J@Z 10024222 f i libucrt:output.obj
 0001:000232c0       ??$extract_argument_from_va_list@C_J@?$standard_base@DV?$stream_output_adapter@D@__crt_stdio_output@@@__crt_stdio_output@@IAE_NAA_J@Z 100242c0 f i libucrt:output.obj
 0001:000232e6       ??$extract_argument_from_va_list@C_J@?$standard_base@DV?$string_output_adapter@D@__crt_stdio_output@@@__crt_stdio_output@@IAE_NAA_J@Z 100242e6 f i libucrt:output.obj
 0001:0002330c       ??$extract_argument_from_va_list@C_J@?$standard_base@_WV?$stream_output_adapter@_W@__crt_stdio_output@@@__crt_stdio_output@@IAE_NAA_J@Z 1002430c f i libucrt:output.obj
 0001:00023332       ??$extract_argument_from_va_list@C_J@?$standard_base@_WV?$string_output_adapter@_W@__crt_stdio_output@@@__crt_stdio_output@@IAE_NAA_J@Z 10024332 f i libucrt:output.obj
 0001:00023358       ??$extract_argument_from_va_list@E_J@?$positional_parameter_base@DV?$stream_output_adapter@D@__crt_stdio_output@@@__crt_stdio_output@@IAE_NAA_J@Z 10024358 f i libucrt:output.obj
 0001:000233f6       ??$extract_argument_from_va_list@E_J@?$positional_parameter_base@DV?$string_output_adapter@D@__crt_stdio_output@@@__crt_stdio_output@@IAE_NAA_J@Z 100243f6 f i libucrt:output.obj
 0001:00023494       ??$extract_argument_from_va_list@E_J@?$positional_parameter_base@_WV?$stream_output_adapter@_W@__crt_stdio_output@@@__crt_stdio_output@@IAE_NAA_J@Z 10024494 f i libucrt:output.obj
 0001:00023532       ??$extract_argument_from_va_list@E_J@?$positional_parameter_base@_WV?$string_output_adapter@_W@__crt_stdio_output@@@__crt_stdio_output@@IAE_NAA_J@Z 10024532 f i libucrt:output.obj
 0001:000235d0       ??$extract_argument_from_va_list@E_J@?$standard_base@DV?$stream_output_adapter@D@__crt_stdio_output@@@__crt_stdio_output@@IAE_NAA_J@Z 100245d0 f i libucrt:output.obj
 0001:000235f6       ??$extract_argument_from_va_list@E_J@?$standard_base@DV?$string_output_adapter@D@__crt_stdio_output@@@__crt_stdio_output@@IAE_NAA_J@Z 100245f6 f i libucrt:output.obj
 0001:0002361c       ??$extract_argument_from_va_list@E_J@?$standard_base@_WV?$stream_output_adapter@_W@__crt_stdio_output@@@__crt_stdio_output@@IAE_NAA_J@Z 1002461c f i libucrt:output.obj
 0001:00023642       ??$extract_argument_from_va_list@E_J@?$standard_base@_WV?$string_output_adapter@_W@__crt_stdio_output@@@__crt_stdio_output@@IAE_NAA_J@Z 10024642 f i libucrt:output.obj
 0001:00023668       ??$extract_argument_from_va_list@F_J@?$positional_parameter_base@DV?$stream_output_adapter@D@__crt_stdio_output@@@__crt_stdio_output@@IAE_NAA_J@Z 10024668 f i libucrt:output.obj
 0001:00023706       ??$extract_argument_from_va_list@F_J@?$positional_parameter_base@DV?$string_output_adapter@D@__crt_stdio_output@@@__crt_stdio_output@@IAE_NAA_J@Z 10024706 f i libucrt:output.obj
 0001:000237a4       ??$extract_argument_from_va_list@F_J@?$positional_parameter_base@_WV?$stream_output_adapter@_W@__crt_stdio_output@@@__crt_stdio_output@@IAE_NAA_J@Z 100247a4 f i libucrt:output.obj
 0001:00023842       ??$extract_argument_from_va_list@F_J@?$positional_parameter_base@_WV?$string_output_adapter@_W@__crt_stdio_output@@@__crt_stdio_output@@IAE_NAA_J@Z 10024842 f i libucrt:output.obj
 0001:000238e0       ??$extract_argument_from_va_list@F_J@?$standard_base@DV?$stream_output_adapter@D@__crt_stdio_output@@@__crt_stdio_output@@IAE_NAA_J@Z 100248e0 f i libucrt:output.obj
 0001:00023906       ??$extract_argument_from_va_list@F_J@?$standard_base@DV?$string_output_adapter@D@__crt_stdio_output@@@__crt_stdio_output@@IAE_NAA_J@Z 10024906 f i libucrt:output.obj
 0001:0002392c       ??$extract_argument_from_va_list@F_J@?$standard_base@_WV?$stream_output_adapter@_W@__crt_stdio_output@@@__crt_stdio_output@@IAE_NAA_J@Z 1002492c f i libucrt:output.obj
 0001:00023952       ??$extract_argument_from_va_list@F_J@?$standard_base@_WV?$string_output_adapter@_W@__crt_stdio_output@@@__crt_stdio_output@@IAE_NAA_J@Z 10024952 f i libucrt:output.obj
 0001:00023978       ??$extract_argument_from_va_list@GD@?$positional_parameter_base@DV?$stream_output_adapter@D@__crt_stdio_output@@@__crt_stdio_output@@IAE_NAAD@Z 10024978 f i libucrt:output.obj
 0001:00023a15       ??$extract_argument_from_va_list@GD@?$positional_parameter_base@DV?$string_output_adapter@D@__crt_stdio_output@@@__crt_stdio_output@@IAE_NAAD@Z 10024a15 f i libucrt:output.obj
 0001:00023ab2       ??$extract_argument_from_va_list@GD@?$standard_base@DV?$stream_output_adapter@D@__crt_stdio_output@@@__crt_stdio_output@@IAE_NAAD@Z 10024ab2 f i libucrt:output.obj
 0001:00023ad2       ??$extract_argument_from_va_list@GD@?$standard_base@DV?$string_output_adapter@D@__crt_stdio_output@@@__crt_stdio_output@@IAE_NAAD@Z 10024ad2 f i libucrt:output.obj
 0001:00023af2       ??$extract_argument_from_va_list@G_J@?$positional_parameter_base@DV?$stream_output_adapter@D@__crt_stdio_output@@@__crt_stdio_output@@IAE_NAA_J@Z 10024af2 f i libucrt:output.obj
 0001:00023b90       ??$extract_argument_from_va_list@G_J@?$positional_parameter_base@DV?$string_output_adapter@D@__crt_stdio_output@@@__crt_stdio_output@@IAE_NAA_J@Z 10024b90 f i libucrt:output.obj
 0001:00023c2e       ??$extract_argument_from_va_list@G_J@?$positional_parameter_base@_WV?$stream_output_adapter@_W@__crt_stdio_output@@@__crt_stdio_output@@IAE_NAA_J@Z 10024c2e f i libucrt:output.obj
 0001:00023ccc       ??$extract_argument_from_va_list@G_J@?$positional_parameter_base@_WV?$string_output_adapter@_W@__crt_stdio_output@@@__crt_stdio_output@@IAE_NAA_J@Z 10024ccc f i libucrt:output.obj
 0001:00023d6a       ??$extract_argument_from_va_list@G_J@?$standard_base@DV?$stream_output_adapter@D@__crt_stdio_output@@@__crt_stdio_output@@IAE_NAA_J@Z 10024d6a f i libucrt:output.obj
 0001:00023d90       ??$extract_argument_from_va_list@G_J@?$standard_base@DV?$string_output_adapter@D@__crt_stdio_output@@@__crt_stdio_output@@IAE_NAA_J@Z 10024d90 f i libucrt:output.obj
 0001:00023db6       ??$extract_argument_from_va_list@G_J@?$standard_base@_WV?$stream_output_adapter@_W@__crt_stdio_output@@@__crt_stdio_output@@IAE_NAA_J@Z 10024db6 f i libucrt:output.obj
 0001:00023ddc       ??$extract_argument_from_va_list@G_J@?$standard_base@_WV?$string_output_adapter@_W@__crt_stdio_output@@@__crt_stdio_output@@IAE_NAA_J@Z 10024ddc f i libucrt:output.obj
 0001:00023e02       ??$extract_argument_from_va_list@H_J@?$positional_parameter_base@DV?$stream_output_adapter@D@__crt_stdio_output@@@__crt_stdio_output@@IAE_NAA_J@Z 10024e02 f i libucrt:output.obj
 0001:00023e9e       ??$extract_argument_from_va_list@H_J@?$positional_parameter_base@DV?$string_output_adapter@D@__crt_stdio_output@@@__crt_stdio_output@@IAE_NAA_J@Z 10024e9e f i libucrt:output.obj
 0001:00023f3a       ??$extract_argument_from_va_list@H_J@?$positional_parameter_base@_WV?$stream_output_adapter@_W@__crt_stdio_output@@@__crt_stdio_output@@IAE_NAA_J@Z 10024f3a f i libucrt:output.obj
 0001:00023fd6       ??$extract_argument_from_va_list@H_J@?$positional_parameter_base@_WV?$string_output_adapter@_W@__crt_stdio_output@@@__crt_stdio_output@@IAE_NAA_J@Z 10024fd6 f i libucrt:output.obj
 0001:00024072       ??$extract_argument_from_va_list@H_J@?$standard_base@DV?$stream_output_adapter@D@__crt_stdio_output@@@__crt_stdio_output@@IAE_NAA_J@Z 10025072 f i libucrt:output.obj
 0001:00024097       ??$extract_argument_from_va_list@H_J@?$standard_base@DV?$string_output_adapter@D@__crt_stdio_output@@@__crt_stdio_output@@IAE_NAA_J@Z 10025097 f i libucrt:output.obj
 0001:000240bc       ??$extract_argument_from_va_list@H_J@?$standard_base@_WV?$stream_output_adapter@_W@__crt_stdio_output@@@__crt_stdio_output@@IAE_NAA_J@Z 100250bc f i libucrt:output.obj
 0001:000240e1       ??$extract_argument_from_va_list@H_J@?$standard_base@_WV?$string_output_adapter@_W@__crt_stdio_output@@@__crt_stdio_output@@IAE_NAA_J@Z 100250e1 f i libucrt:output.obj
 0001:00024106       ??$extract_argument_from_va_list@I_J@?$positional_parameter_base@DV?$stream_output_adapter@D@__crt_stdio_output@@@__crt_stdio_output@@IAE_NAA_J@Z 10025106 f i libucrt:output.obj
 0001:000241ad       ??$extract_argument_from_va_list@I_J@?$positional_parameter_base@DV?$string_output_adapter@D@__crt_stdio_output@@@__crt_stdio_output@@IAE_NAA_J@Z 100251ad f i libucrt:output.obj
 0001:00024254       ??$extract_argument_from_va_list@I_J@?$positional_parameter_base@_WV?$stream_output_adapter@_W@__crt_stdio_output@@@__crt_stdio_output@@IAE_NAA_J@Z 10025254 f i libucrt:output.obj
 0001:000242fb       ??$extract_argument_from_va_list@I_J@?$positional_parameter_base@_WV?$string_output_adapter@_W@__crt_stdio_output@@@__crt_stdio_output@@IAE_NAA_J@Z 100252fb f i libucrt:output.obj
 0001:000243a2       ??$extract_argument_from_va_list@I_J@?$standard_base@DV?$stream_output_adapter@D@__crt_stdio_output@@@__crt_stdio_output@@IAE_NAA_J@Z 100253a2 f i libucrt:output.obj
 0001:000243c7       ??$extract_argument_from_va_list@I_J@?$standard_base@DV?$string_output_adapter@D@__crt_stdio_output@@@__crt_stdio_output@@IAE_NAA_J@Z 100253c7 f i libucrt:output.obj
 0001:000243ec       ??$extract_argument_from_va_list@I_J@?$standard_base@_WV?$stream_output_adapter@_W@__crt_stdio_output@@@__crt_stdio_output@@IAE_NAA_J@Z 100253ec f i libucrt:output.obj
 0001:00024411       ??$extract_argument_from_va_list@I_J@?$standard_base@_WV?$string_output_adapter@_W@__crt_stdio_output@@@__crt_stdio_output@@IAE_NAA_J@Z 10025411 f i libucrt:output.obj
 0001:00024436       ??$extract_argument_from_va_list@PADPAD@?$positional_parameter_base@DV?$stream_output_adapter@D@__crt_stdio_output@@@__crt_stdio_output@@IAE_NAAPAD@Z 10025436 f i libucrt:output.obj
 0001:000244d3       ??$extract_argument_from_va_list@PADPAD@?$positional_parameter_base@DV?$string_output_adapter@D@__crt_stdio_output@@@__crt_stdio_output@@IAE_NAAPAD@Z 100254d3 f i libucrt:output.obj
 0001:00024570       ??$extract_argument_from_va_list@PADPAD@?$positional_parameter_base@_WV?$stream_output_adapter@_W@__crt_stdio_output@@@__crt_stdio_output@@IAE_NAAPAD@Z 10025570 f i libucrt:output.obj
 0001:0002460d       ??$extract_argument_from_va_list@PADPAD@?$positional_parameter_base@_WV?$string_output_adapter@_W@__crt_stdio_output@@@__crt_stdio_output@@IAE_NAAPAD@Z 1002560d f i libucrt:output.obj
 0001:000246aa       ??$extract_argument_from_va_list@PADPAD@?$standard_base@DV?$stream_output_adapter@D@__crt_stdio_output@@@__crt_stdio_output@@IAE_NAAPAD@Z 100256aa f i libucrt:output.obj
 0001:000246ca       ??$extract_argument_from_va_list@PADPAD@?$standard_base@DV?$string_output_adapter@D@__crt_stdio_output@@@__crt_stdio_output@@IAE_NAAPAD@Z 100256ca f i libucrt:output.obj
 0001:000246ea       ??$extract_argument_from_va_list@PADPAD@?$standard_base@_WV?$stream_output_adapter@_W@__crt_stdio_output@@@__crt_stdio_output@@IAE_NAAPAD@Z 100256ea f i libucrt:output.obj
 0001:0002470a       ??$extract_argument_from_va_list@PADPAD@?$standard_base@_WV?$string_output_adapter@_W@__crt_stdio_output@@@__crt_stdio_output@@IAE_NAAPAD@Z 1002570a f i libucrt:output.obj
 0001:0002472a       ??$extract_argument_from_va_list@PAUansi_string@?1??type_case_Z@?$output_processor@DV?$stream_output_adapter@D@__crt_stdio_output@@V?$format_validation_base@DV?$stream_output_adapter@D@__crt_stdio_output@@@2@@__crt_stdio_output@@AAE_NXZ@PAU1?1??234@AAE_NXZ@@?$standard_base@DV?$stream_output_adapter@D@__crt_stdio_output@@@__crt_stdio_output@@IAE_NAAPAUansi_string@?1??type_case_Z@?$output_processor@DV?$stream_output_adapter@D@__crt_stdio_output@@V?$format_validation_base@DV?$stream_output_adapter@D@__crt_stdio_output@@@2@@1@AAE_NXZ@@Z 1002572a f i libucrt:output.obj
 0001:0002474a       ??$extract_argument_from_va_list@PAUansi_string@?1??type_case_Z@?$output_processor@DV?$stream_output_adapter@D@__crt_stdio_output@@V?$positional_parameter_base@DV?$stream_output_adapter@D@__crt_stdio_output@@@2@@__crt_stdio_output@@AAE_NXZ@PAU1?1??234@AAE_NXZ@@?$positional_parameter_base@DV?$stream_output_adapter@D@__crt_stdio_output@@@__crt_stdio_output@@IAE_NAAPAUansi_string@?1??type_case_Z@?$output_processor@DV?$stream_output_adapter@D@__crt_stdio_output@@V?$positional_parameter_base@DV?$stream_output_adapter@D@__crt_stdio_output@@@2@@1@AAE_NXZ@@Z 1002574a f i libucrt:output.obj
 0001:000247e7       ??$extract_argument_from_va_list@PAUansi_string@?1??type_case_Z@?$output_processor@DV?$stream_output_adapter@D@__crt_stdio_output@@V?$positional_parameter_base@DV?$stream_output_adapter@D@__crt_stdio_output@@@2@@__crt_stdio_output@@AAE_NXZ@PAU1?1??234@AAE_NXZ@@?$standard_base@DV?$stream_output_adapter@D@__crt_stdio_output@@@__crt_stdio_output@@IAE_NAAPAUansi_string@?1??type_case_Z@?$output_processor@DV?$stream_output_adapter@D@__crt_stdio_output@@V?$positional_parameter_base@DV?$stream_output_adapter@D@__crt_stdio_output@@@2@@1@AAE_NXZ@@Z 100257e7 f i libucrt:output.obj
 0001:00024807       ??$extract_argument_from_va_list@PAUansi_string@?1??type_case_Z@?$output_processor@DV?$stream_output_adapter@D@__crt_stdio_output@@V?$standard_base@DV?$stream_output_adapter@D@__crt_stdio_output@@@2@@__crt_stdio_output@@AAE_NXZ@PAU1?1??234@AAE_NXZ@@?$standard_base@DV?$stream_output_adapter@D@__crt_stdio_output@@@__crt_stdio_output@@IAE_NAAPAUansi_string@?1??type_case_Z@?$output_processor@DV?$stream_output_adapter@D@__crt_stdio_output@@V?$standard_base@DV?$stream_output_adapter@D@__crt_stdio_output@@@2@@1@AAE_NXZ@@Z 10025807 f i libucrt:output.obj
 0001:00024827       ??$extract_argument_from_va_list@PAUansi_string@?1??type_case_Z@?$output_processor@DV?$string_output_adapter@D@__crt_stdio_output@@V?$format_validation_base@DV?$string_output_adapter@D@__crt_stdio_output@@@2@@__crt_stdio_output@@AAE_NXZ@PAU1?1??234@AAE_NXZ@@?$standard_base@DV?$string_output_adapter@D@__crt_stdio_output@@@__crt_stdio_output@@IAE_NAAPAUansi_string@?1??type_case_Z@?$output_processor@DV?$string_output_adapter@D@__crt_stdio_output@@V?$format_validation_base@DV?$string_output_adapter@D@__crt_stdio_output@@@2@@1@AAE_NXZ@@Z 10025827 f i libucrt:output.obj
 0001:00024847       ??$extract_argument_from_va_list@PAUansi_string@?1??type_case_Z@?$output_processor@DV?$string_output_adapter@D@__crt_stdio_output@@V?$positional_parameter_base@DV?$string_output_adapter@D@__crt_stdio_output@@@2@@__crt_stdio_output@@AAE_NXZ@PAU1?1??234@AAE_NXZ@@?$positional_parameter_base@DV?$string_output_adapter@D@__crt_stdio_output@@@__crt_stdio_output@@IAE_NAAPAUansi_string@?1??type_case_Z@?$output_processor@DV?$string_output_adapter@D@__crt_stdio_output@@V?$positional_parameter_base@DV?$string_output_adapter@D@__crt_stdio_output@@@2@@1@AAE_NXZ@@Z 10025847 f i libucrt:output.obj
 0001:000248e4       ??$extract_argument_from_va_list@PAUansi_string@?1??type_case_Z@?$output_processor@DV?$string_output_adapter@D@__crt_stdio_output@@V?$positional_parameter_base@DV?$string_output_adapter@D@__crt_stdio_output@@@2@@__crt_stdio_output@@AAE_NXZ@PAU1?1??234@AAE_NXZ@@?$standard_base@DV?$string_output_adapter@D@__crt_stdio_output@@@__crt_stdio_output@@IAE_NAAPAUansi_string@?1??type_case_Z@?$output_processor@DV?$string_output_adapter@D@__crt_stdio_output@@V?$positional_parameter_base@DV?$string_output_adapter@D@__crt_stdio_output@@@2@@1@AAE_NXZ@@Z 100258e4 f i libucrt:output.obj
 0001:00024904       ??$extract_argument_from_va_list@PAUansi_string@?1??type_case_Z@?$output_processor@DV?$string_output_adapter@D@__crt_stdio_output@@V?$standard_base@DV?$string_output_adapter@D@__crt_stdio_output@@@2@@__crt_stdio_output@@AAE_NXZ@PAU1?1??234@AAE_NXZ@@?$standard_base@DV?$string_output_adapter@D@__crt_stdio_output@@@__crt_stdio_output@@IAE_NAAPAUansi_string@?1??type_case_Z@?$output_processor@DV?$string_output_adapter@D@__crt_stdio_output@@V?$standard_base@DV?$string_output_adapter@D@__crt_stdio_output@@@2@@1@AAE_NXZ@@Z 10025904 f i libucrt:output.obj
 0001:00024924       ??$extract_argument_from_va_list@PAUansi_string@?1??type_case_Z@?$output_processor@_WV?$stream_output_adapter@_W@__crt_stdio_output@@V?$format_validation_base@_WV?$stream_output_adapter@_W@__crt_stdio_output@@@2@@__crt_stdio_output@@AAE_NXZ@PAU1?1??234@AAE_NXZ@@?$standard_base@_WV?$stream_output_adapter@_W@__crt_stdio_output@@@__crt_stdio_output@@IAE_NAAPAUansi_string@?1??type_case_Z@?$output_processor@_WV?$stream_output_adapter@_W@__crt_stdio_output@@V?$format_validation_base@_WV?$stream_output_adapter@_W@__crt_stdio_output@@@2@@1@AAE_NXZ@@Z 10025924 f i libucrt:output.obj
 0001:00024944       ??$extract_argument_from_va_list@PAUansi_string@?1??type_case_Z@?$output_processor@_WV?$stream_output_adapter@_W@__crt_stdio_output@@V?$positional_parameter_base@_WV?$stream_output_adapter@_W@__crt_stdio_output@@@2@@__crt_stdio_output@@AAE_NXZ@PAU1?1??234@AAE_NXZ@@?$positional_parameter_base@_WV?$stream_output_adapter@_W@__crt_stdio_output@@@__crt_stdio_output@@IAE_NAAPAUansi_string@?1??type_case_Z@?$output_processor@_WV?$stream_output_adapter@_W@__crt_stdio_output@@V?$positional_parameter_base@_WV?$stream_output_adapter@_W@__crt_stdio_output@@@2@@1@AAE_NXZ@@Z 10025944 f i libucrt:output.obj
 0001:000249e1       ??$extract_argument_from_va_list@PAUansi_string@?1??type_case_Z@?$output_processor@_WV?$stream_output_adapter@_W@__crt_stdio_output@@V?$positional_parameter_base@_WV?$stream_output_adapter@_W@__crt_stdio_output@@@2@@__crt_stdio_output@@AAE_NXZ@PAU1?1??234@AAE_NXZ@@?$standard_base@_WV?$stream_output_adapter@_W@__crt_stdio_output@@@__crt_stdio_output@@IAE_NAAPAUansi_string@?1??type_case_Z@?$output_processor@_WV?$stream_output_adapter@_W@__crt_stdio_output@@V?$positional_parameter_base@_WV?$stream_output_adapter@_W@__crt_stdio_output@@@2@@1@AAE_NXZ@@Z 100259e1 f i libucrt:output.obj
 0001:00024a01       ??$extract_argument_from_va_list@PAUansi_string@?1??type_case_Z@?$output_processor@_WV?$stream_output_adapter@_W@__crt_stdio_output@@V?$standard_base@_WV?$stream_output_adapter@_W@__crt_stdio_output@@@2@@__crt_stdio_output@@AAE_NXZ@PAU1?1??234@AAE_NXZ@@?$standard_base@_WV?$stream_output_adapter@_W@__crt_stdio_output@@@__crt_stdio_output@@IAE_NAAPAUansi_string@?1??type_case_Z@?$output_processor@_WV?$stream_output_adapter@_W@__crt_stdio_output@@V?$standard_base@_WV?$stream_output_adapter@_W@__crt_stdio_output@@@2@@1@AAE_NXZ@@Z 10025a01 f i libucrt:output.obj
 0001:00024a21       ??$extract_argument_from_va_list@PAUansi_string@?1??type_case_Z@?$output_processor@_WV?$string_output_adapter@_W@__crt_stdio_output@@V?$format_validation_base@_WV?$string_output_adapter@_W@__crt_stdio_output@@@2@@__crt_stdio_output@@AAE_NXZ@PAU1?1??234@AAE_NXZ@@?$standard_base@_WV?$string_output_adapter@_W@__crt_stdio_output@@@__crt_stdio_output@@IAE_NAAPAUansi_string@?1??type_case_Z@?$output_processor@_WV?$string_output_adapter@_W@__crt_stdio_output@@V?$format_validation_base@_WV?$string_output_adapter@_W@__crt_stdio_output@@@2@@1@AAE_NXZ@@Z 10025a21 f i libucrt:output.obj
 0001:00024a41       ??$extract_argument_from_va_list@PAUansi_string@?1??type_case_Z@?$output_processor@_WV?$string_output_adapter@_W@__crt_stdio_output@@V?$positional_parameter_base@_WV?$string_output_adapter@_W@__crt_stdio_output@@@2@@__crt_stdio_output@@AAE_NXZ@PAU1?1??234@AAE_NXZ@@?$positional_parameter_base@_WV?$string_output_adapter@_W@__crt_stdio_output@@@__crt_stdio_output@@IAE_NAAPAUansi_string@?1??type_case_Z@?$output_processor@_WV?$string_output_adapter@_W@__crt_stdio_output@@V?$positional_parameter_base@_WV?$string_output_adapter@_W@__crt_stdio_output@@@2@@1@AAE_NXZ@@Z 10025a41 f i libucrt:output.obj
 0001:00024ade       ??$extract_argument_from_va_list@PAUansi_string@?1??type_case_Z@?$output_processor@_WV?$string_output_adapter@_W@__crt_stdio_output@@V?$positional_parameter_base@_WV?$string_output_adapter@_W@__crt_stdio_output@@@2@@__crt_stdio_output@@AAE_NXZ@PAU1?1??234@AAE_NXZ@@?$standard_base@_WV?$string_output_adapter@_W@__crt_stdio_output@@@__crt_stdio_output@@IAE_NAAPAUansi_string@?1??type_case_Z@?$output_processor@_WV?$string_output_adapter@_W@__crt_stdio_output@@V?$positional_parameter_base@_WV?$string_output_adapter@_W@__crt_stdio_output@@@2@@1@AAE_NXZ@@Z 10025ade f i libucrt:output.obj
 0001:00024afe       ??$extract_argument_from_va_list@PAUansi_string@?1??type_case_Z@?$output_processor@_WV?$string_output_adapter@_W@__crt_stdio_output@@V?$standard_base@_WV?$string_output_adapter@_W@__crt_stdio_output@@@2@@__crt_stdio_output@@AAE_NXZ@PAU1?1??234@AAE_NXZ@@?$standard_base@_WV?$string_output_adapter@_W@__crt_stdio_output@@@__crt_stdio_output@@IAE_NAAPAUansi_string@?1??type_case_Z@?$output_processor@_WV?$string_output_adapter@_W@__crt_stdio_output@@V?$standard_base@_WV?$string_output_adapter@_W@__crt_stdio_output@@@2@@1@AAE_NXZ@@Z 10025afe f i libucrt:output.obj
 0001:00024b1e       ??$extract_argument_from_va_list@PAXPAX@?$positional_parameter_base@DV?$stream_output_adapter@D@__crt_stdio_output@@@__crt_stdio_output@@IAE_NAAPAX@Z 10025b1e f i libucrt:output.obj
 0001:00024bbb       ??$extract_argument_from_va_list@PAXPAX@?$positional_parameter_base@DV?$string_output_adapter@D@__crt_stdio_output@@@__crt_stdio_output@@IAE_NAAPAX@Z 10025bbb f i libucrt:output.obj
 0001:00024c58       ??$extract_argument_from_va_list@PAXPAX@?$positional_parameter_base@_WV?$stream_output_adapter@_W@__crt_stdio_output@@@__crt_stdio_output@@IAE_NAAPAX@Z 10025c58 f i libucrt:output.obj
 0001:00024cf5       ??$extract_argument_from_va_list@PAXPAX@?$positional_parameter_base@_WV?$string_output_adapter@_W@__crt_stdio_output@@@__crt_stdio_output@@IAE_NAAPAX@Z 10025cf5 f i libucrt:output.obj
 0001:00024d92       ??$extract_argument_from_va_list@PAXPAX@?$standard_base@DV?$stream_output_adapter@D@__crt_stdio_output@@@__crt_stdio_output@@IAE_NAAPAX@Z 10025d92 f i libucrt:output.obj
 0001:00024db2       ??$extract_argument_from_va_list@PAXPAX@?$standard_base@DV?$string_output_adapter@D@__crt_stdio_output@@@__crt_stdio_output@@IAE_NAAPAX@Z 10025db2 f i libucrt:output.obj
 0001:00024dd2       ??$extract_argument_from_va_list@PAXPAX@?$standard_base@_WV?$stream_output_adapter@_W@__crt_stdio_output@@@__crt_stdio_output@@IAE_NAAPAX@Z 10025dd2 f i libucrt:output.obj
 0001:00024df2       ??$extract_argument_from_va_list@PAXPAX@?$standard_base@_WV?$string_output_adapter@_W@__crt_stdio_output@@@__crt_stdio_output@@IAE_NAAPAX@Z 10025df2 f i libucrt:output.obj
 0001:00024e12       ??$extract_argument_from_va_list@U_CRT_DOUBLE@@U1@@?$positional_parameter_base@DV?$stream_output_adapter@D@__crt_stdio_output@@@__crt_stdio_output@@IAE_NAAU_CRT_DOUBLE@@@Z 10025e12 f i libucrt:output.obj
 0001:00024ec3       ??$extract_argument_from_va_list@U_CRT_DOUBLE@@U1@@?$positional_parameter_base@DV?$string_output_adapter@D@__crt_stdio_output@@@__crt_stdio_output@@IAE_NAAU_CRT_DOUBLE@@@Z 10025ec3 f i libucrt:output.obj
 0001:00024f74       ??$extract_argument_from_va_list@U_CRT_DOUBLE@@U1@@?$positional_parameter_base@_WV?$stream_output_adapter@_W@__crt_stdio_output@@@__crt_stdio_output@@IAE_NAAU_CRT_DOUBLE@@@Z 10025f74 f i libucrt:output.obj
 0001:00025025       ??$extract_argument_from_va_list@U_CRT_DOUBLE@@U1@@?$positional_parameter_base@_WV?$string_output_adapter@_W@__crt_stdio_output@@@__crt_stdio_output@@IAE_NAAU_CRT_DOUBLE@@@Z 10026025 f i libucrt:output.obj
 0001:000250d6       ??$extract_argument_from_va_list@U_CRT_DOUBLE@@U1@@?$standard_base@DV?$stream_output_adapter@D@__crt_stdio_output@@@__crt_stdio_output@@IAE_NAAU_CRT_DOUBLE@@@Z 100260d6 f i libucrt:output.obj
 0001:000250fe       ??$extract_argument_from_va_list@U_CRT_DOUBLE@@U1@@?$standard_base@DV?$string_output_adapter@D@__crt_stdio_output@@@__crt_stdio_output@@IAE_NAAU_CRT_DOUBLE@@@Z 100260fe f i libucrt:output.obj
 0001:00025126       ??$extract_argument_from_va_list@U_CRT_DOUBLE@@U1@@?$standard_base@_WV?$stream_output_adapter@_W@__crt_stdio_output@@@__crt_stdio_output@@IAE_NAAU_CRT_DOUBLE@@@Z 10026126 f i libucrt:output.obj
 0001:0002514e       ??$extract_argument_from_va_list@U_CRT_DOUBLE@@U1@@?$standard_base@_WV?$string_output_adapter@_W@__crt_stdio_output@@@__crt_stdio_output@@IAE_NAAU_CRT_DOUBLE@@@Z 1002614e f i libucrt:output.obj
 0001:00025176       ??$extract_argument_from_va_list@_J_J@?$positional_parameter_base@DV?$stream_output_adapter@D@__crt_stdio_output@@@__crt_stdio_output@@IAE_NAA_J@Z 10026176 f i libucrt:output.obj
 0001:00025227       ??$extract_argument_from_va_list@_J_J@?$positional_parameter_base@DV?$string_output_adapter@D@__crt_stdio_output@@@__crt_stdio_output@@IAE_NAA_J@Z 10026227 f i libucrt:output.obj
 0001:000252d8       ??$extract_argument_from_va_list@_J_J@?$positional_parameter_base@_WV?$stream_output_adapter@_W@__crt_stdio_output@@@__crt_stdio_output@@IAE_NAA_J@Z 100262d8 f i libucrt:output.obj
 0001:00025389       ??$extract_argument_from_va_list@_J_J@?$positional_parameter_base@_WV?$string_output_adapter@_W@__crt_stdio_output@@@__crt_stdio_output@@IAE_NAA_J@Z 10026389 f i libucrt:output.obj
 0001:0002543a       ??$extract_argument_from_va_list@_J_J@?$standard_base@DV?$stream_output_adapter@D@__crt_stdio_output@@@__crt_stdio_output@@IAE_NAA_J@Z 1002643a f i libucrt:output.obj
 0001:00025462       ??$extract_argument_from_va_list@_J_J@?$standard_base@DV?$string_output_adapter@D@__crt_stdio_output@@@__crt_stdio_output@@IAE_NAA_J@Z 10026462 f i libucrt:output.obj
 0001:0002548a       ??$extract_argument_from_va_list@_J_J@?$standard_base@_WV?$stream_output_adapter@_W@__crt_stdio_output@@@__crt_stdio_output@@IAE_NAA_J@Z 1002648a f i libucrt:output.obj
 0001:000254b2       ??$extract_argument_from_va_list@_J_J@?$standard_base@_WV?$string_output_adapter@_W@__crt_stdio_output@@@__crt_stdio_output@@IAE_NAA_J@Z 100264b2 f i libucrt:output.obj
 0001:000254da       ??$extract_argument_from_va_list@_K_J@?$positional_parameter_base@DV?$stream_output_adapter@D@__crt_stdio_output@@@__crt_stdio_output@@IAE_NAA_J@Z 100264da f i libucrt:output.obj
 0001:0002558b       ??$extract_argument_from_va_list@_K_J@?$positional_parameter_base@DV?$string_output_adapter@D@__crt_stdio_output@@@__crt_stdio_output@@IAE_NAA_J@Z 1002658b f i libucrt:output.obj
 0001:0002563c       ??$extract_argument_from_va_list@_K_J@?$positional_parameter_base@_WV?$stream_output_adapter@_W@__crt_stdio_output@@@__crt_stdio_output@@IAE_NAA_J@Z 1002663c f i libucrt:output.obj
 0001:000256ed       ??$extract_argument_from_va_list@_K_J@?$positional_parameter_base@_WV?$string_output_adapter@_W@__crt_stdio_output@@@__crt_stdio_output@@IAE_NAA_J@Z 100266ed f i libucrt:output.obj
 0001:0002579e       ??$extract_argument_from_va_list@_K_J@?$standard_base@DV?$stream_output_adapter@D@__crt_stdio_output@@@__crt_stdio_output@@IAE_NAA_J@Z 1002679e f i libucrt:output.obj
 0001:000257c6       ??$extract_argument_from_va_list@_K_J@?$standard_base@DV?$string_output_adapter@D@__crt_stdio_output@@@__crt_stdio_output@@IAE_NAA_J@Z 100267c6 f i libucrt:output.obj
 0001:000257ee       ??$extract_argument_from_va_list@_K_J@?$standard_base@_WV?$stream_output_adapter@_W@__crt_stdio_output@@@__crt_stdio_output@@IAE_NAA_J@Z 100267ee f i libucrt:output.obj
 0001:00025816       ??$extract_argument_from_va_list@_K_J@?$standard_base@_WV?$string_output_adapter@_W@__crt_stdio_output@@@__crt_stdio_output@@IAE_NAA_J@Z 10026816 f i libucrt:output.obj
 0001:0002583e       ??$extract_argument_from_va_list@_W_W@?$positional_parameter_base@DV?$stream_output_adapter@D@__crt_stdio_output@@@__crt_stdio_output@@IAE_NAA_W@Z 1002683e f i libucrt:output.obj
 0001:000258e0       ??$extract_argument_from_va_list@_W_W@?$positional_parameter_base@DV?$string_output_adapter@D@__crt_stdio_output@@@__crt_stdio_output@@IAE_NAA_W@Z 100268e0 f i libucrt:output.obj
 0001:00025982       ??$extract_argument_from_va_list@_W_W@?$positional_parameter_base@_WV?$stream_output_adapter@_W@__crt_stdio_output@@@__crt_stdio_output@@IAE_NAA_W@Z 10026982 f i libucrt:output.obj
 0001:00025a24       ??$extract_argument_from_va_list@_W_W@?$positional_parameter_base@_WV?$string_output_adapter@_W@__crt_stdio_output@@@__crt_stdio_output@@IAE_NAA_W@Z 10026a24 f i libucrt:output.obj
 0001:00025ac6       ??$extract_argument_from_va_list@_W_W@?$standard_base@DV?$stream_output_adapter@D@__crt_stdio_output@@@__crt_stdio_output@@IAE_NAA_W@Z 10026ac6 f i libucrt:output.obj
 0001:00025ae9       ??$extract_argument_from_va_list@_W_W@?$standard_base@DV?$string_output_adapter@D@__crt_stdio_output@@@__crt_stdio_output@@IAE_NAA_W@Z 10026ae9 f i libucrt:output.obj
 0001:00025b0c       ??$extract_argument_from_va_list@_W_W@?$standard_base@_WV?$stream_output_adapter@_W@__crt_stdio_output@@@__crt_stdio_output@@IAE_NAA_W@Z 10026b0c f i libucrt:output.obj
 0001:00025b2f       ??$extract_argument_from_va_list@_W_W@?$standard_base@_WV?$string_output_adapter@_W@__crt_stdio_output@@@__crt_stdio_output@@IAE_NAA_W@Z 10026b2f f i libucrt:output.obj
 0001:00025b52       ??$get_parameter_type@D@?$positional_parameter_base@DV?$stream_output_adapter@D@__crt_stdio_output@@@__crt_stdio_output@@CA?AW4parameter_type@01@PAD@Z 10026b52 f i libucrt:output.obj
 0001:00025b56       ??$get_parameter_type@D@?$positional_parameter_base@DV?$string_output_adapter@D@__crt_stdio_output@@@__crt_stdio_output@@CA?AW4parameter_type@01@PAD@Z 10026b56 f i libucrt:output.obj
 0001:00025b5a       ??$get_parameter_type@D@?$positional_parameter_base@_WV?$stream_output_adapter@_W@__crt_stdio_output@@@__crt_stdio_output@@CA?AW4parameter_type@01@PAD@Z 10026b5a f i libucrt:output.obj
 0001:00025b5e       ??$get_parameter_type@D@?$positional_parameter_base@_WV?$string_output_adapter@_W@__crt_stdio_output@@@__crt_stdio_output@@CA?AW4parameter_type@01@PAD@Z 10026b5e f i libucrt:output.obj
 0001:00025b62       ??$get_parameter_type@Uansi_string@?1??type_case_Z@?$output_processor@DV?$stream_output_adapter@D@__crt_stdio_output@@V?$positional_parameter_base@DV?$stream_output_adapter@D@__crt_stdio_output@@@2@@__crt_stdio_output@@AAE_NXZ@@?$positional_parameter_base@DV?$stream_output_adapter@D@__crt_stdio_output@@@__crt_stdio_output@@CA?AW4parameter_type@01@PAUansi_string@?1??type_case_Z@?$output_processor@DV?$stream_output_adapter@D@__crt_stdio_output@@V?$positional_parameter_base@DV?$stream_output_adapter@D@__crt_stdio_output@@@2@@1@AAE_NXZ@@Z 10026b62 f i libucrt:output.obj
 0001:00025b66       ??$get_parameter_type@Uansi_string@?1??type_case_Z@?$output_processor@DV?$string_output_adapter@D@__crt_stdio_output@@V?$positional_parameter_base@DV?$string_output_adapter@D@__crt_stdio_output@@@2@@__crt_stdio_output@@AAE_NXZ@@?$positional_parameter_base@DV?$string_output_adapter@D@__crt_stdio_output@@@__crt_stdio_output@@CA?AW4parameter_type@01@PAUansi_string@?1??type_case_Z@?$output_processor@DV?$string_output_adapter@D@__crt_stdio_output@@V?$positional_parameter_base@DV?$string_output_adapter@D@__crt_stdio_output@@@2@@1@AAE_NXZ@@Z 10026b66 f i libucrt:output.obj
 0001:00025b6a       ??$get_parameter_type@Uansi_string@?1??type_case_Z@?$output_processor@_WV?$stream_output_adapter@_W@__crt_stdio_output@@V?$positional_parameter_base@_WV?$stream_output_adapter@_W@__crt_stdio_output@@@2@@__crt_stdio_output@@AAE_NXZ@@?$positional_parameter_base@_WV?$stream_output_adapter@_W@__crt_stdio_output@@@__crt_stdio_output@@CA?AW4parameter_type@01@PAUansi_string@?1??type_case_Z@?$output_processor@_WV?$stream_output_adapter@_W@__crt_stdio_output@@V?$positional_parameter_base@_WV?$stream_output_adapter@_W@__crt_stdio_output@@@2@@1@AAE_NXZ@@Z 10026b6a f i libucrt:output.obj
 0001:00025b6e       ??$get_parameter_type@Uansi_string@?1??type_case_Z@?$output_processor@_WV?$string_output_adapter@_W@__crt_stdio_output@@V?$positional_parameter_base@_WV?$string_output_adapter@_W@__crt_stdio_output@@@2@@__crt_stdio_output@@AAE_NXZ@@?$positional_parameter_base@_WV?$string_output_adapter@_W@__crt_stdio_output@@@__crt_stdio_output@@CA?AW4parameter_type@01@PAUansi_string@?1??type_case_Z@?$output_processor@_WV?$string_output_adapter@_W@__crt_stdio_output@@V?$positional_parameter_base@_WV?$string_output_adapter@_W@__crt_stdio_output@@@2@@1@AAE_NXZ@@Z 10026b6e f i libucrt:output.obj
 0001:00025b72       ??$get_parameter_type@X@?$positional_parameter_base@DV?$stream_output_adapter@D@__crt_stdio_output@@@__crt_stdio_output@@CA?AW4parameter_type@01@PAX@Z 10026b72 f i libucrt:output.obj
 0001:00025b76       ??$get_parameter_type@X@?$positional_parameter_base@DV?$string_output_adapter@D@__crt_stdio_output@@@__crt_stdio_output@@CA?AW4parameter_type@01@PAX@Z 10026b76 f i libucrt:output.obj
 0001:00025b7a       ??$get_parameter_type@X@?$positional_parameter_base@_WV?$stream_output_adapter@_W@__crt_stdio_output@@@__crt_stdio_output@@CA?AW4parameter_type@01@PAX@Z 10026b7a f i libucrt:output.obj
 0001:00025b7e       ??$get_parameter_type@X@?$positional_parameter_base@_WV?$string_output_adapter@_W@__crt_stdio_output@@@__crt_stdio_output@@CA?AW4parameter_type@01@PAX@Z 10026b7e f i libucrt:output.obj
 0001:00025b82       ??$is_character_specifier@D@?$positional_parameter_base@DV?$stream_output_adapter@D@__crt_stdio_output@@@__crt_stdio_output@@CA_ND@Z 10026b82 f i libucrt:output.obj
 0001:00025ba1       ??$is_character_specifier@D@?$positional_parameter_base@DV?$string_output_adapter@D@__crt_stdio_output@@@__crt_stdio_output@@CA_ND@Z 10026ba1 f i libucrt:output.obj
 0001:00025bc0       ??$is_character_specifier@_W@?$positional_parameter_base@_WV?$stream_output_adapter@_W@__crt_stdio_output@@@__crt_stdio_output@@CA_N_W@Z 10026bc0 f i libucrt:output.obj
 0001:00025be3       ??$is_character_specifier@_W@?$positional_parameter_base@_WV?$string_output_adapter@_W@__crt_stdio_output@@@__crt_stdio_output@@CA_N_W@Z 10026be3 f i libucrt:output.obj
 0001:00025c06       ??$is_integral_specifier@D@?$positional_parameter_base@DV?$stream_output_adapter@D@__crt_stdio_output@@@__crt_stdio_output@@CA_ND@Z 10026c06 f i libucrt:output.obj
 0001:00025c3e       ??$is_integral_specifier@D@?$positional_parameter_base@DV?$string_output_adapter@D@__crt_stdio_output@@@__crt_stdio_output@@CA_ND@Z 10026c3e f i libucrt:output.obj
 0001:00025c76       ??$is_integral_specifier@_W@?$positional_parameter_base@_WV?$stream_output_adapter@_W@__crt_stdio_output@@@__crt_stdio_output@@CA_N_W@Z 10026c76 f i libucrt:output.obj
 0001:00025cc1       ??$is_integral_specifier@_W@?$positional_parameter_base@_WV?$string_output_adapter@_W@__crt_stdio_output@@@__crt_stdio_output@@CA_N_W@Z 10026cc1 f i libucrt:output.obj
 0001:00025d0c       ??$is_pointer_specifier@D@?$positional_parameter_base@DV?$stream_output_adapter@D@__crt_stdio_output@@@__crt_stdio_output@@CA_ND@Z 10026d0c f i libucrt:output.obj
 0001:00025d20       ??$is_pointer_specifier@D@?$positional_parameter_base@DV?$string_output_adapter@D@__crt_stdio_output@@@__crt_stdio_output@@CA_ND@Z 10026d20 f i libucrt:output.obj
 0001:00025d34       ??$is_pointer_specifier@_W@?$positional_parameter_base@_WV?$stream_output_adapter@_W@__crt_stdio_output@@@__crt_stdio_output@@CA_N_W@Z 10026d34 f i libucrt:output.obj
 0001:00025d49       ??$is_pointer_specifier@_W@?$positional_parameter_base@_WV?$string_output_adapter@_W@__crt_stdio_output@@@__crt_stdio_output@@CA_N_W@Z 10026d49 f i libucrt:output.obj
 0001:00025d5e       ??$is_string_specifier@D@?$positional_parameter_base@DV?$stream_output_adapter@D@__crt_stdio_output@@@__crt_stdio_output@@CA_ND@Z 10026d5e f i libucrt:output.obj
 0001:00025d7d       ??$is_string_specifier@D@?$positional_parameter_base@DV?$string_output_adapter@D@__crt_stdio_output@@@__crt_stdio_output@@CA_ND@Z 10026d7d f i libucrt:output.obj
 0001:00025d9c       ??$is_string_specifier@_W@?$positional_parameter_base@_WV?$stream_output_adapter@_W@__crt_stdio_output@@@__crt_stdio_output@@CA_N_W@Z 10026d9c f i libucrt:output.obj
 0001:00025dbf       ??$is_string_specifier@_W@?$positional_parameter_base@_WV?$string_output_adapter@_W@__crt_stdio_output@@@__crt_stdio_output@@CA_N_W@Z 10026dbf f i libucrt:output.obj
 0001:00025de2       ??$is_wide_character_specifier@D@__crt_stdio_output@@YA_N_KDW4length_modifier@0@@Z 10026de2 f i libucrt:output.obj
 0001:00025e32       ??$is_wide_character_specifier@_W@__crt_stdio_output@@YA_N_K_WW4length_modifier@0@@Z 10026e32 f i libucrt:output.obj
 0001:00025e94       ??$peek_va_arg@C@__crt_stdio_output@@YACPAD@Z 10026e94 f i libucrt:output.obj
 0001:00025ea3       ??$peek_va_arg@E@__crt_stdio_output@@YAEPAD@Z 10026ea3 f i libucrt:output.obj
 0001:00025eb2       ??$peek_va_arg@F@__crt_stdio_output@@YAFPAD@Z 10026eb2 f i libucrt:output.obj
 0001:00025ec2       ??$peek_va_arg@G@__crt_stdio_output@@YAGPAD@Z 10026ec2 f i libucrt:output.obj
 0001:00025ed2       ??$peek_va_arg@H@__crt_stdio_output@@YAHPAD@Z 10026ed2 f i libucrt:output.obj
 0001:00025ee1       ??$peek_va_arg@I@__crt_stdio_output@@YAIPAD@Z 10026ee1 f i libucrt:output.obj
 0001:00025ef0       ??$peek_va_arg@PAD@__crt_stdio_output@@YAPADPAD@Z 10026ef0 f i libucrt:output.obj
 0001:00025eff       ??$peek_va_arg@PAUansi_string@?1??type_case_Z@?$output_processor@DV?$stream_output_adapter@D@__crt_stdio_output@@V?$positional_parameter_base@DV?$stream_output_adapter@D@__crt_stdio_output@@@2@@__crt_stdio_output@@AAE_NXZ@@__crt_stdio_output@@YAPAUansi_string@?1??type_case_Z@?$output_processor@DV?$stream_output_adapter@D@__crt_stdio_output@@V?$positional_parameter_base@DV?$stream_output_adapter@D@__crt_stdio_output@@@2@@0@AAE_NXZ@PAD@Z 10026eff f i libucrt:output.obj
 0001:00025f0e       ??$peek_va_arg@PAUansi_string@?1??type_case_Z@?$output_processor@DV?$string_output_adapter@D@__crt_stdio_output@@V?$positional_parameter_base@DV?$string_output_adapter@D@__crt_stdio_output@@@2@@__crt_stdio_output@@AAE_NXZ@@__crt_stdio_output@@YAPAUansi_string@?1??type_case_Z@?$output_processor@DV?$string_output_adapter@D@__crt_stdio_output@@V?$positional_parameter_base@DV?$string_output_adapter@D@__crt_stdio_output@@@2@@0@AAE_NXZ@PAD@Z 10026f0e f i libucrt:output.obj
 0001:00025f1d       ??$peek_va_arg@PAUansi_string@?1??type_case_Z@?$output_processor@_WV?$stream_output_adapter@_W@__crt_stdio_output@@V?$positional_parameter_base@_WV?$stream_output_adapter@_W@__crt_stdio_output@@@2@@__crt_stdio_output@@AAE_NXZ@@__crt_stdio_output@@YAPAUansi_string@?1??type_case_Z@?$output_processor@_WV?$stream_output_adapter@_W@__crt_stdio_output@@V?$positional_parameter_base@_WV?$stream_output_adapter@_W@__crt_stdio_output@@@2@@0@AAE_NXZ@PAD@Z 10026f1d f i libucrt:output.obj
 0001:00025f2c       ??$peek_va_arg@PAUansi_string@?1??type_case_Z@?$output_processor@_WV?$string_output_adapter@_W@__crt_stdio_output@@V?$positional_parameter_base@_WV?$string_output_adapter@_W@__crt_stdio_output@@@2@@__crt_stdio_output@@AAE_NXZ@@__crt_stdio_output@@YAPAUansi_string@?1??type_case_Z@?$output_processor@_WV?$string_output_adapter@_W@__crt_stdio_output@@V?$positional_parameter_base@_WV?$string_output_adapter@_W@__crt_stdio_output@@@2@@0@AAE_NXZ@PAD@Z 10026f2c f i libucrt:output.obj
 0001:00025f3b       ??$peek_va_arg@PAX@__crt_stdio_output@@YAPAXPAD@Z 10026f3b f i libucrt:output.obj
 0001:00025f4a       ??$peek_va_arg@U_CRT_DOUBLE@@@__crt_stdio_output@@YA?AU_CRT_DOUBLE@@PAD@Z 10026f4a f i libucrt:output.obj
 0001:00025f5c       ??$peek_va_arg@_J@__crt_stdio_output@@YA_JPAD@Z 10026f5c f i libucrt:output.obj
 0001:00025f6e       ??$peek_va_arg@_K@__crt_stdio_output@@YA_KPAD@Z 10026f6e f i libucrt:output.obj
 0001:00025f80       ??$peek_va_arg@_W@__crt_stdio_output@@YA_WPAD@Z 10026f80 f i libucrt:output.obj
 0001:00025f90       ??$puttc_nolock@ABDPAU_iobuf@@@?$__crt_char_traits@D@@SAHABD$$QAPAU_iobuf@@@Z 10026f90 f i libucrt:output.obj
 0001:00025fb0       ??$puttc_nolock@AB_WPAU_iobuf@@@?$__crt_char_traits@_W@@SAGAB_W$$QAPAU_iobuf@@@Z 10026fb0 f i libucrt:output.obj
 0001:00025fd0       ??$read_va_arg@C@__crt_stdio_output@@YACAAPAD@Z 10026fd0 f i libucrt:output.obj
 0001:00025fe6       ??$read_va_arg@E@__crt_stdio_output@@YAEAAPAD@Z 10026fe6 f i libucrt:output.obj
 0001:00025ffc       ??$read_va_arg@F@__crt_stdio_output@@YAFAAPAD@Z 10026ffc f i libucrt:output.obj
 0001:00026013       ??$read_va_arg@G@__crt_stdio_output@@YAGAAPAD@Z 10027013 f i libucrt:output.obj
 0001:0002602a       ??$read_va_arg@H@__crt_stdio_output@@YAHAAPAD@Z 1002702a f i libucrt:output.obj
 0001:00026040       ??$read_va_arg@I@__crt_stdio_output@@YAIAAPAD@Z 10027040 f i libucrt:output.obj
 0001:00026056       ??$read_va_arg@PAD@__crt_stdio_output@@YAPADAAPAD@Z 10027056 f i libucrt:output.obj
 0001:0002606c       ??$read_va_arg@PAUansi_string@?1??type_case_Z@?$output_processor@DV?$stream_output_adapter@D@__crt_stdio_output@@V?$format_validation_base@DV?$stream_output_adapter@D@__crt_stdio_output@@@2@@__crt_stdio_output@@AAE_NXZ@@__crt_stdio_output@@YAPAUansi_string@?1??type_case_Z@?$output_processor@DV?$stream_output_adapter@D@__crt_stdio_output@@V?$format_validation_base@DV?$stream_output_adapter@D@__crt_stdio_output@@@2@@0@AAE_NXZ@AAPAD@Z 1002706c f i libucrt:output.obj
 0001:00026082       ??$read_va_arg@PAUansi_string@?1??type_case_Z@?$output_processor@DV?$stream_output_adapter@D@__crt_stdio_output@@V?$positional_parameter_base@DV?$stream_output_adapter@D@__crt_stdio_output@@@2@@__crt_stdio_output@@AAE_NXZ@@__crt_stdio_output@@YAPAUansi_string@?1??type_case_Z@?$output_processor@DV?$stream_output_adapter@D@__crt_stdio_output@@V?$positional_parameter_base@DV?$stream_output_adapter@D@__crt_stdio_output@@@2@@0@AAE_NXZ@AAPAD@Z 10027082 f i libucrt:output.obj
 0001:00026098       ??$read_va_arg@PAUansi_string@?1??type_case_Z@?$output_processor@DV?$stream_output_adapter@D@__crt_stdio_output@@V?$standard_base@DV?$stream_output_adapter@D@__crt_stdio_output@@@2@@__crt_stdio_output@@AAE_NXZ@@__crt_stdio_output@@YAPAUansi_string@?1??type_case_Z@?$output_processor@DV?$stream_output_adapter@D@__crt_stdio_output@@V?$standard_base@DV?$stream_output_adapter@D@__crt_stdio_output@@@2@@0@AAE_NXZ@AAPAD@Z 10027098 f i libucrt:output.obj
 0001:000260ae       ??$read_va_arg@PAUansi_string@?1??type_case_Z@?$output_processor@DV?$string_output_adapter@D@__crt_stdio_output@@V?$format_validation_base@DV?$string_output_adapter@D@__crt_stdio_output@@@2@@__crt_stdio_output@@AAE_NXZ@@__crt_stdio_output@@YAPAUansi_string@?1??type_case_Z@?$output_processor@DV?$string_output_adapter@D@__crt_stdio_output@@V?$format_validation_base@DV?$string_output_adapter@D@__crt_stdio_output@@@2@@0@AAE_NXZ@AAPAD@Z 100270ae f i libucrt:output.obj
 0001:000260c4       ??$read_va_arg@PAUansi_string@?1??type_case_Z@?$output_processor@DV?$string_output_adapter@D@__crt_stdio_output@@V?$positional_parameter_base@DV?$string_output_adapter@D@__crt_stdio_output@@@2@@__crt_stdio_output@@AAE_NXZ@@__crt_stdio_output@@YAPAUansi_string@?1??type_case_Z@?$output_processor@DV?$string_output_adapter@D@__crt_stdio_output@@V?$positional_parameter_base@DV?$string_output_adapter@D@__crt_stdio_output@@@2@@0@AAE_NXZ@AAPAD@Z 100270c4 f i libucrt:output.obj
 0001:000260da       ??$read_va_arg@PAUansi_string@?1??type_case_Z@?$output_processor@DV?$string_output_adapter@D@__crt_stdio_output@@V?$standard_base@DV?$string_output_adapter@D@__crt_stdio_output@@@2@@__crt_stdio_output@@AAE_NXZ@@__crt_stdio_output@@YAPAUansi_string@?1??type_case_Z@?$output_processor@DV?$string_output_adapter@D@__crt_stdio_output@@V?$standard_base@DV?$string_output_adapter@D@__crt_stdio_output@@@2@@0@AAE_NXZ@AAPAD@Z 100270da f i libucrt:output.obj
 0001:000260f0       ??$read_va_arg@PAUansi_string@?1??type_case_Z@?$output_processor@_WV?$stream_output_adapter@_W@__crt_stdio_output@@V?$format_validation_base@_WV?$stream_output_adapter@_W@__crt_stdio_output@@@2@@__crt_stdio_output@@AAE_NXZ@@__crt_stdio_output@@YAPAUansi_string@?1??type_case_Z@?$output_processor@_WV?$stream_output_adapter@_W@__crt_stdio_output@@V?$format_validation_base@_WV?$stream_output_adapter@_W@__crt_stdio_output@@@2@@0@AAE_NXZ@AAPAD@Z 100270f0 f i libucrt:output.obj
 0001:00026106       ??$read_va_arg@PAUansi_string@?1??type_case_Z@?$output_processor@_WV?$stream_output_adapter@_W@__crt_stdio_output@@V?$positional_parameter_base@_WV?$stream_output_adapter@_W@__crt_stdio_output@@@2@@__crt_stdio_output@@AAE_NXZ@@__crt_stdio_output@@YAPAUansi_string@?1??type_case_Z@?$output_processor@_WV?$stream_output_adapter@_W@__crt_stdio_output@@V?$positional_parameter_base@_WV?$stream_output_adapter@_W@__crt_stdio_output@@@2@@0@AAE_NXZ@AAPAD@Z 10027106 f i libucrt:output.obj
 0001:0002611c       ??$read_va_arg@PAUansi_string@?1??type_case_Z@?$output_processor@_WV?$stream_output_adapter@_W@__crt_stdio_output@@V?$standard_base@_WV?$stream_output_adapter@_W@__crt_stdio_output@@@2@@__crt_stdio_output@@AAE_NXZ@@__crt_stdio_output@@YAPAUansi_string@?1??type_case_Z@?$output_processor@_WV?$stream_output_adapter@_W@__crt_stdio_output@@V?$standard_base@_WV?$stream_output_adapter@_W@__crt_stdio_output@@@2@@0@AAE_NXZ@AAPAD@Z 1002711c f i libucrt:output.obj
 0001:00026132       ??$read_va_arg@PAUansi_string@?1??type_case_Z@?$output_processor@_WV?$string_output_adapter@_W@__crt_stdio_output@@V?$format_validation_base@_WV?$string_output_adapter@_W@__crt_stdio_output@@@2@@__crt_stdio_output@@AAE_NXZ@@__crt_stdio_output@@YAPAUansi_string@?1??type_case_Z@?$output_processor@_WV?$string_output_adapter@_W@__crt_stdio_output@@V?$format_validation_base@_WV?$string_output_adapter@_W@__crt_stdio_output@@@2@@0@AAE_NXZ@AAPAD@Z 10027132 f i libucrt:output.obj
 0001:00026148       ??$read_va_arg@PAUansi_string@?1??type_case_Z@?$output_processor@_WV?$string_output_adapter@_W@__crt_stdio_output@@V?$positional_parameter_base@_WV?$string_output_adapter@_W@__crt_stdio_output@@@2@@__crt_stdio_output@@AAE_NXZ@@__crt_stdio_output@@YAPAUansi_string@?1??type_case_Z@?$output_processor@_WV?$string_output_adapter@_W@__crt_stdio_output@@V?$positional_parameter_base@_WV?$string_output_adapter@_W@__crt_stdio_output@@@2@@0@AAE_NXZ@AAPAD@Z 10027148 f i libucrt:output.obj
 0001:0002615e       ??$read_va_arg@PAUansi_string@?1??type_case_Z@?$output_processor@_WV?$string_output_adapter@_W@__crt_stdio_output@@V?$standard_base@_WV?$string_output_adapter@_W@__crt_stdio_output@@@2@@__crt_stdio_output@@AAE_NXZ@@__crt_stdio_output@@YAPAUansi_string@?1??type_case_Z@?$output_processor@_WV?$string_output_adapter@_W@__crt_stdio_output@@V?$standard_base@_WV?$string_output_adapter@_W@__crt_stdio_output@@@2@@0@AAE_NXZ@AAPAD@Z 1002715e f i libucrt:output.obj
 0001:00026174       ??$read_va_arg@PAX@__crt_stdio_output@@YAPAXAAPAD@Z 10027174 f i libucrt:output.obj
 0001:0002618a       ??$read_va_arg@U_CRT_DOUBLE@@@__crt_stdio_output@@YA?AU_CRT_DOUBLE@@AAPAD@Z 1002718a f i libucrt:output.obj
 0001:000261a4       ??$read_va_arg@_J@__crt_stdio_output@@YA_JAAPAD@Z 100271a4 f i libucrt:output.obj
 0001:000261be       ??$read_va_arg@_K@__crt_stdio_output@@YA_KAAPAD@Z 100271be f i libucrt:output.obj
 0001:000261d8       ??$read_va_arg@_W@__crt_stdio_output@@YA_WAAPAD@Z 100271d8 f i libucrt:output.obj
 0001:000261ef       ??$scratch_count@D@formatting_buffer@__crt_stdio_output@@QBEIXZ 100271ef f i libucrt:output.obj
 0001:000261f4       ??$scratch_data@D@formatting_buffer@__crt_stdio_output@@QAEPADXZ 100271f4 f i libucrt:output.obj
 0001:00026219       ??$tcstol@AAPBDPAPADH@?$__crt_char_traits@D@@SAJAAPBD$$QAPAPAD$$QAH@Z 10027219 f i libucrt:output.obj
 0001:0002623e       ??$tcstol@AAPB_WPAPA_WH@?$__crt_char_traits@_W@@SAJAAPB_W$$QAPAPA_W$$QAH@Z 1002723e f i libucrt:output.obj
 0001:00026263       ??$tcstol@PBDPAPADH@?$__crt_char_traits@D@@SAJ$$QAPBD$$QAPAPAD$$QAH@Z 10027263 f i libucrt:output.obj
 0001:00026288       ??$tcstol@PB_WPAPA_WH@?$__crt_char_traits@_W@@SAJ$$QAPB_W$$QAPAPA_W$$QAH@Z 10027288 f i libucrt:output.obj
 0001:000262ad       ??$type_case_integer_parse_into_buffer@I@?$output_processor@DV?$stream_output_adapter@D@__crt_stdio_output@@V?$format_validation_base@DV?$stream_output_adapter@D@__crt_stdio_output@@@2@@__crt_stdio_output@@AAEXII_N@Z 100272ad f i libucrt:output.obj
 0001:0002633f       ??$type_case_integer_parse_into_buffer@I@?$output_processor@DV?$stream_output_adapter@D@__crt_stdio_output@@V?$positional_parameter_base@DV?$stream_output_adapter@D@__crt_stdio_output@@@2@@__crt_stdio_output@@AAEXII_N@Z 1002733f f i libucrt:output.obj
 0001:000263d1       ??$type_case_integer_parse_into_buffer@I@?$output_processor@DV?$stream_output_adapter@D@__crt_stdio_output@@V?$standard_base@DV?$stream_output_adapter@D@__crt_stdio_output@@@2@@__crt_stdio_output@@AAEXII_N@Z 100273d1 f i libucrt:output.obj
 0001:00026463       ??$type_case_integer_parse_into_buffer@I@?$output_processor@DV?$string_output_adapter@D@__crt_stdio_output@@V?$format_validation_base@DV?$string_output_adapter@D@__crt_stdio_output@@@2@@__crt_stdio_output@@AAEXII_N@Z 10027463 f i libucrt:output.obj
 0001:000264f5       ??$type_case_integer_parse_into_buffer@I@?$output_processor@DV?$string_output_adapter@D@__crt_stdio_output@@V?$positional_parameter_base@DV?$string_output_adapter@D@__crt_stdio_output@@@2@@__crt_stdio_output@@AAEXII_N@Z 100274f5 f i libucrt:output.obj
 0001:00026587       ??$type_case_integer_parse_into_buffer@I@?$output_processor@DV?$string_output_adapter@D@__crt_stdio_output@@V?$standard_base@DV?$string_output_adapter@D@__crt_stdio_output@@@2@@__crt_stdio_output@@AAEXII_N@Z 10027587 f i libucrt:output.obj
 0001:00026619       ??$type_case_integer_parse_into_buffer@I@?$output_processor@_WV?$stream_output_adapter@_W@__crt_stdio_output@@V?$format_validation_base@_WV?$stream_output_adapter@_W@__crt_stdio_output@@@2@@__crt_stdio_output@@AAEXII_N@Z 10027619 f i libucrt:output.obj
 0001:000266ab       ??$type_case_integer_parse_into_buffer@I@?$output_processor@_WV?$stream_output_adapter@_W@__crt_stdio_output@@V?$positional_parameter_base@_WV?$stream_output_adapter@_W@__crt_stdio_output@@@2@@__crt_stdio_output@@AAEXII_N@Z 100276ab f i libucrt:output.obj
 0001:0002673d       ??$type_case_integer_parse_into_buffer@I@?$output_processor@_WV?$stream_output_adapter@_W@__crt_stdio_output@@V?$standard_base@_WV?$stream_output_adapter@_W@__crt_stdio_output@@@2@@__crt_stdio_output@@AAEXII_N@Z 1002773d f i libucrt:output.obj
 0001:000267cf       ??$type_case_integer_parse_into_buffer@I@?$output_processor@_WV?$string_output_adapter@_W@__crt_stdio_output@@V?$format_validation_base@_WV?$string_output_adapter@_W@__crt_stdio_output@@@2@@__crt_stdio_output@@AAEXII_N@Z 100277cf f i libucrt:output.obj
 0001:00026861       ??$type_case_integer_parse_into_buffer@I@?$output_processor@_WV?$string_output_adapter@_W@__crt_stdio_output@@V?$positional_parameter_base@_WV?$string_output_adapter@_W@__crt_stdio_output@@@2@@__crt_stdio_output@@AAEXII_N@Z 10027861 f i libucrt:output.obj
 0001:000268f3       ??$type_case_integer_parse_into_buffer@I@?$output_processor@_WV?$string_output_adapter@_W@__crt_stdio_output@@V?$standard_base@_WV?$string_output_adapter@_W@__crt_stdio_output@@@2@@__crt_stdio_output@@AAEXII_N@Z 100278f3 f i libucrt:output.obj
 0001:00026985       ??$type_case_integer_parse_into_buffer@_K@?$output_processor@DV?$stream_output_adapter@D@__crt_stdio_output@@V?$format_validation_base@DV?$stream_output_adapter@D@__crt_stdio_output@@@2@@__crt_stdio_output@@AAEX_KI_N@Z 10027985 f i libucrt:output.obj
 0001:00026a2f       ??$type_case_integer_parse_into_buffer@_K@?$output_processor@DV?$stream_output_adapter@D@__crt_stdio_output@@V?$positional_parameter_base@DV?$stream_output_adapter@D@__crt_stdio_output@@@2@@__crt_stdio_output@@AAEX_KI_N@Z 10027a2f f i libucrt:output.obj
 0001:00026ad9       ??$type_case_integer_parse_into_buffer@_K@?$output_processor@DV?$stream_output_adapter@D@__crt_stdio_output@@V?$standard_base@DV?$stream_output_adapter@D@__crt_stdio_output@@@2@@__crt_stdio_output@@AAEX_KI_N@Z 10027ad9 f i libucrt:output.obj
 0001:00026b83       ??$type_case_integer_parse_into_buffer@_K@?$output_processor@DV?$string_output_adapter@D@__crt_stdio_output@@V?$format_validation_base@DV?$string_output_adapter@D@__crt_stdio_output@@@2@@__crt_stdio_output@@AAEX_KI_N@Z 10027b83 f i libucrt:output.obj
 0001:00026c2d       ??$type_case_integer_parse_into_buffer@_K@?$output_processor@DV?$string_output_adapter@D@__crt_stdio_output@@V?$positional_parameter_base@DV?$string_output_adapter@D@__crt_stdio_output@@@2@@__crt_stdio_output@@AAEX_KI_N@Z 10027c2d f i libucrt:output.obj
 0001:00026cd7       ??$type_case_integer_parse_into_buffer@_K@?$output_processor@DV?$string_output_adapter@D@__crt_stdio_output@@V?$standard_base@DV?$string_output_adapter@D@__crt_stdio_output@@@2@@__crt_stdio_output@@AAEX_KI_N@Z 10027cd7 f i libucrt:output.obj
 0001:00026d81       ??$type_case_integer_parse_into_buffer@_K@?$output_processor@_WV?$stream_output_adapter@_W@__crt_stdio_output@@V?$format_validation_base@_WV?$stream_output_adapter@_W@__crt_stdio_output@@@2@@__crt_stdio_output@@AAEX_KI_N@Z 10027d81 f i libucrt:output.obj
 0001:00026e2b       ??$type_case_integer_parse_into_buffer@_K@?$output_processor@_WV?$stream_output_adapter@_W@__crt_stdio_output@@V?$positional_parameter_base@_WV?$stream_output_adapter@_W@__crt_stdio_output@@@2@@__crt_stdio_output@@AAEX_KI_N@Z 10027e2b f i libucrt:output.obj
 0001:00026ed5       ??$type_case_integer_parse_into_buffer@_K@?$output_processor@_WV?$stream_output_adapter@_W@__crt_stdio_output@@V?$standard_base@_WV?$stream_output_adapter@_W@__crt_stdio_output@@@2@@__crt_stdio_output@@AAEX_KI_N@Z 10027ed5 f i libucrt:output.obj
 0001:00026f7f       ??$type_case_integer_parse_into_buffer@_K@?$output_processor@_WV?$string_output_adapter@_W@__crt_stdio_output@@V?$format_validation_base@_WV?$string_output_adapter@_W@__crt_stdio_output@@@2@@__crt_stdio_output@@AAEX_KI_N@Z 10027f7f f i libucrt:output.obj
 0001:00027029       ??$type_case_integer_parse_into_buffer@_K@?$output_processor@_WV?$string_output_adapter@_W@__crt_stdio_output@@V?$positional_parameter_base@_WV?$string_output_adapter@_W@__crt_stdio_output@@@2@@__crt_stdio_output@@AAEX_KI_N@Z 10028029 f i libucrt:output.obj
 0001:000270d3       ??$type_case_integer_parse_into_buffer@_K@?$output_processor@_WV?$string_output_adapter@_W@__crt_stdio_output@@V?$standard_base@_WV?$string_output_adapter@_W@__crt_stdio_output@@@2@@__crt_stdio_output@@AAEX_KI_N@Z 100280d3 f i libucrt:output.obj
 0001:0002717d       ??$write_multiple_characters@V?$stream_output_adapter@D@__crt_stdio_output@@D@__crt_stdio_output@@YAXABV?$stream_output_adapter@D@0@DHQAH@Z 1002817d f i libucrt:output.obj
 0001:000271b4       ??$write_multiple_characters@V?$stream_output_adapter@_W@__crt_stdio_output@@D@__crt_stdio_output@@YAXABV?$stream_output_adapter@_W@0@DHQAH@Z 100281b4 f i libucrt:output.obj
 0001:000271f1       ??$write_multiple_characters@V?$string_output_adapter@D@__crt_stdio_output@@D@__crt_stdio_output@@YAXABV?$string_output_adapter@D@0@DHQAH@Z 100281f1 f i libucrt:output.obj
 0001:00027228       ??$write_multiple_characters@V?$string_output_adapter@_W@__crt_stdio_output@@D@__crt_stdio_output@@YAXABV?$string_output_adapter@_W@0@DHQAH@Z 10028228 f i libucrt:output.obj
 0001:00027499       ??0?$common_data@D@__crt_stdio_output@@IAE@XZ 10028499 f i libucrt:output.obj
 0001:000274f1       ??0?$common_data@_W@__crt_stdio_output@@IAE@XZ 100284f1 f i libucrt:output.obj
 0001:00027550       ??0?$output_adapter_data@DV?$stream_output_adapter@D@__crt_stdio_output@@@__crt_stdio_output@@IAE@ABV?$stream_output_adapter@D@1@_KQBDQAU__crt_locale_pointers@@QAD@Z 10028550 f i libucrt:output.obj
 0001:0002759b       ??0?$output_adapter_data@DV?$string_output_adapter@D@__crt_stdio_output@@@__crt_stdio_output@@IAE@ABV?$string_output_adapter@D@1@_KQBDQAU__crt_locale_pointers@@QAD@Z 1002859b f i libucrt:output.obj
 0001:000275e6       ??0?$output_adapter_data@_WV?$stream_output_adapter@_W@__crt_stdio_output@@@__crt_stdio_output@@IAE@ABV?$stream_output_adapter@_W@1@_KQB_WQAU__crt_locale_pointers@@QAD@Z 100285e6 f i libucrt:output.obj
 0001:00027631       ??0?$output_adapter_data@_WV?$string_output_adapter@_W@__crt_stdio_output@@@__crt_stdio_output@@IAE@ABV?$string_output_adapter@_W@1@_KQB_WQAU__crt_locale_pointers@@QAD@Z 10028631 f i libucrt:output.obj
 0001:0002767c       ??0?$output_processor@DV?$stream_output_adapter@D@__crt_stdio_output@@V?$format_validation_base@DV?$stream_output_adapter@D@__crt_stdio_output@@@2@@__crt_stdio_output@@QAE@ABV?$stream_output_adapter@D@1@_KQBDQAU__crt_locale_pointers@@QAD@Z 1002867c f i libucrt:output.obj
 0001:000276be       ??0?$output_processor@DV?$stream_output_adapter@D@__crt_stdio_output@@V?$positional_parameter_base@DV?$stream_output_adapter@D@__crt_stdio_output@@@2@@__crt_stdio_output@@QAE@ABV?$stream_output_adapter@D@1@_KQBDQAU__crt_locale_pointers@@QAD@Z 100286be f i libucrt:output.obj
 0001:000276f8       ??0?$output_processor@DV?$stream_output_adapter@D@__crt_stdio_output@@V?$standard_base@DV?$stream_output_adapter@D@__crt_stdio_output@@@2@@__crt_stdio_output@@QAE@ABV?$stream_output_adapter@D@1@_KQBDQAU__crt_locale_pointers@@QAD@Z 100286f8 f i libucrt:output.obj
 0001:0002773a       ??0?$output_processor@DV?$string_output_adapter@D@__crt_stdio_output@@V?$format_validation_base@DV?$string_output_adapter@D@__crt_stdio_output@@@2@@__crt_stdio_output@@QAE@ABV?$string_output_adapter@D@1@_KQBDQAU__crt_locale_pointers@@QAD@Z 1002873a f i libucrt:output.obj
 0001:0002777c       ??0?$output_processor@DV?$string_output_adapter@D@__crt_stdio_output@@V?$positional_parameter_base@DV?$string_output_adapter@D@__crt_stdio_output@@@2@@__crt_stdio_output@@QAE@ABV?$string_output_adapter@D@1@_KQBDQAU__crt_locale_pointers@@QAD@Z 1002877c f i libucrt:output.obj
 0001:000277b6       ??0?$output_processor@DV?$string_output_adapter@D@__crt_stdio_output@@V?$standard_base@DV?$string_output_adapter@D@__crt_stdio_output@@@2@@__crt_stdio_output@@QAE@ABV?$string_output_adapter@D@1@_KQBDQAU__crt_locale_pointers@@QAD@Z 100287b6 f i libucrt:output.obj
 0001:000277f8       ??0?$output_processor@_WV?$stream_output_adapter@_W@__crt_stdio_output@@V?$format_validation_base@_WV?$stream_output_adapter@_W@__crt_stdio_output@@@2@@__crt_stdio_output@@QAE@ABV?$stream_output_adapter@_W@1@_KQB_WQAU__crt_locale_pointers@@QAD@Z 100287f8 f i libucrt:output.obj
 0001:0002783a       ??0?$output_processor@_WV?$stream_output_adapter@_W@__crt_stdio_output@@V?$positional_parameter_base@_WV?$stream_output_adapter@_W@__crt_stdio_output@@@2@@__crt_stdio_output@@QAE@ABV?$stream_output_adapter@_W@1@_KQB_WQAU__crt_locale_pointers@@QAD@Z 1002883a f i libucrt:output.obj
 0001:00027874       ??0?$output_processor@_WV?$stream_output_adapter@_W@__crt_stdio_output@@V?$standard_base@_WV?$stream_output_adapter@_W@__crt_stdio_output@@@2@@__crt_stdio_output@@QAE@ABV?$stream_output_adapter@_W@1@_KQB_WQAU__crt_locale_pointers@@QAD@Z 10028874 f i libucrt:output.obj
 0001:000278b6       ??0?$output_processor@_WV?$string_output_adapter@_W@__crt_stdio_output@@V?$format_validation_base@_WV?$string_output_adapter@_W@__crt_stdio_output@@@2@@__crt_stdio_output@@QAE@ABV?$string_output_adapter@_W@1@_KQB_WQAU__crt_locale_pointers@@QAD@Z 100288b6 f i libucrt:output.obj
 0001:000278f8       ??0?$output_processor@_WV?$string_output_adapter@_W@__crt_stdio_output@@V?$positional_parameter_base@_WV?$string_output_adapter@_W@__crt_stdio_output@@@2@@__crt_stdio_output@@QAE@ABV?$string_output_adapter@_W@1@_KQB_WQAU__crt_locale_pointers@@QAD@Z 100288f8 f i libucrt:output.obj
 0001:00027932       ??0?$output_processor@_WV?$string_output_adapter@_W@__crt_stdio_output@@V?$standard_base@_WV?$string_output_adapter@_W@__crt_stdio_output@@@2@@__crt_stdio_output@@QAE@ABV?$string_output_adapter@_W@1@_KQB_WQAU__crt_locale_pointers@@QAD@Z 10028932 f i libucrt:output.obj
 0001:00027974       ??0?$stream_output_adapter@D@__crt_stdio_output@@QAE@QAU_iobuf@@@Z 10028974 f i libucrt:output.obj
 0001:00027988       ??0?$stream_output_adapter@_W@__crt_stdio_output@@QAE@QAU_iobuf@@@Z 10028988 f i libucrt:output.obj
 0001:0002799c       ??0?$string_output_adapter@D@__crt_stdio_output@@QAE@QAU?$string_output_adapter_context@D@1@@Z 1002899c f i libucrt:output.obj
 0001:000279b0       ??0?$string_output_adapter@_W@__crt_stdio_output@@QAE@QAU?$string_output_adapter_context@_W@1@@Z 100289b0 f i libucrt:output.obj
 0001:000279c4       ??0_LocaleUpdate@@QAE@QAU__crt_locale_pointers@@@Z 100289c4 f i libucrt:output.obj
 0001:00027a67       ??0__acrt_stdio_temporary_buffering_guard@@QAE@QAU_iobuf@@@Z 10028a67 f i libucrt:output.obj
 0001:00027a8c       ??0__crt_errno_guard@@QAE@QAH@Z 10028a8c f i libucrt:output.obj
 0001:00027aaa       ??0formatting_buffer@__crt_stdio_output@@QAE@XZ 10028aaa f i libucrt:output.obj
 0001:00027abf       ??1?$common_data@D@__crt_stdio_output@@QAE@XZ 10028abf f i libucrt:output.obj
 0001:00027ac9       ??1?$common_data@_W@__crt_stdio_output@@QAE@XZ 10028ac9 f i libucrt:output.obj
 0001:00027ad3       ??1?$format_validation_base@DV?$stream_output_adapter@D@__crt_stdio_output@@@__crt_stdio_output@@QAE@XZ 10028ad3 f i libucrt:output.obj
 0001:00027add       ??1?$format_validation_base@DV?$string_output_adapter@D@__crt_stdio_output@@@__crt_stdio_output@@QAE@XZ 10028add f i libucrt:output.obj
 0001:00027ae7       ??1?$format_validation_base@_WV?$stream_output_adapter@_W@__crt_stdio_output@@@__crt_stdio_output@@QAE@XZ 10028ae7 f i libucrt:output.obj
 0001:00027af1       ??1?$format_validation_base@_WV?$string_output_adapter@_W@__crt_stdio_output@@@__crt_stdio_output@@QAE@XZ 10028af1 f i libucrt:output.obj
 0001:00027afb       ??1?$output_adapter_data@DV?$stream_output_adapter@D@__crt_stdio_output@@@__crt_stdio_output@@QAE@XZ 10028afb f i libucrt:output.obj
 0001:00027b05       ??1?$output_adapter_data@DV?$string_output_adapter@D@__crt_stdio_output@@@__crt_stdio_output@@QAE@XZ 10028b05 f i libucrt:output.obj
 0001:00027b0f       ??1?$output_adapter_data@_WV?$stream_output_adapter@_W@__crt_stdio_output@@@__crt_stdio_output@@QAE@XZ 10028b0f f i libucrt:output.obj
 0001:00027b19       ??1?$output_adapter_data@_WV?$string_output_adapter@_W@__crt_stdio_output@@@__crt_stdio_output@@QAE@XZ 10028b19 f i libucrt:output.obj
 0001:00027b23       ??1?$output_processor@DV?$stream_output_adapter@D@__crt_stdio_output@@V?$format_validation_base@DV?$stream_output_adapter@D@__crt_stdio_output@@@2@@__crt_stdio_output@@QAE@XZ 10028b23 f i libucrt:output.obj
 0001:00027b2d       ??1?$output_processor@DV?$stream_output_adapter@D@__crt_stdio_output@@V?$positional_parameter_base@DV?$stream_output_adapter@D@__crt_stdio_output@@@2@@__crt_stdio_output@@QAE@XZ 10028b2d f i libucrt:output.obj
 0001:00027b37       ??1?$output_processor@DV?$stream_output_adapter@D@__crt_stdio_output@@V?$standard_base@DV?$stream_output_adapter@D@__crt_stdio_output@@@2@@__crt_stdio_output@@QAE@XZ 10028b37 f i libucrt:output.obj
 0001:00027b41       ??1?$output_processor@DV?$string_output_adapter@D@__crt_stdio_output@@V?$format_validation_base@DV?$string_output_adapter@D@__crt_stdio_output@@@2@@__crt_stdio_output@@QAE@XZ 10028b41 f i libucrt:output.obj
 0001:00027b4b       ??1?$output_processor@DV?$string_output_adapter@D@__crt_stdio_output@@V?$positional_parameter_base@DV?$string_output_adapter@D@__crt_stdio_output@@@2@@__crt_stdio_output@@QAE@XZ 10028b4b f i libucrt:output.obj
 0001:00027b55       ??1?$output_processor@DV?$string_output_adapter@D@__crt_stdio_output@@V?$standard_base@DV?$string_output_adapter@D@__crt_stdio_output@@@2@@__crt_stdio_output@@QAE@XZ 10028b55 f i libucrt:output.obj
 0001:00027b5f       ??1?$output_processor@_WV?$stream_output_adapter@_W@__crt_stdio_output@@V?$format_validation_base@_WV?$stream_output_adapter@_W@__crt_stdio_output@@@2@@__crt_stdio_output@@QAE@XZ 10028b5f f i libucrt:output.obj
 0001:00027b69       ??1?$output_processor@_WV?$stream_output_adapter@_W@__crt_stdio_output@@V?$positional_parameter_base@_WV?$stream_output_adapter@_W@__crt_stdio_output@@@2@@__crt_stdio_output@@QAE@XZ 10028b69 f i libucrt:output.obj
 0001:00027b73       ??1?$output_processor@_WV?$stream_output_adapter@_W@__crt_stdio_output@@V?$standard_base@_WV?$stream_output_adapter@_W@__crt_stdio_output@@@2@@__crt_stdio_output@@QAE@XZ 10028b73 f i libucrt:output.obj
 0001:00027b7d       ??1?$output_processor@_WV?$string_output_adapter@_W@__crt_stdio_output@@V?$format_validation_base@_WV?$string_output_adapter@_W@__crt_stdio_output@@@2@@__crt_stdio_output@@QAE@XZ 10028b7d f i libucrt:output.obj
 0001:00027b87       ??1?$output_processor@_WV?$string_output_adapter@_W@__crt_stdio_output@@V?$positional_parameter_base@_WV?$string_output_adapter@_W@__crt_stdio_output@@@2@@__crt_stdio_output@@QAE@XZ 10028b87 f i libucrt:output.obj
 0001:00027b91       ??1?$output_processor@_WV?$string_output_adapter@_W@__crt_stdio_output@@V?$standard_base@_WV?$string_output_adapter@_W@__crt_stdio_output@@@2@@__crt_stdio_output@@QAE@XZ 10028b91 f i libucrt:output.obj
 0001:00027b9b       ??1?$positional_parameter_base@DV?$stream_output_adapter@D@__crt_stdio_output@@@__crt_stdio_output@@QAE@XZ 10028b9b f i libucrt:output.obj
 0001:00027ba5       ??1?$positional_parameter_base@DV?$string_output_adapter@D@__crt_stdio_output@@@__crt_stdio_output@@QAE@XZ 10028ba5 f i libucrt:output.obj
 0001:00027baf       ??1?$positional_parameter_base@_WV?$stream_output_adapter@_W@__crt_stdio_output@@@__crt_stdio_output@@QAE@XZ 10028baf f i libucrt:output.obj
 0001:00027bb9       ??1?$positional_parameter_base@_WV?$string_output_adapter@_W@__crt_stdio_output@@@__crt_stdio_output@@QAE@XZ 10028bb9 f i libucrt:output.obj
 0001:00027bc3       ??1?$standard_base@DV?$stream_output_adapter@D@__crt_stdio_output@@@__crt_stdio_output@@QAE@XZ 10028bc3 f i libucrt:output.obj
 0001:00027bcd       ??1?$standard_base@DV?$string_output_adapter@D@__crt_stdio_output@@@__crt_stdio_output@@QAE@XZ 10028bcd f i libucrt:output.obj
 0001:00027bd7       ??1?$standard_base@_WV?$stream_output_adapter@_W@__crt_stdio_output@@@__crt_stdio_output@@QAE@XZ 10028bd7 f i libucrt:output.obj
 0001:00027be1       ??1?$standard_base@_WV?$string_output_adapter@_W@__crt_stdio_output@@@__crt_stdio_output@@QAE@XZ 10028be1 f i libucrt:output.obj
 0001:00027beb       ??1_LocaleUpdate@@QAE@XZ   10028beb f i libucrt:output.obj
 0001:00027bff       ??1__acrt_stdio_temporary_buffering_guard@@QAE@XZ 10028bff f i libucrt:output.obj
 0001:00027c11       ??1__crt_errno_guard@@QAE@XZ 10028c11 f i libucrt:output.obj
 0001:00027c26       ??1formatting_buffer@__crt_stdio_output@@QAE@XZ 10028c26 f i libucrt:output.obj
 0001:00027c46       ??4?$__crt_unique_heap_ptr@DU__crt_internal_free_policy@@@@QAEAAV0@$$QAV0@@Z 10028c46 f i libucrt:output.obj
 0001:00028329       ?GetLocaleT@_LocaleUpdate@@QAEPAU__crt_locale_pointers@@XZ 10029329 f i libucrt:output.obj
 0001:0002832d       ?__crt_interlocked_read_32@@YAHPDH@Z 1002932d f i libucrt:output.obj
 0001:0002833c       ?adjust_hexit@?$output_processor@DV?$stream_output_adapter@D@__crt_stdio_output@@V?$format_validation_base@DV?$stream_output_adapter@D@__crt_stdio_output@@@2@@__crt_stdio_output@@CADH_N@Z 1002933c f i libucrt:output.obj
 0001:00028361       ?adjust_hexit@?$output_processor@DV?$stream_output_adapter@D@__crt_stdio_output@@V?$positional_parameter_base@DV?$stream_output_adapter@D@__crt_stdio_output@@@2@@__crt_stdio_output@@CADH_N@Z 10029361 f i libucrt:output.obj
 0001:00028386       ?adjust_hexit@?$output_processor@DV?$stream_output_adapter@D@__crt_stdio_output@@V?$standard_base@DV?$stream_output_adapter@D@__crt_stdio_output@@@2@@__crt_stdio_output@@CADH_N@Z 10029386 f i libucrt:output.obj
 0001:000283ab       ?adjust_hexit@?$output_processor@DV?$string_output_adapter@D@__crt_stdio_output@@V?$format_validation_base@DV?$string_output_adapter@D@__crt_stdio_output@@@2@@__crt_stdio_output@@CADH_N@Z 100293ab f i libucrt:output.obj
 0001:000283d0       ?adjust_hexit@?$output_processor@DV?$string_output_adapter@D@__crt_stdio_output@@V?$positional_parameter_base@DV?$string_output_adapter@D@__crt_stdio_output@@@2@@__crt_stdio_output@@CADH_N@Z 100293d0 f i libucrt:output.obj
 0001:000283f5       ?adjust_hexit@?$output_processor@DV?$string_output_adapter@D@__crt_stdio_output@@V?$standard_base@DV?$string_output_adapter@D@__crt_stdio_output@@@2@@__crt_stdio_output@@CADH_N@Z 100293f5 f i libucrt:output.obj
 0001:0002841a       ?adjust_hexit@?$output_processor@_WV?$stream_output_adapter@_W@__crt_stdio_output@@V?$format_validation_base@_WV?$stream_output_adapter@_W@__crt_stdio_output@@@2@@__crt_stdio_output@@CADH_N@Z 1002941a f i libucrt:output.obj
 0001:0002843f       ?adjust_hexit@?$output_processor@_WV?$stream_output_adapter@_W@__crt_stdio_output@@V?$positional_parameter_base@_WV?$stream_output_adapter@_W@__crt_stdio_output@@@2@@__crt_stdio_output@@CADH_N@Z 1002943f f i libucrt:output.obj
 0001:00028464       ?adjust_hexit@?$output_processor@_WV?$stream_output_adapter@_W@__crt_stdio_output@@V?$standard_base@_WV?$stream_output_adapter@_W@__crt_stdio_output@@@2@@__crt_stdio_output@@CADH_N@Z 10029464 f i libucrt:output.obj
 0001:00028489       ?adjust_hexit@?$output_processor@_WV?$string_output_adapter@_W@__crt_stdio_output@@V?$format_validation_base@_WV?$string_output_adapter@_W@__crt_stdio_output@@@2@@__crt_stdio_output@@CADH_N@Z 10029489 f i libucrt:output.obj
 0001:000284ae       ?adjust_hexit@?$output_processor@_WV?$string_output_adapter@_W@__crt_stdio_output@@V?$positional_parameter_base@_WV?$string_output_adapter@_W@__crt_stdio_output@@@2@@__crt_stdio_output@@CADH_N@Z 100294ae f i libucrt:output.obj
 0001:000284d3       ?adjust_hexit@?$output_processor@_WV?$string_output_adapter@_W@__crt_stdio_output@@V?$standard_base@_WV?$string_output_adapter@_W@__crt_stdio_output@@@2@@__crt_stdio_output@@CADH_N@Z 100294d3 f i libucrt:output.obj
 0001:000284f8       ?advance_to_next_pass@?$positional_parameter_base@DV?$stream_output_adapter@D@__crt_stdio_output@@@__crt_stdio_output@@IAE_NXZ 100294f8 f i libucrt:output.obj
 0001:00028557       ?advance_to_next_pass@?$positional_parameter_base@DV?$string_output_adapter@D@__crt_stdio_output@@@__crt_stdio_output@@IAE_NXZ 10029557 f i libucrt:output.obj
 0001:000285b6       ?advance_to_next_pass@?$positional_parameter_base@_WV?$stream_output_adapter@_W@__crt_stdio_output@@@__crt_stdio_output@@IAE_NXZ 100295b6 f i libucrt:output.obj
 0001:00028615       ?advance_to_next_pass@?$positional_parameter_base@_WV?$string_output_adapter@_W@__crt_stdio_output@@@__crt_stdio_output@@IAE_NXZ 10029615 f i libucrt:output.obj
 0001:00028674       ?advance_to_next_pass@?$standard_base@DV?$stream_output_adapter@D@__crt_stdio_output@@@__crt_stdio_output@@IAE_NXZ 10029674 f i libucrt:output.obj
 0001:0002868b       ?advance_to_next_pass@?$standard_base@DV?$string_output_adapter@D@__crt_stdio_output@@@__crt_stdio_output@@IAE_NXZ 1002968b f i libucrt:output.obj
 0001:000286a2       ?advance_to_next_pass@?$standard_base@_WV?$stream_output_adapter@_W@__crt_stdio_output@@@__crt_stdio_output@@IAE_NXZ 100296a2 f i libucrt:output.obj
 0001:000286b9       ?advance_to_next_pass@?$standard_base@_WV?$string_output_adapter@_W@__crt_stdio_output@@@__crt_stdio_output@@IAE_NXZ 100296b9 f i libucrt:output.obj
 0001:000286d0       ?crop_zeroes@__crt_stdio_output@@YAXPADQAU__crt_locale_pointers@@@Z 100296d0 f i libucrt:output.obj
 0001:0002873c       ?find_next_state@?$output_processor@DV?$stream_output_adapter@D@__crt_stdio_output@@V?$format_validation_base@DV?$stream_output_adapter@D@__crt_stdio_output@@@2@@__crt_stdio_output@@ABE?AW4state@2@DW432@@Z 1002973c f i libucrt:output.obj
 0001:0002877e       ?find_next_state@?$output_processor@DV?$stream_output_adapter@D@__crt_stdio_output@@V?$positional_parameter_base@DV?$stream_output_adapter@D@__crt_stdio_output@@@2@@__crt_stdio_output@@ABE?AW4state@2@DW432@@Z 1002977e f i libucrt:output.obj
 0001:000287c0       ?find_next_state@?$output_processor@DV?$stream_output_adapter@D@__crt_stdio_output@@V?$standard_base@DV?$stream_output_adapter@D@__crt_stdio_output@@@2@@__crt_stdio_output@@ABE?AW4state@2@DW432@@Z 100297c0 f i libucrt:output.obj
 0001:000287fe       ?find_next_state@?$output_processor@DV?$string_output_adapter@D@__crt_stdio_output@@V?$format_validation_base@DV?$string_output_adapter@D@__crt_stdio_output@@@2@@__crt_stdio_output@@ABE?AW4state@2@DW432@@Z 100297fe f i libucrt:output.obj
 0001:00028840       ?find_next_state@?$output_processor@DV?$string_output_adapter@D@__crt_stdio_output@@V?$positional_parameter_base@DV?$string_output_adapter@D@__crt_stdio_output@@@2@@__crt_stdio_output@@ABE?AW4state@2@DW432@@Z 10029840 f i libucrt:output.obj
 0001:00028882       ?find_next_state@?$output_processor@DV?$string_output_adapter@D@__crt_stdio_output@@V?$standard_base@DV?$string_output_adapter@D@__crt_stdio_output@@@2@@__crt_stdio_output@@ABE?AW4state@2@DW432@@Z 10029882 f i libucrt:output.obj
 0001:000288c0       ?find_next_state@?$output_processor@_WV?$stream_output_adapter@_W@__crt_stdio_output@@V?$format_validation_base@_WV?$stream_output_adapter@_W@__crt_stdio_output@@@2@@__crt_stdio_output@@ABE?AW4state@2@_WW432@@Z 100298c0 f i libucrt:output.obj
 0001:00028904       ?find_next_state@?$output_processor@_WV?$stream_output_adapter@_W@__crt_stdio_output@@V?$positional_parameter_base@_WV?$stream_output_adapter@_W@__crt_stdio_output@@@2@@__crt_stdio_output@@ABE?AW4state@2@_WW432@@Z 10029904 f i libucrt:output.obj
 0001:00028948       ?find_next_state@?$output_processor@_WV?$stream_output_adapter@_W@__crt_stdio_output@@V?$standard_base@_WV?$stream_output_adapter@_W@__crt_stdio_output@@@2@@__crt_stdio_output@@ABE?AW4state@2@_WW432@@Z 10029948 f i libucrt:output.obj
 0001:00028989       ?find_next_state@?$output_processor@_WV?$string_output_adapter@_W@__crt_stdio_output@@V?$format_validation_base@_WV?$string_output_adapter@_W@__crt_stdio_output@@@2@@__crt_stdio_output@@ABE?AW4state@2@_WW432@@Z 10029989 f i libucrt:output.obj
 0001:000289cd       ?find_next_state@?$output_processor@_WV?$string_output_adapter@_W@__crt_stdio_output@@V?$positional_parameter_base@_WV?$string_output_adapter@_W@__crt_stdio_output@@@2@@__crt_stdio_output@@ABE?AW4state@2@_WW432@@Z 100299cd f i libucrt:output.obj
 0001:00028a11       ?find_next_state@?$output_processor@_WV?$string_output_adapter@_W@__crt_stdio_output@@V?$standard_base@_WV?$string_output_adapter@_W@__crt_stdio_output@@@2@@__crt_stdio_output@@ABE?AW4state@2@_WW432@@Z 10029a11 f i libucrt:output.obj
 0001:00028a52       ?force_decimal_point@__crt_stdio_output@@YAXPADQAU__crt_locale_pointers@@@Z 10029a52 f i libucrt:output.obj
 0001:00028ac5       ?get_flags@__crt_stdio_stream@@QBEJXZ 10029ac5 f i libucrt:output.obj
 0001:00028acb       ?get_parameter_type@?$positional_parameter_base@DV?$stream_output_adapter@D@__crt_stdio_output@@@__crt_stdio_output@@CA?AW4parameter_type@12@F@Z 10029acb f i libucrt:output.obj
 0001:00028acf       ?get_parameter_type@?$positional_parameter_base@DV?$stream_output_adapter@D@__crt_stdio_output@@@__crt_stdio_output@@CA?AW4parameter_type@12@G@Z 10029acf f i libucrt:output.obj
 0001:00028ad3       ?get_parameter_type@?$positional_parameter_base@DV?$stream_output_adapter@D@__crt_stdio_output@@@__crt_stdio_output@@CA?AW4parameter_type@12@H@Z 10029ad3 f i libucrt:output.obj
 0001:00028ad7       ?get_parameter_type@?$positional_parameter_base@DV?$stream_output_adapter@D@__crt_stdio_output@@@__crt_stdio_output@@CA?AW4parameter_type@12@I@Z 10029ad7 f i libucrt:output.obj
 0001:00028adb       ?get_parameter_type@?$positional_parameter_base@DV?$stream_output_adapter@D@__crt_stdio_output@@@__crt_stdio_output@@CA?AW4parameter_type@12@U_CRT_DOUBLE@@@Z 10029adb f i libucrt:output.obj
 0001:00028adf       ?get_parameter_type@?$positional_parameter_base@DV?$stream_output_adapter@D@__crt_stdio_output@@@__crt_stdio_output@@CA?AW4parameter_type@12@_J@Z 10029adf f i libucrt:output.obj
 0001:00028ae3       ?get_parameter_type@?$positional_parameter_base@DV?$stream_output_adapter@D@__crt_stdio_output@@@__crt_stdio_output@@CA?AW4parameter_type@12@_K@Z 10029ae3 f i libucrt:output.obj
 0001:00028ae7       ?get_parameter_type@?$positional_parameter_base@DV?$stream_output_adapter@D@__crt_stdio_output@@@__crt_stdio_output@@CA?AW4parameter_type@12@_W@Z 10029ae7 f i libucrt:output.obj
 0001:00028aeb       ?get_parameter_type@?$positional_parameter_base@DV?$string_output_adapter@D@__crt_stdio_output@@@__crt_stdio_output@@CA?AW4parameter_type@12@F@Z 10029aeb f i libucrt:output.obj
 0001:00028aef       ?get_parameter_type@?$positional_parameter_base@DV?$string_output_adapter@D@__crt_stdio_output@@@__crt_stdio_output@@CA?AW4parameter_type@12@G@Z 10029aef f i libucrt:output.obj
 0001:00028af3       ?get_parameter_type@?$positional_parameter_base@DV?$string_output_adapter@D@__crt_stdio_output@@@__crt_stdio_output@@CA?AW4parameter_type@12@H@Z 10029af3 f i libucrt:output.obj
 0001:00028af7       ?get_parameter_type@?$positional_parameter_base@DV?$string_output_adapter@D@__crt_stdio_output@@@__crt_stdio_output@@CA?AW4parameter_type@12@I@Z 10029af7 f i libucrt:output.obj
 0001:00028afb       ?get_parameter_type@?$positional_parameter_base@DV?$string_output_adapter@D@__crt_stdio_output@@@__crt_stdio_output@@CA?AW4parameter_type@12@U_CRT_DOUBLE@@@Z 10029afb f i libucrt:output.obj
 0001:00028aff       ?get_parameter_type@?$positional_parameter_base@DV?$string_output_adapter@D@__crt_stdio_output@@@__crt_stdio_output@@CA?AW4parameter_type@12@_J@Z 10029aff f i libucrt:output.obj
 0001:00028b03       ?get_parameter_type@?$positional_parameter_base@DV?$string_output_adapter@D@__crt_stdio_output@@@__crt_stdio_output@@CA?AW4parameter_type@12@_K@Z 10029b03 f i libucrt:output.obj
 0001:00028b07       ?get_parameter_type@?$positional_parameter_base@DV?$string_output_adapter@D@__crt_stdio_output@@@__crt_stdio_output@@CA?AW4parameter_type@12@_W@Z 10029b07 f i libucrt:output.obj
 0001:00028b0b       ?get_parameter_type@?$positional_parameter_base@_WV?$stream_output_adapter@_W@__crt_stdio_output@@@__crt_stdio_output@@CA?AW4parameter_type@12@F@Z 10029b0b f i libucrt:output.obj
 0001:00028b0f       ?get_parameter_type@?$positional_parameter_base@_WV?$stream_output_adapter@_W@__crt_stdio_output@@@__crt_stdio_output@@CA?AW4parameter_type@12@G@Z 10029b0f f i libucrt:output.obj
 0001:00028b13       ?get_parameter_type@?$positional_parameter_base@_WV?$stream_output_adapter@_W@__crt_stdio_output@@@__crt_stdio_output@@CA?AW4parameter_type@12@H@Z 10029b13 f i libucrt:output.obj
 0001:00028b17       ?get_parameter_type@?$positional_parameter_base@_WV?$stream_output_adapter@_W@__crt_stdio_output@@@__crt_stdio_output@@CA?AW4parameter_type@12@I@Z 10029b17 f i libucrt:output.obj
 0001:00028b1b       ?get_parameter_type@?$positional_parameter_base@_WV?$stream_output_adapter@_W@__crt_stdio_output@@@__crt_stdio_output@@CA?AW4parameter_type@12@U_CRT_DOUBLE@@@Z 10029b1b f i libucrt:output.obj
 0001:00028b1f       ?get_parameter_type@?$positional_parameter_base@_WV?$stream_output_adapter@_W@__crt_stdio_output@@@__crt_stdio_output@@CA?AW4parameter_type@12@_J@Z 10029b1f f i libucrt:output.obj
 0001:00028b23       ?get_parameter_type@?$positional_parameter_base@_WV?$stream_output_adapter@_W@__crt_stdio_output@@@__crt_stdio_output@@CA?AW4parameter_type@12@_K@Z 10029b23 f i libucrt:output.obj
 0001:00028b27       ?get_parameter_type@?$positional_parameter_base@_WV?$stream_output_adapter@_W@__crt_stdio_output@@@__crt_stdio_output@@CA?AW4parameter_type@12@_W@Z 10029b27 f i libucrt:output.obj
 0001:00028b2b       ?get_parameter_type@?$positional_parameter_base@_WV?$string_output_adapter@_W@__crt_stdio_output@@@__crt_stdio_output@@CA?AW4parameter_type@12@F@Z 10029b2b f i libucrt:output.obj
 0001:00028b2f       ?get_parameter_type@?$positional_parameter_base@_WV?$string_output_adapter@_W@__crt_stdio_output@@@__crt_stdio_output@@CA?AW4parameter_type@12@G@Z 10029b2f f i libucrt:output.obj
 0001:00028b33       ?get_parameter_type@?$positional_parameter_base@_WV?$string_output_adapter@_W@__crt_stdio_output@@@__crt_stdio_output@@CA?AW4parameter_type@12@H@Z 10029b33 f i libucrt:output.obj
 0001:00028b37       ?get_parameter_type@?$positional_parameter_base@_WV?$string_output_adapter@_W@__crt_stdio_output@@@__crt_stdio_output@@CA?AW4parameter_type@12@I@Z 10029b37 f i libucrt:output.obj
 0001:00028b3b       ?get_parameter_type@?$positional_parameter_base@_WV?$string_output_adapter@_W@__crt_stdio_output@@@__crt_stdio_output@@CA?AW4parameter_type@12@U_CRT_DOUBLE@@@Z 10029b3b f i libucrt:output.obj
 0001:00028b3f       ?get_parameter_type@?$positional_parameter_base@_WV?$string_output_adapter@_W@__crt_stdio_output@@@__crt_stdio_output@@CA?AW4parameter_type@12@_J@Z 10029b3f f i libucrt:output.obj
 0001:00028b43       ?get_parameter_type@?$positional_parameter_base@_WV?$string_output_adapter@_W@__crt_stdio_output@@@__crt_stdio_output@@CA?AW4parameter_type@12@_K@Z 10029b43 f i libucrt:output.obj
 0001:00028b47       ?get_parameter_type@?$positional_parameter_base@_WV?$string_output_adapter@_W@__crt_stdio_output@@@__crt_stdio_output@@CA?AW4parameter_type@12@_W@Z 10029b47 f i libucrt:output.obj
 0001:00028b4b       ?has_flag@?$output_processor@DV?$stream_output_adapter@D@__crt_stdio_output@@V?$format_validation_base@DV?$stream_output_adapter@D@__crt_stdio_output@@@2@@__crt_stdio_output@@ABE_NI@Z 10029b4b f i libucrt:output.obj
 0001:00028b65       ?has_flag@?$output_processor@DV?$stream_output_adapter@D@__crt_stdio_output@@V?$positional_parameter_base@DV?$stream_output_adapter@D@__crt_stdio_output@@@2@@__crt_stdio_output@@ABE_NI@Z 10029b65 f i libucrt:output.obj
 0001:00028b7f       ?has_flag@?$output_processor@DV?$stream_output_adapter@D@__crt_stdio_output@@V?$standard_base@DV?$stream_output_adapter@D@__crt_stdio_output@@@2@@__crt_stdio_output@@ABE_NI@Z 10029b7f f i libucrt:output.obj
 0001:00028b99       ?has_flag@?$output_processor@DV?$string_output_adapter@D@__crt_stdio_output@@V?$format_validation_base@DV?$string_output_adapter@D@__crt_stdio_output@@@2@@__crt_stdio_output@@ABE_NI@Z 10029b99 f i libucrt:output.obj
 0001:00028bb3       ?has_flag@?$output_processor@DV?$string_output_adapter@D@__crt_stdio_output@@V?$positional_parameter_base@DV?$string_output_adapter@D@__crt_stdio_output@@@2@@__crt_stdio_output@@ABE_NI@Z 10029bb3 f i libucrt:output.obj
 0001:00028bcd       ?has_flag@?$output_processor@DV?$string_output_adapter@D@__crt_stdio_output@@V?$standard_base@DV?$string_output_adapter@D@__crt_stdio_output@@@2@@__crt_stdio_output@@ABE_NI@Z 10029bcd f i libucrt:output.obj
 0001:00028be7       ?has_flag@?$output_processor@_WV?$stream_output_adapter@_W@__crt_stdio_output@@V?$format_validation_base@_WV?$stream_output_adapter@_W@__crt_stdio_output@@@2@@__crt_stdio_output@@ABE_NI@Z 10029be7 f i libucrt:output.obj
 0001:00028c01       ?has_flag@?$output_processor@_WV?$stream_output_adapter@_W@__crt_stdio_output@@V?$positional_parameter_base@_WV?$stream_output_adapter@_W@__crt_stdio_output@@@2@@__crt_stdio_output@@ABE_NI@Z 10029c01 f i libucrt:output.obj
 0001:00028c1b       ?has_flag@?$output_processor@_WV?$stream_output_adapter@_W@__crt_stdio_output@@V?$standard_base@_WV?$stream_output_adapter@_W@__crt_stdio_output@@@2@@__crt_stdio_output@@ABE_NI@Z 10029c1b f i libucrt:output.obj
 0001:00028c35       ?has_flag@?$output_processor@_WV?$string_output_adapter@_W@__crt_stdio_output@@V?$format_validation_base@_WV?$string_output_adapter@_W@__crt_stdio_output@@@2@@__crt_stdio_output@@ABE_NI@Z 10029c35 f i libucrt:output.obj
 0001:00028c4f       ?has_flag@?$output_processor@_WV?$string_output_adapter@_W@__crt_stdio_output@@V?$positional_parameter_base@_WV?$string_output_adapter@_W@__crt_stdio_output@@@2@@__crt_stdio_output@@ABE_NI@Z 10029c4f f i libucrt:output.obj
 0001:00028c69       ?has_flag@?$output_processor@_WV?$string_output_adapter@_W@__crt_stdio_output@@V?$standard_base@_WV?$string_output_adapter@_W@__crt_stdio_output@@@2@@__crt_stdio_output@@ABE_NI@Z 10029c69 f i libucrt:output.obj
 0001:00028c83       ?is_positional_parameter_reappearance_consistent@?$positional_parameter_base@DV?$stream_output_adapter@D@__crt_stdio_output@@@__crt_stdio_output@@AAE_NABUparameter_data@12@W4parameter_type@12@DW4length_modifier@2@@Z 10029c83 f i libucrt:output.obj
 0001:00028dfc       ?is_positional_parameter_reappearance_consistent@?$positional_parameter_base@DV?$string_output_adapter@D@__crt_stdio_output@@@__crt_stdio_output@@AAE_NABUparameter_data@12@W4parameter_type@12@DW4length_modifier@2@@Z 10029dfc f i libucrt:output.obj
 0001:00028f75       ?is_positional_parameter_reappearance_consistent@?$positional_parameter_base@_WV?$stream_output_adapter@_W@__crt_stdio_output@@@__crt_stdio_output@@AAE_NABUparameter_data@12@W4parameter_type@12@_WW4length_modifier@2@@Z 10029f75 f i libucrt:output.obj
 0001:000290e0       ?is_positional_parameter_reappearance_consistent@?$positional_parameter_base@_WV?$string_output_adapter@_W@__crt_stdio_output@@@__crt_stdio_output@@AAE_NABUparameter_data@12@W4parameter_type@12@_WW4length_modifier@2@@Z 1002a0e0 f i libucrt:output.obj
 0001:0002924b       ?is_string_backed@__crt_stdio_stream@@QBE_NXZ 1002a24b f i libucrt:output.obj
 0001:0002925a       ?narrow_null_string@?$output_processor@DV?$stream_output_adapter@D@__crt_stdio_output@@V?$format_validation_base@DV?$stream_output_adapter@D@__crt_stdio_output@@@2@@__crt_stdio_output@@CAPADXZ 1002a25a f i libucrt:output.obj
 0001:00029260       ?narrow_null_string@?$output_processor@DV?$stream_output_adapter@D@__crt_stdio_output@@V?$positional_parameter_base@DV?$stream_output_adapter@D@__crt_stdio_output@@@2@@__crt_stdio_output@@CAPADXZ 1002a260 f i libucrt:output.obj
 0001:00029266       ?narrow_null_string@?$output_processor@DV?$stream_output_adapter@D@__crt_stdio_output@@V?$standard_base@DV?$stream_output_adapter@D@__crt_stdio_output@@@2@@__crt_stdio_output@@CAPADXZ 1002a266 f i libucrt:output.obj
 0001:0002926c       ?narrow_null_string@?$output_processor@DV?$string_output_adapter@D@__crt_stdio_output@@V?$format_validation_base@DV?$string_output_adapter@D@__crt_stdio_output@@@2@@__crt_stdio_output@@CAPADXZ 1002a26c f i libucrt:output.obj
 0001:00029272       ?narrow_null_string@?$output_processor@DV?$string_output_adapter@D@__crt_stdio_output@@V?$positional_parameter_base@DV?$string_output_adapter@D@__crt_stdio_output@@@2@@__crt_stdio_output@@CAPADXZ 1002a272 f i libucrt:output.obj
 0001:00029278       ?narrow_null_string@?$output_processor@DV?$string_output_adapter@D@__crt_stdio_output@@V?$standard_base@DV?$string_output_adapter@D@__crt_stdio_output@@@2@@__crt_stdio_output@@CAPADXZ 1002a278 f i libucrt:output.obj
 0001:0002927e       ?narrow_null_string@?$output_processor@_WV?$stream_output_adapter@_W@__crt_stdio_output@@V?$format_validation_base@_WV?$stream_output_adapter@_W@__crt_stdio_output@@@2@@__crt_stdio_output@@CAPADXZ 1002a27e f i libucrt:output.obj
 0001:00029284       ?narrow_null_string@?$output_processor@_WV?$stream_output_adapter@_W@__crt_stdio_output@@V?$positional_parameter_base@_WV?$stream_output_adapter@_W@__crt_stdio_output@@@2@@__crt_stdio_output@@CAPADXZ 1002a284 f i libucrt:output.obj
 0001:0002928a       ?narrow_null_string@?$output_processor@_WV?$stream_output_adapter@_W@__crt_stdio_output@@V?$standard_base@_WV?$stream_output_adapter@_W@__crt_stdio_output@@@2@@__crt_stdio_output@@CAPADXZ 1002a28a f i libucrt:output.obj
 0001:00029290       ?narrow_null_string@?$output_processor@_WV?$string_output_adapter@_W@__crt_stdio_output@@V?$format_validation_base@_WV?$string_output_adapter@_W@__crt_stdio_output@@@2@@__crt_stdio_output@@CAPADXZ 1002a290 f i libucrt:output.obj
 0001:00029296       ?narrow_null_string@?$output_processor@_WV?$string_output_adapter@_W@__crt_stdio_output@@V?$positional_parameter_base@_WV?$string_output_adapter@_W@__crt_stdio_output@@@2@@__crt_stdio_output@@CAPADXZ 1002a296 f i libucrt:output.obj
 0001:0002929c       ?narrow_null_string@?$output_processor@_WV?$string_output_adapter@_W@__crt_stdio_output@@V?$standard_base@_WV?$string_output_adapter@_W@__crt_stdio_output@@@2@@__crt_stdio_output@@CAPADXZ 1002a29c f i libucrt:output.obj
 0001:000292a2       ?parse_int_from_format_string@?$output_processor@DV?$stream_output_adapter@D@__crt_stdio_output@@V?$format_validation_base@DV?$stream_output_adapter@D@__crt_stdio_output@@@2@@__crt_stdio_output@@AAE_NQAH@Z 1002a2a2 f i libucrt:output.obj
 0001:00029315       ?parse_int_from_format_string@?$output_processor@DV?$stream_output_adapter@D@__crt_stdio_output@@V?$positional_parameter_base@DV?$stream_output_adapter@D@__crt_stdio_output@@@2@@__crt_stdio_output@@AAE_NQAH@Z 1002a315 f i libucrt:output.obj
 0001:00029388       ?parse_int_from_format_string@?$output_processor@DV?$stream_output_adapter@D@__crt_stdio_output@@V?$standard_base@DV?$stream_output_adapter@D@__crt_stdio_output@@@2@@__crt_stdio_output@@AAE_NQAH@Z 1002a388 f i libucrt:output.obj
 0001:000293fb       ?parse_int_from_format_string@?$output_processor@DV?$string_output_adapter@D@__crt_stdio_output@@V?$format_validation_base@DV?$string_output_adapter@D@__crt_stdio_output@@@2@@__crt_stdio_output@@AAE_NQAH@Z 1002a3fb f i libucrt:output.obj
 0001:0002946e       ?parse_int_from_format_string@?$output_processor@DV?$string_output_adapter@D@__crt_stdio_output@@V?$positional_parameter_base@DV?$string_output_adapter@D@__crt_stdio_output@@@2@@__crt_stdio_output@@AAE_NQAH@Z 1002a46e f i libucrt:output.obj
 0001:000294e1       ?parse_int_from_format_string@?$output_processor@DV?$string_output_adapter@D@__crt_stdio_output@@V?$standard_base@DV?$string_output_adapter@D@__crt_stdio_output@@@2@@__crt_stdio_output@@AAE_NQAH@Z 1002a4e1 f i libucrt:output.obj
 0001:00029554       ?parse_int_from_format_string@?$output_processor@_WV?$stream_output_adapter@_W@__crt_stdio_output@@V?$format_validation_base@_WV?$stream_output_adapter@_W@__crt_stdio_output@@@2@@__crt_stdio_output@@AAE_NQAH@Z 1002a554 f i libucrt:output.obj
 0001:000295c9       ?parse_int_from_format_string@?$output_processor@_WV?$stream_output_adapter@_W@__crt_stdio_output@@V?$positional_parameter_base@_WV?$stream_output_adapter@_W@__crt_stdio_output@@@2@@__crt_stdio_output@@AAE_NQAH@Z 1002a5c9 f i libucrt:output.obj
 0001:0002963e       ?parse_int_from_format_string@?$output_processor@_WV?$stream_output_adapter@_W@__crt_stdio_output@@V?$standard_base@_WV?$stream_output_adapter@_W@__crt_stdio_output@@@2@@__crt_stdio_output@@AAE_NQAH@Z 1002a63e f i libucrt:output.obj
 0001:000296b3       ?parse_int_from_format_string@?$output_processor@_WV?$string_output_adapter@_W@__crt_stdio_output@@V?$format_validation_base@_WV?$string_output_adapter@_W@__crt_stdio_output@@@2@@__crt_stdio_output@@AAE_NQAH@Z 1002a6b3 f i libucrt:output.obj
 0001:00029728       ?parse_int_from_format_string@?$output_processor@_WV?$string_output_adapter@_W@__crt_stdio_output@@V?$positional_parameter_base@_WV?$string_output_adapter@_W@__crt_stdio_output@@@2@@__crt_stdio_output@@AAE_NQAH@Z 1002a728 f i libucrt:output.obj
 0001:0002979d       ?parse_int_from_format_string@?$output_processor@_WV?$string_output_adapter@_W@__crt_stdio_output@@V?$standard_base@_WV?$string_output_adapter@_W@__crt_stdio_output@@@2@@__crt_stdio_output@@AAE_NQAH@Z 1002a79d f i libucrt:output.obj
 0001:00029812       ?process@?$output_processor@DV?$stream_output_adapter@D@__crt_stdio_output@@V?$format_validation_base@DV?$stream_output_adapter@D@__crt_stdio_output@@@2@@__crt_stdio_output@@QAEHXZ 1002a812 f i libucrt:output.obj
 0001:00029984       ?process@?$output_processor@DV?$stream_output_adapter@D@__crt_stdio_output@@V?$positional_parameter_base@DV?$stream_output_adapter@D@__crt_stdio_output@@@2@@__crt_stdio_output@@QAEHXZ 1002a984 f i libucrt:output.obj
 0001:00029b37       ?process@?$output_processor@DV?$stream_output_adapter@D@__crt_stdio_output@@V?$standard_base@DV?$stream_output_adapter@D@__crt_stdio_output@@@2@@__crt_stdio_output@@QAEHXZ 1002ab37 f i libucrt:output.obj
 0001:00029c9a       ?process@?$output_processor@DV?$string_output_adapter@D@__crt_stdio_output@@V?$format_validation_base@DV?$string_output_adapter@D@__crt_stdio_output@@@2@@__crt_stdio_output@@QAEHXZ 1002ac9a f i libucrt:output.obj
 0001:00029e0c       ?process@?$output_processor@DV?$string_output_adapter@D@__crt_stdio_output@@V?$positional_parameter_base@DV?$string_output_adapter@D@__crt_stdio_output@@@2@@__crt_stdio_output@@QAEHXZ 1002ae0c f i libucrt:output.obj
 0001:00029fbf       ?process@?$output_processor@DV?$string_output_adapter@D@__crt_stdio_output@@V?$standard_base@DV?$string_output_adapter@D@__crt_stdio_output@@@2@@__crt_stdio_output@@QAEHXZ 1002afbf f i libucrt:output.obj
 0001:0002a122       ?process@?$output_processor@_WV?$stream_output_adapter@_W@__crt_stdio_output@@V?$format_validation_base@_WV?$stream_output_adapter@_W@__crt_stdio_output@@@2@@__crt_stdio_output@@QAEHXZ 1002b122 f i libucrt:output.obj
 0001:0002a29e       ?process@?$output_processor@_WV?$stream_output_adapter@_W@__crt_stdio_output@@V?$positional_parameter_base@_WV?$stream_output_adapter@_W@__crt_stdio_output@@@2@@__crt_stdio_output@@QAEHXZ 1002b29e f i libucrt:output.obj
 0001:0002a456       ?process@?$output_processor@_WV?$stream_output_adapter@_W@__crt_stdio_output@@V?$standard_base@_WV?$stream_output_adapter@_W@__crt_stdio_output@@@2@@__crt_stdio_output@@QAEHXZ 1002b456 f i libucrt:output.obj
 0001:0002a5be       ?process@?$output_processor@_WV?$string_output_adapter@_W@__crt_stdio_output@@V?$format_validation_base@_WV?$string_output_adapter@_W@__crt_stdio_output@@@2@@__crt_stdio_output@@QAEHXZ 1002b5be f i libucrt:output.obj
 0001:0002a73a       ?process@?$output_processor@_WV?$string_output_adapter@_W@__crt_stdio_output@@V?$positional_parameter_base@_WV?$string_output_adapter@_W@__crt_stdio_output@@@2@@__crt_stdio_output@@QAEHXZ 1002b73a f i libucrt:output.obj
 0001:0002a8f2       ?process@?$output_processor@_WV?$string_output_adapter@_W@__crt_stdio_output@@V?$standard_base@_WV?$string_output_adapter@_W@__crt_stdio_output@@@2@@__crt_stdio_output@@QAEHXZ 1002b8f2 f i libucrt:output.obj
 0001:0002aa5a       ?public_stream@__crt_stdio_stream@@QBEPAU_iobuf@@XZ 1002ba5a f i libucrt:output.obj
 0001:0002aa5d       ?set_flag@?$output_processor@DV?$stream_output_adapter@D@__crt_stdio_output@@V?$format_validation_base@DV?$stream_output_adapter@D@__crt_stdio_output@@@2@@__crt_stdio_output@@AAEXI@Z 1002ba5d f i libucrt:output.obj
 0001:0002aa6f       ?set_flag@?$output_processor@DV?$stream_output_adapter@D@__crt_stdio_output@@V?$positional_parameter_base@DV?$stream_output_adapter@D@__crt_stdio_output@@@2@@__crt_stdio_output@@AAEXI@Z 1002ba6f f i libucrt:output.obj
 0001:0002aa81       ?set_flag@?$output_processor@DV?$stream_output_adapter@D@__crt_stdio_output@@V?$standard_base@DV?$stream_output_adapter@D@__crt_stdio_output@@@2@@__crt_stdio_output@@AAEXI@Z 1002ba81 f i libucrt:output.obj
 0001:0002aa93       ?set_flag@?$output_processor@DV?$string_output_adapter@D@__crt_stdio_output@@V?$format_validation_base@DV?$string_output_adapter@D@__crt_stdio_output@@@2@@__crt_stdio_output@@AAEXI@Z 1002ba93 f i libucrt:output.obj
 0001:0002aaa5       ?set_flag@?$output_processor@DV?$string_output_adapter@D@__crt_stdio_output@@V?$positional_parameter_base@DV?$string_output_adapter@D@__crt_stdio_output@@@2@@__crt_stdio_output@@AAEXI@Z 1002baa5 f i libucrt:output.obj
 0001:0002aab7       ?set_flag@?$output_processor@DV?$string_output_adapter@D@__crt_stdio_output@@V?$standard_base@DV?$string_output_adapter@D@__crt_stdio_output@@@2@@__crt_stdio_output@@AAEXI@Z 1002bab7 f i libucrt:output.obj
 0001:0002aac9       ?set_flag@?$output_processor@_WV?$stream_output_adapter@_W@__crt_stdio_output@@V?$format_validation_base@_WV?$stream_output_adapter@_W@__crt_stdio_output@@@2@@__crt_stdio_output@@AAEXI@Z 1002bac9 f i libucrt:output.obj
 0001:0002aadb       ?set_flag@?$output_processor@_WV?$stream_output_adapter@_W@__crt_stdio_output@@V?$positional_parameter_base@_WV?$stream_output_adapter@_W@__crt_stdio_output@@@2@@__crt_stdio_output@@AAEXI@Z 1002badb f i libucrt:output.obj
 0001:0002aaed       ?set_flag@?$output_processor@_WV?$stream_output_adapter@_W@__crt_stdio_output@@V?$standard_base@_WV?$stream_output_adapter@_W@__crt_stdio_output@@@2@@__crt_stdio_output@@AAEXI@Z 1002baed f i libucrt:output.obj
 0001:0002aaff       ?set_flag@?$output_processor@_WV?$string_output_adapter@_W@__crt_stdio_output@@V?$format_validation_base@_WV?$string_output_adapter@_W@__crt_stdio_output@@@2@@__crt_stdio_output@@AAEXI@Z 1002baff f i libucrt:output.obj
 0001:0002ab11       ?set_flag@?$output_processor@_WV?$string_output_adapter@_W@__crt_stdio_output@@V?$positional_parameter_base@_WV?$string_output_adapter@_W@__crt_stdio_output@@@2@@__crt_stdio_output@@AAEXI@Z 1002bb11 f i libucrt:output.obj
 0001:0002ab23       ?set_flag@?$output_processor@_WV?$string_output_adapter@_W@__crt_stdio_output@@V?$standard_base@_WV?$string_output_adapter@_W@__crt_stdio_output@@@2@@__crt_stdio_output@@AAEXI@Z 1002bb23 f i libucrt:output.obj
 0001:0002ab35       ?should_format@?$positional_parameter_base@DV?$stream_output_adapter@D@__crt_stdio_output@@@__crt_stdio_output@@IAE_NXZ 1002bb35 f i libucrt:output.obj
 0001:0002ab50       ?should_format@?$positional_parameter_base@DV?$string_output_adapter@D@__crt_stdio_output@@@__crt_stdio_output@@IAE_NXZ 1002bb50 f i libucrt:output.obj
 0001:0002ab6b       ?should_format@?$positional_parameter_base@_WV?$stream_output_adapter@_W@__crt_stdio_output@@@__crt_stdio_output@@IAE_NXZ 1002bb6b f i libucrt:output.obj
 0001:0002ab86       ?should_format@?$positional_parameter_base@_WV?$string_output_adapter@_W@__crt_stdio_output@@@__crt_stdio_output@@IAE_NXZ 1002bb86 f i libucrt:output.obj
 0001:0002aba1       ?should_format@?$standard_base@DV?$stream_output_adapter@D@__crt_stdio_output@@@__crt_stdio_output@@IAE_NXZ 1002bba1 f i libucrt:output.obj
 0001:0002aba4       ?should_format@?$standard_base@DV?$string_output_adapter@D@__crt_stdio_output@@@__crt_stdio_output@@IAE_NXZ 1002bba4 f i libucrt:output.obj
 0001:0002aba7       ?should_format@?$standard_base@_WV?$stream_output_adapter@_W@__crt_stdio_output@@@__crt_stdio_output@@IAE_NXZ 1002bba7 f i libucrt:output.obj
 0001:0002abaa       ?should_format@?$standard_base@_WV?$string_output_adapter@_W@__crt_stdio_output@@@__crt_stdio_output@@IAE_NXZ 1002bbaa f i libucrt:output.obj
 0001:0002abad       ?should_skip_normal_state_processing@?$positional_parameter_base@DV?$stream_output_adapter@D@__crt_stdio_output@@@__crt_stdio_output@@IAE_NXZ 1002bbad f i libucrt:output.obj
 0001:0002abdf       ?should_skip_normal_state_processing@?$positional_parameter_base@DV?$string_output_adapter@D@__crt_stdio_output@@@__crt_stdio_output@@IAE_NXZ 1002bbdf f i libucrt:output.obj
 0001:0002ac11       ?should_skip_normal_state_processing@?$positional_parameter_base@_WV?$stream_output_adapter@_W@__crt_stdio_output@@@__crt_stdio_output@@IAE_NXZ 1002bc11 f i libucrt:output.obj
 0001:0002ac43       ?should_skip_normal_state_processing@?$positional_parameter_base@_WV?$string_output_adapter@_W@__crt_stdio_output@@@__crt_stdio_output@@IAE_NXZ 1002bc43 f i libucrt:output.obj
 0001:0002ac75       ?should_skip_normal_state_processing@?$standard_base@DV?$stream_output_adapter@D@__crt_stdio_output@@@__crt_stdio_output@@IAE_NXZ 1002bc75 f i libucrt:output.obj
 0001:0002ac78       ?should_skip_normal_state_processing@?$standard_base@DV?$string_output_adapter@D@__crt_stdio_output@@@__crt_stdio_output@@IAE_NXZ 1002bc78 f i libucrt:output.obj
 0001:0002ac7b       ?should_skip_normal_state_processing@?$standard_base@_WV?$stream_output_adapter@_W@__crt_stdio_output@@@__crt_stdio_output@@IAE_NXZ 1002bc7b f i libucrt:output.obj
 0001:0002ac7e       ?should_skip_normal_state_processing@?$standard_base@_WV?$string_output_adapter@_W@__crt_stdio_output@@@__crt_stdio_output@@IAE_NXZ 1002bc7e f i libucrt:output.obj
 0001:0002ac81       ?should_skip_type_state_output@?$positional_parameter_base@DV?$stream_output_adapter@D@__crt_stdio_output@@@__crt_stdio_output@@IBE_NXZ 1002bc81 f i libucrt:output.obj
 0001:0002ac9d       ?should_skip_type_state_output@?$positional_parameter_base@DV?$string_output_adapter@D@__crt_stdio_output@@@__crt_stdio_output@@IBE_NXZ 1002bc9d f i libucrt:output.obj
 0001:0002acb9       ?should_skip_type_state_output@?$positional_parameter_base@_WV?$stream_output_adapter@_W@__crt_stdio_output@@@__crt_stdio_output@@IBE_NXZ 1002bcb9 f i libucrt:output.obj
 0001:0002acd5       ?should_skip_type_state_output@?$positional_parameter_base@_WV?$string_output_adapter@_W@__crt_stdio_output@@@__crt_stdio_output@@IBE_NXZ 1002bcd5 f i libucrt:output.obj
 0001:0002acf1       ?should_skip_type_state_output@?$standard_base@DV?$stream_output_adapter@D@__crt_stdio_output@@@__crt_stdio_output@@IBE_NXZ 1002bcf1 f i libucrt:output.obj
 0001:0002acf4       ?should_skip_type_state_output@?$standard_base@DV?$string_output_adapter@D@__crt_stdio_output@@@__crt_stdio_output@@IBE_NXZ 1002bcf4 f i libucrt:output.obj
 0001:0002acf7       ?should_skip_type_state_output@?$standard_base@_WV?$stream_output_adapter@_W@__crt_stdio_output@@@__crt_stdio_output@@IBE_NXZ 1002bcf7 f i libucrt:output.obj
 0001:0002acfa       ?should_skip_type_state_output@?$standard_base@_WV?$string_output_adapter@_W@__crt_stdio_output@@@__crt_stdio_output@@IBE_NXZ 1002bcfa f i libucrt:output.obj
 0001:0002acfd       ?state_case_dot@?$output_processor@DV?$stream_output_adapter@D@__crt_stdio_output@@V?$format_validation_base@DV?$stream_output_adapter@D@__crt_stdio_output@@@2@@__crt_stdio_output@@AAE_NXZ 1002bcfd f i libucrt:output.obj
 0001:0002ad04       ?state_case_dot@?$output_processor@DV?$stream_output_adapter@D@__crt_stdio_output@@V?$positional_parameter_base@DV?$stream_output_adapter@D@__crt_stdio_output@@@2@@__crt_stdio_output@@AAE_NXZ 1002bd04 f i libucrt:output.obj
 0001:0002ad0b       ?state_case_dot@?$output_processor@DV?$stream_output_adapter@D@__crt_stdio_output@@V?$standard_base@DV?$stream_output_adapter@D@__crt_stdio_output@@@2@@__crt_stdio_output@@AAE_NXZ 1002bd0b f i libucrt:output.obj
 0001:0002ad12       ?state_case_dot@?$output_processor@DV?$string_output_adapter@D@__crt_stdio_output@@V?$format_validation_base@DV?$string_output_adapter@D@__crt_stdio_output@@@2@@__crt_stdio_output@@AAE_NXZ 1002bd12 f i libucrt:output.obj
 0001:0002ad19       ?state_case_dot@?$output_processor@DV?$string_output_adapter@D@__crt_stdio_output@@V?$positional_parameter_base@DV?$string_output_adapter@D@__crt_stdio_output@@@2@@__crt_stdio_output@@AAE_NXZ 1002bd19 f i libucrt:output.obj
 0001:0002ad20       ?state_case_dot@?$output_processor@DV?$string_output_adapter@D@__crt_stdio_output@@V?$standard_base@DV?$string_output_adapter@D@__crt_stdio_output@@@2@@__crt_stdio_output@@AAE_NXZ 1002bd20 f i libucrt:output.obj
 0001:0002ad27       ?state_case_dot@?$output_processor@_WV?$stream_output_adapter@_W@__crt_stdio_output@@V?$format_validation_base@_WV?$stream_output_adapter@_W@__crt_stdio_output@@@2@@__crt_stdio_output@@AAE_NXZ 1002bd27 f i libucrt:output.obj
 0001:0002ad2e       ?state_case_dot@?$output_processor@_WV?$stream_output_adapter@_W@__crt_stdio_output@@V?$positional_parameter_base@_WV?$stream_output_adapter@_W@__crt_stdio_output@@@2@@__crt_stdio_output@@AAE_NXZ 1002bd2e f i libucrt:output.obj
 0001:0002ad35       ?state_case_dot@?$output_processor@_WV?$stream_output_adapter@_W@__crt_stdio_output@@V?$standard_base@_WV?$stream_output_adapter@_W@__crt_stdio_output@@@2@@__crt_stdio_output@@AAE_NXZ 1002bd35 f i libucrt:output.obj
 0001:0002ad3c       ?state_case_dot@?$output_processor@_WV?$string_output_adapter@_W@__crt_stdio_output@@V?$format_validation_base@_WV?$string_output_adapter@_W@__crt_stdio_output@@@2@@__crt_stdio_output@@AAE_NXZ 1002bd3c f i libucrt:output.obj
 0001:0002ad43       ?state_case_dot@?$output_processor@_WV?$string_output_adapter@_W@__crt_stdio_output@@V?$positional_parameter_base@_WV?$string_output_adapter@_W@__crt_stdio_output@@@2@@__crt_stdio_output@@AAE_NXZ 1002bd43 f i libucrt:output.obj
 0001:0002ad4a       ?state_case_dot@?$output_processor@_WV?$string_output_adapter@_W@__crt_stdio_output@@V?$standard_base@_WV?$string_output_adapter@_W@__crt_stdio_output@@@2@@__crt_stdio_output@@AAE_NXZ 1002bd4a f i libucrt:output.obj
 0001:0002ad51       ?state_case_flag@?$output_processor@DV?$stream_output_adapter@D@__crt_stdio_output@@V?$format_validation_base@DV?$stream_output_adapter@D@__crt_stdio_output@@@2@@__crt_stdio_output@@AAE_NXZ 1002bd51 f i libucrt:output.obj
 0001:0002ad9d       ?state_case_flag@?$output_processor@DV?$stream_output_adapter@D@__crt_stdio_output@@V?$positional_parameter_base@DV?$stream_output_adapter@D@__crt_stdio_output@@@2@@__crt_stdio_output@@AAE_NXZ 1002bd9d f i libucrt:output.obj
 0001:0002ade9       ?state_case_flag@?$output_processor@DV?$stream_output_adapter@D@__crt_stdio_output@@V?$standard_base@DV?$stream_output_adapter@D@__crt_stdio_output@@@2@@__crt_stdio_output@@AAE_NXZ 1002bde9 f i libucrt:output.obj
 0001:0002ae35       ?state_case_flag@?$output_processor@DV?$string_output_adapter@D@__crt_stdio_output@@V?$format_validation_base@DV?$string_output_adapter@D@__crt_stdio_output@@@2@@__crt_stdio_output@@AAE_NXZ 1002be35 f i libucrt:output.obj
 0001:0002ae81       ?state_case_flag@?$output_processor@DV?$string_output_adapter@D@__crt_stdio_output@@V?$positional_parameter_base@DV?$string_output_adapter@D@__crt_stdio_output@@@2@@__crt_stdio_output@@AAE_NXZ 1002be81 f i libucrt:output.obj
 0001:0002aecd       ?state_case_flag@?$output_processor@DV?$string_output_adapter@D@__crt_stdio_output@@V?$standard_base@DV?$string_output_adapter@D@__crt_stdio_output@@@2@@__crt_stdio_output@@AAE_NXZ 1002becd f i libucrt:output.obj
 0001:0002af19       ?state_case_flag@?$output_processor@_WV?$stream_output_adapter@_W@__crt_stdio_output@@V?$format_validation_base@_WV?$stream_output_adapter@_W@__crt_stdio_output@@@2@@__crt_stdio_output@@AAE_NXZ 1002bf19 f i libucrt:output.obj
 0001:0002af65       ?state_case_flag@?$output_processor@_WV?$stream_output_adapter@_W@__crt_stdio_output@@V?$positional_parameter_base@_WV?$stream_output_adapter@_W@__crt_stdio_output@@@2@@__crt_stdio_output@@AAE_NXZ 1002bf65 f i libucrt:output.obj
 0001:0002afb1       ?state_case_flag@?$output_processor@_WV?$stream_output_adapter@_W@__crt_stdio_output@@V?$standard_base@_WV?$stream_output_adapter@_W@__crt_stdio_output@@@2@@__crt_stdio_output@@AAE_NXZ 1002bfb1 f i libucrt:output.obj
 0001:0002affd       ?state_case_flag@?$output_processor@_WV?$string_output_adapter@_W@__crt_stdio_output@@V?$format_validation_base@_WV?$string_output_adapter@_W@__crt_stdio_output@@@2@@__crt_stdio_output@@AAE_NXZ 1002bffd f i libucrt:output.obj
 0001:0002b049       ?state_case_flag@?$output_processor@_WV?$string_output_adapter@_W@__crt_stdio_output@@V?$positional_parameter_base@_WV?$string_output_adapter@_W@__crt_stdio_output@@@2@@__crt_stdio_output@@AAE_NXZ 1002c049 f i libucrt:output.obj
 0001:0002b095       ?state_case_flag@?$output_processor@_WV?$string_output_adapter@_W@__crt_stdio_output@@V?$standard_base@_WV?$string_output_adapter@_W@__crt_stdio_output@@@2@@__crt_stdio_output@@AAE_NXZ 1002c095 f i libucrt:output.obj
 0001:0002b0e1       ?state_case_normal@?$output_processor@DV?$stream_output_adapter@D@__crt_stdio_output@@V?$format_validation_base@DV?$stream_output_adapter@D@__crt_stdio_output@@@2@@__crt_stdio_output@@AAE_NXZ 1002c0e1 f i libucrt:output.obj
 0001:0002b107       ?state_case_normal@?$output_processor@DV?$stream_output_adapter@D@__crt_stdio_output@@V?$positional_parameter_base@DV?$stream_output_adapter@D@__crt_stdio_output@@@2@@__crt_stdio_output@@AAE_NXZ 1002c107 f i libucrt:output.obj
 0001:0002b144       ?state_case_normal@?$output_processor@DV?$stream_output_adapter@D@__crt_stdio_output@@V?$standard_base@DV?$stream_output_adapter@D@__crt_stdio_output@@@2@@__crt_stdio_output@@AAE_NXZ 1002c144 f i libucrt:output.obj
 0001:0002b16a       ?state_case_normal@?$output_processor@DV?$string_output_adapter@D@__crt_stdio_output@@V?$format_validation_base@DV?$string_output_adapter@D@__crt_stdio_output@@@2@@__crt_stdio_output@@AAE_NXZ 1002c16a f i libucrt:output.obj
 0001:0002b190       ?state_case_normal@?$output_processor@DV?$string_output_adapter@D@__crt_stdio_output@@V?$positional_parameter_base@DV?$string_output_adapter@D@__crt_stdio_output@@@2@@__crt_stdio_output@@AAE_NXZ 1002c190 f i libucrt:output.obj
 0001:0002b1cd       ?state_case_normal@?$output_processor@DV?$string_output_adapter@D@__crt_stdio_output@@V?$standard_base@DV?$string_output_adapter@D@__crt_stdio_output@@@2@@__crt_stdio_output@@AAE_NXZ 1002c1cd f i libucrt:output.obj
 0001:0002b1f3       ?state_case_normal@?$output_processor@_WV?$stream_output_adapter@_W@__crt_stdio_output@@V?$format_validation_base@_WV?$stream_output_adapter@_W@__crt_stdio_output@@@2@@__crt_stdio_output@@AAE_NXZ 1002c1f3 f i libucrt:output.obj
 0001:0002b219       ?state_case_normal@?$output_processor@_WV?$stream_output_adapter@_W@__crt_stdio_output@@V?$positional_parameter_base@_WV?$stream_output_adapter@_W@__crt_stdio_output@@@2@@__crt_stdio_output@@AAE_NXZ 1002c219 f i libucrt:output.obj
 0001:0002b256       ?state_case_normal@?$output_processor@_WV?$stream_output_adapter@_W@__crt_stdio_output@@V?$standard_base@_WV?$stream_output_adapter@_W@__crt_stdio_output@@@2@@__crt_stdio_output@@AAE_NXZ 1002c256 f i libucrt:output.obj
 0001:0002b27c       ?state_case_normal@?$output_processor@_WV?$string_output_adapter@_W@__crt_stdio_output@@V?$format_validation_base@_WV?$string_output_adapter@_W@__crt_stdio_output@@@2@@__crt_stdio_output@@AAE_NXZ 1002c27c f i libucrt:output.obj
 0001:0002b2a2       ?state_case_normal@?$output_processor@_WV?$string_output_adapter@_W@__crt_stdio_output@@V?$positional_parameter_base@_WV?$string_output_adapter@_W@__crt_stdio_output@@@2@@__crt_stdio_output@@AAE_NXZ 1002c2a2 f i libucrt:output.obj
 0001:0002b2df       ?state_case_normal@?$output_processor@_WV?$string_output_adapter@_W@__crt_stdio_output@@V?$standard_base@_WV?$string_output_adapter@_W@__crt_stdio_output@@@2@@__crt_stdio_output@@AAE_NXZ 1002c2df f i libucrt:output.obj
 0001:0002b305       ?state_case_normal_common@?$output_processor@DV?$stream_output_adapter@D@__crt_stdio_output@@V?$format_validation_base@DV?$stream_output_adapter@D@__crt_stdio_output@@@2@@__crt_stdio_output@@AAE_NXZ 1002c305 f i libucrt:output.obj
 0001:0002b339       ?state_case_normal_common@?$output_processor@DV?$stream_output_adapter@D@__crt_stdio_output@@V?$positional_parameter_base@DV?$stream_output_adapter@D@__crt_stdio_output@@@2@@__crt_stdio_output@@AAE_NXZ 1002c339 f i libucrt:output.obj
 0001:0002b36d       ?state_case_normal_common@?$output_processor@DV?$stream_output_adapter@D@__crt_stdio_output@@V?$standard_base@DV?$stream_output_adapter@D@__crt_stdio_output@@@2@@__crt_stdio_output@@AAE_NXZ 1002c36d f i libucrt:output.obj
 0001:0002b3a1       ?state_case_normal_common@?$output_processor@DV?$string_output_adapter@D@__crt_stdio_output@@V?$format_validation_base@DV?$string_output_adapter@D@__crt_stdio_output@@@2@@__crt_stdio_output@@AAE_NXZ 1002c3a1 f i libucrt:output.obj
 0001:0002b3d5       ?state_case_normal_common@?$output_processor@DV?$string_output_adapter@D@__crt_stdio_output@@V?$positional_parameter_base@DV?$string_output_adapter@D@__crt_stdio_output@@@2@@__crt_stdio_output@@AAE_NXZ 1002c3d5 f i libucrt:output.obj
 0001:0002b409       ?state_case_normal_common@?$output_processor@DV?$string_output_adapter@D@__crt_stdio_output@@V?$standard_base@DV?$string_output_adapter@D@__crt_stdio_output@@@2@@__crt_stdio_output@@AAE_NXZ 1002c409 f i libucrt:output.obj
 0001:0002b43d       ?state_case_normal_common@?$output_processor@_WV?$stream_output_adapter@_W@__crt_stdio_output@@V?$format_validation_base@_WV?$stream_output_adapter@_W@__crt_stdio_output@@@2@@__crt_stdio_output@@AAE_NXZ 1002c43d f i libucrt:output.obj
 0001:0002b45e       ?state_case_normal_common@?$output_processor@_WV?$stream_output_adapter@_W@__crt_stdio_output@@V?$positional_parameter_base@_WV?$stream_output_adapter@_W@__crt_stdio_output@@@2@@__crt_stdio_output@@AAE_NXZ 1002c45e f i libucrt:output.obj
 0001:0002b47f       ?state_case_normal_common@?$output_processor@_WV?$stream_output_adapter@_W@__crt_stdio_output@@V?$standard_base@_WV?$stream_output_adapter@_W@__crt_stdio_output@@@2@@__crt_stdio_output@@AAE_NXZ 1002c47f f i libucrt:output.obj
 0001:0002b4a0       ?state_case_normal_common@?$output_processor@_WV?$string_output_adapter@_W@__crt_stdio_output@@V?$format_validation_base@_WV?$string_output_adapter@_W@__crt_stdio_output@@@2@@__crt_stdio_output@@AAE_NXZ 1002c4a0 f i libucrt:output.obj
 0001:0002b4c1       ?state_case_normal_common@?$output_processor@_WV?$string_output_adapter@_W@__crt_stdio_output@@V?$positional_parameter_base@_WV?$string_output_adapter@_W@__crt_stdio_output@@@2@@__crt_stdio_output@@AAE_NXZ 1002c4c1 f i libucrt:output.obj
 0001:0002b4e2       ?state_case_normal_common@?$output_processor@_WV?$string_output_adapter@_W@__crt_stdio_output@@V?$standard_base@_WV?$string_output_adapter@_W@__crt_stdio_output@@@2@@__crt_stdio_output@@AAE_NXZ 1002c4e2 f i libucrt:output.obj
 0001:0002b503       ?state_case_normal_tchar@?$output_processor@DV?$stream_output_adapter@D@__crt_stdio_output@@V?$format_validation_base@DV?$stream_output_adapter@D@__crt_stdio_output@@@2@@__crt_stdio_output@@AAE_ND@Z 1002c503 f i libucrt:output.obj
 0001:0002b57c       ?state_case_normal_tchar@?$output_processor@DV?$stream_output_adapter@D@__crt_stdio_output@@V?$positional_parameter_base@DV?$stream_output_adapter@D@__crt_stdio_output@@@2@@__crt_stdio_output@@AAE_ND@Z 1002c57c f i libucrt:output.obj
 0001:0002b5f5       ?state_case_normal_tchar@?$output_processor@DV?$stream_output_adapter@D@__crt_stdio_output@@V?$standard_base@DV?$stream_output_adapter@D@__crt_stdio_output@@@2@@__crt_stdio_output@@AAE_ND@Z 1002c5f5 f i libucrt:output.obj
 0001:0002b66e       ?state_case_normal_tchar@?$output_processor@DV?$string_output_adapter@D@__crt_stdio_output@@V?$format_validation_base@DV?$string_output_adapter@D@__crt_stdio_output@@@2@@__crt_stdio_output@@AAE_ND@Z 1002c66e f i libucrt:output.obj
 0001:0002b6e7       ?state_case_normal_tchar@?$output_processor@DV?$string_output_adapter@D@__crt_stdio_output@@V?$positional_parameter_base@DV?$string_output_adapter@D@__crt_stdio_output@@@2@@__crt_stdio_output@@AAE_ND@Z 1002c6e7 f i libucrt:output.obj
 0001:0002b760       ?state_case_normal_tchar@?$output_processor@DV?$string_output_adapter@D@__crt_stdio_output@@V?$standard_base@DV?$string_output_adapter@D@__crt_stdio_output@@@2@@__crt_stdio_output@@AAE_ND@Z 1002c760 f i libucrt:output.obj
 0001:0002b7d9       ?state_case_normal_tchar@?$output_processor@_WV?$stream_output_adapter@_W@__crt_stdio_output@@V?$format_validation_base@_WV?$stream_output_adapter@_W@__crt_stdio_output@@@2@@__crt_stdio_output@@AAE_N_W@Z 1002c7d9 f i libucrt:output.obj
 0001:0002b7e4       ?state_case_normal_tchar@?$output_processor@_WV?$stream_output_adapter@_W@__crt_stdio_output@@V?$positional_parameter_base@_WV?$stream_output_adapter@_W@__crt_stdio_output@@@2@@__crt_stdio_output@@AAE_N_W@Z 1002c7e4 f i libucrt:output.obj
 0001:0002b7ef       ?state_case_normal_tchar@?$output_processor@_WV?$stream_output_adapter@_W@__crt_stdio_output@@V?$standard_base@_WV?$stream_output_adapter@_W@__crt_stdio_output@@@2@@__crt_stdio_output@@AAE_N_W@Z 1002c7ef f i libucrt:output.obj
 0001:0002b7fa       ?state_case_normal_tchar@?$output_processor@_WV?$string_output_adapter@_W@__crt_stdio_output@@V?$format_validation_base@_WV?$string_output_adapter@_W@__crt_stdio_output@@@2@@__crt_stdio_output@@AAE_N_W@Z 1002c7fa f i libucrt:output.obj
 0001:0002b805       ?state_case_normal_tchar@?$output_processor@_WV?$string_output_adapter@_W@__crt_stdio_output@@V?$positional_parameter_base@_WV?$string_output_adapter@_W@__crt_stdio_output@@@2@@__crt_stdio_output@@AAE_N_W@Z 1002c805 f i libucrt:output.obj
 0001:0002b810       ?state_case_normal_tchar@?$output_processor@_WV?$string_output_adapter@_W@__crt_stdio_output@@V?$standard_base@_WV?$string_output_adapter@_W@__crt_stdio_output@@@2@@__crt_stdio_output@@AAE_N_W@Z 1002c810 f i libucrt:output.obj
 0001:0002b81b       ?state_case_percent@?$output_processor@DV?$stream_output_adapter@D@__crt_stdio_output@@V?$format_validation_base@DV?$stream_output_adapter@D@__crt_stdio_output@@@2@@__crt_stdio_output@@AAE_NXZ 1002c81b f i libucrt:output.obj
 0001:0002b839       ?state_case_percent@?$output_processor@DV?$stream_output_adapter@D@__crt_stdio_output@@V?$positional_parameter_base@DV?$stream_output_adapter@D@__crt_stdio_output@@@2@@__crt_stdio_output@@AAE_NXZ 1002c839 f i libucrt:output.obj
 0001:0002b857       ?state_case_percent@?$output_processor@DV?$stream_output_adapter@D@__crt_stdio_output@@V?$standard_base@DV?$stream_output_adapter@D@__crt_stdio_output@@@2@@__crt_stdio_output@@AAE_NXZ 1002c857 f i libucrt:output.obj
 0001:0002b875       ?state_case_percent@?$output_processor@DV?$string_output_adapter@D@__crt_stdio_output@@V?$format_validation_base@DV?$string_output_adapter@D@__crt_stdio_output@@@2@@__crt_stdio_output@@AAE_NXZ 1002c875 f i libucrt:output.obj
 0001:0002b893       ?state_case_percent@?$output_processor@DV?$string_output_adapter@D@__crt_stdio_output@@V?$positional_parameter_base@DV?$string_output_adapter@D@__crt_stdio_output@@@2@@__crt_stdio_output@@AAE_NXZ 1002c893 f i libucrt:output.obj
 0001:0002b8b1       ?state_case_percent@?$output_processor@DV?$string_output_adapter@D@__crt_stdio_output@@V?$standard_base@DV?$string_output_adapter@D@__crt_stdio_output@@@2@@__crt_stdio_output@@AAE_NXZ 1002c8b1 f i libucrt:output.obj
 0001:0002b8cf       ?state_case_percent@?$output_processor@_WV?$stream_output_adapter@_W@__crt_stdio_output@@V?$format_validation_base@_WV?$stream_output_adapter@_W@__crt_stdio_output@@@2@@__crt_stdio_output@@AAE_NXZ 1002c8cf f i libucrt:output.obj
 0001:0002b8ed       ?state_case_percent@?$output_processor@_WV?$stream_output_adapter@_W@__crt_stdio_output@@V?$positional_parameter_base@_WV?$stream_output_adapter@_W@__crt_stdio_output@@@2@@__crt_stdio_output@@AAE_NXZ 1002c8ed f i libucrt:output.obj
 0001:0002b90b       ?state_case_percent@?$output_processor@_WV?$stream_output_adapter@_W@__crt_stdio_output@@V?$standard_base@_WV?$stream_output_adapter@_W@__crt_stdio_output@@@2@@__crt_stdio_output@@AAE_NXZ 1002c90b f i libucrt:output.obj
 0001:0002b929       ?state_case_percent@?$output_processor@_WV?$string_output_adapter@_W@__crt_stdio_output@@V?$format_validation_base@_WV?$string_output_adapter@_W@__crt_stdio_output@@@2@@__crt_stdio_output@@AAE_NXZ 1002c929 f i libucrt:output.obj
 0001:0002b947       ?state_case_percent@?$output_processor@_WV?$string_output_adapter@_W@__crt_stdio_output@@V?$positional_parameter_base@_WV?$string_output_adapter@_W@__crt_stdio_output@@@2@@__crt_stdio_output@@AAE_NXZ 1002c947 f i libucrt:output.obj
 0001:0002b965       ?state_case_percent@?$output_processor@_WV?$string_output_adapter@_W@__crt_stdio_output@@V?$standard_base@_WV?$string_output_adapter@_W@__crt_stdio_output@@@2@@__crt_stdio_output@@AAE_NXZ 1002c965 f i libucrt:output.obj
 0001:0002b983       ?state_case_precision@?$output_processor@DV?$stream_output_adapter@D@__crt_stdio_output@@V?$format_validation_base@DV?$stream_output_adapter@D@__crt_stdio_output@@@2@@__crt_stdio_output@@AAE_NXZ 1002c983 f i libucrt:output.obj
 0001:0002b9b5       ?state_case_precision@?$output_processor@DV?$stream_output_adapter@D@__crt_stdio_output@@V?$positional_parameter_base@DV?$stream_output_adapter@D@__crt_stdio_output@@@2@@__crt_stdio_output@@AAE_NXZ 1002c9b5 f i libucrt:output.obj
 0001:0002b9fd       ?state_case_precision@?$output_processor@DV?$stream_output_adapter@D@__crt_stdio_output@@V?$standard_base@DV?$stream_output_adapter@D@__crt_stdio_output@@@2@@__crt_stdio_output@@AAE_NXZ 1002c9fd f i libucrt:output.obj
 0001:0002ba2f       ?state_case_precision@?$output_processor@DV?$string_output_adapter@D@__crt_stdio_output@@V?$format_validation_base@DV?$string_output_adapter@D@__crt_stdio_output@@@2@@__crt_stdio_output@@AAE_NXZ 1002ca2f f i libucrt:output.obj
 0001:0002ba61       ?state_case_precision@?$output_processor@DV?$string_output_adapter@D@__crt_stdio_output@@V?$positional_parameter_base@DV?$string_output_adapter@D@__crt_stdio_output@@@2@@__crt_stdio_output@@AAE_NXZ 1002ca61 f i libucrt:output.obj
 0001:0002baa9       ?state_case_precision@?$output_processor@DV?$string_output_adapter@D@__crt_stdio_output@@V?$standard_base@DV?$string_output_adapter@D@__crt_stdio_output@@@2@@__crt_stdio_output@@AAE_NXZ 1002caa9 f i libucrt:output.obj
 0001:0002badb       ?state_case_precision@?$output_processor@_WV?$stream_output_adapter@_W@__crt_stdio_output@@V?$format_validation_base@_WV?$stream_output_adapter@_W@__crt_stdio_output@@@2@@__crt_stdio_output@@AAE_NXZ 1002cadb f i libucrt:output.obj
 0001:0002bb0e       ?state_case_precision@?$output_processor@_WV?$stream_output_adapter@_W@__crt_stdio_output@@V?$positional_parameter_base@_WV?$stream_output_adapter@_W@__crt_stdio_output@@@2@@__crt_stdio_output@@AAE_NXZ 1002cb0e f i libucrt:output.obj
 0001:0002bb57       ?state_case_precision@?$output_processor@_WV?$stream_output_adapter@_W@__crt_stdio_output@@V?$standard_base@_WV?$stream_output_adapter@_W@__crt_stdio_output@@@2@@__crt_stdio_output@@AAE_NXZ 1002cb57 f i libucrt:output.obj
 0001:0002bb8a       ?state_case_precision@?$output_processor@_WV?$string_output_adapter@_W@__crt_stdio_output@@V?$format_validation_base@_WV?$string_output_adapter@_W@__crt_stdio_output@@@2@@__crt_stdio_output@@AAE_NXZ 1002cb8a f i libucrt:output.obj
 0001:0002bbbd       ?state_case_precision@?$output_processor@_WV?$string_output_adapter@_W@__crt_stdio_output@@V?$positional_parameter_base@_WV?$string_output_adapter@_W@__crt_stdio_output@@@2@@__crt_stdio_output@@AAE_NXZ 1002cbbd f i libucrt:output.obj
 0001:0002bc06       ?state_case_precision@?$output_processor@_WV?$string_output_adapter@_W@__crt_stdio_output@@V?$standard_base@_WV?$string_output_adapter@_W@__crt_stdio_output@@@2@@__crt_stdio_output@@AAE_NXZ 1002cc06 f i libucrt:output.obj
 0001:0002bc39       ?state_case_size@?$output_processor@DV?$stream_output_adapter@D@__crt_stdio_output@@V?$format_validation_base@DV?$stream_output_adapter@D@__crt_stdio_output@@@2@@__crt_stdio_output@@AAE_NXZ 1002cc39 f i libucrt:output.obj
 0001:0002bdfc       ?state_case_size@?$output_processor@DV?$stream_output_adapter@D@__crt_stdio_output@@V?$positional_parameter_base@DV?$stream_output_adapter@D@__crt_stdio_output@@@2@@__crt_stdio_output@@AAE_NXZ 1002cdfc f i libucrt:output.obj
 0001:0002bfbf       ?state_case_size@?$output_processor@DV?$stream_output_adapter@D@__crt_stdio_output@@V?$standard_base@DV?$stream_output_adapter@D@__crt_stdio_output@@@2@@__crt_stdio_output@@AAE_NXZ 1002cfbf f i libucrt:output.obj
 0001:0002c182       ?state_case_size@?$output_processor@DV?$string_output_adapter@D@__crt_stdio_output@@V?$format_validation_base@DV?$string_output_adapter@D@__crt_stdio_output@@@2@@__crt_stdio_output@@AAE_NXZ 1002d182 f i libucrt:output.obj
 0001:0002c345       ?state_case_size@?$output_processor@DV?$string_output_adapter@D@__crt_stdio_output@@V?$positional_parameter_base@DV?$string_output_adapter@D@__crt_stdio_output@@@2@@__crt_stdio_output@@AAE_NXZ 1002d345 f i libucrt:output.obj
 0001:0002c508       ?state_case_size@?$output_processor@DV?$string_output_adapter@D@__crt_stdio_output@@V?$standard_base@DV?$string_output_adapter@D@__crt_stdio_output@@@2@@__crt_stdio_output@@AAE_NXZ 1002d508 f i libucrt:output.obj
 0001:0002c6cb       ?state_case_size@?$output_processor@_WV?$stream_output_adapter@_W@__crt_stdio_output@@V?$format_validation_base@_WV?$stream_output_adapter@_W@__crt_stdio_output@@@2@@__crt_stdio_output@@AAE_NXZ 1002d6cb f i libucrt:output.obj
 0001:0002c8a6       ?state_case_size@?$output_processor@_WV?$stream_output_adapter@_W@__crt_stdio_output@@V?$positional_parameter_base@_WV?$stream_output_adapter@_W@__crt_stdio_output@@@2@@__crt_stdio_output@@AAE_NXZ 1002d8a6 f i libucrt:output.obj
 0001:0002ca81       ?state_case_size@?$output_processor@_WV?$stream_output_adapter@_W@__crt_stdio_output@@V?$standard_base@_WV?$stream_output_adapter@_W@__crt_stdio_output@@@2@@__crt_stdio_output@@AAE_NXZ 1002da81 f i libucrt:output.obj
 0001:0002cc5c       ?state_case_size@?$output_processor@_WV?$string_output_adapter@_W@__crt_stdio_output@@V?$format_validation_base@_WV?$string_output_adapter@_W@__crt_stdio_output@@@2@@__crt_stdio_output@@AAE_NXZ 1002dc5c f i libucrt:output.obj
 0001:0002ce37       ?state_case_size@?$output_processor@_WV?$string_output_adapter@_W@__crt_stdio_output@@V?$positional_parameter_base@_WV?$string_output_adapter@_W@__crt_stdio_output@@@2@@__crt_stdio_output@@AAE_NXZ 1002de37 f i libucrt:output.obj
 0001:0002d012       ?state_case_size@?$output_processor@_WV?$string_output_adapter@_W@__crt_stdio_output@@V?$standard_base@_WV?$string_output_adapter@_W@__crt_stdio_output@@@2@@__crt_stdio_output@@AAE_NXZ 1002e012 f i libucrt:output.obj
 0001:0002d1ed       ?state_case_type@?$output_processor@DV?$stream_output_adapter@D@__crt_stdio_output@@V?$format_validation_base@DV?$stream_output_adapter@D@__crt_stdio_output@@@2@@__crt_stdio_output@@AAE_NXZ 1002e1ed f i libucrt:output.obj
 0001:0002d4a7       ?state_case_type@?$output_processor@DV?$stream_output_adapter@D@__crt_stdio_output@@V?$positional_parameter_base@DV?$stream_output_adapter@D@__crt_stdio_output@@@2@@__crt_stdio_output@@AAE_NXZ 1002e4a7 f i libucrt:output.obj
 0001:0002d76f       ?state_case_type@?$output_processor@DV?$stream_output_adapter@D@__crt_stdio_output@@V?$standard_base@DV?$stream_output_adapter@D@__crt_stdio_output@@@2@@__crt_stdio_output@@AAE_NXZ 1002e76f f i libucrt:output.obj
 0001:0002da29       ?state_case_type@?$output_processor@DV?$string_output_adapter@D@__crt_stdio_output@@V?$format_validation_base@DV?$string_output_adapter@D@__crt_stdio_output@@@2@@__crt_stdio_output@@AAE_NXZ 1002ea29 f i libucrt:output.obj
 0001:0002dce3       ?state_case_type@?$output_processor@DV?$string_output_adapter@D@__crt_stdio_output@@V?$positional_parameter_base@DV?$string_output_adapter@D@__crt_stdio_output@@@2@@__crt_stdio_output@@AAE_NXZ 1002ece3 f i libucrt:output.obj
 0001:0002dfab       ?state_case_type@?$output_processor@DV?$string_output_adapter@D@__crt_stdio_output@@V?$standard_base@DV?$string_output_adapter@D@__crt_stdio_output@@@2@@__crt_stdio_output@@AAE_NXZ 1002efab f i libucrt:output.obj
 0001:0002e265       ?state_case_type@?$output_processor@_WV?$stream_output_adapter@_W@__crt_stdio_output@@V?$format_validation_base@_WV?$stream_output_adapter@_W@__crt_stdio_output@@@2@@__crt_stdio_output@@AAE_NXZ 1002f265 f i libucrt:output.obj
 0001:0002e559       ?state_case_type@?$output_processor@_WV?$stream_output_adapter@_W@__crt_stdio_output@@V?$positional_parameter_base@_WV?$stream_output_adapter@_W@__crt_stdio_output@@@2@@__crt_stdio_output@@AAE_NXZ 1002f559 f i libucrt:output.obj
 0001:0002e860       ?state_case_type@?$output_processor@_WV?$stream_output_adapter@_W@__crt_stdio_output@@V?$standard_base@_WV?$stream_output_adapter@_W@__crt_stdio_output@@@2@@__crt_stdio_output@@AAE_NXZ 1002f860 f i libucrt:output.obj
 0001:0002eb54       ?state_case_type@?$output_processor@_WV?$string_output_adapter@_W@__crt_stdio_output@@V?$format_validation_base@_WV?$string_output_adapter@_W@__crt_stdio_output@@@2@@__crt_stdio_output@@AAE_NXZ 1002fb54 f i libucrt:output.obj
 0001:0002ee48       ?state_case_type@?$output_processor@_WV?$string_output_adapter@_W@__crt_stdio_output@@V?$positional_parameter_base@_WV?$string_output_adapter@_W@__crt_stdio_output@@@2@@__crt_stdio_output@@AAE_NXZ 1002fe48 f i libucrt:output.obj
 0001:0002f14f       ?state_case_type@?$output_processor@_WV?$string_output_adapter@_W@__crt_stdio_output@@V?$standard_base@_WV?$string_output_adapter@_W@__crt_stdio_output@@@2@@__crt_stdio_output@@AAE_NXZ 1003014f f i libucrt:output.obj
 0001:0002f443       ?state_case_width@?$output_processor@DV?$stream_output_adapter@D@__crt_stdio_output@@V?$format_validation_base@DV?$stream_output_adapter@D@__crt_stdio_output@@@2@@__crt_stdio_output@@AAE_NXZ 10030443 f i libucrt:output.obj
 0001:0002f478       ?state_case_width@?$output_processor@DV?$stream_output_adapter@D@__crt_stdio_output@@V?$positional_parameter_base@DV?$stream_output_adapter@D@__crt_stdio_output@@@2@@__crt_stdio_output@@AAE_NXZ 10030478 f i libucrt:output.obj
 0001:0002f4c8       ?state_case_width@?$output_processor@DV?$stream_output_adapter@D@__crt_stdio_output@@V?$standard_base@DV?$stream_output_adapter@D@__crt_stdio_output@@@2@@__crt_stdio_output@@AAE_NXZ 100304c8 f i libucrt:output.obj
 0001:0002f4fd       ?state_case_width@?$output_processor@DV?$string_output_adapter@D@__crt_stdio_output@@V?$format_validation_base@DV?$string_output_adapter@D@__crt_stdio_output@@@2@@__crt_stdio_output@@AAE_NXZ 100304fd f i libucrt:output.obj
 0001:0002f532       ?state_case_width@?$output_processor@DV?$string_output_adapter@D@__crt_stdio_output@@V?$positional_parameter_base@DV?$string_output_adapter@D@__crt_stdio_output@@@2@@__crt_stdio_output@@AAE_NXZ 10030532 f i libucrt:output.obj
 0001:0002f582       ?state_case_width@?$output_processor@DV?$string_output_adapter@D@__crt_stdio_output@@V?$standard_base@DV?$string_output_adapter@D@__crt_stdio_output@@@2@@__crt_stdio_output@@AAE_NXZ 10030582 f i libucrt:output.obj
 0001:0002f5b7       ?state_case_width@?$output_processor@_WV?$stream_output_adapter@_W@__crt_stdio_output@@V?$format_validation_base@_WV?$stream_output_adapter@_W@__crt_stdio_output@@@2@@__crt_stdio_output@@AAE_NXZ 100305b7 f i libucrt:output.obj
 0001:0002f5ee       ?state_case_width@?$output_processor@_WV?$stream_output_adapter@_W@__crt_stdio_output@@V?$positional_parameter_base@_WV?$stream_output_adapter@_W@__crt_stdio_output@@@2@@__crt_stdio_output@@AAE_NXZ 100305ee f i libucrt:output.obj
 0001:0002f63f       ?state_case_width@?$output_processor@_WV?$stream_output_adapter@_W@__crt_stdio_output@@V?$standard_base@_WV?$stream_output_adapter@_W@__crt_stdio_output@@@2@@__crt_stdio_output@@AAE_NXZ 1003063f f i libucrt:output.obj
 0001:0002f676       ?state_case_width@?$output_processor@_WV?$string_output_adapter@_W@__crt_stdio_output@@V?$format_validation_base@_WV?$string_output_adapter@_W@__crt_stdio_output@@@2@@__crt_stdio_output@@AAE_NXZ 10030676 f i libucrt:output.obj
 0001:0002f6ad       ?state_case_width@?$output_processor@_WV?$string_output_adapter@_W@__crt_stdio_output@@V?$positional_parameter_base@_WV?$string_output_adapter@_W@__crt_stdio_output@@@2@@__crt_stdio_output@@AAE_NXZ 100306ad f i libucrt:output.obj
 0001:0002f6fe       ?state_case_width@?$output_processor@_WV?$string_output_adapter@_W@__crt_stdio_output@@V?$standard_base@_WV?$string_output_adapter@_W@__crt_stdio_output@@@2@@__crt_stdio_output@@AAE_NXZ 100306fe f i libucrt:output.obj
 0001:0002f735       ?state_count@?$format_validation_base@DV?$stream_output_adapter@D@__crt_stdio_output@@@__crt_stdio_output@@KAIXZ 10030735 f i libucrt:output.obj
 0001:0002f739       ?state_count@?$format_validation_base@DV?$string_output_adapter@D@__crt_stdio_output@@@__crt_stdio_output@@KAIXZ 10030739 f i libucrt:output.obj
 0001:0002f73d       ?state_count@?$format_validation_base@_WV?$stream_output_adapter@_W@__crt_stdio_output@@@__crt_stdio_output@@KAIXZ 1003073d f i libucrt:output.obj
 0001:0002f741       ?state_count@?$format_validation_base@_WV?$string_output_adapter@_W@__crt_stdio_output@@@__crt_stdio_output@@KAIXZ 10030741 f i libucrt:output.obj
 0001:0002f745       ?state_count@?$standard_base@DV?$stream_output_adapter@D@__crt_stdio_output@@@__crt_stdio_output@@KAIXZ 10030745 f i libucrt:output.obj
 0001:0002f749       ?state_count@?$standard_base@DV?$string_output_adapter@D@__crt_stdio_output@@@__crt_stdio_output@@KAIXZ 10030749 f i libucrt:output.obj
 0001:0002f74d       ?state_count@?$standard_base@_WV?$stream_output_adapter@_W@__crt_stdio_output@@@__crt_stdio_output@@KAIXZ 1003074d f i libucrt:output.obj
 0001:0002f751       ?state_count@?$standard_base@_WV?$string_output_adapter@_W@__crt_stdio_output@@@__crt_stdio_output@@KAIXZ 10030751 f i libucrt:output.obj
 0001:0002f755       ?state_transition_table@?$format_validation_base@DV?$stream_output_adapter@D@__crt_stdio_output@@@__crt_stdio_output@@KAPBEXZ 10030755 f i libucrt:output.obj
 0001:0002f75b       ?state_transition_table@?$format_validation_base@DV?$string_output_adapter@D@__crt_stdio_output@@@__crt_stdio_output@@KAPBEXZ 1003075b f i libucrt:output.obj
 0001:0002f761       ?state_transition_table@?$format_validation_base@_WV?$stream_output_adapter@_W@__crt_stdio_output@@@__crt_stdio_output@@KAPBEXZ 10030761 f i libucrt:output.obj
 0001:0002f767       ?state_transition_table@?$format_validation_base@_WV?$string_output_adapter@_W@__crt_stdio_output@@@__crt_stdio_output@@KAPBEXZ 10030767 f i libucrt:output.obj
 0001:0002f76d       ?state_transition_table@?$standard_base@DV?$stream_output_adapter@D@__crt_stdio_output@@@__crt_stdio_output@@KAPBEXZ 1003076d f i libucrt:output.obj
 0001:0002f773       ?state_transition_table@?$standard_base@DV?$string_output_adapter@D@__crt_stdio_output@@@__crt_stdio_output@@KAPBEXZ 10030773 f i libucrt:output.obj
 0001:0002f779       ?state_transition_table@?$standard_base@_WV?$stream_output_adapter@_W@__crt_stdio_output@@@__crt_stdio_output@@KAPBEXZ 10030779 f i libucrt:output.obj
 0001:0002f77f       ?state_transition_table@?$standard_base@_WV?$string_output_adapter@_W@__crt_stdio_output@@@__crt_stdio_output@@KAPBEXZ 1003077f f i libucrt:output.obj
 0001:0002f785       ?to_integer_size@__crt_stdio_output@@YAIW4length_modifier@1@@Z 10030785 f i libucrt:output.obj
 0001:0002f7f8       ?type_case_X@?$output_processor@DV?$stream_output_adapter@D@__crt_stdio_output@@V?$format_validation_base@DV?$stream_output_adapter@D@__crt_stdio_output@@@2@@__crt_stdio_output@@AAE_NXZ 100307f8 f i libucrt:output.obj
 0001:0002f804       ?type_case_X@?$output_processor@DV?$stream_output_adapter@D@__crt_stdio_output@@V?$positional_parameter_base@DV?$stream_output_adapter@D@__crt_stdio_output@@@2@@__crt_stdio_output@@AAE_NXZ 10030804 f i libucrt:output.obj
 0001:0002f810       ?type_case_X@?$output_processor@DV?$stream_output_adapter@D@__crt_stdio_output@@V?$standard_base@DV?$stream_output_adapter@D@__crt_stdio_output@@@2@@__crt_stdio_output@@AAE_NXZ 10030810 f i libucrt:output.obj
 0001:0002f81c       ?type_case_X@?$output_processor@DV?$string_output_adapter@D@__crt_stdio_output@@V?$format_validation_base@DV?$string_output_adapter@D@__crt_stdio_output@@@2@@__crt_stdio_output@@AAE_NXZ 1003081c f i libucrt:output.obj
 0001:0002f828       ?type_case_X@?$output_processor@DV?$string_output_adapter@D@__crt_stdio_output@@V?$positional_parameter_base@DV?$string_output_adapter@D@__crt_stdio_output@@@2@@__crt_stdio_output@@AAE_NXZ 10030828 f i libucrt:output.obj
 0001:0002f834       ?type_case_X@?$output_processor@DV?$string_output_adapter@D@__crt_stdio_output@@V?$standard_base@DV?$string_output_adapter@D@__crt_stdio_output@@@2@@__crt_stdio_output@@AAE_NXZ 10030834 f i libucrt:output.obj
 0001:0002f840       ?type_case_X@?$output_processor@_WV?$stream_output_adapter@_W@__crt_stdio_output@@V?$format_validation_base@_WV?$stream_output_adapter@_W@__crt_stdio_output@@@2@@__crt_stdio_output@@AAE_NXZ 10030840 f i libucrt:output.obj
 0001:0002f84c       ?type_case_X@?$output_processor@_WV?$stream_output_adapter@_W@__crt_stdio_output@@V?$positional_parameter_base@_WV?$stream_output_adapter@_W@__crt_stdio_output@@@2@@__crt_stdio_output@@AAE_NXZ 1003084c f i libucrt:output.obj
 0001:0002f858       ?type_case_X@?$output_processor@_WV?$stream_output_adapter@_W@__crt_stdio_output@@V?$standard_base@_WV?$stream_output_adapter@_W@__crt_stdio_output@@@2@@__crt_stdio_output@@AAE_NXZ 10030858 f i libucrt:output.obj
 0001:0002f864       ?type_case_X@?$output_processor@_WV?$string_output_adapter@_W@__crt_stdio_output@@V?$format_validation_base@_WV?$string_output_adapter@_W@__crt_stdio_output@@@2@@__crt_stdio_output@@AAE_NXZ 10030864 f i libucrt:output.obj
 0001:0002f870       ?type_case_X@?$output_processor@_WV?$string_output_adapter@_W@__crt_stdio_output@@V?$positional_parameter_base@_WV?$string_output_adapter@_W@__crt_stdio_output@@@2@@__crt_stdio_output@@AAE_NXZ 10030870 f i libucrt:output.obj
 0001:0002f87c       ?type_case_X@?$output_processor@_WV?$string_output_adapter@_W@__crt_stdio_output@@V?$standard_base@_WV?$string_output_adapter@_W@__crt_stdio_output@@@2@@__crt_stdio_output@@AAE_NXZ 1003087c f i libucrt:output.obj
 0001:0002f888       ?type_case_Z@?$output_processor@DV?$stream_output_adapter@D@__crt_stdio_output@@V?$format_validation_base@DV?$stream_output_adapter@D@__crt_stdio_output@@@2@@__crt_stdio_output@@AAE_NXZ 10030888 f i libucrt:output.obj
 0001:0002f903       ?type_case_Z@?$output_processor@DV?$stream_output_adapter@D@__crt_stdio_output@@V?$positional_parameter_base@DV?$stream_output_adapter@D@__crt_stdio_output@@@2@@__crt_stdio_output@@AAE_NXZ 10030903 f i libucrt:output.obj
 0001:0002f9a1       ?type_case_Z@?$output_processor@DV?$stream_output_adapter@D@__crt_stdio_output@@V?$standard_base@DV?$stream_output_adapter@D@__crt_stdio_output@@@2@@__crt_stdio_output@@AAE_NXZ 100309a1 f i libucrt:output.obj
 0001:0002fa1c       ?type_case_Z@?$output_processor@DV?$string_output_adapter@D@__crt_stdio_output@@V?$format_validation_base@DV?$string_output_adapter@D@__crt_stdio_output@@@2@@__crt_stdio_output@@AAE_NXZ 10030a1c f i libucrt:output.obj
 0001:0002fa97       ?type_case_Z@?$output_processor@DV?$string_output_adapter@D@__crt_stdio_output@@V?$positional_parameter_base@DV?$string_output_adapter@D@__crt_stdio_output@@@2@@__crt_stdio_output@@AAE_NXZ 10030a97 f i libucrt:output.obj
 0001:0002fb35       ?type_case_Z@?$output_processor@DV?$string_output_adapter@D@__crt_stdio_output@@V?$standard_base@DV?$string_output_adapter@D@__crt_stdio_output@@@2@@__crt_stdio_output@@AAE_NXZ 10030b35 f i libucrt:output.obj
 0001:0002fbb0       ?type_case_Z@?$output_processor@_WV?$stream_output_adapter@_W@__crt_stdio_output@@V?$format_validation_base@_WV?$stream_output_adapter@_W@__crt_stdio_output@@@2@@__crt_stdio_output@@AAE_NXZ 10030bb0 f i libucrt:output.obj
 0001:0002fc2b       ?type_case_Z@?$output_processor@_WV?$stream_output_adapter@_W@__crt_stdio_output@@V?$positional_parameter_base@_WV?$stream_output_adapter@_W@__crt_stdio_output@@@2@@__crt_stdio_output@@AAE_NXZ 10030c2b f i libucrt:output.obj
 0001:0002fcc9       ?type_case_Z@?$output_processor@_WV?$stream_output_adapter@_W@__crt_stdio_output@@V?$standard_base@_WV?$stream_output_adapter@_W@__crt_stdio_output@@@2@@__crt_stdio_output@@AAE_NXZ 10030cc9 f i libucrt:output.obj
 0001:0002fd44       ?type_case_Z@?$output_processor@_WV?$string_output_adapter@_W@__crt_stdio_output@@V?$format_validation_base@_WV?$string_output_adapter@_W@__crt_stdio_output@@@2@@__crt_stdio_output@@AAE_NXZ 10030d44 f i libucrt:output.obj
 0001:0002fdbf       ?type_case_Z@?$output_processor@_WV?$string_output_adapter@_W@__crt_stdio_output@@V?$positional_parameter_base@_WV?$string_output_adapter@_W@__crt_stdio_output@@@2@@__crt_stdio_output@@AAE_NXZ 10030dbf f i libucrt:output.obj
 0001:0002fe5d       ?type_case_Z@?$output_processor@_WV?$string_output_adapter@_W@__crt_stdio_output@@V?$standard_base@_WV?$string_output_adapter@_W@__crt_stdio_output@@@2@@__crt_stdio_output@@AAE_NXZ 10030e5d f i libucrt:output.obj
 0001:0002fed8       ?type_case_a@?$output_processor@DV?$stream_output_adapter@D@__crt_stdio_output@@V?$format_validation_base@DV?$stream_output_adapter@D@__crt_stdio_output@@@2@@__crt_stdio_output@@AAE_NXZ 10030ed8 f i libucrt:output.obj
 0001:00030088       ?type_case_a@?$output_processor@DV?$stream_output_adapter@D@__crt_stdio_output@@V?$positional_parameter_base@DV?$stream_output_adapter@D@__crt_stdio_output@@@2@@__crt_stdio_output@@AAE_NXZ 10031088 f i libucrt:output.obj
 0001:0003025f       ?type_case_a@?$output_processor@DV?$stream_output_adapter@D@__crt_stdio_output@@V?$standard_base@DV?$stream_output_adapter@D@__crt_stdio_output@@@2@@__crt_stdio_output@@AAE_NXZ 1003125f f i libucrt:output.obj
 0001:0003040f       ?type_case_a@?$output_processor@DV?$string_output_adapter@D@__crt_stdio_output@@V?$format_validation_base@DV?$string_output_adapter@D@__crt_stdio_output@@@2@@__crt_stdio_output@@AAE_NXZ 1003140f f i libucrt:output.obj
 0001:000305bf       ?type_case_a@?$output_processor@DV?$string_output_adapter@D@__crt_stdio_output@@V?$positional_parameter_base@DV?$string_output_adapter@D@__crt_stdio_output@@@2@@__crt_stdio_output@@AAE_NXZ 100315bf f i libucrt:output.obj
 0001:00030796       ?type_case_a@?$output_processor@DV?$string_output_adapter@D@__crt_stdio_output@@V?$standard_base@DV?$string_output_adapter@D@__crt_stdio_output@@@2@@__crt_stdio_output@@AAE_NXZ 10031796 f i libucrt:output.obj
 0001:00030946       ?type_case_a@?$output_processor@_WV?$stream_output_adapter@_W@__crt_stdio_output@@V?$format_validation_base@_WV?$stream_output_adapter@_W@__crt_stdio_output@@@2@@__crt_stdio_output@@AAE_NXZ 10031946 f i libucrt:output.obj
 0001:00030b14       ?type_case_a@?$output_processor@_WV?$stream_output_adapter@_W@__crt_stdio_output@@V?$positional_parameter_base@_WV?$stream_output_adapter@_W@__crt_stdio_output@@@2@@__crt_stdio_output@@AAE_NXZ 10031b14 f i libucrt:output.obj
 0001:00030d09       ?type_case_a@?$output_processor@_WV?$stream_output_adapter@_W@__crt_stdio_output@@V?$standard_base@_WV?$stream_output_adapter@_W@__crt_stdio_output@@@2@@__crt_stdio_output@@AAE_NXZ 10031d09 f i libucrt:output.obj
 0001:00030ed7       ?type_case_a@?$output_processor@_WV?$string_output_adapter@_W@__crt_stdio_output@@V?$format_validation_base@_WV?$string_output_adapter@_W@__crt_stdio_output@@@2@@__crt_stdio_output@@AAE_NXZ 10031ed7 f i libucrt:output.obj
 0001:000310a5       ?type_case_a@?$output_processor@_WV?$string_output_adapter@_W@__crt_stdio_output@@V?$positional_parameter_base@_WV?$string_output_adapter@_W@__crt_stdio_output@@@2@@__crt_stdio_output@@AAE_NXZ 100320a5 f i libucrt:output.obj
 0001:0003129a       ?type_case_a@?$output_processor@_WV?$string_output_adapter@_W@__crt_stdio_output@@V?$standard_base@_WV?$string_output_adapter@_W@__crt_stdio_output@@@2@@__crt_stdio_output@@AAE_NXZ 1003229a f i libucrt:output.obj
 0001:00031468       ?type_case_c@?$output_processor@DV?$stream_output_adapter@D@__crt_stdio_output@@V?$format_validation_base@DV?$stream_output_adapter@D@__crt_stdio_output@@@2@@__crt_stdio_output@@AAE_NXZ 10032468 f i libucrt:output.obj
 0001:00031472       ?type_case_c@?$output_processor@DV?$stream_output_adapter@D@__crt_stdio_output@@V?$positional_parameter_base@DV?$stream_output_adapter@D@__crt_stdio_output@@@2@@__crt_stdio_output@@AAE_NXZ 10032472 f i libucrt:output.obj
 0001:0003147c       ?type_case_c@?$output_processor@DV?$stream_output_adapter@D@__crt_stdio_output@@V?$standard_base@DV?$stream_output_adapter@D@__crt_stdio_output@@@2@@__crt_stdio_output@@AAE_NXZ 1003247c f i libucrt:output.obj
 0001:00031486       ?type_case_c@?$output_processor@DV?$string_output_adapter@D@__crt_stdio_output@@V?$format_validation_base@DV?$string_output_adapter@D@__crt_stdio_output@@@2@@__crt_stdio_output@@AAE_NXZ 10032486 f i libucrt:output.obj
 0001:00031490       ?type_case_c@?$output_processor@DV?$string_output_adapter@D@__crt_stdio_output@@V?$positional_parameter_base@DV?$string_output_adapter@D@__crt_stdio_output@@@2@@__crt_stdio_output@@AAE_NXZ 10032490 f i libucrt:output.obj
 0001:0003149a       ?type_case_c@?$output_processor@DV?$string_output_adapter@D@__crt_stdio_output@@V?$standard_base@DV?$string_output_adapter@D@__crt_stdio_output@@@2@@__crt_stdio_output@@AAE_NXZ 1003249a f i libucrt:output.obj
 0001:000314a4       ?type_case_c@?$output_processor@_WV?$stream_output_adapter@_W@__crt_stdio_output@@V?$format_validation_base@_WV?$stream_output_adapter@_W@__crt_stdio_output@@@2@@__crt_stdio_output@@AAE_NXZ 100324a4 f i libucrt:output.obj
 0001:000314ae       ?type_case_c@?$output_processor@_WV?$stream_output_adapter@_W@__crt_stdio_output@@V?$positional_parameter_base@_WV?$stream_output_adapter@_W@__crt_stdio_output@@@2@@__crt_stdio_output@@AAE_NXZ 100324ae f i libucrt:output.obj
 0001:000314b8       ?type_case_c@?$output_processor@_WV?$stream_output_adapter@_W@__crt_stdio_output@@V?$standard_base@_WV?$stream_output_adapter@_W@__crt_stdio_output@@@2@@__crt_stdio_output@@AAE_NXZ 100324b8 f i libucrt:output.obj
 0001:000314c2       ?type_case_c@?$output_processor@_WV?$string_output_adapter@_W@__crt_stdio_output@@V?$format_validation_base@_WV?$string_output_adapter@_W@__crt_stdio_output@@@2@@__crt_stdio_output@@AAE_NXZ 100324c2 f i libucrt:output.obj
 0001:000314cc       ?type_case_c@?$output_processor@_WV?$string_output_adapter@_W@__crt_stdio_output@@V?$positional_parameter_base@_WV?$string_output_adapter@_W@__crt_stdio_output@@@2@@__crt_stdio_output@@AAE_NXZ 100324cc f i libucrt:output.obj
 0001:000314d6       ?type_case_c@?$output_processor@_WV?$string_output_adapter@_W@__crt_stdio_output@@V?$standard_base@_WV?$string_output_adapter@_W@__crt_stdio_output@@@2@@__crt_stdio_output@@AAE_NXZ 100324d6 f i libucrt:output.obj
 0001:000314e0       ?type_case_c_tchar@?$output_processor@DV?$stream_output_adapter@D@__crt_stdio_output@@V?$format_validation_base@DV?$stream_output_adapter@D@__crt_stdio_output@@@2@@__crt_stdio_output@@AAE_ND@Z 100324e0 f i libucrt:output.obj
 0001:00031594       ?type_case_c_tchar@?$output_processor@DV?$stream_output_adapter@D@__crt_stdio_output@@V?$positional_parameter_base@DV?$stream_output_adapter@D@__crt_stdio_output@@@2@@__crt_stdio_output@@AAE_ND@Z 10032594 f i libucrt:output.obj
 0001:00031684       ?type_case_c_tchar@?$output_processor@DV?$stream_output_adapter@D@__crt_stdio_output@@V?$standard_base@DV?$stream_output_adapter@D@__crt_stdio_output@@@2@@__crt_stdio_output@@AAE_ND@Z 10032684 f i libucrt:output.obj
 0001:00031738       ?type_case_c_tchar@?$output_processor@DV?$string_output_adapter@D@__crt_stdio_output@@V?$format_validation_base@DV?$string_output_adapter@D@__crt_stdio_output@@@2@@__crt_stdio_output@@AAE_ND@Z 10032738 f i libucrt:output.obj
 0001:000317ec       ?type_case_c_tchar@?$output_processor@DV?$string_output_adapter@D@__crt_stdio_output@@V?$positional_parameter_base@DV?$string_output_adapter@D@__crt_stdio_output@@@2@@__crt_stdio_output@@AAE_ND@Z 100327ec f i libucrt:output.obj
 0001:000318dc       ?type_case_c_tchar@?$output_processor@DV?$string_output_adapter@D@__crt_stdio_output@@V?$standard_base@DV?$string_output_adapter@D@__crt_stdio_output@@@2@@__crt_stdio_output@@AAE_ND@Z 100328dc f i libucrt:output.obj
 0001:00031990       ?type_case_c_tchar@?$output_processor@_WV?$stream_output_adapter@_W@__crt_stdio_output@@V?$format_validation_base@_WV?$stream_output_adapter@_W@__crt_stdio_output@@@2@@__crt_stdio_output@@AAE_N_W@Z 10032990 f i libucrt:output.obj
 0001:00031a4e       ?type_case_c_tchar@?$output_processor@_WV?$stream_output_adapter@_W@__crt_stdio_output@@V?$positional_parameter_base@_WV?$stream_output_adapter@_W@__crt_stdio_output@@@2@@__crt_stdio_output@@AAE_N_W@Z 10032a4e f i libucrt:output.obj
 0001:00031b28       ?type_case_c_tchar@?$output_processor@_WV?$stream_output_adapter@_W@__crt_stdio_output@@V?$standard_base@_WV?$stream_output_adapter@_W@__crt_stdio_output@@@2@@__crt_stdio_output@@AAE_N_W@Z 10032b28 f i libucrt:output.obj
 0001:00031be6       ?type_case_c_tchar@?$output_processor@_WV?$string_output_adapter@_W@__crt_stdio_output@@V?$format_validation_base@_WV?$string_output_adapter@_W@__crt_stdio_output@@@2@@__crt_stdio_output@@AAE_N_W@Z 10032be6 f i libucrt:output.obj
 0001:00031ca4       ?type_case_c_tchar@?$output_processor@_WV?$string_output_adapter@_W@__crt_stdio_output@@V?$positional_parameter_base@_WV?$string_output_adapter@_W@__crt_stdio_output@@@2@@__crt_stdio_output@@AAE_N_W@Z 10032ca4 f i libucrt:output.obj
 0001:00031d7e       ?type_case_c_tchar@?$output_processor@_WV?$string_output_adapter@_W@__crt_stdio_output@@V?$standard_base@_WV?$string_output_adapter@_W@__crt_stdio_output@@@2@@__crt_stdio_output@@AAE_N_W@Z 10032d7e f i libucrt:output.obj
 0001:00031e3c       ?type_case_d@?$output_processor@DV?$stream_output_adapter@D@__crt_stdio_output@@V?$format_validation_base@DV?$stream_output_adapter@D@__crt_stdio_output@@@2@@__crt_stdio_output@@AAE_NXZ 10032e3c f i libucrt:output.obj
 0001:00031e4d       ?type_case_d@?$output_processor@DV?$stream_output_adapter@D@__crt_stdio_output@@V?$positional_parameter_base@DV?$stream_output_adapter@D@__crt_stdio_output@@@2@@__crt_stdio_output@@AAE_NXZ 10032e4d f i libucrt:output.obj
 0001:00031e5e       ?type_case_d@?$output_processor@DV?$stream_output_adapter@D@__crt_stdio_output@@V?$standard_base@DV?$stream_output_adapter@D@__crt_stdio_output@@@2@@__crt_stdio_output@@AAE_NXZ 10032e5e f i libucrt:output.obj
 0001:00031e6f       ?type_case_d@?$output_processor@DV?$string_output_adapter@D@__crt_stdio_output@@V?$format_validation_base@DV?$string_output_adapter@D@__crt_stdio_output@@@2@@__crt_stdio_output@@AAE_NXZ 10032e6f f i libucrt:output.obj
 0001:00031e80       ?type_case_d@?$output_processor@DV?$string_output_adapter@D@__crt_stdio_output@@V?$positional_parameter_base@DV?$string_output_adapter@D@__crt_stdio_output@@@2@@__crt_stdio_output@@AAE_NXZ 10032e80 f i libucrt:output.obj
 0001:00031e91       ?type_case_d@?$output_processor@DV?$string_output_adapter@D@__crt_stdio_output@@V?$standard_base@DV?$string_output_adapter@D@__crt_stdio_output@@@2@@__crt_stdio_output@@AAE_NXZ 10032e91 f i libucrt:output.obj
 0001:00031ea2       ?type_case_d@?$output_processor@_WV?$stream_output_adapter@_W@__crt_stdio_output@@V?$format_validation_base@_WV?$stream_output_adapter@_W@__crt_stdio_output@@@2@@__crt_stdio_output@@AAE_NXZ 10032ea2 f i libucrt:output.obj
 0001:00031eb3       ?type_case_d@?$output_processor@_WV?$stream_output_adapter@_W@__crt_stdio_output@@V?$positional_parameter_base@_WV?$stream_output_adapter@_W@__crt_stdio_output@@@2@@__crt_stdio_output@@AAE_NXZ 10032eb3 f i libucrt:output.obj
 0001:00031ec4       ?type_case_d@?$output_processor@_WV?$stream_output_adapter@_W@__crt_stdio_output@@V?$standard_base@_WV?$stream_output_adapter@_W@__crt_stdio_output@@@2@@__crt_stdio_output@@AAE_NXZ 10032ec4 f i libucrt:output.obj
 0001:00031ed5       ?type_case_d@?$output_processor@_WV?$string_output_adapter@_W@__crt_stdio_output@@V?$format_validation_base@_WV?$string_output_adapter@_W@__crt_stdio_output@@@2@@__crt_stdio_output@@AAE_NXZ 10032ed5 f i libucrt:output.obj
 0001:00031ee6       ?type_case_d@?$output_processor@_WV?$string_output_adapter@_W@__crt_stdio_output@@V?$positional_parameter_base@_WV?$string_output_adapter@_W@__crt_stdio_output@@@2@@__crt_stdio_output@@AAE_NXZ 10032ee6 f i libucrt:output.obj
 0001:00031ef7       ?type_case_d@?$output_processor@_WV?$string_output_adapter@_W@__crt_stdio_output@@V?$standard_base@_WV?$string_output_adapter@_W@__crt_stdio_output@@@2@@__crt_stdio_output@@AAE_NXZ 10032ef7 f i libucrt:output.obj
 0001:00031f08       ?type_case_integer@?$output_processor@DV?$stream_output_adapter@D@__crt_stdio_output@@V?$format_validation_base@DV?$stream_output_adapter@D@__crt_stdio_output@@@2@@__crt_stdio_output@@AAE_NI_N@Z 10032f08 f i libucrt:output.obj
 0001:000320a4       ?type_case_integer@?$output_processor@DV?$stream_output_adapter@D@__crt_stdio_output@@V?$positional_parameter_base@DV?$stream_output_adapter@D@__crt_stdio_output@@@2@@__crt_stdio_output@@AAE_NI_N@Z 100330a4 f i libucrt:output.obj
 0001:00032281       ?type_case_integer@?$output_processor@DV?$stream_output_adapter@D@__crt_stdio_output@@V?$standard_base@DV?$stream_output_adapter@D@__crt_stdio_output@@@2@@__crt_stdio_output@@AAE_NI_N@Z 10033281 f i libucrt:output.obj
 0001:0003241d       ?type_case_integer@?$output_processor@DV?$string_output_adapter@D@__crt_stdio_output@@V?$format_validation_base@DV?$string_output_adapter@D@__crt_stdio_output@@@2@@__crt_stdio_output@@AAE_NI_N@Z 1003341d f i libucrt:output.obj
 0001:000325b9       ?type_case_integer@?$output_processor@DV?$string_output_adapter@D@__crt_stdio_output@@V?$positional_parameter_base@DV?$string_output_adapter@D@__crt_stdio_output@@@2@@__crt_stdio_output@@AAE_NI_N@Z 100335b9 f i libucrt:output.obj
 0001:00032796       ?type_case_integer@?$output_processor@DV?$string_output_adapter@D@__crt_stdio_output@@V?$standard_base@DV?$string_output_adapter@D@__crt_stdio_output@@@2@@__crt_stdio_output@@AAE_NI_N@Z 10033796 f i libucrt:output.obj
 0001:00032932       ?type_case_integer@?$output_processor@_WV?$stream_output_adapter@_W@__crt_stdio_output@@V?$format_validation_base@_WV?$stream_output_adapter@_W@__crt_stdio_output@@@2@@__crt_stdio_output@@AAE_NI_N@Z 10033932 f i libucrt:output.obj
 0001:00032ace       ?type_case_integer@?$output_processor@_WV?$stream_output_adapter@_W@__crt_stdio_output@@V?$positional_parameter_base@_WV?$stream_output_adapter@_W@__crt_stdio_output@@@2@@__crt_stdio_output@@AAE_NI_N@Z 10033ace f i libucrt:output.obj
 0001:00032cab       ?type_case_integer@?$output_processor@_WV?$stream_output_adapter@_W@__crt_stdio_output@@V?$standard_base@_WV?$stream_output_adapter@_W@__crt_stdio_output@@@2@@__crt_stdio_output@@AAE_NI_N@Z 10033cab f i libucrt:output.obj
 0001:00032e47       ?type_case_integer@?$output_processor@_WV?$string_output_adapter@_W@__crt_stdio_output@@V?$format_validation_base@_WV?$string_output_adapter@_W@__crt_stdio_output@@@2@@__crt_stdio_output@@AAE_NI_N@Z 10033e47 f i libucrt:output.obj
 0001:00032fe3       ?type_case_integer@?$output_processor@_WV?$string_output_adapter@_W@__crt_stdio_output@@V?$positional_parameter_base@_WV?$string_output_adapter@_W@__crt_stdio_output@@@2@@__crt_stdio_output@@AAE_NI_N@Z 10033fe3 f i libucrt:output.obj
 0001:000331c0       ?type_case_integer@?$output_processor@_WV?$string_output_adapter@_W@__crt_stdio_output@@V?$standard_base@_WV?$string_output_adapter@_W@__crt_stdio_output@@@2@@__crt_stdio_output@@AAE_NI_N@Z 100341c0 f i libucrt:output.obj
 0001:0003335c       ?type_case_n@?$output_processor@DV?$stream_output_adapter@D@__crt_stdio_output@@V?$format_validation_base@DV?$stream_output_adapter@D@__crt_stdio_output@@@2@@__crt_stdio_output@@AAE_NXZ 1003435c f i libucrt:output.obj
 0001:000333ed       ?type_case_n@?$output_processor@DV?$stream_output_adapter@D@__crt_stdio_output@@V?$positional_parameter_base@DV?$stream_output_adapter@D@__crt_stdio_output@@@2@@__crt_stdio_output@@AAE_NXZ 100343ed f i libucrt:output.obj
 0001:000334ac       ?type_case_n@?$output_processor@DV?$stream_output_adapter@D@__crt_stdio_output@@V?$standard_base@DV?$stream_output_adapter@D@__crt_stdio_output@@@2@@__crt_stdio_output@@AAE_NXZ 100344ac f i libucrt:output.obj
 0001:0003353d       ?type_case_n@?$output_processor@DV?$string_output_adapter@D@__crt_stdio_output@@V?$format_validation_base@DV?$string_output_adapter@D@__crt_stdio_output@@@2@@__crt_stdio_output@@AAE_NXZ 1003453d f i libucrt:output.obj
 0001:000335ce       ?type_case_n@?$output_processor@DV?$string_output_adapter@D@__crt_stdio_output@@V?$positional_parameter_base@DV?$string_output_adapter@D@__crt_stdio_output@@@2@@__crt_stdio_output@@AAE_NXZ 100345ce f i libucrt:output.obj
 0001:0003368d       ?type_case_n@?$output_processor@DV?$string_output_adapter@D@__crt_stdio_output@@V?$standard_base@DV?$string_output_adapter@D@__crt_stdio_output@@@2@@__crt_stdio_output@@AAE_NXZ 1003468d f i libucrt:output.obj
 0001:0003371e       ?type_case_n@?$output_processor@_WV?$stream_output_adapter@_W@__crt_stdio_output@@V?$format_validation_base@_WV?$stream_output_adapter@_W@__crt_stdio_output@@@2@@__crt_stdio_output@@AAE_NXZ 1003471e f i libucrt:output.obj
 0001:000337af       ?type_case_n@?$output_processor@_WV?$stream_output_adapter@_W@__crt_stdio_output@@V?$positional_parameter_base@_WV?$stream_output_adapter@_W@__crt_stdio_output@@@2@@__crt_stdio_output@@AAE_NXZ 100347af f i libucrt:output.obj
 0001:0003386e       ?type_case_n@?$output_processor@_WV?$stream_output_adapter@_W@__crt_stdio_output@@V?$standard_base@_WV?$stream_output_adapter@_W@__crt_stdio_output@@@2@@__crt_stdio_output@@AAE_NXZ 1003486e f i libucrt:output.obj
 0001:000338ff       ?type_case_n@?$output_processor@_WV?$string_output_adapter@_W@__crt_stdio_output@@V?$format_validation_base@_WV?$string_output_adapter@_W@__crt_stdio_output@@@2@@__crt_stdio_output@@AAE_NXZ 100348ff f i libucrt:output.obj
 0001:00033990       ?type_case_n@?$output_processor@_WV?$string_output_adapter@_W@__crt_stdio_output@@V?$positional_parameter_base@_WV?$string_output_adapter@_W@__crt_stdio_output@@@2@@__crt_stdio_output@@AAE_NXZ 10034990 f i libucrt:output.obj
 0001:00033a4f       ?type_case_n@?$output_processor@_WV?$string_output_adapter@_W@__crt_stdio_output@@V?$standard_base@_WV?$string_output_adapter@_W@__crt_stdio_output@@@2@@__crt_stdio_output@@AAE_NXZ 10034a4f f i libucrt:output.obj
 0001:00033ae0       ?type_case_o@?$output_processor@DV?$stream_output_adapter@D@__crt_stdio_output@@V?$format_validation_base@DV?$stream_output_adapter@D@__crt_stdio_output@@@2@@__crt_stdio_output@@AAE_NXZ 10034ae0 f i libucrt:output.obj
 0001:00033b06       ?type_case_o@?$output_processor@DV?$stream_output_adapter@D@__crt_stdio_output@@V?$positional_parameter_base@DV?$stream_output_adapter@D@__crt_stdio_output@@@2@@__crt_stdio_output@@AAE_NXZ 10034b06 f i libucrt:output.obj
 0001:00033b2c       ?type_case_o@?$output_processor@DV?$stream_output_adapter@D@__crt_stdio_output@@V?$standard_base@DV?$stream_output_adapter@D@__crt_stdio_output@@@2@@__crt_stdio_output@@AAE_NXZ 10034b2c f i libucrt:output.obj
 0001:00033b52       ?type_case_o@?$output_processor@DV?$string_output_adapter@D@__crt_stdio_output@@V?$format_validation_base@DV?$string_output_adapter@D@__crt_stdio_output@@@2@@__crt_stdio_output@@AAE_NXZ 10034b52 f i libucrt:output.obj
 0001:00033b78       ?type_case_o@?$output_processor@DV?$string_output_adapter@D@__crt_stdio_output@@V?$positional_parameter_base@DV?$string_output_adapter@D@__crt_stdio_output@@@2@@__crt_stdio_output@@AAE_NXZ 10034b78 f i libucrt:output.obj
 0001:00033b9e       ?type_case_o@?$output_processor@DV?$string_output_adapter@D@__crt_stdio_output@@V?$standard_base@DV?$string_output_adapter@D@__crt_stdio_output@@@2@@__crt_stdio_output@@AAE_NXZ 10034b9e f i libucrt:output.obj
 0001:00033bc4       ?type_case_o@?$output_processor@_WV?$stream_output_adapter@_W@__crt_stdio_output@@V?$format_validation_base@_WV?$stream_output_adapter@_W@__crt_stdio_output@@@2@@__crt_stdio_output@@AAE_NXZ 10034bc4 f i libucrt:output.obj
 0001:00033bea       ?type_case_o@?$output_processor@_WV?$stream_output_adapter@_W@__crt_stdio_output@@V?$positional_parameter_base@_WV?$stream_output_adapter@_W@__crt_stdio_output@@@2@@__crt_stdio_output@@AAE_NXZ 10034bea f i libucrt:output.obj
 0001:00033c10       ?type_case_o@?$output_processor@_WV?$stream_output_adapter@_W@__crt_stdio_output@@V?$standard_base@_WV?$stream_output_adapter@_W@__crt_stdio_output@@@2@@__crt_stdio_output@@AAE_NXZ 10034c10 f i libucrt:output.obj
 0001:00033c36       ?type_case_o@?$output_processor@_WV?$string_output_adapter@_W@__crt_stdio_output@@V?$format_validation_base@_WV?$string_output_adapter@_W@__crt_stdio_output@@@2@@__crt_stdio_output@@AAE_NXZ 10034c36 f i libucrt:output.obj
 0001:00033c5c       ?type_case_o@?$output_processor@_WV?$string_output_adapter@_W@__crt_stdio_output@@V?$positional_parameter_base@_WV?$string_output_adapter@_W@__crt_stdio_output@@@2@@__crt_stdio_output@@AAE_NXZ 10034c5c f i libucrt:output.obj
 0001:00033c82       ?type_case_o@?$output_processor@_WV?$string_output_adapter@_W@__crt_stdio_output@@V?$standard_base@_WV?$string_output_adapter@_W@__crt_stdio_output@@@2@@__crt_stdio_output@@AAE_NXZ 10034c82 f i libucrt:output.obj
 0001:00033ca8       ?type_case_p@?$output_processor@DV?$stream_output_adapter@D@__crt_stdio_output@@V?$format_validation_base@DV?$stream_output_adapter@D@__crt_stdio_output@@@2@@__crt_stdio_output@@AAE_NXZ 10034ca8 f i libucrt:output.obj
 0001:00033cc6       ?type_case_p@?$output_processor@DV?$stream_output_adapter@D@__crt_stdio_output@@V?$positional_parameter_base@DV?$stream_output_adapter@D@__crt_stdio_output@@@2@@__crt_stdio_output@@AAE_NXZ 10034cc6 f i libucrt:output.obj
 0001:00033ce4       ?type_case_p@?$output_processor@DV?$stream_output_adapter@D@__crt_stdio_output@@V?$standard_base@DV?$stream_output_adapter@D@__crt_stdio_output@@@2@@__crt_stdio_output@@AAE_NXZ 10034ce4 f i libucrt:output.obj
 0001:00033d02       ?type_case_p@?$output_processor@DV?$string_output_adapter@D@__crt_stdio_output@@V?$format_validation_base@DV?$string_output_adapter@D@__crt_stdio_output@@@2@@__crt_stdio_output@@AAE_NXZ 10034d02 f i libucrt:output.obj
 0001:00033d20       ?type_case_p@?$output_processor@DV?$string_output_adapter@D@__crt_stdio_output@@V?$positional_parameter_base@DV?$string_output_adapter@D@__crt_stdio_output@@@2@@__crt_stdio_output@@AAE_NXZ 10034d20 f i libucrt:output.obj
 0001:00033d3e       ?type_case_p@?$output_processor@DV?$string_output_adapter@D@__crt_stdio_output@@V?$standard_base@DV?$string_output_adapter@D@__crt_stdio_output@@@2@@__crt_stdio_output@@AAE_NXZ 10034d3e f i libucrt:output.obj
 0001:00033d5c       ?type_case_p@?$output_processor@_WV?$stream_output_adapter@_W@__crt_stdio_output@@V?$format_validation_base@_WV?$stream_output_adapter@_W@__crt_stdio_output@@@2@@__crt_stdio_output@@AAE_NXZ 10034d5c f i libucrt:output.obj
 0001:00033d7a       ?type_case_p@?$output_processor@_WV?$stream_output_adapter@_W@__crt_stdio_output@@V?$positional_parameter_base@_WV?$stream_output_adapter@_W@__crt_stdio_output@@@2@@__crt_stdio_output@@AAE_NXZ 10034d7a f i libucrt:output.obj
 0001:00033d98       ?type_case_p@?$output_processor@_WV?$stream_output_adapter@_W@__crt_stdio_output@@V?$standard_base@_WV?$stream_output_adapter@_W@__crt_stdio_output@@@2@@__crt_stdio_output@@AAE_NXZ 10034d98 f i libucrt:output.obj
 0001:00033db6       ?type_case_p@?$output_processor@_WV?$string_output_adapter@_W@__crt_stdio_output@@V?$format_validation_base@_WV?$string_output_adapter@_W@__crt_stdio_output@@@2@@__crt_stdio_output@@AAE_NXZ 10034db6 f i libucrt:output.obj
 0001:00033dd4       ?type_case_p@?$output_processor@_WV?$string_output_adapter@_W@__crt_stdio_output@@V?$positional_parameter_base@_WV?$string_output_adapter@_W@__crt_stdio_output@@@2@@__crt_stdio_output@@AAE_NXZ 10034dd4 f i libucrt:output.obj
 0001:00033df2       ?type_case_p@?$output_processor@_WV?$string_output_adapter@_W@__crt_stdio_output@@V?$standard_base@_WV?$string_output_adapter@_W@__crt_stdio_output@@@2@@__crt_stdio_output@@AAE_NXZ 10034df2 f i libucrt:output.obj
 0001:00033e10       ?type_case_s@?$output_processor@DV?$stream_output_adapter@D@__crt_stdio_output@@V?$format_validation_base@DV?$stream_output_adapter@D@__crt_stdio_output@@@2@@__crt_stdio_output@@AAE_NXZ 10034e10 f i libucrt:output.obj
 0001:00033e9f       ?type_case_s@?$output_processor@DV?$stream_output_adapter@D@__crt_stdio_output@@V?$positional_parameter_base@DV?$stream_output_adapter@D@__crt_stdio_output@@@2@@__crt_stdio_output@@AAE_NXZ 10034e9f f i libucrt:output.obj
 0001:00033f3a       ?type_case_s@?$output_processor@DV?$stream_output_adapter@D@__crt_stdio_output@@V?$standard_base@DV?$stream_output_adapter@D@__crt_stdio_output@@@2@@__crt_stdio_output@@AAE_NXZ 10034f3a f i libucrt:output.obj
 0001:00033fc9       ?type_case_s@?$output_processor@DV?$string_output_adapter@D@__crt_stdio_output@@V?$format_validation_base@DV?$string_output_adapter@D@__crt_stdio_output@@@2@@__crt_stdio_output@@AAE_NXZ 10034fc9 f i libucrt:output.obj
 0001:00034058       ?type_case_s@?$output_processor@DV?$string_output_adapter@D@__crt_stdio_output@@V?$positional_parameter_base@DV?$string_output_adapter@D@__crt_stdio_output@@@2@@__crt_stdio_output@@AAE_NXZ 10035058 f i libucrt:output.obj
 0001:000340f3       ?type_case_s@?$output_processor@DV?$string_output_adapter@D@__crt_stdio_output@@V?$standard_base@DV?$string_output_adapter@D@__crt_stdio_output@@@2@@__crt_stdio_output@@AAE_NXZ 100350f3 f i libucrt:output.obj
 0001:00034182       ?type_case_s@?$output_processor@_WV?$stream_output_adapter@_W@__crt_stdio_output@@V?$format_validation_base@_WV?$stream_output_adapter@_W@__crt_stdio_output@@@2@@__crt_stdio_output@@AAE_NXZ 10035182 f i libucrt:output.obj
 0001:00034213       ?type_case_s@?$output_processor@_WV?$stream_output_adapter@_W@__crt_stdio_output@@V?$positional_parameter_base@_WV?$stream_output_adapter@_W@__crt_stdio_output@@@2@@__crt_stdio_output@@AAE_NXZ 10035213 f i libucrt:output.obj
 0001:000342b0       ?type_case_s@?$output_processor@_WV?$stream_output_adapter@_W@__crt_stdio_output@@V?$standard_base@_WV?$stream_output_adapter@_W@__crt_stdio_output@@@2@@__crt_stdio_output@@AAE_NXZ 100352b0 f i libucrt:output.obj
 0001:00034341       ?type_case_s@?$output_processor@_WV?$string_output_adapter@_W@__crt_stdio_output@@V?$format_validation_base@_WV?$string_output_adapter@_W@__crt_stdio_output@@@2@@__crt_stdio_output@@AAE_NXZ 10035341 f i libucrt:output.obj
 0001:000343d2       ?type_case_s@?$output_processor@_WV?$string_output_adapter@_W@__crt_stdio_output@@V?$positional_parameter_base@_WV?$string_output_adapter@_W@__crt_stdio_output@@@2@@__crt_stdio_output@@AAE_NXZ 100353d2 f i libucrt:output.obj
 0001:0003446f       ?type_case_s@?$output_processor@_WV?$string_output_adapter@_W@__crt_stdio_output@@V?$standard_base@_WV?$string_output_adapter@_W@__crt_stdio_output@@@2@@__crt_stdio_output@@AAE_NXZ 1003546f f i libucrt:output.obj
 0001:00034500       ?type_case_s_compute_narrow_string_length@?$output_processor@DV?$stream_output_adapter@D@__crt_stdio_output@@V?$format_validation_base@DV?$stream_output_adapter@D@__crt_stdio_output@@@2@@__crt_stdio_output@@ABEHHD@Z 10035500 f i libucrt:output.obj
 0001:0003451b       ?type_case_s_compute_narrow_string_length@?$output_processor@DV?$stream_output_adapter@D@__crt_stdio_output@@V?$positional_parameter_base@DV?$stream_output_adapter@D@__crt_stdio_output@@@2@@__crt_stdio_output@@ABEHHD@Z 1003551b f i libucrt:output.obj
 0001:00034536       ?type_case_s_compute_narrow_string_length@?$output_processor@DV?$stream_output_adapter@D@__crt_stdio_output@@V?$standard_base@DV?$stream_output_adapter@D@__crt_stdio_output@@@2@@__crt_stdio_output@@ABEHHD@Z 10035536 f i libucrt:output.obj
 0001:00034551       ?type_case_s_compute_narrow_string_length@?$output_processor@DV?$string_output_adapter@D@__crt_stdio_output@@V?$format_validation_base@DV?$string_output_adapter@D@__crt_stdio_output@@@2@@__crt_stdio_output@@ABEHHD@Z 10035551 f i libucrt:output.obj
 0001:0003456c       ?type_case_s_compute_narrow_string_length@?$output_processor@DV?$string_output_adapter@D@__crt_stdio_output@@V?$positional_parameter_base@DV?$string_output_adapter@D@__crt_stdio_output@@@2@@__crt_stdio_output@@ABEHHD@Z 1003556c f i libucrt:output.obj
 0001:00034587       ?type_case_s_compute_narrow_string_length@?$output_processor@DV?$string_output_adapter@D@__crt_stdio_output@@V?$standard_base@DV?$string_output_adapter@D@__crt_stdio_output@@@2@@__crt_stdio_output@@ABEHHD@Z 10035587 f i libucrt:output.obj
 0001:000345a2       ?type_case_s_compute_narrow_string_length@?$output_processor@_WV?$stream_output_adapter@_W@__crt_stdio_output@@V?$format_validation_base@_WV?$stream_output_adapter@_W@__crt_stdio_output@@@2@@__crt_stdio_output@@ABEHH_W@Z 100355a2 f i libucrt:output.obj
 0001:000345f2       ?type_case_s_compute_narrow_string_length@?$output_processor@_WV?$stream_output_adapter@_W@__crt_stdio_output@@V?$positional_parameter_base@_WV?$stream_output_adapter@_W@__crt_stdio_output@@@2@@__crt_stdio_output@@ABEHH_W@Z 100355f2 f i libucrt:output.obj
 0001:00034642       ?type_case_s_compute_narrow_string_length@?$output_processor@_WV?$stream_output_adapter@_W@__crt_stdio_output@@V?$standard_base@_WV?$stream_output_adapter@_W@__crt_stdio_output@@@2@@__crt_stdio_output@@ABEHH_W@Z 10035642 f i libucrt:output.obj
 0001:00034692       ?type_case_s_compute_narrow_string_length@?$output_processor@_WV?$string_output_adapter@_W@__crt_stdio_output@@V?$format_validation_base@_WV?$string_output_adapter@_W@__crt_stdio_output@@@2@@__crt_stdio_output@@ABEHH_W@Z 10035692 f i libucrt:output.obj
 0001:000346e2       ?type_case_s_compute_narrow_string_length@?$output_processor@_WV?$string_output_adapter@_W@__crt_stdio_output@@V?$positional_parameter_base@_WV?$string_output_adapter@_W@__crt_stdio_output@@@2@@__crt_stdio_output@@ABEHH_W@Z 100356e2 f i libucrt:output.obj
 0001:00034732       ?type_case_s_compute_narrow_string_length@?$output_processor@_WV?$string_output_adapter@_W@__crt_stdio_output@@V?$standard_base@_WV?$string_output_adapter@_W@__crt_stdio_output@@@2@@__crt_stdio_output@@ABEHH_W@Z 10035732 f i libucrt:output.obj
 0001:00034782       ?type_case_u@?$output_processor@DV?$stream_output_adapter@D@__crt_stdio_output@@V?$format_validation_base@DV?$stream_output_adapter@D@__crt_stdio_output@@@2@@__crt_stdio_output@@AAE_NXZ 10035782 f i libucrt:output.obj
 0001:0003478e       ?type_case_u@?$output_processor@DV?$stream_output_adapter@D@__crt_stdio_output@@V?$positional_parameter_base@DV?$stream_output_adapter@D@__crt_stdio_output@@@2@@__crt_stdio_output@@AAE_NXZ 1003578e f i libucrt:output.obj
 0001:0003479a       ?type_case_u@?$output_processor@DV?$stream_output_adapter@D@__crt_stdio_output@@V?$standard_base@DV?$stream_output_adapter@D@__crt_stdio_output@@@2@@__crt_stdio_output@@AAE_NXZ 1003579a f i libucrt:output.obj
 0001:000347a6       ?type_case_u@?$output_processor@DV?$string_output_adapter@D@__crt_stdio_output@@V?$format_validation_base@DV?$string_output_adapter@D@__crt_stdio_output@@@2@@__crt_stdio_output@@AAE_NXZ 100357a6 f i libucrt:output.obj
 0001:000347b2       ?type_case_u@?$output_processor@DV?$string_output_adapter@D@__crt_stdio_output@@V?$positional_parameter_base@DV?$string_output_adapter@D@__crt_stdio_output@@@2@@__crt_stdio_output@@AAE_NXZ 100357b2 f i libucrt:output.obj
 0001:000347be       ?type_case_u@?$output_processor@DV?$string_output_adapter@D@__crt_stdio_output@@V?$standard_base@DV?$string_output_adapter@D@__crt_stdio_output@@@2@@__crt_stdio_output@@AAE_NXZ 100357be f i libucrt:output.obj
 0001:000347ca       ?type_case_u@?$output_processor@_WV?$stream_output_adapter@_W@__crt_stdio_output@@V?$format_validation_base@_WV?$stream_output_adapter@_W@__crt_stdio_output@@@2@@__crt_stdio_output@@AAE_NXZ 100357ca f i libucrt:output.obj
 0001:000347d6       ?type_case_u@?$output_processor@_WV?$stream_output_adapter@_W@__crt_stdio_output@@V?$positional_parameter_base@_WV?$stream_output_adapter@_W@__crt_stdio_output@@@2@@__crt_stdio_output@@AAE_NXZ 100357d6 f i libucrt:output.obj
 0001:000347e2       ?type_case_u@?$output_processor@_WV?$stream_output_adapter@_W@__crt_stdio_output@@V?$standard_base@_WV?$stream_output_adapter@_W@__crt_stdio_output@@@2@@__crt_stdio_output@@AAE_NXZ 100357e2 f i libucrt:output.obj
 0001:000347ee       ?type_case_u@?$output_processor@_WV?$string_output_adapter@_W@__crt_stdio_output@@V?$format_validation_base@_WV?$string_output_adapter@_W@__crt_stdio_output@@@2@@__crt_stdio_output@@AAE_NXZ 100357ee f i libucrt:output.obj
 0001:000347fa       ?type_case_u@?$output_processor@_WV?$string_output_adapter@_W@__crt_stdio_output@@V?$positional_parameter_base@_WV?$string_output_adapter@_W@__crt_stdio_output@@@2@@__crt_stdio_output@@AAE_NXZ 100357fa f i libucrt:output.obj
 0001:00034806       ?type_case_u@?$output_processor@_WV?$string_output_adapter@_W@__crt_stdio_output@@V?$standard_base@_WV?$string_output_adapter@_W@__crt_stdio_output@@@2@@__crt_stdio_output@@AAE_NXZ 10035806 f i libucrt:output.obj
 0001:00034812       ?type_case_x@?$output_processor@DV?$stream_output_adapter@D@__crt_stdio_output@@V?$format_validation_base@DV?$stream_output_adapter@D@__crt_stdio_output@@@2@@__crt_stdio_output@@AAE_NXZ 10035812 f i libucrt:output.obj
 0001:0003481e       ?type_case_x@?$output_processor@DV?$stream_output_adapter@D@__crt_stdio_output@@V?$positional_parameter_base@DV?$stream_output_adapter@D@__crt_stdio_output@@@2@@__crt_stdio_output@@AAE_NXZ 1003581e f i libucrt:output.obj
 0001:0003482a       ?type_case_x@?$output_processor@DV?$stream_output_adapter@D@__crt_stdio_output@@V?$standard_base@DV?$stream_output_adapter@D@__crt_stdio_output@@@2@@__crt_stdio_output@@AAE_NXZ 1003582a f i libucrt:output.obj
 0001:00034836       ?type_case_x@?$output_processor@DV?$string_output_adapter@D@__crt_stdio_output@@V?$format_validation_base@DV?$string_output_adapter@D@__crt_stdio_output@@@2@@__crt_stdio_output@@AAE_NXZ 10035836 f i libucrt:output.obj
 0001:00034842       ?type_case_x@?$output_processor@DV?$string_output_adapter@D@__crt_stdio_output@@V?$positional_parameter_base@DV?$string_output_adapter@D@__crt_stdio_output@@@2@@__crt_stdio_output@@AAE_NXZ 10035842 f i libucrt:output.obj
 0001:0003484e       ?type_case_x@?$output_processor@DV?$string_output_adapter@D@__crt_stdio_output@@V?$standard_base@DV?$string_output_adapter@D@__crt_stdio_output@@@2@@__crt_stdio_output@@AAE_NXZ 1003584e f i libucrt:output.obj
 0001:0003485a       ?type_case_x@?$output_processor@_WV?$stream_output_adapter@_W@__crt_stdio_output@@V?$format_validation_base@_WV?$stream_output_adapter@_W@__crt_stdio_output@@@2@@__crt_stdio_output@@AAE_NXZ 1003585a f i libucrt:output.obj
 0001:00034866       ?type_case_x@?$output_processor@_WV?$stream_output_adapter@_W@__crt_stdio_output@@V?$positional_parameter_base@_WV?$stream_output_adapter@_W@__crt_stdio_output@@@2@@__crt_stdio_output@@AAE_NXZ 10035866 f i libucrt:output.obj
 0001:00034872       ?type_case_x@?$output_processor@_WV?$stream_output_adapter@_W@__crt_stdio_output@@V?$standard_base@_WV?$stream_output_adapter@_W@__crt_stdio_output@@@2@@__crt_stdio_output@@AAE_NXZ 10035872 f i libucrt:output.obj
 0001:0003487e       ?type_case_x@?$output_processor@_WV?$string_output_adapter@_W@__crt_stdio_output@@V?$format_validation_base@_WV?$string_output_adapter@_W@__crt_stdio_output@@@2@@__crt_stdio_output@@AAE_NXZ 1003587e f i libucrt:output.obj
 0001:0003488a       ?type_case_x@?$output_processor@_WV?$string_output_adapter@_W@__crt_stdio_output@@V?$positional_parameter_base@_WV?$string_output_adapter@_W@__crt_stdio_output@@@2@@__crt_stdio_output@@AAE_NXZ 1003588a f i libucrt:output.obj
 0001:00034896       ?type_case_x@?$output_processor@_WV?$string_output_adapter@_W@__crt_stdio_output@@V?$standard_base@_WV?$string_output_adapter@_W@__crt_stdio_output@@@2@@__crt_stdio_output@@AAE_NXZ 10035896 f i libucrt:output.obj
 0001:000348a2       ?unset_flag@?$output_processor@DV?$stream_output_adapter@D@__crt_stdio_output@@V?$format_validation_base@DV?$stream_output_adapter@D@__crt_stdio_output@@@2@@__crt_stdio_output@@AAEXI@Z 100358a2 f i libucrt:output.obj
 0001:000348b7       ?unset_flag@?$output_processor@DV?$stream_output_adapter@D@__crt_stdio_output@@V?$positional_parameter_base@DV?$stream_output_adapter@D@__crt_stdio_output@@@2@@__crt_stdio_output@@AAEXI@Z 100358b7 f i libucrt:output.obj
 0001:000348cc       ?unset_flag@?$output_processor@DV?$stream_output_adapter@D@__crt_stdio_output@@V?$standard_base@DV?$stream_output_adapter@D@__crt_stdio_output@@@2@@__crt_stdio_output@@AAEXI@Z 100358cc f i libucrt:output.obj
 0001:000348e1       ?unset_flag@?$output_processor@DV?$string_output_adapter@D@__crt_stdio_output@@V?$format_validation_base@DV?$string_output_adapter@D@__crt_stdio_output@@@2@@__crt_stdio_output@@AAEXI@Z 100358e1 f i libucrt:output.obj
 0001:000348f6       ?unset_flag@?$output_processor@DV?$string_output_adapter@D@__crt_stdio_output@@V?$positional_parameter_base@DV?$string_output_adapter@D@__crt_stdio_output@@@2@@__crt_stdio_output@@AAEXI@Z 100358f6 f i libucrt:output.obj
 0001:0003490b       ?unset_flag@?$output_processor@DV?$string_output_adapter@D@__crt_stdio_output@@V?$standard_base@DV?$string_output_adapter@D@__crt_stdio_output@@@2@@__crt_stdio_output@@AAEXI@Z 1003590b f i libucrt:output.obj
 0001:00034920       ?unset_flag@?$output_processor@_WV?$stream_output_adapter@_W@__crt_stdio_output@@V?$format_validation_base@_WV?$stream_output_adapter@_W@__crt_stdio_output@@@2@@__crt_stdio_output@@AAEXI@Z 10035920 f i libucrt:output.obj
 0001:00034935       ?unset_flag@?$output_processor@_WV?$stream_output_adapter@_W@__crt_stdio_output@@V?$positional_parameter_base@_WV?$stream_output_adapter@_W@__crt_stdio_output@@@2@@__crt_stdio_output@@AAEXI@Z 10035935 f i libucrt:output.obj
 0001:0003494a       ?unset_flag@?$output_processor@_WV?$stream_output_adapter@_W@__crt_stdio_output@@V?$standard_base@_WV?$stream_output_adapter@_W@__crt_stdio_output@@@2@@__crt_stdio_output@@AAEXI@Z 1003594a f i libucrt:output.obj
 0001:0003495f       ?unset_flag@?$output_processor@_WV?$string_output_adapter@_W@__crt_stdio_output@@V?$format_validation_base@_WV?$string_output_adapter@_W@__crt_stdio_output@@@2@@__crt_stdio_output@@AAEXI@Z 1003595f f i libucrt:output.obj
 0001:00034974       ?unset_flag@?$output_processor@_WV?$string_output_adapter@_W@__crt_stdio_output@@V?$positional_parameter_base@_WV?$string_output_adapter@_W@__crt_stdio_output@@@2@@__crt_stdio_output@@AAEXI@Z 10035974 f i libucrt:output.obj
 0001:00034989       ?unset_flag@?$output_processor@_WV?$string_output_adapter@_W@__crt_stdio_output@@V?$standard_base@_WV?$string_output_adapter@_W@__crt_stdio_output@@@2@@__crt_stdio_output@@AAEXI@Z 10035989 f i libucrt:output.obj
 0001:0003499e       ?update_field_width@?$positional_parameter_base@DV?$stream_output_adapter@D@__crt_stdio_output@@@__crt_stdio_output@@IAE_NXZ 1003599e f i libucrt:output.obj
 0001:00034a81       ?update_field_width@?$positional_parameter_base@DV?$string_output_adapter@D@__crt_stdio_output@@@__crt_stdio_output@@IAE_NXZ 10035a81 f i libucrt:output.obj
 0001:00034b64       ?update_field_width@?$positional_parameter_base@_WV?$stream_output_adapter@_W@__crt_stdio_output@@@__crt_stdio_output@@IAE_NXZ 10035b64 f i libucrt:output.obj
 0001:00034c48       ?update_field_width@?$positional_parameter_base@_WV?$string_output_adapter@_W@__crt_stdio_output@@@__crt_stdio_output@@IAE_NXZ 10035c48 f i libucrt:output.obj
 0001:00034d2c       ?update_field_width@?$standard_base@DV?$stream_output_adapter@D@__crt_stdio_output@@@__crt_stdio_output@@IAE_NXZ 10035d2c f i libucrt:output.obj
 0001:00034d40       ?update_field_width@?$standard_base@DV?$string_output_adapter@D@__crt_stdio_output@@@__crt_stdio_output@@IAE_NXZ 10035d40 f i libucrt:output.obj
 0001:00034d54       ?update_field_width@?$standard_base@_WV?$stream_output_adapter@_W@__crt_stdio_output@@@__crt_stdio_output@@IAE_NXZ 10035d54 f i libucrt:output.obj
 0001:00034d68       ?update_field_width@?$standard_base@_WV?$string_output_adapter@_W@__crt_stdio_output@@@__crt_stdio_output@@IAE_NXZ 10035d68 f i libucrt:output.obj
 0001:00034d7c       ?update_precision@?$positional_parameter_base@DV?$stream_output_adapter@D@__crt_stdio_output@@@__crt_stdio_output@@IAE_NXZ 10035d7c f i libucrt:output.obj
 0001:00034e5f       ?update_precision@?$positional_parameter_base@DV?$string_output_adapter@D@__crt_stdio_output@@@__crt_stdio_output@@IAE_NXZ 10035e5f f i libucrt:output.obj
 0001:00034f42       ?update_precision@?$positional_parameter_base@_WV?$stream_output_adapter@_W@__crt_stdio_output@@@__crt_stdio_output@@IAE_NXZ 10035f42 f i libucrt:output.obj
 0001:00035026       ?update_precision@?$positional_parameter_base@_WV?$string_output_adapter@_W@__crt_stdio_output@@@__crt_stdio_output@@IAE_NXZ 10036026 f i libucrt:output.obj
 0001:0003510a       ?update_precision@?$standard_base@DV?$stream_output_adapter@D@__crt_stdio_output@@@__crt_stdio_output@@IAE_NXZ 1003610a f i libucrt:output.obj
 0001:0003511e       ?update_precision@?$standard_base@DV?$string_output_adapter@D@__crt_stdio_output@@@__crt_stdio_output@@IAE_NXZ 1003611e f i libucrt:output.obj
 0001:00035132       ?update_precision@?$standard_base@_WV?$stream_output_adapter@_W@__crt_stdio_output@@@__crt_stdio_output@@IAE_NXZ 10036132 f i libucrt:output.obj
 0001:00035146       ?update_precision@?$standard_base@_WV?$string_output_adapter@_W@__crt_stdio_output@@@__crt_stdio_output@@IAE_NXZ 10036146 f i libucrt:output.obj
 0001:0003515a       ?valid@__crt_stdio_stream@@QBE_NXZ 1003615a f i libucrt:output.obj
 0001:00035164       ?validate@?$stream_output_adapter@D@__crt_stdio_output@@QBE_NXZ 10036164 f i libucrt:output.obj
 0001:0003518d       ?validate@?$stream_output_adapter@_W@__crt_stdio_output@@QBE_NXZ 1003618d f i libucrt:output.obj
 0001:000351ae       ?validate@?$string_output_adapter@D@__crt_stdio_output@@QBE_NXZ 100361ae f i libucrt:output.obj
 0001:000351cf       ?validate@?$string_output_adapter@_W@__crt_stdio_output@@QBE_NXZ 100361cf f i libucrt:output.obj
 0001:000351f0       ?validate_and_store_parameter_data@?$positional_parameter_base@DV?$stream_output_adapter@D@__crt_stdio_output@@@__crt_stdio_output@@AAE_NAAUparameter_data@12@W4parameter_type@12@DW4length_modifier@2@@Z 100361f0 f i libucrt:output.obj
 0001:0003524d       ?validate_and_store_parameter_data@?$positional_parameter_base@DV?$string_output_adapter@D@__crt_stdio_output@@@__crt_stdio_output@@AAE_NAAUparameter_data@12@W4parameter_type@12@DW4length_modifier@2@@Z 1003624d f i libucrt:output.obj
 0001:000352aa       ?validate_and_store_parameter_data@?$positional_parameter_base@_WV?$stream_output_adapter@_W@__crt_stdio_output@@@__crt_stdio_output@@AAE_NAAUparameter_data@12@W4parameter_type@12@_WW4length_modifier@2@@Z 100362aa f i libucrt:output.obj
 0001:0003530a       ?validate_and_store_parameter_data@?$positional_parameter_base@_WV?$string_output_adapter@_W@__crt_stdio_output@@@__crt_stdio_output@@AAE_NAAUparameter_data@12@W4parameter_type@12@_WW4length_modifier@2@@Z 1003630a f i libucrt:output.obj
 0001:0003536a       ?validate_and_update_state_at_beginning_of_format_character@?$positional_parameter_base@DV?$stream_output_adapter@D@__crt_stdio_output@@@__crt_stdio_output@@IAE_NXZ 1003636a f i libucrt:output.obj
 0001:000354a0       ?validate_and_update_state_at_beginning_of_format_character@?$positional_parameter_base@DV?$string_output_adapter@D@__crt_stdio_output@@@__crt_stdio_output@@IAE_NXZ 100364a0 f i libucrt:output.obj
 0001:000355d6       ?validate_and_update_state_at_beginning_of_format_character@?$positional_parameter_base@_WV?$stream_output_adapter@_W@__crt_stdio_output@@@__crt_stdio_output@@IAE_NXZ 100365d6 f i libucrt:output.obj
 0001:00035718       ?validate_and_update_state_at_beginning_of_format_character@?$positional_parameter_base@_WV?$string_output_adapter@_W@__crt_stdio_output@@@__crt_stdio_output@@IAE_NXZ 10036718 f i libucrt:output.obj
 0001:0003585a       ?validate_and_update_state_at_beginning_of_format_character@?$standard_base@DV?$stream_output_adapter@D@__crt_stdio_output@@@__crt_stdio_output@@IAE_NXZ 1003685a f i libucrt:output.obj
 0001:0003585d       ?validate_and_update_state_at_beginning_of_format_character@?$standard_base@DV?$string_output_adapter@D@__crt_stdio_output@@@__crt_stdio_output@@IAE_NXZ 1003685d f i libucrt:output.obj
 0001:00035860       ?validate_and_update_state_at_beginning_of_format_character@?$standard_base@_WV?$stream_output_adapter@_W@__crt_stdio_output@@@__crt_stdio_output@@IAE_NXZ 10036860 f i libucrt:output.obj
 0001:00035863       ?validate_and_update_state_at_beginning_of_format_character@?$standard_base@_WV?$string_output_adapter@_W@__crt_stdio_output@@@__crt_stdio_output@@IAE_NXZ 10036863 f i libucrt:output.obj
 0001:00035866       ?validate_and_update_state_at_end_of_format_string@?$format_validation_base@DV?$stream_output_adapter@D@__crt_stdio_output@@@__crt_stdio_output@@IBE_NXZ 10036866 f i libucrt:output.obj
 0001:00035890       ?validate_and_update_state_at_end_of_format_string@?$format_validation_base@DV?$string_output_adapter@D@__crt_stdio_output@@@__crt_stdio_output@@IBE_NXZ 10036890 f i libucrt:output.obj
 0001:000358ba       ?validate_and_update_state_at_end_of_format_string@?$format_validation_base@_WV?$stream_output_adapter@_W@__crt_stdio_output@@@__crt_stdio_output@@IBE_NXZ 100368ba f i libucrt:output.obj
 0001:000358e4       ?validate_and_update_state_at_end_of_format_string@?$format_validation_base@_WV?$string_output_adapter@_W@__crt_stdio_output@@@__crt_stdio_output@@IBE_NXZ 100368e4 f i libucrt:output.obj
 0001:0003590e       ?validate_and_update_state_at_end_of_format_string@?$positional_parameter_base@DV?$stream_output_adapter@D@__crt_stdio_output@@@__crt_stdio_output@@IAE_NXZ 1003690e f i libucrt:output.obj
 0001:000359ae       ?validate_and_update_state_at_end_of_format_string@?$positional_parameter_base@DV?$string_output_adapter@D@__crt_stdio_output@@@__crt_stdio_output@@IAE_NXZ 100369ae f i libucrt:output.obj
 0001:00035a4e       ?validate_and_update_state_at_end_of_format_string@?$positional_parameter_base@_WV?$stream_output_adapter@_W@__crt_stdio_output@@@__crt_stdio_output@@IAE_NXZ 10036a4e f i libucrt:output.obj
 0001:00035aee       ?validate_and_update_state_at_end_of_format_string@?$positional_parameter_base@_WV?$string_output_adapter@_W@__crt_stdio_output@@@__crt_stdio_output@@IAE_NXZ 10036aee f i libucrt:output.obj
 0001:00035b8e       ?validate_and_update_state_at_end_of_format_string@?$standard_base@DV?$stream_output_adapter@D@__crt_stdio_output@@@__crt_stdio_output@@IBE_NXZ 10036b8e f i libucrt:output.obj
 0001:00035b91       ?validate_and_update_state_at_end_of_format_string@?$standard_base@DV?$string_output_adapter@D@__crt_stdio_output@@@__crt_stdio_output@@IBE_NXZ 10036b91 f i libucrt:output.obj
 0001:00035b94       ?validate_and_update_state_at_end_of_format_string@?$standard_base@_WV?$stream_output_adapter@_W@__crt_stdio_output@@@__crt_stdio_output@@IBE_NXZ 10036b94 f i libucrt:output.obj
 0001:00035b97       ?validate_and_update_state_at_end_of_format_string@?$standard_base@_WV?$string_output_adapter@_W@__crt_stdio_output@@@__crt_stdio_output@@IBE_NXZ 10036b97 f i libucrt:output.obj
 0001:00035b9a       ?validate_state_for_type_case_a@?$positional_parameter_base@DV?$stream_output_adapter@D@__crt_stdio_output@@@__crt_stdio_output@@IAE_NXZ 10036b9a f i libucrt:output.obj
 0001:00035c01       ?validate_state_for_type_case_a@?$positional_parameter_base@DV?$string_output_adapter@D@__crt_stdio_output@@@__crt_stdio_output@@IAE_NXZ 10036c01 f i libucrt:output.obj
 0001:00035c68       ?validate_state_for_type_case_a@?$positional_parameter_base@_WV?$stream_output_adapter@_W@__crt_stdio_output@@@__crt_stdio_output@@IAE_NXZ 10036c68 f i libucrt:output.obj
 0001:00035ccf       ?validate_state_for_type_case_a@?$positional_parameter_base@_WV?$string_output_adapter@_W@__crt_stdio_output@@@__crt_stdio_output@@IAE_NXZ 10036ccf f i libucrt:output.obj
 0001:00035d36       ?validate_state_for_type_case_a@?$standard_base@DV?$stream_output_adapter@D@__crt_stdio_output@@@__crt_stdio_output@@IBE_NXZ 10036d36 f i libucrt:output.obj
 0001:00035d39       ?validate_state_for_type_case_a@?$standard_base@DV?$string_output_adapter@D@__crt_stdio_output@@@__crt_stdio_output@@IBE_NXZ 10036d39 f i libucrt:output.obj
 0001:00035d3c       ?validate_state_for_type_case_a@?$standard_base@_WV?$stream_output_adapter@_W@__crt_stdio_output@@@__crt_stdio_output@@IBE_NXZ 10036d3c f i libucrt:output.obj
 0001:00035d3f       ?validate_state_for_type_case_a@?$standard_base@_WV?$string_output_adapter@_W@__crt_stdio_output@@@__crt_stdio_output@@IBE_NXZ 10036d3f f i libucrt:output.obj
 0001:00035d42       ?validate_stream_is_ansi_if_required@?$__acrt_stdio_char_traits@D@@SA_NQAU_iobuf@@@Z 10036d42 f i libucrt:output.obj
 0001:00035de4       ?validate_stream_is_ansi_if_required@?$__acrt_stdio_char_traits@_W@@SA_NQAU_iobuf@@@Z 10036de4 f i libucrt:output.obj
 0001:00035de7       ?wide_null_string@?$output_processor@DV?$stream_output_adapter@D@__crt_stdio_output@@V?$format_validation_base@DV?$stream_output_adapter@D@__crt_stdio_output@@@2@@__crt_stdio_output@@CAPA_WXZ 10036de7 f i libucrt:output.obj
 0001:00035ded       ?wide_null_string@?$output_processor@DV?$stream_output_adapter@D@__crt_stdio_output@@V?$positional_parameter_base@DV?$stream_output_adapter@D@__crt_stdio_output@@@2@@__crt_stdio_output@@CAPA_WXZ 10036ded f i libucrt:output.obj
 0001:00035df3       ?wide_null_string@?$output_processor@DV?$stream_output_adapter@D@__crt_stdio_output@@V?$standard_base@DV?$stream_output_adapter@D@__crt_stdio_output@@@2@@__crt_stdio_output@@CAPA_WXZ 10036df3 f i libucrt:output.obj
 0001:00035df9       ?wide_null_string@?$output_processor@DV?$string_output_adapter@D@__crt_stdio_output@@V?$format_validation_base@DV?$string_output_adapter@D@__crt_stdio_output@@@2@@__crt_stdio_output@@CAPA_WXZ 10036df9 f i libucrt:output.obj
 0001:00035dff       ?wide_null_string@?$output_processor@DV?$string_output_adapter@D@__crt_stdio_output@@V?$positional_parameter_base@DV?$string_output_adapter@D@__crt_stdio_output@@@2@@__crt_stdio_output@@CAPA_WXZ 10036dff f i libucrt:output.obj
 0001:00035e05       ?wide_null_string@?$output_processor@DV?$string_output_adapter@D@__crt_stdio_output@@V?$standard_base@DV?$string_output_adapter@D@__crt_stdio_output@@@2@@__crt_stdio_output@@CAPA_WXZ 10036e05 f i libucrt:output.obj
 0001:00035e0b       ?wide_null_string@?$output_processor@_WV?$stream_output_adapter@_W@__crt_stdio_output@@V?$format_validation_base@_WV?$stream_output_adapter@_W@__crt_stdio_output@@@2@@__crt_stdio_output@@CAPA_WXZ 10036e0b f i libucrt:output.obj
 0001:00035e11       ?wide_null_string@?$output_processor@_WV?$stream_output_adapter@_W@__crt_stdio_output@@V?$positional_parameter_base@_WV?$stream_output_adapter@_W@__crt_stdio_output@@@2@@__crt_stdio_output@@CAPA_WXZ 10036e11 f i libucrt:output.obj
 0001:00035e17       ?wide_null_string@?$output_processor@_WV?$stream_output_adapter@_W@__crt_stdio_output@@V?$standard_base@_WV?$stream_output_adapter@_W@__crt_stdio_output@@@2@@__crt_stdio_output@@CAPA_WXZ 10036e17 f i libucrt:output.obj
 0001:00035e1d       ?wide_null_string@?$output_processor@_WV?$string_output_adapter@_W@__crt_stdio_output@@V?$format_validation_base@_WV?$string_output_adapter@_W@__crt_stdio_output@@@2@@__crt_stdio_output@@CAPA_WXZ 10036e1d f i libucrt:output.obj
 0001:00035e23       ?wide_null_string@?$output_processor@_WV?$string_output_adapter@_W@__crt_stdio_output@@V?$positional_parameter_base@_WV?$string_output_adapter@_W@__crt_stdio_output@@@2@@__crt_stdio_output@@CAPA_WXZ 10036e23 f i libucrt:output.obj
 0001:00035e29       ?wide_null_string@?$output_processor@_WV?$string_output_adapter@_W@__crt_stdio_output@@V?$standard_base@_WV?$string_output_adapter@_W@__crt_stdio_output@@@2@@__crt_stdio_output@@CAPA_WXZ 10036e29 f i libucrt:output.obj
 0001:00035e2f       ?write_character@?$stream_output_adapter@D@__crt_stdio_output@@QBEXDQAH@Z 10036e2f f i libucrt:output.obj
 0001:00035e7b       ?write_character@?$stream_output_adapter@_W@__crt_stdio_output@@QBEX_WQAH@Z 10036e7b f i libucrt:output.obj
 0001:00035ecb       ?write_character@?$string_output_adapter@D@__crt_stdio_output@@QBE_NDQAH@Z 10036ecb f i libucrt:output.obj
 0001:00035f1d       ?write_character@?$string_output_adapter@_W@__crt_stdio_output@@QBE_N_WQAH@Z 10036f1d f i libucrt:output.obj
 0001:00035f73       ?write_stored_string_tchar@?$output_processor@DV?$stream_output_adapter@D@__crt_stdio_output@@V?$format_validation_base@DV?$stream_output_adapter@D@__crt_stdio_output@@@2@@__crt_stdio_output@@AAE_ND@Z 10036f73 f i libucrt:output.obj
 0001:00036043       ?write_stored_string_tchar@?$output_processor@DV?$stream_output_adapter@D@__crt_stdio_output@@V?$positional_parameter_base@DV?$stream_output_adapter@D@__crt_stdio_output@@@2@@__crt_stdio_output@@AAE_ND@Z 10037043 f i libucrt:output.obj
 0001:00036113       ?write_stored_string_tchar@?$output_processor@DV?$stream_output_adapter@D@__crt_stdio_output@@V?$standard_base@DV?$stream_output_adapter@D@__crt_stdio_output@@@2@@__crt_stdio_output@@AAE_ND@Z 10037113 f i libucrt:output.obj
 0001:000361e3       ?write_stored_string_tchar@?$output_processor@DV?$string_output_adapter@D@__crt_stdio_output@@V?$format_validation_base@DV?$string_output_adapter@D@__crt_stdio_output@@@2@@__crt_stdio_output@@AAE_ND@Z 100371e3 f i libucrt:output.obj
 0001:000362b3       ?write_stored_string_tchar@?$output_processor@DV?$string_output_adapter@D@__crt_stdio_output@@V?$positional_parameter_base@DV?$string_output_adapter@D@__crt_stdio_output@@@2@@__crt_stdio_output@@AAE_ND@Z 100372b3 f i libucrt:output.obj
 0001:00036383       ?write_stored_string_tchar@?$output_processor@DV?$string_output_adapter@D@__crt_stdio_output@@V?$standard_base@DV?$string_output_adapter@D@__crt_stdio_output@@@2@@__crt_stdio_output@@AAE_ND@Z 10037383 f i libucrt:output.obj
 0001:00036453       ?write_stored_string_tchar@?$output_processor@_WV?$stream_output_adapter@_W@__crt_stdio_output@@V?$format_validation_base@_WV?$stream_output_adapter@_W@__crt_stdio_output@@@2@@__crt_stdio_output@@AAE_N_W@Z 10037453 f i libucrt:output.obj
 0001:00036500       ?write_stored_string_tchar@?$output_processor@_WV?$stream_output_adapter@_W@__crt_stdio_output@@V?$positional_parameter_base@_WV?$stream_output_adapter@_W@__crt_stdio_output@@@2@@__crt_stdio_output@@AAE_N_W@Z 10037500 f i libucrt:output.obj
 0001:000365ad       ?write_stored_string_tchar@?$output_processor@_WV?$stream_output_adapter@_W@__crt_stdio_output@@V?$standard_base@_WV?$stream_output_adapter@_W@__crt_stdio_output@@@2@@__crt_stdio_output@@AAE_N_W@Z 100375ad f i libucrt:output.obj
 0001:0003665a       ?write_stored_string_tchar@?$output_processor@_WV?$string_output_adapter@_W@__crt_stdio_output@@V?$format_validation_base@_WV?$string_output_adapter@_W@__crt_stdio_output@@@2@@__crt_stdio_output@@AAE_N_W@Z 1003765a f i libucrt:output.obj
 0001:00036707       ?write_stored_string_tchar@?$output_processor@_WV?$string_output_adapter@_W@__crt_stdio_output@@V?$positional_parameter_base@_WV?$string_output_adapter@_W@__crt_stdio_output@@@2@@__crt_stdio_output@@AAE_N_W@Z 10037707 f i libucrt:output.obj
 0001:000367b4       ?write_stored_string_tchar@?$output_processor@_WV?$string_output_adapter@_W@__crt_stdio_output@@V?$standard_base@_WV?$string_output_adapter@_W@__crt_stdio_output@@@2@@__crt_stdio_output@@AAE_N_W@Z 100377b4 f i libucrt:output.obj
 0001:00036861       ?write_string@?$stream_output_adapter@D@__crt_stdio_output@@QBEXQBDHQAH1@Z 10037861 f i libucrt:output.obj
 0001:0003690d       ?write_string@?$stream_output_adapter@_W@__crt_stdio_output@@QBEXQB_WHQAH1@Z 1003790d f i libucrt:output.obj
 0001:000369bd       ?write_string@?$string_output_adapter@D@__crt_stdio_output@@QBEXQBDHQAH1@Z 100379bd f i libucrt:output.obj
 0001:00036a74       ?write_string@?$string_output_adapter@_W@__crt_stdio_output@@QBEXQB_WHQAH1@Z 10037a74 f i libucrt:output.obj
 0001:00036b34       ___acrt_isleadbyte_l_noupdate 10037b34 f i libucrt:output.obj
 0001:00036b55       ___acrt_locale_changed     10037b55 f i libucrt:output.obj
 0001:00036b66       ___stdio_common_vfprintf   10037b66 f   libucrt:output.obj
 0001:00036bfa       ___stdio_common_vfprintf_p 10037bfa f   libucrt:output.obj
 0001:00036c8e       ___stdio_common_vfprintf_s 10037c8e f   libucrt:output.obj
 0001:00036d22       ___stdio_common_vfwprintf  10037d22 f   libucrt:output.obj
 0001:00036db6       ___stdio_common_vfwprintf_p 10037db6 f   libucrt:output.obj
 0001:00036e4a       ___stdio_common_vfwprintf_s 10037e4a f   libucrt:output.obj
 0001:00036ede       ___stdio_common_vsnprintf_s 10037ede f   libucrt:output.obj
 0001:00036f0e       ___stdio_common_vsnwprintf_s 10037f0e f   libucrt:output.obj
 0001:00036f3e       ___stdio_common_vsprintf   10037f3e f   libucrt:output.obj
 0001:00036f6b       ___stdio_common_vsprintf_p 10037f6b f   libucrt:output.obj
 0001:00036f98       ___stdio_common_vsprintf_s 10037f98 f   libucrt:output.obj
 0001:00036fc5       ___stdio_common_vswprintf  10037fc5 f   libucrt:output.obj
 0001:00036ff2       ___stdio_common_vswprintf_p 10037ff2 f   libucrt:output.obj
 0001:0003701f       ___stdio_common_vswprintf_s 1003801f f   libucrt:output.obj
 0001:0003704c       _calloc                    1003804c f   libucrt:calloc.obj
 0001:00037059       _free                      10038059 f   libucrt:free.obj
 0001:0003705e       ??$__vcrt_va_start_verify_argument_type@QB_W@@YAXXZ 1003805e f i libucrt:assert.obj
 0001:00037ffb       ??$ftprintf@PAU_iobuf@@PBDABQBDABQBDABI@?$__crt_char_traits@D@@SAH$$QAPAU_iobuf@@$$QAPBDABQBD2ABI@Z 10038ffb f i libucrt:assert.obj
 0001:0003802d       ??$ftprintf@PAU_iobuf@@PB_WABQB_WABQB_WABI@?$__crt_char_traits@_W@@SAH$$QAPAU_iobuf@@$$QAPB_WABQB_W2ABI@Z 1003902d f i libucrt:assert.obj
 0001:0003805f       ??$get_module_file_name@AAPAUHINSTANCE__@@AAY0BAF@DK@?$__crt_char_traits@D@@SAKAAPAUHINSTANCE__@@AAY0BAF@D$$QAK@Z 1003905f f i libucrt:assert.obj
 0001:0003807f       ??$get_module_file_name@AAPAUHINSTANCE__@@AAY0BAF@_WK@?$__crt_char_traits@_W@@SAKAAPAUHINSTANCE__@@AAY0BAF@_W$$QAK@Z 1003907f f i libucrt:assert.obj
 0001:0003809f       ??$itot_s@ABIQAD$$CBIH@?$__crt_char_traits@D@@SAHABI$$QBQAD$$QBI$$QAH@Z 1003909f f i libucrt:assert.obj
 0001:000380ca       ??$itot_s@ABIQA_W$$CBIH@?$__crt_char_traits@_W@@SAHABI$$QBQA_W$$QBI$$QAH@Z 100390ca f i libucrt:assert.obj
 0001:000380f5       ??$show_message_box@AAY0CEA@DPBDJ@?$__crt_char_traits@D@@SAHAAY0CEA@D$$QAPBD$$QAJ@Z 100390f5 f i libucrt:assert.obj
 0001:00038118       ??$show_message_box@AAY0CEA@_WPB_WJ@?$__crt_char_traits@_W@@SAHAAY0CEA@_W$$QAPB_W$$QAJ@Z 10039118 f i libucrt:assert.obj
 0001:0003813b       ??$tcscat_s@ABQADABIAAPAD@?$__crt_char_traits@D@@SAHABQADABIAAPAD@Z 1003913b f i libucrt:assert.obj
 0001:00038160       ??$tcscat_s@ABQADABIABQBD@?$__crt_char_traits@D@@SAHABQADABIABQBD@Z 10039160 f i libucrt:assert.obj
 0001:00038185       ??$tcscat_s@ABQADABIPBD@?$__crt_char_traits@D@@SAHABQADABI$$QAPBD@Z 10039185 f i libucrt:assert.obj
 0001:000381aa       ??$tcscat_s@ABQA_WABIAAPA_W@?$__crt_char_traits@_W@@SAHABQA_WABIAAPA_W@Z 100391aa f i libucrt:assert.obj
 0001:000381cf       ??$tcscat_s@ABQA_WABIABQB_W@?$__crt_char_traits@_W@@SAHABQA_WABIABQB_W@Z 100391cf f i libucrt:assert.obj
 0001:000381f4       ??$tcscat_s@ABQA_WABIPB_W@?$__crt_char_traits@_W@@SAHABQA_WABI$$QAPB_W@Z 100391f4 f i libucrt:assert.obj
 0001:00038219       ??$tcscpy_s@AAY0BAF@DIPBD@?$__crt_char_traits@D@@SAHAAY0BAF@D$$QAI$$QAPBD@Z 10039219 f i libucrt:assert.obj
 0001:0003823c       ??$tcscpy_s@AAY0BAF@_WIPB_W@?$__crt_char_traits@_W@@SAHAAY0BAF@_W$$QAI$$QAPB_W@Z 1003923c f i libucrt:assert.obj
 0001:0003825f       ??$tcscpy_s@ABQADABIPBD@?$__crt_char_traits@D@@SAHABQADABI$$QAPBD@Z 1003925f f i libucrt:assert.obj
 0001:00038284       ??$tcscpy_s@ABQA_WABIPB_W@?$__crt_char_traits@_W@@SAHABQA_WABI$$QAPB_W@Z 10039284 f i libucrt:assert.obj
 0001:000382a9       ??$tcslen@AAY0BAF@D@?$__crt_char_traits@D@@SAIAAY0BAF@D@Z 100392a9 f i libucrt:assert.obj
 0001:000382c4       ??$tcslen@AAY0BAF@_W@?$__crt_char_traits@_W@@SAIAAY0BAF@_W@Z 100392c4 f i libucrt:assert.obj
 0001:000382e7       ??$tcslen@ABQAD@?$__crt_char_traits@D@@SAIABQAD@Z 100392e7 f i libucrt:assert.obj
 0001:00038305       ??$tcslen@ABQA_W@?$__crt_char_traits@_W@@SAIABQA_W@Z 10039305 f i libucrt:assert.obj
 0001:0003832a       ??$tcslen@ABQBD@?$__crt_char_traits@D@@SAIABQBD@Z 1003932a f i libucrt:assert.obj
 0001:00038348       ??$tcslen@ABQB_W@?$__crt_char_traits@_W@@SAIABQB_W@Z 10039348 f i libucrt:assert.obj
 0001:0003836d       ??$tcsncat_s@ABQADABIAAPBD$$CBI@?$__crt_char_traits@D@@SAHABQADABIAAPBD$$QBI@Z 1003936d f i libucrt:assert.obj
 0001:00038398       ??$tcsncat_s@ABQADABIABQBDABI@?$__crt_char_traits@D@@SAHABQADABIABQBD1@Z 10039398 f i libucrt:assert.obj
 0001:000383c3       ??$tcsncat_s@ABQADABIPBD$$CBI@?$__crt_char_traits@D@@SAHABQADABI$$QAPBD$$QBI@Z 100393c3 f i libucrt:assert.obj
 0001:000383ee       ??$tcsncat_s@ABQA_WABIAAPB_W$$CBI@?$__crt_char_traits@_W@@SAHABQA_WABIAAPB_W$$QBI@Z 100393ee f i libucrt:assert.obj
 0001:00038419       ??$tcsncat_s@ABQA_WABIABQB_WABI@?$__crt_char_traits@_W@@SAHABQA_WABIABQB_W1@Z 10039419 f i libucrt:assert.obj
 0001:00038444       ??$tcsncat_s@ABQA_WABIPB_W$$CBI@?$__crt_char_traits@_W@@SAHABQA_WABI$$QAPB_W$$QBI@Z 10039444 f i libucrt:assert.obj
 0001:000385e9       ?has_any_buffer@__crt_stdio_stream@@QBE_NXZ 100395e9 f i libucrt:assert.obj
 0001:000385fe       ?has_any_of@__crt_stdio_stream@@QBE_NJ@Z 100395fe f i libucrt:assert.obj
 0001:0003861a       __assert                   1003961a f   libucrt:assert.obj
 0001:00038674       __invoke_watson_if_error   10039674 f i libucrt:assert.obj
 0001:0003869e       __vfwprintf_l              1003969e f i libucrt:assert.obj
 0001:000386cc       __vswprintf_c_l            100396cc f i libucrt:assert.obj
 0001:00038706       __wassert                  10039706 f   libucrt:assert.obj
 0001:00038760       _fwprintf                  10039760 f i libucrt:assert.obj
 0001:00038822       _swprintf                  10039822 f i libucrt:assert.obj
 0001:00038847       _realloc                   10039847 f   libucrt:realloc.obj
 0001:00038854       ??$?B$$A6GXPAXK0@Z@__crt_fast_encoded_nullptr_t@@QBEP6GXPAXK0@ZXZ 10039854 f i libucrt:exit.obj
 0001:00038872       ??$__crt_fast_decode_pointer@P6GXPAXK0@Z@@YAP6GXPAXK0@ZQ6GX0K0@Z@Z 10039872 f i libucrt:exit.obj
 0001:0003888d       ??$__crt_fast_encode_pointer@P6GXPAXK0@Z@@YAP6GXPAXK0@ZQ6GX0K0@Z@Z 1003988d f i libucrt:exit.obj
 0001:000388b3       ??$__crt_get_proc_address@P6GXI@Z@@YAP6GXI@ZQAUHINSTANCE__@@QBD@Z 100398b3 f i libucrt:exit.obj
 0001:000388ca       ??0?$__crt_unique_handle_t@U__crt_hmodule_traits@@@@QAE@QAUHINSTANCE__@@@Z 100398ca f i libucrt:exit.obj
 0001:000388de       ??1?$__crt_unique_handle_t@U__crt_hmodule_traits@@@@QAE@XZ 100398de f i libucrt:exit.obj
 0001:00038911       ?close@?$__crt_unique_handle_t@U__crt_hmodule_traits@@@@QAEXXZ 10039911 f i libucrt:exit.obj
 0001:0003892d       ?close@__crt_hmodule_traits@@SA_NPAUHINSTANCE__@@@Z 1003992d f i libucrt:exit.obj
 0001:00038af8       ?get@?$__crt_unique_handle_t@U__crt_hmodule_traits@@@@QBEPAUHINSTANCE__@@XZ 10039af8 f i libucrt:exit.obj
 0001:00038afb       ?get_address_of@?$__crt_unique_handle_t@U__crt_hmodule_traits@@@@QAEPAPAUHINSTANCE__@@XZ 10039afb f i libucrt:exit.obj
 0001:00038afe       ?get_invalid_value@__crt_hmodule_traits@@SAPAUHINSTANCE__@@XZ 10039afe f i libucrt:exit.obj
 0001:00038bfb       __Exit                     10039bfb f   libucrt:exit.obj
 0001:00038c16       ___acrt_initialize_thread_local_exit_callback 10039c16 f   libucrt:exit.obj
 0001:00038c28       __c_exit                   10039c28 f   libucrt:exit.obj
 0001:00038c3a       __cexit                    10039c3a f   libucrt:exit.obj
 0001:00038c4c       __exit                     10039c4c f   libucrt:exit.obj
 0001:00038c67       __is_c_termination_complete 10039c67 f   libucrt:exit.obj
 0001:00038c6d       __register_thread_local_exe_atexit_callback 10039c6d f   libucrt:exit.obj
 0001:00038cb3       _exit                      10039cb3 f   libucrt:exit.obj
 0001:00038cce       _quick_exit                10039cce f   libucrt:exit.obj
 0001:00038cf0       _strncat                   10039cf0 f   libucrt:strncat.obj
 0001:00038e80       _strncpy                   10039e80 f   libucrt:strncpy.obj
 0001:00038fed       ?is_in_use@__crt_stdio_stream@@QBE_NXZ 10039fed f i libucrt:fclose.obj
 0001:00038ffc       __fclose_nolock            10039ffc f   libucrt:fclose.obj
 0001:0003908f       _fclose                    1003a08f f   libucrt:fclose.obj
 0001:000393c1       ??$open_file@ABQBDABQBDABHPAU_iobuf@@@?$__crt_char_traits@D@@SAPAU_iobuf@@ABQBD0ABH$$QAPAU1@@Z 1003a3c1 f i libucrt:fopen.obj
 0001:000393ec       ??$open_file@ABQB_WABQB_WABHPAU_iobuf@@@?$__crt_char_traits@_W@@SAPAU_iobuf@@ABQB_W0ABH$$QAPAU1@@Z 1003a3ec f i libucrt:fopen.obj
 0001:00039417       ?unlock@__crt_stdio_stream@@QBEXXZ 1003a417 f i libucrt:fopen.obj
 0001:00039422       __fsopen                   1003a422 f   libucrt:fopen.obj
 0001:0003942f       __wfopen                   1003a42f f   libucrt:fopen.obj
 0001:0003944b       __wfopen_s                 1003a44b f   libucrt:fopen.obj
 0001:000394a3       __wfsopen                  1003a4a3 f   libucrt:fopen.obj
 0001:000394b0       _fopen                     1003a4b0 f   libucrt:fopen.obj
 0001:000394cc       _fopen_s                   1003a4cc f   libucrt:fopen.obj
 0001:00039524       ?set_flags@__crt_stdio_stream@@QBE_NJ@Z 1003a524 f i libucrt:fread.obj
 0001:00039554       __fread_nolock             1003a554 f   libucrt:fread.obj
 0001:00039578       __fread_nolock_s           1003a578 f   libucrt:fread.obj
 0001:000397b7       _fread                     1003a7b7 f   libucrt:fread.obj
 0001:000397db       _fread_s                   1003a7db f   libucrt:fread.obj
 0001:00039933       ??$?RV<lambda_11b4f7b0d3157825a5656a18eba1ae27>@@AAV<lambda_b51c0495177f500e782686251704ae76>@@V<lambda_cf89b47920b5017557bfe891e78aca36>@@@?$__crt_seh_guarded_call@I@@QAEI$$QAV<lambda_11b4f7b0d3157825a5656a18eba1ae27>@@AAV<lambda_b51c0495177f500e782686251704ae76>@@$$QAV<lambda_cf89b47920b5017557bfe891e78aca36>@@@Z 1003a933 f i libucrt:fwrite.obj
 0001:00039998       ??$__acrt_lock_stream_and_call@V<lambda_b51c0495177f500e782686251704ae76>@@@@YAIQAU_iobuf@@$$QAV<lambda_b51c0495177f500e782686251704ae76>@@@Z 1003a998 f i libucrt:fwrite.obj
 0001:00039a8d       ?has_big_buffer@__crt_stdio_stream@@QBE_NXZ 1003aa8d f i libucrt:fwrite.obj
 0001:00039a9e       __fwrite_nolock            1003aa9e f   libucrt:fwrite.obj
 0001:00039c75       _fwrite                    1003ac75 f   libucrt:fwrite.obj
 0001:00039ce3       ??$?R_W@__crt_internal_free_policy@@QBEXQB_W@Z 1003ace3 f i libucrt:unlink.obj
 0001:00039cf9       ??0?$__crt_unique_heap_ptr@_WU__crt_internal_free_policy@@@@QAE@QA_W@Z 1003acf9 f i libucrt:unlink.obj
 0001:00039d0d       ??1?$__crt_unique_heap_ptr@_WU__crt_internal_free_policy@@@@QAE@XZ 1003ad0d f i libucrt:unlink.obj
 0001:00039d23       ?get@?$__crt_unique_heap_ptr@_WU__crt_internal_free_policy@@@@QBEPA_WXZ 1003ad23 f i libucrt:unlink.obj
 0001:00039d26       ?get_address_of@?$__crt_unique_heap_ptr@_WU__crt_internal_free_policy@@@@QAEPAPA_WXZ 1003ad26 f i libucrt:unlink.obj
 0001:00039d29       ?release@?$__crt_unique_heap_ptr@_WU__crt_internal_free_policy@@@@QAEXXZ 1003ad29 f i libucrt:unlink.obj
 0001:00039d3f       __unlink                   1003ad3f f   libucrt:unlink.obj
 0001:00039d4c       _remove                    1003ad4c f   libucrt:unlink.obj
 0001:00039dac       ?__acrt_stdio_reset_buffer@@YAXV__crt_stdio_stream@@@Z 1003adac f i libucrt:rewind.obj
 0001:00039dc7       ?has_all_of@__crt_stdio_stream@@QBE_NJ@Z 1003adc7 f i libucrt:rewind.obj
 0001:00039de6       ?unset_flags@__crt_stdio_stream@@QBE_NJ@Z 1003ade6 f i libucrt:rewind.obj
 0001:00039e1a       _rewind                    1003ae1a f   libucrt:rewind.obj
 0001:00039f1b       _ldexp                     1003af1b f   libucrt:ldexp.obj
 0001:0003a17b       __errcode                  1003b17b f   libucrt:fpexcept.obj
 0001:0003a1bc       __except1                  1003b1bc f   libucrt:fpexcept.obj
 0001:0003a2bd       __except2                  1003b2bd f   libucrt:fpexcept.obj
 0001:0003a406       __handle_exc               1003b406 f   libucrt:fpexcept.obj
 0001:0003a65e       __handle_qnan2             1003b65e f   libucrt:fpexcept.obj
 0001:0003a66e       __raise_exc                1003b66e f   libucrt:fpexcept.obj
 0001:0003a699       __raise_exc_ex             1003b699 f   libucrt:fpexcept.obj
 0001:0003aa46       __raise_excf               1003ba46 f   libucrt:fpexcept.obj
 0001:0003aa71       __set_errno_from_matherr   1003ba71 f   libucrt:fpexcept.obj
 0001:0003aaab       __umatherr                 1003baab f   libucrt:fpexcept.obj
 0001:0003ab75       __initterm                 1003bb75 f   libucrt:initterm.obj
 0001:0003abe8       __initterm_e               1003bbe8 f   libucrt:initterm.obj
 0001:0003ac6b       __seh_filter_dll           1003bc6b f   libucrt:exception_filter.obj
 0001:0003ac93       __seh_filter_exe           1003bc93 f   libucrt:exception_filter.obj
 0001:0003ae62       ??$?RE@__crt_internal_free_policy@@QBEXQBE@Z 1003be62 f i libucrt:argv_parsing.obj
 0001:0003ae78       ??$?RPAD@__crt_internal_free_policy@@QBEXQBQAD@Z 1003be78 f i libucrt:argv_parsing.obj
 0001:0003ae8e       ??$?RPA_W@__crt_internal_free_policy@@QBEXQBQA_W@Z 1003be8e f i libucrt:argv_parsing.obj
 0001:0003b177       ??$get_module_file_name@$$TAAY0BAF@DH@?$__crt_char_traits@D@@SAK$$QA$$TAAY0BAF@D$$QAH@Z 1003c177 f i libucrt:argv_parsing.obj
 0001:0003b197       ??$get_module_file_name@$$TAAY0BAF@_WH@?$__crt_char_traits@_W@@SAK$$QA$$TAAY0BAF@_W$$QAH@Z 1003c197 f i libucrt:argv_parsing.obj
 0001:0003b570       ??$set_program_name@PAD@?$__crt_char_traits@D@@SAX$$QAPAD@Z 1003c570 f i libucrt:argv_parsing.obj
 0001:0003b585       ??$set_program_name@PA_W@?$__crt_char_traits@_W@@SAX$$QAPA_W@Z 1003c585 f i libucrt:argv_parsing.obj
 0001:0003b5c2       ??0?$__crt_unique_heap_ptr@EU__crt_internal_free_policy@@@@QAE@QAE@Z 1003c5c2 f i libucrt:argv_parsing.obj
 0001:0003b5d6       ??0?$__crt_unique_heap_ptr@PADU__crt_internal_free_policy@@@@QAE@QAPAD@Z 1003c5d6 f i libucrt:argv_parsing.obj
 0001:0003b5ea       ??0?$__crt_unique_heap_ptr@PA_WU__crt_internal_free_policy@@@@QAE@QAPA_W@Z 1003c5ea f i libucrt:argv_parsing.obj
 0001:0003b5fe       ??1?$__crt_unique_heap_ptr@EU__crt_internal_free_policy@@@@QAE@XZ 1003c5fe f i libucrt:argv_parsing.obj
 0001:0003b614       ??1?$__crt_unique_heap_ptr@PADU__crt_internal_free_policy@@@@QAE@XZ 1003c614 f i libucrt:argv_parsing.obj
 0001:0003b62a       ??1?$__crt_unique_heap_ptr@PA_WU__crt_internal_free_policy@@@@QAE@XZ 1003c62a f i libucrt:argv_parsing.obj
 0001:0003b640       ??B?$__crt_unique_heap_ptr@EU__crt_internal_free_policy@@@@QBE_NXZ 1003c640 f i libucrt:argv_parsing.obj
 0001:0003b680       ?detach@?$__crt_unique_heap_ptr@EU__crt_internal_free_policy@@@@QAEPAEXZ 1003c680 f i libucrt:argv_parsing.obj
 0001:0003b686       ?detach@?$__crt_unique_heap_ptr@PADU__crt_internal_free_policy@@@@QAEPAPADXZ 1003c686 f i libucrt:argv_parsing.obj
 0001:0003b68c       ?detach@?$__crt_unique_heap_ptr@PA_WU__crt_internal_free_policy@@@@QAEPAPA_WXZ 1003c68c f i libucrt:argv_parsing.obj
 0001:0003b6b2       ?get@?$__crt_unique_heap_ptr@EU__crt_internal_free_policy@@@@QBEPAEXZ 1003c6b2 f i libucrt:argv_parsing.obj
 0001:0003b6b5       ?get@?$__crt_unique_heap_ptr@PADU__crt_internal_free_policy@@@@QBEPAPADXZ 1003c6b5 f i libucrt:argv_parsing.obj
 0001:0003b6b8       ?get@?$__crt_unique_heap_ptr@PA_WU__crt_internal_free_policy@@@@QBEPAPA_WXZ 1003c6b8 f i libucrt:argv_parsing.obj
 0001:0003b6bb       ?get_address_of@?$__crt_unique_heap_ptr@PADU__crt_internal_free_policy@@@@QAEPAPAPADXZ 1003c6bb f i libucrt:argv_parsing.obj
 0001:0003b6be       ?get_address_of@?$__crt_unique_heap_ptr@PA_WU__crt_internal_free_policy@@@@QAEPAPAPA_WXZ 1003c6be f i libucrt:argv_parsing.obj
 0001:0003b6d9       ?is_valid@?$__crt_unique_heap_ptr@EU__crt_internal_free_policy@@@@QBE_NXZ 1003c6d9 f i libucrt:argv_parsing.obj
 0001:0003b6e3       ?release@?$__crt_unique_heap_ptr@EU__crt_internal_free_policy@@@@QAEXXZ 1003c6e3 f i libucrt:argv_parsing.obj
 0001:0003b6f9       ?release@?$__crt_unique_heap_ptr@PADU__crt_internal_free_policy@@@@QAEXXZ 1003c6f9 f i libucrt:argv_parsing.obj
 0001:0003b70f       ?release@?$__crt_unique_heap_ptr@PA_WU__crt_internal_free_policy@@@@QAEXXZ 1003c70f f i libucrt:argv_parsing.obj
 0001:0003b746       ___acrt_allocate_buffer_for_argv 1003c746 f   libucrt:argv_parsing.obj
 0001:0003b7b0       __configure_narrow_argv    1003c7b0 f   libucrt:argv_parsing.obj
 0001:0003b7bd       __configure_wide_argv      1003c7bd f   libucrt:argv_parsing.obj
 0001:0003b7ca       __set_pgmptr               1003c7ca f i libucrt:argv_parsing.obj
 0001:0003b7dc       __set_wpgmptr              1003c7dc f i libucrt:argv_parsing.obj
 0001:0003bcb6       ??$get_environment_from_os@$$$V@?$__crt_char_traits@D@@SAPADXZ 1003ccb6 f i libucrt:environment_initialization.obj
 0001:0003bcbb       ??$get_environment_from_os@$$$V@?$__crt_char_traits@_W@@SAPA_WXZ 1003ccbb f i libucrt:environment_initialization.obj
 0001:0003bdf5       ??$set_variable_in_environment_nolock@PADH@?$__crt_char_traits@D@@SAH$$QAPAD$$QAH@Z 1003cdf5 f i libucrt:environment_initialization.obj
 0001:0003be13       ??$set_variable_in_environment_nolock@PA_WH@?$__crt_char_traits@_W@@SAH$$QAPA_W$$QAH@Z 1003ce13 f i libucrt:environment_initialization.obj
 0001:0003be31       ??$tcscpy_s@PADABIAAPAD@?$__crt_char_traits@D@@SAH$$QAPADABIAAPAD@Z 1003ce31 f i libucrt:environment_initialization.obj
 0001:0003be56       ??$tcscpy_s@PA_WABIAAPA_W@?$__crt_char_traits@_W@@SAH$$QAPA_WABIAAPA_W@Z 1003ce56 f i libucrt:environment_initialization.obj
 0001:0003be7b       ??$tcslen@AAPAD@?$__crt_char_traits@D@@SAIAAPAD@Z 1003ce7b f i libucrt:environment_initialization.obj
 0001:0003be99       ??$tcslen@AAPA_W@?$__crt_char_traits@_W@@SAIAAPA_W@Z 1003ce99 f i libucrt:environment_initialization.obj
 0001:0003bebe       ??$uninitialize@A6AXAAPAPAD@Z@?$dual_state_global@PAPAD@__crt_state_management@@QAEXA6AXAAPAPAD@Z@Z 1003cebe f i libucrt:environment_initialization.obj
 0001:0003bf0e       ??$uninitialize@A6AXAAPAPA_W@Z@?$dual_state_global@PAPA_W@__crt_state_management@@QAEXA6AXAAPAPA_W@Z@Z 1003cf0e f i libucrt:environment_initialization.obj
 0001:0003bfa0       ??B?$__crt_unique_heap_ptr@PADU__crt_internal_free_policy@@@@QBE_NXZ 1003cfa0 f i libucrt:environment_initialization.obj
 0001:0003bfaa       ??B?$__crt_unique_heap_ptr@PA_WU__crt_internal_free_policy@@@@QBE_NXZ 1003cfaa f i libucrt:environment_initialization.obj
 0001:0003bfb4       ??B?$__crt_unique_heap_ptr@_WU__crt_internal_free_policy@@@@QBE_NXZ 1003cfb4 f i libucrt:environment_initialization.obj
 0001:0003bfbe       ?__crt_compute_required_transform_buffer_count@@YAIIQBD@Z 1003cfbe f i libucrt:environment_initialization.obj
 0001:0003bfde       ?__crt_compute_required_transform_buffer_count@@YAIIQB_W@Z 1003cfde f i libucrt:environment_initialization.obj
 0001:0003c001       ?__crt_transform_string@@YAIIQBDQA_WI@Z 1003d001 f i libucrt:environment_initialization.obj
 0001:0003c025       ?__crt_transform_string@@YAIIQB_WQADI@Z 1003d025 f i libucrt:environment_initialization.obj
 0001:0003c04d       ?detach@?$__crt_unique_heap_ptr@DU__crt_internal_free_policy@@@@QAEPADXZ 1003d04d f i libucrt:environment_initialization.obj
 0001:0003c053       ?detach@?$__crt_unique_heap_ptr@_WU__crt_internal_free_policy@@@@QAEPA_WXZ 1003d053 f i libucrt:environment_initialization.obj
 0001:0003c059       ?get_current_state_index@__crt_state_management@@YAIXZ 1003d059 f i libucrt:environment_initialization.obj
 0001:0003c080       ?initialize@?$dual_state_global@PAPAD@__crt_state_management@@QAEXQAPAD@Z 1003d080 f i libucrt:environment_initialization.obj
 0001:0003c0bd       ?initialize@?$dual_state_global@PAPA_W@__crt_state_management@@QAEXQAPA_W@Z 1003d0bd f i libucrt:environment_initialization.obj
 0001:0003c0fa       ?is_valid@?$__crt_unique_heap_ptr@PADU__crt_internal_free_policy@@@@QBE_NXZ 1003d0fa f i libucrt:environment_initialization.obj
 0001:0003c104       ?is_valid@?$__crt_unique_heap_ptr@PA_WU__crt_internal_free_policy@@@@QBE_NXZ 1003d104 f i libucrt:environment_initialization.obj
 0001:0003c10e       ?is_valid@?$__crt_unique_heap_ptr@_WU__crt_internal_free_policy@@@@QBE_NXZ 1003d10e f i libucrt:environment_initialization.obj
 0001:0003c11e       ?value@?$dual_state_global@PAPAD@__crt_state_management@@QAEAAPAPADXZ 1003d11e f i libucrt:environment_initialization.obj
 0001:0003c121       ?value@?$dual_state_global@PAPA_W@__crt_state_management@@QAEAAPAPA_WXZ 1003d121 f i libucrt:environment_initialization.obj
 0001:0003c124       ___dcrt_get_or_create_narrow_environment_nolock 1003d124 f   libucrt:environment_initialization.obj
 0001:0003c129       ___dcrt_get_or_create_wide_environment_nolock 1003d129 f   libucrt:environment_initialization.obj
 0001:0003c12e       ___dcrt_uninitialize_environments_nolock 1003d12e f   libucrt:environment_initialization.obj
 0001:0003c172       ___p__environ              1003d172 f   libucrt:environment_initialization.obj
 0001:0003c178       ___p__wenviron             1003d178 f   libucrt:environment_initialization.obj
 0001:0003c17e       __get_initial_narrow_environment 1003d17e f   libucrt:environment_initialization.obj
 0001:0003c197       __get_initial_wide_environment 1003d197 f   libucrt:environment_initialization.obj
 0001:0003c1b0       __initialize_narrow_environment 1003d1b0 f   libucrt:environment_initialization.obj
 0001:0003c1b5       __initialize_wide_environment 1003d1b5 f   libucrt:environment_initialization.obj
 0001:0003c1ba       ??$?BP6AXXZ@__crt_fast_encoded_nullptr_t@@QBEPAP6AXXZXZ 1003d1ba f i libucrt:onexit.obj
 0001:0003c1d8       ??$?RP6AXXZ@__crt_internal_free_policy@@QBEXQBQ6AXXZ@Z 1003d1d8 f i libucrt:onexit.obj
 0001:0003c1ee       ??$?RV<lambda_800076c951b434888f4765a74a194fcc>@@AAV<lambda_4e60a939b0d047cfe11ddc22648dfba9>@@V<lambda_6dbb1268764f43b569ce7b67e331d33a>@@@?$__crt_seh_guarded_call@H@@QAEH$$QAV<lambda_800076c951b434888f4765a74a194fcc>@@AAV<lambda_4e60a939b0d047cfe11ddc22648dfba9>@@$$QAV<lambda_6dbb1268764f43b569ce7b67e331d33a>@@@Z 1003d1ee f i libucrt:onexit.obj
 0001:0003c253       ??$?RV<lambda_995298e7d72eb4c2aab26c0585b3abe5>@@AAV<lambda_275893d493268fdec8709772e3fcec0e>@@V<lambda_293819299cbf9a7022e18b56a874bb5c>@@@?$__crt_seh_guarded_call@H@@QAEH$$QAV<lambda_995298e7d72eb4c2aab26c0585b3abe5>@@AAV<lambda_275893d493268fdec8709772e3fcec0e>@@$$QAV<lambda_293819299cbf9a7022e18b56a874bb5c>@@@Z 1003d253 f i libucrt:onexit.obj
 0001:0003c2b8       ??$__acrt_lock_and_call@V<lambda_275893d493268fdec8709772e3fcec0e>@@@@YAHW4__acrt_lock_id@@$$QAV<lambda_275893d493268fdec8709772e3fcec0e>@@@Z 1003d2b8 f i libucrt:onexit.obj
 0001:0003c2ea       ??$__acrt_lock_and_call@V<lambda_4e60a939b0d047cfe11ddc22648dfba9>@@@@YAHW4__acrt_lock_id@@$$QAV<lambda_4e60a939b0d047cfe11ddc22648dfba9>@@@Z 1003d2ea f i libucrt:onexit.obj
 0001:0003c31c       ??$__crt_fast_encode_pointer@P6AHXZ@@YAP6AHXZQ6AHXZ@Z 1003d31c f i libucrt:onexit.obj
 0001:0003c3c9       ??0?$__crt_unique_heap_ptr@P6AXXZU__crt_internal_free_policy@@@@QAE@QAP6AXXZ@Z 1003d3c9 f i libucrt:onexit.obj
 0001:0003c3dd       ??1?$__crt_unique_heap_ptr@P6AXXZU__crt_internal_free_policy@@@@QAE@XZ 1003d3dd f i libucrt:onexit.obj
 0001:0003c718       ?detach@?$__crt_unique_heap_ptr@P6AXXZU__crt_internal_free_policy@@@@QAEPAP6AXXZXZ 1003d718 f i libucrt:onexit.obj
 0001:0003c71e       ?release@?$__crt_unique_heap_ptr@P6AXXZU__crt_internal_free_policy@@@@QAEXXZ 1003d71e f i libucrt:onexit.obj
 0001:0003c734       __crt_at_quick_exit        1003d734 f   libucrt:onexit.obj
 0001:0003c74f       __crt_atexit               1003d74f f   libucrt:onexit.obj
 0001:0003c76a       __execute_onexit_table     1003d76a f   libucrt:onexit.obj
 0001:0003c78e       __initialize_onexit_table  1003d78e f   libucrt:onexit.obj
 0001:0003c7da       __register_onexit_function 1003d7da f   libucrt:onexit.obj
 0001:0003c941       ?initialize@?$dual_state_global@PAU__crt_locale_data@@@__crt_state_management@@QAEXQAU__crt_locale_data@@@Z 1003d941 f i libucrt:initialization.obj
 0001:0003c97e       ___acrt_initialize         1003d97e f   libucrt:initialization.obj
 0001:0003c994       ___acrt_thread_attach      1003d994 f   libucrt:initialization.obj
 0001:0003c9a1       ___acrt_thread_detach      1003d9a1 f   libucrt:initialization.obj
 0001:0003c9ab       ___acrt_uninitialize       1003d9ab f   libucrt:initialization.obj
 0001:0003c9c1       ___acrt_uninitialize_critical 1003d9c1 f   libucrt:initialization.obj
 0001:0003c9f2       __get_terminate            1003d9f2 f   libucrt:terminate.obj
 0001:0003ca08       _set_terminate             1003da08 f   libucrt:terminate.obj
 0001:0003ca30       _terminate                 1003da30 f   libucrt:terminate.obj
 0001:0003ca7b       ??$__crt_interlocked_exchange_pointer@X$$T@@YAPAXPDSAX$$T@Z 1003da7b f i libucrt:free_base.obj
 0001:0003ca93       ___acrt_get_msvcrt_heap_handle 1003da93 f   libucrt:free_base.obj
 0001:0003cb24       __free_base                1003db24 f   libucrt:free_base.obj
 0001:0003cb6c       __malloc_base              1003db6c f   libucrt:malloc_base.obj
 0001:0003cc3d       _strcpy_s                  1003dc3d f   libucrt:strcpy_s.obj
 0001:0003ccad       __set_abort_behavior       1003dcad f   libucrt:abort.obj
 0001:0003ccd6       _abort                     1003dcd6 f   libucrt:abort.obj
 0001:0003cd29       __calloc_base              1003dd29 f   libucrt:calloc_base.obj
 0001:0003cd9d       ??$is_overflow_condition@K@__crt_strtox@@YA_NIK@Z 1003dd9d f i libucrt:atox.obj
 0001:0003cddc       ??$is_overflow_condition@_K@__crt_strtox@@YA_NI_K@Z 1003dddc f i libucrt:atox.obj
 0001:0003ce2f       ??$make_c_string_character_source@D$$T@__crt_strtox@@YA?AV?$c_string_character_source@D@0@QBD$$T@Z 1003de2f f i libucrt:atox.obj
 0001:0003ce50       ??$make_c_string_character_source@_W$$T@__crt_strtox@@YA?AV?$c_string_character_source@_W@0@QB_W$$T@Z 1003de50 f i libucrt:atox.obj
 0001:0003ce71       ??$parse_integer@KV?$c_string_character_source@D@__crt_strtox@@@__crt_strtox@@YAKQAU__crt_locale_pointers@@V?$c_string_character_source@D@0@H_N@Z 1003de71 f i libucrt:atox.obj
 0001:0003d123       ??$parse_integer@KV?$c_string_character_source@_W@__crt_strtox@@@__crt_strtox@@YAKQAU__crt_locale_pointers@@V?$c_string_character_source@_W@0@H_N@Z 1003e123 f i libucrt:atox.obj
 0001:0003d9c1       ??$parse_integer@_KV?$c_string_character_source@D@__crt_strtox@@@__crt_strtox@@YA_KQAU__crt_locale_pointers@@V?$c_string_character_source@D@0@H_N@Z 1003e9c1 f i libucrt:atox.obj
 0001:0003dd10       ??$parse_integer@_KV?$c_string_character_source@_W@__crt_strtox@@@__crt_strtox@@YA_KQAU__crt_locale_pointers@@V?$c_string_character_source@_W@0@H_N@Z 1003ed10 f i libucrt:atox.obj
 0001:0003e482       ??$parse_integer_from_string@JD$$T@__crt_strtox@@YAJQBD$$THQAU__crt_locale_pointers@@@Z 1003f482 f i libucrt:atox.obj
 0001:0003e4ba       ??$parse_integer_from_string@J_W$$T@__crt_strtox@@YAJQB_W$$THQAU__crt_locale_pointers@@@Z 1003f4ba f i libucrt:atox.obj
 0001:0003e4f2       ??$parse_integer_from_string@_JD$$T@__crt_strtox@@YA_JQBD$$THQAU__crt_locale_pointers@@@Z 1003f4f2 f i libucrt:atox.obj
 0001:0003e52a       ??$parse_integer_from_string@_J_W$$T@__crt_strtox@@YA_JQB_W$$THQAU__crt_locale_pointers@@@Z 1003f52a f i libucrt:atox.obj
 0001:0003e562       ??0?$c_string_character_source@D@__crt_strtox@@QAE@QBDQAPBD@Z 1003f562 f i libucrt:atox.obj
 0001:0003e585       ??0?$c_string_character_source@_W@__crt_strtox@@QAE@QB_WQAPB_W@Z 1003f585 f i libucrt:atox.obj
 0001:0003e5a8       ??1?$c_string_character_source@D@__crt_strtox@@QAE@XZ 1003f5a8 f i libucrt:atox.obj
 0001:0003e5b7       ??1?$c_string_character_source@_W@__crt_strtox@@QAE@XZ 1003f5b7 f i libucrt:atox.obj
 0001:0003e5c6       ?get@?$c_string_character_source@D@__crt_strtox@@QAEDXZ 1003f5c6 f i libucrt:atox.obj
 0001:0003e5d0       ?get@?$c_string_character_source@_W@__crt_strtox@@QAE_WXZ 1003f5d0 f i libucrt:atox.obj
 0001:0003e5dd       ?is_space@__crt_strtox@@YA_NDQAU__crt_locale_pointers@@@Z 1003f5dd f i libucrt:atox.obj
 0001:0003e603       ?is_space@__crt_strtox@@YA_N_WPAU__crt_locale_pointers@@@Z 1003f603 f i libucrt:atox.obj
 0001:0003e622       ?maximum_signed_value@__crt_strtox@@YAJK@Z 1003f622 f i libucrt:atox.obj
 0001:0003e628       ?maximum_signed_value@__crt_strtox@@YA_J_K@Z 1003f628 f i libucrt:atox.obj
 0001:0003e633       ?minimum_signed_value@__crt_strtox@@YAJK@Z 1003f633 f i libucrt:atox.obj
 0001:0003e639       ?minimum_signed_value@__crt_strtox@@YA_J_K@Z 1003f639 f i libucrt:atox.obj
 0001:0003e643       ?parse_digit@__crt_strtox@@YAID@Z 1003f643 f i libucrt:atox.obj
 0001:0003e68b       ?parse_digit@__crt_strtox@@YAI_W@Z 1003f68b f i libucrt:atox.obj
 0001:0003e8e8       ?restore_state@?$c_string_character_source@D@__crt_strtox@@QAE_NQBD@Z 1003f8e8 f i libucrt:atox.obj
 0001:0003e8fc       ?restore_state@?$c_string_character_source@_W@__crt_strtox@@QAE_NQB_W@Z 1003f8fc f i libucrt:atox.obj
 0001:0003e910       ?save_state@?$c_string_character_source@D@__crt_strtox@@QBEPBDXZ 1003f910 f i libucrt:atox.obj
 0001:0003e913       ?save_state@?$c_string_character_source@_W@__crt_strtox@@QBEPB_WXZ 1003f913 f i libucrt:atox.obj
 0001:0003e916       ?unget@?$c_string_character_source@D@__crt_strtox@@QAEXD@Z 1003f916 f i libucrt:atox.obj
 0001:0003e948       ?unget@?$c_string_character_source@_W@__crt_strtox@@QAEX_W@Z 1003f948 f i libucrt:atox.obj
 0001:0003e97f       ?validate@?$c_string_character_source@D@__crt_strtox@@QBE_NXZ 1003f97f f i libucrt:atox.obj
 0001:0003e9a0       ?validate@?$c_string_character_source@_W@__crt_strtox@@QBE_NXZ 1003f9a0 f i libucrt:atox.obj
 0001:0003e9c1       ?wide_character_to_digit@__crt_strtox@@YAH_W@Z 1003f9c1 f i libucrt:atox.obj
 0001:0003ebca       ___acrt_get_locale_data_prefix 1003fbca f i libucrt:atox.obj
 0001:0003ebd9       __atoi64                   1003fbd9 f   libucrt:atox.obj
 0001:0003ec0d       __atoi64_l                 1003fc0d f   libucrt:atox.obj
 0001:0003ec42       __atoi_l                   1003fc42 f   libucrt:atox.obj
 0001:0003ec77       __atol_l                   1003fc77 f   libucrt:atox.obj
 0001:0003ecac       __atoll_l                  1003fcac f   libucrt:atox.obj
 0001:0003ece1       __chvalidchk_l             1003fce1 f i libucrt:atox.obj
 0001:0003ed15       __ischartype_l             1003fd15 f i libucrt:atox.obj
 0001:0003ed54       __wtoi                     1003fd54 f   libucrt:atox.obj
 0001:0003ed88       __wtoi64                   1003fd88 f   libucrt:atox.obj
 0001:0003edbc       __wtoi64_l                 1003fdbc f   libucrt:atox.obj
 0001:0003edf1       __wtoi_l                   1003fdf1 f   libucrt:atox.obj
 0001:0003ee26       __wtol                     1003fe26 f   libucrt:atox.obj
 0001:0003ee5a       __wtol_l                   1003fe5a f   libucrt:atox.obj
 0001:0003ee8f       __wtoll                    1003fe8f f   libucrt:atox.obj
 0001:0003eec3       __wtoll_l                  1003fec3 f   libucrt:atox.obj
 0001:0003eef8       _atoi                      1003fef8 f   libucrt:atox.obj
 0001:0003ef2c       _atol                      1003ff2c f   libucrt:atox.obj
 0001:0003ef60       _atoll                     1003ff60 f   libucrt:atox.obj
 0001:0003ef94       ??$__crt_fast_decode_pointer@P6AXPB_W00II@Z@@YAP6AXPB_W00II@ZQ6AX000II@Z@Z 1003ff94 f i libucrt:invalid_parameter.obj
 0001:0003efaf       ??$__crt_fast_encode_pointer@P6AXPB_W00II@Z@@YAP6AXPB_W00II@ZQ6AX000II@Z@Z 1003ffaf f i libucrt:invalid_parameter.obj
 0001:0003efd5       ?initialize@?$dual_state_global@P6AXPB_W00II@Z@__crt_state_management@@QAEXQ6AXPB_W00II@Z@Z 1003ffd5 f i libucrt:invalid_parameter.obj
 0001:0003f012       ?value@?$dual_state_global@P6AXPB_W00II@Z@__crt_state_management@@QAEAAP6AXPB_W00II@ZXZ 10040012 f i libucrt:invalid_parameter.obj
 0001:0003f015       ___acrt_call_reportfault   10040015 f   libucrt:invalid_parameter.obj
 0001:0003f19e       ___acrt_initialize_invalid_parameter_handler 1004019e f   libucrt:invalid_parameter.obj
 0001:0003f1b7       __get_invalid_parameter_handler 100401b7 f   libucrt:invalid_parameter.obj
 0001:0003f1ce       __get_thread_local_invalid_parameter_handler 100401ce f   libucrt:invalid_parameter.obj
 0001:0003f1e3       __invalid_parameter        100401e3 f   libucrt:invalid_parameter.obj
 0001:0003f27c       __invalid_parameter_noinfo 1004027c f   libucrt:invalid_parameter.obj
 0001:0003f290       __invalid_parameter_noinfo_noreturn 10040290 f   libucrt:invalid_parameter.obj
 0001:0003f2b4       __invoke_watson            100402b4 f   libucrt:invalid_parameter.obj
 0001:0003f2f3       __set_invalid_parameter_handler 100402f3 f   libucrt:invalid_parameter.obj
 0001:0003f32f       __set_thread_local_invalid_parameter_handler 1004032f f   libucrt:invalid_parameter.obj
 0001:0003f353       ___acrt_errno_from_os_error 10040353 f   libucrt:errno.obj
 0001:0003f3a6       ___acrt_errno_map_os_error 100403a6 f   libucrt:errno.obj
 0001:0003f3d1       ___doserrno                100403d1 f   libucrt:errno.obj
 0001:0003f3e8       __errno                    100403e8 f   libucrt:errno.obj
 0001:0003f3ff       __get_doserrno             100403ff f   libucrt:errno.obj
 0001:0003f42d       __get_errno                1004042d f   libucrt:errno.obj
 0001:0003f45b       __set_doserrno             1004045b f   libucrt:errno.obj
 0001:0003f484       __set_errno                10040484 f   libucrt:errno.obj
 0001:0003f504       ??$?B$$A6GHPA_WKJ@Z@__crt_fast_encoded_nullptr_t@@QBEP6GHPA_WKJ@ZXZ 10040504 f i libucrt:winapi_thunks.obj
 0001:0003f522       ??$?RV<lambda_9227be29367c048ad7fd93a717dcb1a1>@@AAV<lambda_a463b7b0560cfcaf9b17f27c6ef46564>@@V<lambda_ccea11b5727ccf69be64f5f5d9a08d9f>@@@?$__crt_seh_guarded_call@H@@QAEH$$QAV<lambda_9227be29367c048ad7fd93a717dcb1a1>@@AAV<lambda_a463b7b0560cfcaf9b17f27c6ef46564>@@$$QAV<lambda_ccea11b5727ccf69be64f5f5d9a08d9f>@@@Z 10040522 f i libucrt:winapi_thunks.obj
 0001:0003f5c7       ??$__acrt_lock_and_call@V<lambda_a463b7b0560cfcaf9b17f27c6ef46564>@@@@YAHW4__acrt_lock_id@@$$QAV<lambda_a463b7b0560cfcaf9b17f27c6ef46564>@@@Z 100405c7 f i libucrt:winapi_thunks.obj
 0001:0003f5f9       ??$__crt_fast_decode_pointer@P6GHPA_WKJ@Z@@YAP6GHPA_WKJ@ZQ6GH0KJ@Z@Z 100405f9 f i libucrt:winapi_thunks.obj
 0001:0003f614       ??$__crt_fast_encode_pointer@P6GHPA_WKJ@Z@@YAP6GHPA_WKJ@ZQ6GH0KJ@Z@Z 10040614 f i libucrt:winapi_thunks.obj
 0001:0003fd41       ___acrt_AreFileApisANSI@0  10040d41 f   libucrt:winapi_thunks.obj
 0001:0003fda2       ___acrt_CompareStringEx@36 10040da2 f   libucrt:winapi_thunks.obj
 0001:0003fe33       ___acrt_EnumSystemLocalesEx@16 10040e33 f   libucrt:winapi_thunks.obj
 0001:0003febb       ___acrt_FlsAlloc@4         10040ebb f   libucrt:winapi_thunks.obj
 0001:0003ff26       ___acrt_FlsFree@4          10040f26 f   libucrt:winapi_thunks.obj
 0001:0003ff91       ___acrt_FlsGetValue@4      10040f91 f   libucrt:winapi_thunks.obj
 0001:0003fffc       ___acrt_FlsSetValue@8      10040ffc f   libucrt:winapi_thunks.obj
 0001:0004006b       ___acrt_GetDateFormatEx@28 1004106b f   libucrt:winapi_thunks.obj
 0001:0004010d       ___acrt_GetEnabledXStateFeatures@0 1004110d f   libucrt:winapi_thunks.obj
 0001:0004016f       ___acrt_GetFileInformationByHandleEx@16 1004116f f   libucrt:winapi_thunks.obj
 0001:000401ea       ___acrt_GetLocaleInfoEx@16 100411ea f   libucrt:winapi_thunks.obj
 0001:0004026e       ___acrt_GetSystemTimePreciseAsFileTime@4 1004126e f   libucrt:winapi_thunks.obj
 0001:000402d9       ___acrt_GetTimeFormatEx@24 100412d9 f   libucrt:winapi_thunks.obj
 0001:00040365       ___acrt_GetUserDefaultLocaleName@8 10041365 f   libucrt:winapi_thunks.obj
 0001:000403e5       ___acrt_GetXStateFeaturesMask@8 100413e5 f   libucrt:winapi_thunks.obj
 0001:00040451       ___acrt_InitializeCriticalSectionEx@12 10041451 f   libucrt:winapi_thunks.obj
 0001:000404cb       ___acrt_IsValidLocaleName@4 100414cb f   libucrt:winapi_thunks.obj
 0001:00040546       ___acrt_LCIDToLocaleName@16 10041546 f   libucrt:winapi_thunks.obj
 0001:000405ca       ___acrt_LCMapStringEx@36   100415ca f   libucrt:winapi_thunks.obj
 0001:00040674       ___acrt_LocaleNameToLCID@8 10041674 f   libucrt:winapi_thunks.obj
 0001:000406e7       ___acrt_LocateXStateFeature@12 100416e7 f   libucrt:winapi_thunks.obj
 0001:0004073e       ___acrt_MessageBoxA@16     1004173e f   libucrt:winapi_thunks.obj
 0001:00040799       ___acrt_MessageBoxW@16     10041799 f   libucrt:winapi_thunks.obj
 0001:000407f4       ___acrt_RoInitialize@4     100417f4 f   libucrt:winapi_thunks.obj
 0001:0004085a       ___acrt_RoUninitialize@0   1004185a f   libucrt:winapi_thunks.obj
 0001:000408b5       ___acrt_RtlGenRandom@8     100418b5 f   libucrt:winapi_thunks.obj
 0001:00040921       ___acrt_SetThreadStackGuarantee@4 10041921 f   libucrt:winapi_thunks.obj
 0001:00040987       ___acrt_can_show_message_box 10041987 f   libucrt:winapi_thunks.obj
 0001:000409a6       ___acrt_can_use_vista_locale_apis 100419a6 f   libucrt:winapi_thunks.obj
 0001:000409b5       ___acrt_can_use_xstate_apis 100419b5 f   libucrt:winapi_thunks.obj
 0001:000409c4       ___acrt_get_parent_window  100419c4 f   libucrt:winapi_thunks.obj
 0001:00040a62       ___acrt_initialize_winapi_thunks 10041a62 f   libucrt:winapi_thunks.obj
 0001:00040a91       ___acrt_is_interactive     10041a91 f   libucrt:winapi_thunks.obj
 0001:00040b60       ___acrt_is_packaged_app    10041b60 f   libucrt:winapi_thunks.obj
 0001:00040c08       ___acrt_uninitialize_winapi_thunks 10041c08 f   libucrt:winapi_thunks.obj
 0001:00040c4b       ??0__crt_stdio_stream@@QAE@QAU__crt_stdio_stream_data@@@Z 10041c4b f i libucrt:closeall.obj
 0001:00040c5f       __fcloseall                10041c5f f   libucrt:closeall.obj
 0001:00040d27       ___acrt_stdio_flush_nolock 10041d27 f   libucrt:fflush.obj
 0001:00040da6       __fflush_nolock            10041da6 f   libucrt:fflush.obj
 0001:00040dfe       __flushall                 10041dfe f   libucrt:fflush.obj
 0001:00040f17       _fflush                    10041f17 f   libucrt:fflush.obj
 0001:00040f86       ?has_crt_buffer@__crt_stdio_stream@@QBE_NXZ 10041f86 f i libucrt:_freebuf.obj
 0001:00040f95       ___acrt_stdio_free_buffer_nolock 10041f95 f   libucrt:_freebuf.obj
 0001:000411d2       ___acrt_initialize_lowio   100421d2 f   libucrt:ioinit.obj
 0001:0004123d       ___acrt_uninitialize_lowio 1004223d f   libucrt:ioinit.obj
 0001:0004128f       ___isascii                 1004228f f i libucrt:_ctype.obj
 0001:000412a5       ___iscsym                  100422a5 f i libucrt:_ctype.obj
 0001:000412cf       ___iscsymf                 100422cf f i libucrt:_ctype.obj
 0001:000412f5       ___toascii                 100422f5 f i libucrt:_ctype.obj
 0001:00041305       __isalnum_l                10042305 f i libucrt:_ctype.obj
 0001:0004134e       __isalpha_l                1004234e f i libucrt:_ctype.obj
 0001:00041397       __isblank_l                10042397 f i libucrt:_ctype.obj
 0001:000413ea       __iscntrl_l                100423ea f i libucrt:_ctype.obj
 0001:00041430       __iscsym_l                 10042430 f i libucrt:_ctype.obj
 0001:0004145b       __iscsymf_l                1004245b f i libucrt:_ctype.obj
 0001:00041486       __isdigit_l                10042486 f i libucrt:_ctype.obj
 0001:000414cc       __isgraph_l                100424cc f i libucrt:_ctype.obj
 0001:00041515       __islower_l                10042515 f i libucrt:_ctype.obj
 0001:0004155b       __isprint_l                1004255b f i libucrt:_ctype.obj
 0001:000415a4       __ispunct_l                100425a4 f i libucrt:_ctype.obj
 0001:000415ea       __isspace_l                100425ea f i libucrt:_ctype.obj
 0001:00041630       __isupper_l                10042630 f i libucrt:_ctype.obj
 0001:00041676       __isxdigit_l               10042676 f i libucrt:_ctype.obj
 0001:000416bf       _isalnum                   100426bf f i libucrt:_ctype.obj
 0001:000416f9       _isalpha                   100426f9 f i libucrt:_ctype.obj
 0001:00041733       _isblank                   10042733 f i libucrt:_ctype.obj
 0001:00041777       _iscntrl                   10042777 f i libucrt:_ctype.obj
 0001:000417af       _isdigit                   100427af f i libucrt:_ctype.obj
 0001:000417e7       _isgraph                   100427e7 f i libucrt:_ctype.obj
 0001:00041821       _islower                   10042821 f i libucrt:_ctype.obj
 0001:00041859       _isprint                   10042859 f i libucrt:_ctype.obj
 0001:00041893       _ispunct                   10042893 f i libucrt:_ctype.obj
 0001:000418cb       _isspace                   100428cb f i libucrt:_ctype.obj
 0001:00041903       _isupper                   10042903 f i libucrt:_ctype.obj
 0001:0004193b       _isxdigit                  1004293b f i libucrt:_ctype.obj
 0001:00041d33       __tolower                  10042d33 f   libucrt:tolower_toupper.obj
 0001:00041d43       __tolower_l                10042d43 f   libucrt:tolower_toupper.obj
 0001:00041d63       __toupper                  10042d63 f   libucrt:tolower_toupper.obj
 0001:00041d73       __toupper_l                10042d73 f   libucrt:tolower_toupper.obj
 0001:00041d93       _tolower                   10042d93 f   libucrt:tolower_toupper.obj
 0001:00041dcf       _toupper                   10042dcf f   libucrt:tolower_toupper.obj
 0001:00041e0b       ??$make_c_string_character_source@DPAPAD@__crt_strtox@@YA?AV?$c_string_character_source@D@0@QBDQAPAD@Z 10042e0b f i libucrt:strtox.obj
 0001:00041e2c       ??$make_c_string_character_source@_WPAPA_W@__crt_strtox@@YA?AV?$c_string_character_source@_W@0@QB_WQAPA_W@Z 10042e2c f i libucrt:strtox.obj
 0001:00041e4d       ??$parse_integer_from_string@JDPAPAD@__crt_strtox@@YAJQBDQAPADHQAU__crt_locale_pointers@@@Z 10042e4d f i libucrt:strtox.obj
 0001:00041e85       ??$parse_integer_from_string@J_WPAPA_W@__crt_strtox@@YAJQB_WQAPA_WHQAU__crt_locale_pointers@@@Z 10042e85 f i libucrt:strtox.obj
 0001:00041ebd       ??$parse_integer_from_string@KDPAPAD@__crt_strtox@@YAKQBDQAPADHQAU__crt_locale_pointers@@@Z 10042ebd f i libucrt:strtox.obj
 0001:00041ef5       ??$parse_integer_from_string@K_WPAPA_W@__crt_strtox@@YAKQB_WQAPA_WHQAU__crt_locale_pointers@@@Z 10042ef5 f i libucrt:strtox.obj
 0001:00041f2d       ??$parse_integer_from_string@_JDPAPAD@__crt_strtox@@YA_JQBDQAPADHQAU__crt_locale_pointers@@@Z 10042f2d f i libucrt:strtox.obj
 0001:00041f65       ??$parse_integer_from_string@_J_WPAPA_W@__crt_strtox@@YA_JQB_WQAPA_WHQAU__crt_locale_pointers@@@Z 10042f65 f i libucrt:strtox.obj
 0001:00041f9d       ??$parse_integer_from_string@_KDPAPAD@__crt_strtox@@YA_KQBDQAPADHQAU__crt_locale_pointers@@@Z 10042f9d f i libucrt:strtox.obj
 0001:00041fd5       ??$parse_integer_from_string@_K_WPAPA_W@__crt_strtox@@YA_KQB_WQAPA_WHQAU__crt_locale_pointers@@@Z 10042fd5 f i libucrt:strtox.obj
 0001:0004200d       __strtoi64                 1004300d f   libucrt:strtox.obj
 0001:00042044       __strtoi64_l               10043044 f   libucrt:strtox.obj
 0001:0004207c       __strtoimax_l              1004307c f   libucrt:strtox.obj
 0001:000420b4       __strtol_l                 100430b4 f   libucrt:strtox.obj
 0001:000420ec       __strtoll_l                100430ec f   libucrt:strtox.obj
 0001:00042124       __strtoui64                10043124 f   libucrt:strtox.obj
 0001:0004215b       __strtoui64_l              1004315b f   libucrt:strtox.obj
 0001:00042193       __strtoul_l                10043193 f   libucrt:strtox.obj
 0001:000421cb       __strtoull_l               100431cb f   libucrt:strtox.obj
 0001:00042203       __strtoumax_l              10043203 f   libucrt:strtox.obj
 0001:0004223b       __wcstoi64                 1004323b f   libucrt:strtox.obj
 0001:00042272       __wcstoi64_l               10043272 f   libucrt:strtox.obj
 0001:000422aa       __wcstoimax_l              100432aa f   libucrt:strtox.obj
 0001:000422e2       __wcstol_l                 100432e2 f   libucrt:strtox.obj
 0001:0004231a       __wcstoll_l                1004331a f   libucrt:strtox.obj
 0001:00042352       __wcstoui64                10043352 f   libucrt:strtox.obj
 0001:00042389       __wcstoui64_l              10043389 f   libucrt:strtox.obj
 0001:000423c1       __wcstoul_l                100433c1 f   libucrt:strtox.obj
 0001:000423f9       __wcstoull_l               100433f9 f   libucrt:strtox.obj
 0001:00042431       __wcstoumax_l              10043431 f   libucrt:strtox.obj
 0001:00042469       _strtoimax                 10043469 f   libucrt:strtox.obj
 0001:000424a0       _strtol                    100434a0 f   libucrt:strtox.obj
 0001:000424d7       _strtoll                   100434d7 f   libucrt:strtox.obj
 0001:0004250e       _strtoul                   1004350e f   libucrt:strtox.obj
 0001:00042545       _strtoull                  10043545 f   libucrt:strtox.obj
 0001:0004257c       _strtoumax                 1004357c f   libucrt:strtox.obj
 0001:000425b3       _wcstoimax                 100435b3 f   libucrt:strtox.obj
 0001:000425ea       _wcstol                    100435ea f   libucrt:strtox.obj
 0001:00042621       _wcstoll                   10043621 f   libucrt:strtox.obj
 0001:00042658       _wcstoul                   10043658 f   libucrt:strtox.obj
 0001:0004268f       _wcstoull                  1004368f f   libucrt:strtox.obj
 0001:000426c6       _wcstoumax                 100436c6 f   libucrt:strtox.obj
 0001:000426fd       __mbtowc_l                 100436fd f   libucrt:mbtowc.obj
 0001:00042835       _mbtowc                    10043835 f   libucrt:mbtowc.obj
 0001:00042855       __wctomb_l                 10043855 f   libucrt:wctomb.obj
 0001:000428bc       __wctomb_s_l               100438bc f   libucrt:wctomb.obj
 0001:00042a25       _wctomb                    10043a25 f   libucrt:wctomb.obj
 0001:00042a66       _wctomb_s                  10043a66 f   libucrt:wctomb.obj
 0001:0004317e       ??1?$__crt_simd_cleanup_guard@$00@@QAE@XZ 1004417e f i libucrt:strnlen.obj
 0001:00043182       ??1?$__crt_simd_cleanup_guard@$0A@@@QAE@XZ 10044182 f i libucrt:strnlen.obj
 0001:00043183       ?compare_equals@?$__crt_simd_traits@$00E@@SA?AT__m256i@@T2@0@Z 10044183 f i libucrt:strnlen.obj
 0001:00043188       ?compare_equals@?$__crt_simd_traits@$00G@@SA?AT__m256i@@T2@0@Z 10044188 f i libucrt:strnlen.obj
 0001:0004318d       ?compare_equals@?$__crt_simd_traits@$0A@E@@SA?AT__m128i@@T2@0@Z 1004418d f i libucrt:strnlen.obj
 0001:00043192       ?compare_equals@?$__crt_simd_traits@$0A@G@@SA?AT__m128i@@T2@0@Z 10044192 f i libucrt:strnlen.obj
 0001:00043197       ?compute_byte_mask@?$__crt_simd_pack_traits@$00@@SAHT__m256i@@@Z 10044197 f i libucrt:strnlen.obj
 0001:0004319c       ?compute_byte_mask@?$__crt_simd_pack_traits@$0A@@@SAHT__m128i@@@Z 1004419c f i libucrt:strnlen.obj
 0001:000431a1       ?get_zero_pack@?$__crt_simd_pack_traits@$00@@SA?AT__m256i@@XZ 100441a1 f i libucrt:strnlen.obj
 0001:000431a6       ?get_zero_pack@?$__crt_simd_pack_traits@$0A@@@SA?AT__m128i@@XZ 100441a6 f i libucrt:strnlen.obj
 0001:000431ab       _strnlen                   100441ab f   libucrt:strnlen.obj
 0001:0004331b       _wcsnlen                   1004431b f   libucrt:strnlen.obj
 0001:0004353f       ??$?RU__acrt_ptd@@@__crt_internal_free_policy@@QBEXQBU__acrt_ptd@@@Z 1004453f f i libucrt:per_thread_data.obj
 0001:00043555       ??$?RV<lambda_3518db117f0e7cdb002338c5d3c47b6c>@@AAV<lambda_b2ea41f6bbb362cd97d94c6828d90b61>@@V<lambda_abdedf541bb04549bc734292b4a045d4>@@@?$__crt_seh_guarded_call@X@@QAEX$$QAV<lambda_3518db117f0e7cdb002338c5d3c47b6c>@@AAV<lambda_b2ea41f6bbb362cd97d94c6828d90b61>@@$$QAV<lambda_abdedf541bb04549bc734292b4a045d4>@@@Z 10044555 f i libucrt:per_thread_data.obj
 0001:000435b9       ??$?RV<lambda_51b6e8b1eb166f2a3faf91f424b38130>@@AAV<lambda_6250bd4b2a391816dd638c3bf72b0bcb>@@V<lambda_0b5a4a3e68152e1d9b943535f5f47bed>@@@?$__crt_seh_guarded_call@X@@QAEX$$QAV<lambda_51b6e8b1eb166f2a3faf91f424b38130>@@AAV<lambda_6250bd4b2a391816dd638c3bf72b0bcb>@@$$QAV<lambda_0b5a4a3e68152e1d9b943535f5f47bed>@@@Z 100445b9 f i libucrt:per_thread_data.obj
 0001:00043632       ??$?RV<lambda_5b71d36f03204c0beab531769a5b5694>@@AAV<lambda_be2b3da3f62db62e9dad5dc70221a656>@@V<lambda_8f9ce462984622f9bf76b59e2aaaf805>@@@?$__crt_seh_guarded_call@X@@QAEX$$QAV<lambda_5b71d36f03204c0beab531769a5b5694>@@AAV<lambda_be2b3da3f62db62e9dad5dc70221a656>@@$$QAV<lambda_8f9ce462984622f9bf76b59e2aaaf805>@@@Z 10044632 f i libucrt:per_thread_data.obj
 0001:0004368f       ??$?RV<lambda_9df27f884b057bc3edfc946cb5b7cf47>@@AAV<lambda_e69574bed617af4e071282c136b37893>@@V<lambda_cc0d902bcbbeb830f749456577db4721>@@@?$__crt_seh_guarded_call@X@@QAEX$$QAV<lambda_9df27f884b057bc3edfc946cb5b7cf47>@@AAV<lambda_e69574bed617af4e071282c136b37893>@@$$QAV<lambda_cc0d902bcbbeb830f749456577db4721>@@@Z 1004468f f i libucrt:per_thread_data.obj
 0001:000436e9       ??$__acrt_lock_and_call@V<lambda_6250bd4b2a391816dd638c3bf72b0bcb>@@@@YAXW4__acrt_lock_id@@$$QAV<lambda_6250bd4b2a391816dd638c3bf72b0bcb>@@@Z 100446e9 f i libucrt:per_thread_data.obj
 0001:0004371b       ??$__acrt_lock_and_call@V<lambda_b2ea41f6bbb362cd97d94c6828d90b61>@@@@YAXW4__acrt_lock_id@@$$QAV<lambda_b2ea41f6bbb362cd97d94c6828d90b61>@@@Z 1004471b f i libucrt:per_thread_data.obj
 0001:0004374d       ??$__acrt_lock_and_call@V<lambda_be2b3da3f62db62e9dad5dc70221a656>@@@@YAXW4__acrt_lock_id@@$$QAV<lambda_be2b3da3f62db62e9dad5dc70221a656>@@@Z 1004474d f i libucrt:per_thread_data.obj
 0001:0004377f       ??$__acrt_lock_and_call@V<lambda_e69574bed617af4e071282c136b37893>@@@@YAXW4__acrt_lock_id@@$$QAV<lambda_e69574bed617af4e071282c136b37893>@@@Z 1004477f f i libucrt:per_thread_data.obj
 0001:000438b8       ??0?$__crt_unique_heap_ptr@U__acrt_ptd@@U__crt_internal_free_policy@@@@QAE@QAU__acrt_ptd@@@Z 100448b8 f i libucrt:per_thread_data.obj
 0001:000438cc       ??0__crt_scoped_get_last_error_reset@@QAE@XZ 100448cc f i libucrt:per_thread_data.obj
 0001:000438e1       ??1?$__crt_unique_heap_ptr@U__acrt_ptd@@U__crt_internal_free_policy@@@@QAE@XZ 100448e1 f i libucrt:per_thread_data.obj
 0001:000438f7       ??1__crt_scoped_get_last_error_reset@@QAE@XZ 100448f7 f i libucrt:per_thread_data.obj
 0001:00043902       ??B?$__crt_unique_heap_ptr@U__acrt_ptd@@U__crt_internal_free_policy@@@@QBE_NXZ 10044902 f i libucrt:per_thread_data.obj
 0001:00043a78       ?dangerous_get_state_array@?$dual_state_global@PAU__crt_locale_data@@@__crt_state_management@@QAEPAPAU__crt_locale_data@@XZ 10044a78 f i libucrt:per_thread_data.obj
 0001:00043b7c       ?detach@?$__crt_unique_heap_ptr@U__acrt_ptd@@U__crt_internal_free_policy@@@@QAEPAU__acrt_ptd@@XZ 10044b7c f i libucrt:per_thread_data.obj
 0001:00043b82       ?get@?$__crt_unique_heap_ptr@U__acrt_ptd@@U__crt_internal_free_policy@@@@QBEPAU__acrt_ptd@@XZ 10044b82 f i libucrt:per_thread_data.obj
 0001:00043c91       ?is_valid@?$__crt_unique_heap_ptr@U__acrt_ptd@@U__crt_internal_free_policy@@@@QBE_NXZ 10044c91 f i libucrt:per_thread_data.obj
 0001:00043c9b       ?release@?$__crt_unique_heap_ptr@U__acrt_ptd@@U__crt_internal_free_policy@@@@QAEXXZ 10044c9b f i libucrt:per_thread_data.obj
 0001:00043d27       ?value@?$dual_state_global@PAU__crt_locale_data@@@__crt_state_management@@QAEAAPAU__crt_locale_data@@XZ 10044d27 f i libucrt:per_thread_data.obj
 0001:00043d2a       ___acrt_freeptd            10044d2a f   libucrt:per_thread_data.obj
 0001:00043d61       ___acrt_getptd             10044d61 f   libucrt:per_thread_data.obj
 0001:00043e06       ___acrt_getptd_noexit      10044e06 f   libucrt:per_thread_data.obj
 0001:00043eac       ___acrt_initialize_ptd     10044eac f   libucrt:per_thread_data.obj
 0001:00043ee3       ___acrt_uninitialize_ptd   10044ee3 f   libucrt:per_thread_data.obj
 0001:00043f03       ___threadhandle            10044f03 f   libucrt:per_thread_data.obj
 0001:00043f09       ___threadid                10044f09 f   libucrt:per_thread_data.obj
 0001:00043f0f       ___acrt_update_locale_info 10044f0f f   libucrt:locale_update.obj
 0001:00043f47       ___acrt_update_multibyte_info 10044f47 f   libucrt:locale_update.obj
 0001:00043f7f       ?__acrt_fp_classify@@YA?AW4__acrt_fp_class@@ABN@Z 10044f7f f i libucrt:cvt.obj
 0001:00044006       ?__acrt_fp_is_negative@@YA_NABN@Z 10045006 f i libucrt:cvt.obj
 0001:00044a79       ?strrchr@@YAPADQADH@Z      10045a79 f i libucrt:cvt.obj
 0001:00044a86       ___acrt_fp_format          10045a86 f   libucrt:cvt.obj
 0001:00044c60       __fputwc_nolock            10045c60 f   libucrt:fputwc.obj
 0001:00044dcf       __fputwchar                10045dcf f   libucrt:fputwc.obj
 0001:00044def       __putwc_nolock             10045def f   libucrt:fputwc.obj
 0001:00044dfc       _fputwc                    10045dfc f   libucrt:fputwc.obj
 0001:00044e95       _putwc                     10045e95 f   libucrt:fputwc.obj
 0001:00044ea2       _putwchar                  10045ea2 f   libucrt:fputwc.obj
 0001:00044eaf       ?lowio_handle@__crt_stdio_stream@@QBEHXZ 10045eaf f i libucrt:fileno.obj
 0001:00044eb5       __fileno                   10045eb5 f   libucrt:fileno.obj
 0001:00044ee4       __fputc_nolock             10045ee4 f   libucrt:fputc.obj
 0001:00044f17       __fputchar                 10045f17 f   libucrt:fputc.obj
 0001:00044f37       __putc_nolock              10045f37 f   libucrt:fputc.obj
 0001:00044f44       _fputc                     10045f44 f   libucrt:fputc.obj
 0001:00045089       _putc                      10046089 f   libucrt:fputc.obj
 0001:00045096       _putchar                   10046096 f   libucrt:fputc.obj
 0001:000450a3       __get_printf_count_output  100460a3 f   libucrt:printf_count_output.obj
 0001:000450bd       __set_printf_count_output  100460bd f   libucrt:printf_count_output.obj
 0001:000450f1       ?has_temporary_buffer@__crt_stdio_stream@@QBE_NXZ 100460f1 f i libucrt:_sftbuf.obj
 0001:00045100       ___acrt_stdio_begin_temporary_buffering_nolock 10046100 f   libucrt:_sftbuf.obj
 0001:000451e2       ___acrt_stdio_end_temporary_buffering_nolock 100461e2 f   libucrt:_sftbuf.obj
 0001:0004522c       ??$?RU__crt_locale_data@@@__crt_internal_free_policy@@QBEXQBU__crt_locale_data@@@Z 1004622c f i libucrt:wsetlocale.obj
 0001:00045242       ??$?RU__crt_locale_pointers@@@__crt_internal_free_policy@@QBEXQBU__crt_locale_pointers@@@Z 10046242 f i libucrt:wsetlocale.obj
 0001:00045258       ??$?RU__crt_multibyte_data@@@__crt_internal_free_policy@@QBEXQBU__crt_multibyte_data@@@Z 10046258 f i libucrt:wsetlocale.obj
 0001:0004526e       ??$?RV<lambda_70818de7b02deff9841e8b0962a60ed9>@@AAV<lambda_2af78c5f5901b1372d98f9ab3177dfa6>@@AAV<lambda_f51fe5fd7c79a33db34fc9310f277369>@@@?$__crt_seh_guarded_call@X@@QAEX$$QAV<lambda_70818de7b02deff9841e8b0962a60ed9>@@AAV<lambda_2af78c5f5901b1372d98f9ab3177dfa6>@@AAV<lambda_f51fe5fd7c79a33db34fc9310f277369>@@@Z 1004626e f i libucrt:wsetlocale.obj
 0001:000452b7       ??$?RV<lambda_76aaead6e312921abc834cb00a638bdd>@@AAV<lambda_176e34f99554166dd2fac165c457248c>@@V<lambda_998ee1c9f4290b119b936bcd6215875a>@@@?$__crt_seh_guarded_call@X@@QAEX$$QAV<lambda_76aaead6e312921abc834cb00a638bdd>@@AAV<lambda_176e34f99554166dd2fac165c457248c>@@$$QAV<lambda_998ee1c9f4290b119b936bcd6215875a>@@@Z 100462b7 f i libucrt:wsetlocale.obj
 0001:00045313       ??$?RV<lambda_c76fdea48760d5f9368b465f31df4405>@@AAV<lambda_e378711a6f6581bf7f0efd7cdf97f5d9>@@V<lambda_e927a58b2a85c081d733e8c6192ae2d2>@@@?$__crt_seh_guarded_call@X@@QAEX$$QAV<lambda_c76fdea48760d5f9368b465f31df4405>@@AAV<lambda_e378711a6f6581bf7f0efd7cdf97f5d9>@@$$QAV<lambda_e927a58b2a85c081d733e8c6192ae2d2>@@@Z 10046313 f i libucrt:wsetlocale.obj
 0001:00045366       ??$?RV<lambda_c9469061b39d205f0f236529d4a41659>@@AAV<lambda_b7fb1a997d3ebc0cc0186c5835178808>@@V<lambda_14b92c79d699846b5cc916cd4cf280e4>@@@?$__crt_seh_guarded_call@X@@QAEX$$QAV<lambda_c9469061b39d205f0f236529d4a41659>@@AAV<lambda_b7fb1a997d3ebc0cc0186c5835178808>@@$$QAV<lambda_14b92c79d699846b5cc916cd4cf280e4>@@@Z 10046366 f i libucrt:wsetlocale.obj
 0001:000453c0       ??$__acrt_lock_and_call@V<lambda_176e34f99554166dd2fac165c457248c>@@@@YAXW4__acrt_lock_id@@$$QAV<lambda_176e34f99554166dd2fac165c457248c>@@@Z 100463c0 f i libucrt:wsetlocale.obj
 0001:000453f2       ??$__acrt_lock_and_call@V<lambda_b7fb1a997d3ebc0cc0186c5835178808>@@@@YAXW4__acrt_lock_id@@$$QAV<lambda_b7fb1a997d3ebc0cc0186c5835178808>@@@Z 100463f2 f i libucrt:wsetlocale.obj
 0001:00045424       ??$__acrt_lock_and_call@V<lambda_e378711a6f6581bf7f0efd7cdf97f5d9>@@@@YAXW4__acrt_lock_id@@$$QAV<lambda_e378711a6f6581bf7f0efd7cdf97f5d9>@@@Z 10046424 f i libucrt:wsetlocale.obj
 0001:00045456       ??$__crt_call_and_cleanup@V<lambda_2af78c5f5901b1372d98f9ab3177dfa6>@@V<lambda_f51fe5fd7c79a33db34fc9310f277369>@@@@YAX$$QAV<lambda_2af78c5f5901b1372d98f9ab3177dfa6>@@$$QAV<lambda_f51fe5fd7c79a33db34fc9310f277369>@@@Z 10046456 f i libucrt:wsetlocale.obj
 0001:00045479       ??$__vcrt_va_start_verify_argument_type@H@@YAXXZ 10046479 f i libucrt:wsetlocale.obj
 0001:0004559e       ??0?$__crt_unique_heap_ptr@U__crt_locale_data@@U__crt_internal_free_policy@@@@QAE@QAU__crt_locale_data@@@Z 1004659e f i libucrt:wsetlocale.obj
 0001:000455b2       ??0?$__crt_unique_heap_ptr@U__crt_locale_pointers@@U__crt_internal_free_policy@@@@QAE@QAU__crt_locale_pointers@@@Z 100465b2 f i libucrt:wsetlocale.obj
 0001:000455c6       ??0?$__crt_unique_heap_ptr@U__crt_multibyte_data@@U__crt_internal_free_policy@@@@QAE@QAU__crt_multibyte_data@@@Z 100465c6 f i libucrt:wsetlocale.obj
 0001:000455da       ??1?$__crt_unique_heap_ptr@U__crt_locale_data@@U__crt_internal_free_policy@@@@QAE@XZ 100465da f i libucrt:wsetlocale.obj
 0001:000455f0       ??1?$__crt_unique_heap_ptr@U__crt_locale_pointers@@U__crt_internal_free_policy@@@@QAE@XZ 100465f0 f i libucrt:wsetlocale.obj
 0001:00045606       ??1?$__crt_unique_heap_ptr@U__crt_multibyte_data@@U__crt_internal_free_policy@@@@QAE@XZ 10046606 f i libucrt:wsetlocale.obj
 0001:0004561c       ??B?$__crt_unique_heap_ptr@U__crt_locale_data@@U__crt_internal_free_policy@@@@QBE_NXZ 1004661c f i libucrt:wsetlocale.obj
 0001:00045626       ??B?$__crt_unique_heap_ptr@U__crt_locale_pointers@@U__crt_internal_free_policy@@@@QBE_NXZ 10046626 f i libucrt:wsetlocale.obj
 0001:00045630       ??B?$__crt_unique_heap_ptr@U__crt_multibyte_data@@U__crt_internal_free_policy@@@@QBE_NXZ 10046630 f i libucrt:wsetlocale.obj
 0001:00045859       ?detach@?$__crt_unique_heap_ptr@U__crt_locale_data@@U__crt_internal_free_policy@@@@QAEPAU__crt_locale_data@@XZ 10046859 f i libucrt:wsetlocale.obj
 0001:0004585f       ?detach@?$__crt_unique_heap_ptr@U__crt_locale_pointers@@U__crt_internal_free_policy@@@@QAEPAU__crt_locale_pointers@@XZ 1004685f f i libucrt:wsetlocale.obj
 0001:00045865       ?detach@?$__crt_unique_heap_ptr@U__crt_multibyte_data@@U__crt_internal_free_policy@@@@QAEPAU__crt_multibyte_data@@XZ 10046865 f i libucrt:wsetlocale.obj
 0001:0004586b       ?get@?$__crt_unique_heap_ptr@U__crt_locale_data@@U__crt_internal_free_policy@@@@QBEPAU__crt_locale_data@@XZ 1004686b f i libucrt:wsetlocale.obj
 0001:0004586e       ?get@?$__crt_unique_heap_ptr@U__crt_locale_pointers@@U__crt_internal_free_policy@@@@QBEPAU__crt_locale_pointers@@XZ 1004686e f i libucrt:wsetlocale.obj
 0001:00045871       ?get@?$__crt_unique_heap_ptr@U__crt_multibyte_data@@U__crt_internal_free_policy@@@@QBEPAU__crt_multibyte_data@@XZ 10046871 f i libucrt:wsetlocale.obj
 0001:00045874       ?is_valid@?$__crt_unique_heap_ptr@U__crt_locale_data@@U__crt_internal_free_policy@@@@QBE_NXZ 10046874 f i libucrt:wsetlocale.obj
 0001:0004587e       ?is_valid@?$__crt_unique_heap_ptr@U__crt_locale_pointers@@U__crt_internal_free_policy@@@@QBE_NXZ 1004687e f i libucrt:wsetlocale.obj
 0001:00045888       ?is_valid@?$__crt_unique_heap_ptr@U__crt_multibyte_data@@U__crt_internal_free_policy@@@@QBE_NXZ 10046888 f i libucrt:wsetlocale.obj
 0001:00045892       ?release@?$__crt_unique_heap_ptr@U__crt_locale_data@@U__crt_internal_free_policy@@@@QAEXXZ 10046892 f i libucrt:wsetlocale.obj
 0001:000458a8       ?release@?$__crt_unique_heap_ptr@U__crt_locale_pointers@@U__crt_internal_free_policy@@@@QAEXXZ 100468a8 f i libucrt:wsetlocale.obj
 0001:000458be       ?release@?$__crt_unique_heap_ptr@U__crt_multibyte_data@@U__crt_internal_free_policy@@@@QAEXXZ 100468be f i libucrt:wsetlocale.obj
 0001:000458d4       ___acrt_copy_locale_name   100468d4 f   libucrt:wsetlocale.obj
 0001:00045953       ___acrt_set_locale_changed 10046953 f   libucrt:wsetlocale.obj
 0001:00045960       ___acrt_uninitialize_locale 10046960 f   libucrt:wsetlocale.obj
 0001:000459c6       ___lc_lctowcs              100469c6 f   libucrt:wsetlocale.obj
 0001:00045a52       ___lc_wcstolc              10046a52 f   libucrt:wsetlocale.obj
 0001:00045bcc       __configthreadlocale       10046bcc f   libucrt:wsetlocale.obj
 0001:00045c80       __create_locale            10046c80 f   libucrt:wsetlocale.obj
 0001:00045cfd       __expandlocale             10046cfd f   libucrt:wsetlocale.obj
 0001:00046151       __free_locale              10047151 f   libucrt:wsetlocale.obj
 0001:00046237       __get_current_locale       10047237 f   libucrt:wsetlocale.obj
 0001:000462d0       __wcreate_locale           100472d0 f   libucrt:wsetlocale.obj
 0001:0004641b       __wcscats                  1004741b f   libucrt:wsetlocale.obj
 0001:0004646c       __wsetlocale               1004746c f   libucrt:wsetlocale.obj
 0001:00046f92       ___p___mb_cur_max          10047f92 f   libucrt:nlsdata.obj
 0001:00047089       ___acrt_report_runtime_error 10048089 f   libucrt:report_runtime_error.obj
 0001:000471ef       __query_app_type           100481ef f   libucrt:report_runtime_error.obj
 0001:000471f5       __set_app_type             100481f5 f   libucrt:report_runtime_error.obj
 0001:000476e1       __i64toa                   100486e1 f   libucrt:xtoa.obj
 0001:00047734       __i64toa_s                 10048734 f   libucrt:xtoa.obj
 0001:00047785       __i64tow                   10048785 f   libucrt:xtoa.obj
 0001:000477d8       __i64tow_s                 100487d8 f   libucrt:xtoa.obj
 0001:00047829       __itoa                     10048829 f   libucrt:xtoa.obj
 0001:0004786d       __itoa_s                   1004886d f   libucrt:xtoa.obj
 0001:000478af       __itow                     100488af f   libucrt:xtoa.obj
 0001:000478f3       __itow_s                   100488f3 f   libucrt:xtoa.obj
 0001:00047935       __ltoa                     10048935 f   libucrt:xtoa.obj
 0001:00047979       __ltoa_s                   10048979 f   libucrt:xtoa.obj
 0001:000479bb       __ltow                     100489bb f   libucrt:xtoa.obj
 0001:000479ff       __ltow_s                   100489ff f   libucrt:xtoa.obj
 0001:00047a41       __ui64toa                  10048a41 f   libucrt:xtoa.obj
 0001:00047a6b       __ui64toa_s                10048a6b f   libucrt:xtoa.obj
 0001:00047a93       __ui64tow                  10048a93 f   libucrt:xtoa.obj
 0001:00047abd       __ui64tow_s                10048abd f   libucrt:xtoa.obj
 0001:00047ae5       __ultoa                    10048ae5 f   libucrt:xtoa.obj
 0001:00047b0b       __ultoa_s                  10048b0b f   libucrt:xtoa.obj
 0001:00047b2f       __ultow                    10048b2f f   libucrt:xtoa.obj
 0001:00047b55       __ultow_s                  10048b55 f   libucrt:xtoa.obj
 0001:00047b79       __set_error_mode           10048b79 f   libucrt:set_error_mode.obj
 0001:00047c55       _wcscat_s                  10048c55 f   libucrt:wcscat_s.obj
 0001:00047d5f       _wcscpy_s                  10048d5f f   libucrt:wcscpy_s.obj
 0001:00047eff       _wcsncat_s                 10048eff f   libucrt:wcsncat_s.obj
 0001:00047f8f       _strcat_s                  10048f8f f   libucrt:strcat_s.obj
 0001:00048116       _strncat_s                 10049116 f   libucrt:strncat_s.obj
 0001:00048341       ??$message_box@$$TAAPBDAAPBDAAI@?$__crt_char_traits@D@@SAH$$QA$$TAAPBD1AAI@Z 10049341 f i libucrt:crtmbox.obj
 0001:00048369       ??$message_box@$$TAAPB_WAAPB_WAAI@?$__crt_char_traits@_W@@SAH$$QA$$TAAPB_W1AAI@Z 10049369 f i libucrt:crtmbox.obj
 0001:00048391       ??$message_box@$$TABQBDABQBDK@?$__crt_char_traits@D@@SAH$$QA$$TABQBD1$$QAK@Z 10049391 f i libucrt:crtmbox.obj
 0001:000483b9       ??$message_box@$$TABQB_WABQB_WK@?$__crt_char_traits@_W@@SAH$$QA$$TABQB_W1$$QAK@Z 100493b9 f i libucrt:crtmbox.obj
 0001:000483e1       ??$message_box@PAUHWND__@@ABQBDABQBDABI@?$__crt_char_traits@D@@SAH$$QAPAUHWND__@@ABQBD1ABI@Z 100493e1 f i libucrt:crtmbox.obj
 0001:00048409       ??$message_box@PAUHWND__@@ABQB_WABQB_WABI@?$__crt_char_traits@_W@@SAH$$QAPAUHWND__@@ABQB_W1ABI@Z 10049409 f i libucrt:crtmbox.obj
 0001:00048485       ??$output_debug_string@ABQBD@?$__crt_char_traits@D@@SAXABQBD@Z 10049485 f i libucrt:crtmbox.obj
 0001:0004849b       ??$output_debug_string@ABQB_W@?$__crt_char_traits@_W@@SAXABQB_W@Z 1004949b f i libucrt:crtmbox.obj
 0001:000484b1       ??0?$__crt_unique_handle_t@U__crt_handle_traits@@@@QAE@QAX@Z 100494b1 f i libucrt:crtmbox.obj
 0001:000484c5       ??1?$__crt_unique_handle_t@U__crt_handle_traits@@@@QAE@XZ 100494c5 f i libucrt:crtmbox.obj
 0001:000484e1       ??B?$__crt_unique_handle_t@U__crt_handle_traits@@@@QBE_NXZ 100494e1 f i libucrt:crtmbox.obj
 0001:000484ec       ?close@?$__crt_unique_handle_t@U__crt_handle_traits@@@@QAEXXZ 100494ec f i libucrt:crtmbox.obj
 0001:00048508       ?close@__crt_handle_traits@@SA_NPAX@Z 10049508 f i libucrt:crtmbox.obj
 0001:00048523       ?get@?$__crt_unique_handle_t@U__crt_handle_traits@@@@QBEPAXXZ 10049523 f i libucrt:crtmbox.obj
 0001:00048526       ?get_invalid_value@__crt_handle_traits@@SAPAXXZ 10049526 f i libucrt:crtmbox.obj
 0001:0004852a       ?is_valid@?$__crt_unique_handle_t@U__crt_handle_traits@@@@QBE_NXZ 1004952a f i libucrt:crtmbox.obj
 0001:00048535       ___acrt_show_narrow_message_box 10049535 f   libucrt:crtmbox.obj
 0001:00048542       ___acrt_show_wide_message_box 10049542 f   libucrt:crtmbox.obj
 0001:0004854f       ??$?RV<lambda_d92cfe8357b99225085016881b624cb0>@@AAV<lambda_b721fa326cdb32351d23dfa67958c160>@@V<lambda_42d75b0848218ec137fa420c8ba9fdf9>@@@?$__crt_seh_guarded_call@H@@QAEH$$QAV<lambda_d92cfe8357b99225085016881b624cb0>@@AAV<lambda_b721fa326cdb32351d23dfa67958c160>@@$$QAV<lambda_42d75b0848218ec137fa420c8ba9fdf9>@@@Z 1004954f f i libucrt:setvbuf.obj
 0001:000485b4       ??$__acrt_lock_stream_and_call@V<lambda_b721fa326cdb32351d23dfa67958c160>@@@@YAHQAU_iobuf@@$$QAV<lambda_b721fa326cdb32351d23dfa67958c160>@@@Z 100495b4 f i libucrt:setvbuf.obj
 0001:00048751       _setvbuf                   10049751 f   libucrt:setvbuf.obj
 0001:000487e4       ??$?B$$A6AXH@Z@__crt_fast_encoded_nullptr_t@@QBEP6AXH@ZXZ 100497e4 f i libucrt:signal.obj
 0001:00048802       ??$?RV<lambda_a048d3beccc847880fc8490e18b82769>@@AAV<lambda_ec61778202f4f5fc7e7711acc23c3bca>@@V<lambda_f7496a158712204296dd6628a163878e>@@@?$__crt_seh_guarded_call@P6AXH@Z@@QAEP6AXH@Z$$QAV<lambda_a048d3beccc847880fc8490e18b82769>@@AAV<lambda_ec61778202f4f5fc7e7711acc23c3bca>@@$$QAV<lambda_f7496a158712204296dd6628a163878e>@@@Z 10049802 f i libucrt:signal.obj
 0001:00048872       ??$__acrt_lock_and_call@V<lambda_ec61778202f4f5fc7e7711acc23c3bca>@@@@YAP6AXH@ZW4__acrt_lock_id@@$$QAV<lambda_ec61778202f4f5fc7e7711acc23c3bca>@@@Z 10049872 f i libucrt:signal.obj
 0001:000488a4       ??$__crt_fast_decode_pointer@P6AXH@Z@@YAP6AXH@ZQ6AXH@Z@Z 100498a4 f i libucrt:signal.obj
 0001:000488bf       ??$__crt_fast_encode_pointer@P6AXH@Z@@YAP6AXH@ZQ6AXH@Z@Z 100498bf f i libucrt:signal.obj
 0001:00048a69       ?initialize@?$dual_state_global@P6AXH@Z@__crt_state_management@@QAEXQ6AXH@Z@Z 10049a69 f i libucrt:signal.obj
 0001:00048b15       ?value@?$dual_state_global@P6AXH@Z@__crt_state_management@@QAEAAP6AXH@ZXZ 10049b15 f i libucrt:signal.obj
 0001:00048b18       ___acrt_get_sigabrt_handler 10049b18 f   libucrt:signal.obj
 0001:00048b34       ___acrt_initialize_signal_handlers 10049b34 f   libucrt:signal.obj
 0001:00048b7d       ___fpecode                 10049b7d f   libucrt:signal.obj
 0001:00048b88       ___pxcptinfoptrs           10049b88 f   libucrt:signal.obj
 0001:00048b93       _raise                     10049b93 f   libucrt:signal.obj
 0001:00048e1d       _signal                    10049e1d f   libucrt:signal.obj
 0001:0004903b       __realloc_base             1004a03b f   libucrt:realloc_base.obj
 0001:000490be       ___acrt_initialize_locks   1004a0be f   libucrt:locks.obj
 0001:0004910f       ___acrt_lock               1004a10f f   libucrt:locks.obj
 0001:0004912b       ___acrt_uninitialize_locks 1004a12b f   libucrt:locks.obj
 0001:00049168       ___acrt_unlock             1004a168 f   libucrt:locks.obj
 0001:00049184       __lock_locales             1004a184 f   libucrt:locks.obj
 0001:0004918f       __unlock_locales           1004a18f f   libucrt:locks.obj
 0001:0004919a       ??$?RV<lambda_123407a5e2ac06da108355a851863b7a>@@AAV<lambda_2fe9b910cf3cbf4a0ab98a02ba45b3ec>@@V<lambda_ae55bdf541ad94d75914d381c370e64d>@@@?$__crt_seh_guarded_call@H@@QAEH$$QAV<lambda_123407a5e2ac06da108355a851863b7a>@@AAV<lambda_2fe9b910cf3cbf4a0ab98a02ba45b3ec>@@$$QAV<lambda_ae55bdf541ad94d75914d381c370e64d>@@@Z 1004a19a f i libucrt:close.obj
 0001:0004923c       ??$__acrt_lowio_lock_fh_and_call@V<lambda_2fe9b910cf3cbf4a0ab98a02ba45b3ec>@@@@YAHH$$QAV<lambda_2fe9b910cf3cbf4a0ab98a02ba45b3ec>@@@Z 1004a23c f i libucrt:close.obj
 0001:0004938f       __close                    1004a38f f   libucrt:close.obj
 0001:0004942d       __close_nolock             1004a42d f   libucrt:close.obj
 0001:000494f0       ??$?RU__crt_stdio_stream_data@@@__crt_internal_free_policy@@QBEXQBU__crt_stdio_stream_data@@@Z 1004a4f0 f i libucrt:stream.obj
 0001:00049506       ??0?$__crt_unique_heap_ptr@U__crt_stdio_stream_data@@U__crt_internal_free_policy@@@@QAE@QAU__crt_stdio_stream_data@@@Z 1004a506 f i libucrt:stream.obj
 0001:0004951a       ??0__crt_stdio_stream@@QAE@XZ 1004a51a f i libucrt:stream.obj
 0001:00049520       ??1?$__crt_unique_heap_ptr@U__crt_stdio_stream_data@@U__crt_internal_free_policy@@@@QAE@XZ 1004a520 f i libucrt:stream.obj
 0001:00049536       ?__acrt_stdio_allocate_stream@@YA?AV__crt_stdio_stream@@XZ 1004a536 f   libucrt:stream.obj
 0001:000495ac       ?__acrt_stdio_free_stream@@YAXV__crt_stdio_stream@@@Z 1004a5ac f   libucrt:stream.obj
 0001:000495f5       ?deallocate@__crt_stdio_stream@@QAEXXZ 1004a5f5 f i libucrt:stream.obj
 0001:00049601       ?detach@?$__crt_unique_heap_ptr@U__crt_stdio_stream_data@@U__crt_internal_free_policy@@@@QAEPAU__crt_stdio_stream_data@@XZ 1004a601 f i libucrt:stream.obj
 0001:000496fa       ?lock@__crt_stdio_stream@@QBEXXZ 1004a6fa f i libucrt:stream.obj
 0001:00049705       ?release@?$__crt_unique_heap_ptr@U__crt_stdio_stream_data@@U__crt_internal_free_policy@@@@QAEXXZ 1004a705 f i libucrt:stream.obj
 0001:0004971b       ?try_allocate@__crt_stdio_stream@@QAE_NXZ 1004a71b f i libucrt:stream.obj
 0001:00049744       ??$__acrt_stdio_parse_mode@D@@YA?AU__acrt_stdio_stream_mode@@QBD@Z 1004a744 f i libucrt:openfile.obj
 0001:00049a02       ??$__acrt_stdio_parse_mode@_W@@YA?AU__acrt_stdio_stream_mode@@QB_W@Z 1004aa02 f i libucrt:openfile.obj
 0001:00049e23       ??$tcsncmp@AAPBDAAY02$$CBDI@?$__crt_char_traits@D@@SAHAAPBDAAY02$$CBD$$QAI@Z 1004ae23 f i libucrt:openfile.obj
 0001:00049e46       ??$tcsncmp@AAPB_WAAY02$$CB_WI@?$__crt_char_traits@_W@@SAHAAPB_WAAY02$$CB_W$$QAI@Z 1004ae46 f i libucrt:openfile.obj
 0001:00049e69       ??$tcsnicmp@AAPBDAAY04$$CBDI@?$__crt_char_traits@D@@SAHAAPBDAAY04$$CBD$$QAI@Z 1004ae69 f i libucrt:openfile.obj
 0001:00049e8c       ??$tcsnicmp@AAPBDAAY06$$CBDI@?$__crt_char_traits@D@@SAHAAPBDAAY06$$CBD$$QAI@Z 1004ae8c f i libucrt:openfile.obj
 0001:00049eaf       ??$tcsnicmp@AAPBDAAY07$$CBDI@?$__crt_char_traits@D@@SAHAAPBDAAY07$$CBD$$QAI@Z 1004aeaf f i libucrt:openfile.obj
 0001:00049ed2       ??$tcsnicmp@AAPB_WAAY04$$CB_WI@?$__crt_char_traits@_W@@SAHAAPB_WAAY04$$CB_W$$QAI@Z 1004aed2 f i libucrt:openfile.obj
 0001:00049ef5       ??$tcsnicmp@AAPB_WAAY06$$CB_WI@?$__crt_char_traits@_W@@SAHAAPB_WAAY06$$CB_W$$QAI@Z 1004aef5 f i libucrt:openfile.obj
 0001:00049f18       ??$tcsnicmp@AAPB_WAAY07$$CB_WI@?$__crt_char_traits@_W@@SAHAAPB_WAAY07$$CB_W$$QAI@Z 1004af18 f i libucrt:openfile.obj
 0001:00049f3b       ??$tsopen_s@PAHABQBDABHABHH@?$__crt_char_traits@D@@SAH$$QAPAHABQBDABH2$$QAH@Z 1004af3b f i libucrt:openfile.obj
 0001:00049f6d       ??$tsopen_s@PAHABQB_WABHABHH@?$__crt_char_traits@_W@@SAH$$QAPAHABQB_WABH2$$QAH@Z 1004af6d f i libucrt:openfile.obj
 0001:00049f9f       ?__acrt_stdio_parse_mode_D@@YA_NAAU__acrt_stdio_stream_mode@@@Z 1004af9f f i libucrt:openfile.obj
 0001:00049fc0       ?__acrt_stdio_parse_mode_N@@YA_NAAU__acrt_stdio_stream_mode@@@Z 1004afc0 f i libucrt:openfile.obj
 0001:00049fd6       ?__acrt_stdio_parse_mode_R@@YA_NAAU__acrt_stdio_stream_mode@@AA_N@Z 1004afd6 f i libucrt:openfile.obj
 0001:00049ffb       ?__acrt_stdio_parse_mode_S@@YA_NAAU__acrt_stdio_stream_mode@@AA_N@Z 1004affb f i libucrt:openfile.obj
 0001:0004a020       ?__acrt_stdio_parse_mode_T@@YA_NAAU__acrt_stdio_stream_mode@@@Z 1004b020 f i libucrt:openfile.obj
 0001:0004a046       ?__acrt_stdio_parse_mode_b@@YA_NAAU__acrt_stdio_stream_mode@@@Z 1004b046 f i libucrt:openfile.obj
 0001:0004a06e       ?__acrt_stdio_parse_mode_c@@YA_NAAU__acrt_stdio_stream_mode@@AA_N@Z 1004b06e f i libucrt:openfile.obj
 0001:0004a098       ?__acrt_stdio_parse_mode_n@@YA_NAAU__acrt_stdio_stream_mode@@AA_N@Z 1004b098 f i libucrt:openfile.obj
 0001:0004a0c2       ?__acrt_stdio_parse_mode_plus@@YA_NAAU__acrt_stdio_stream_mode@@AA_N@Z 1004b0c2 f i libucrt:openfile.obj
 0001:0004a104       ?__acrt_stdio_parse_mode_t@@YA_NAAU__acrt_stdio_stream_mode@@@Z 1004b104 f i libucrt:openfile.obj
 0001:0004a12c       __openfile                 1004b12c f   libucrt:openfile.obj
 0001:0004a139       __wopenfile                1004b139 f   libucrt:openfile.obj
 0001:0004a7de       __read                     1004b7de f   libucrt:read.obj
 0001:0004a935       __read_nolock              1004b935 f   libucrt:read.obj
 0001:0004b2cd       ___acrt_stdio_refill_and_read_narrow_nolock 1004c2cd f   libucrt:_filbuf.obj
 0001:0004b2da       ___acrt_stdio_refill_and_read_wide_nolock 1004c2da f   libucrt:_filbuf.obj
 0001:0004ba39       __write                    1004ca39 f   libucrt:write.obj
 0001:0004bb5e       __write_nolock             1004cb5e f   libucrt:write.obj
 0001:0004c2a4       ___acrt_stdio_flush_and_write_narrow_nolock 1004d2a4 f   libucrt:_flsbuf.obj
 0001:0004c2b1       ___acrt_stdio_flush_and_write_wide_nolock 1004d2b1 f   libucrt:_flsbuf.obj
 0001:0004c2be       ___acrt_copy_path_to_wide_string 1004d2be f   libucrt:string_utilities.obj
 0001:0004c3b6       ___acrt_copy_to_char       1004d3b6 f   libucrt:string_utilities.obj
 0001:0004c4a1       __wremove                  1004d4a1 f   libucrt:wunlink.obj
 0001:0004c4d3       __wunlink                  1004d4d3 f   libucrt:wunlink.obj
 0001:0004c947       __lseek                    1004d947 f   libucrt:lseek.obj
 0001:0004c954       __lseek_nolock             1004d954 f   libucrt:lseek.obj
 0001:0004c961       __lseeki64                 1004d961 f   libucrt:lseek.obj
 0001:0004c982       __lseeki64_nolock          1004d982 f   libucrt:lseek.obj
 0001:0004c9a3       __chgsign                  1004d9a3 f   libucrt:ieeemisc.obj
 0001:0004c9dd       __chgsignf                 1004d9dd f   libucrt:ieeemisc.obj
 0001:0004ca08       __copysign                 1004da08 f   libucrt:ieeemisc.obj
 0001:0004ca3c       __copysignf                1004da3c f   libucrt:ieeemisc.obj
 0001:0004ca61       __finite                   1004da61 f   libucrt:ieeemisc.obj
 0001:0004ca81       __fpclass                  1004da81 f   libucrt:ieeemisc.obj
 0001:0004cb4e       __isnan                    1004db4e f   libucrt:ieeemisc.obj
 0001:0004cb91       __logb                     1004db91 f   libucrt:ieeemisc.obj
 0001:0004cc96       __nextafter                1004dc96 f   libucrt:ieeemisc.obj
 0001:0004ccbc       __scalb                    1004dcbc f   libucrt:ieeemisc.obj
 0001:0004ccdc       __add_exp                  1004dcdc f   libucrt:util.obj
 0001:0004cd16       __decomp                   1004dd16 f   libucrt:util.obj
 0001:0004ce1f       __get_exp                  1004de1f f   libucrt:util.obj
 0001:0004ce3e       __set_bexp                 1004de3e f   libucrt:util.obj
 0001:0004ce71       __set_exp                  1004de71 f   libucrt:util.obj
 0001:0004ceab       __sptype                   1004deab f   libucrt:util.obj
 0001:0004cf20       ___clrfp_sse2              1004df20 f   libucrt:fpctrl.obj
 0001:0004cf49       ___ctrlfp_sse2             1004df49 f   libucrt:fpctrl.obj
 0001:0004cf92       ___fclrf_sse2              1004df92 f   libucrt:fpctrl.obj
 0001:0004cfb8       ___get_fpsr_sse2           1004dfb8 f   libucrt:fpctrl.obj
 0001:0004cfdd       ___set_fpsr_sse2           1004dfdd f   libucrt:fpctrl.obj
 0001:0004d070       ___set_statfp_sse2         1004e070 f   libucrt:fpctrl.obj
 0001:0004d091       ___statfp_sse2             1004e091 f   libucrt:fpctrl.obj
 0001:0004d0ab       __clrfp                    1004e0ab f   libucrt:fpctrl.obj
 0001:0004d0c2       __ctrlfp                   1004e0c2 f   libucrt:fpctrl.obj
 0001:0004d0f9       __set_statfp               1004e0f9 f   libucrt:fpctrl.obj
 0001:0004d16a       __statfp                   1004e16a f   libucrt:fpctrl.obj
 0001:0004d180       ??$__crt_fast_decode_pointer@P6AHPAU_exception@@@Z@@YAP6AHPAU_exception@@@ZQ6AH0@Z@Z 1004e180 f i libucrt:matherr.obj
 0001:0004d19b       ??$__crt_fast_encode_pointer@P6AHPAU_exception@@@Z@@YAP6AHPAU_exception@@@ZQ6AH0@Z@Z 1004e19b f i libucrt:matherr.obj
 0001:0004d1c1       ?initialize@?$dual_state_global@P6AHPAU_exception@@@Z@__crt_state_management@@QAEXQ6AHPAU_exception@@@Z@Z 1004e1c1 f i libucrt:matherr.obj
 0001:0004d1fe       ?value@?$dual_state_global@P6AHPAU_exception@@@Z@__crt_state_management@@QAEAAP6AHPAU_exception@@@ZXZ 1004e1fe f i libucrt:matherr.obj
 0001:0004d201       ___acrt_has_user_matherr   1004e201 f   libucrt:matherr.obj
 0001:0004d220       ___acrt_initialize_user_matherr 1004e220 f   libucrt:matherr.obj
 0001:0004d239       ___acrt_invoke_user_matherr 1004e239 f   libucrt:matherr.obj
 0001:0004d294       ___setusermatherr          1004e294 f   libucrt:matherr.obj
 0001:0004dca6       ??$find_first_file_ex@ABQADW4_FINDEX_INFO_LEVELS@@PAU_WIN32_FIND_DATAA@@W4_FINDEX_SEARCH_OPS@@$$TH@?$__crt_char_traits@D@@SAPAXABQAD$$QAW4_FINDEX_INFO_LEVELS@@$$QAPAU_WIN32_FIND_DATAA@@$$QAW4_FINDEX_SEARCH_OPS@@$$QA$$T$$QAH@Z 1004eca6 f i libucrt:argv_wildcards.obj
 0001:0004dcdb       ??$find_first_file_ex@ABQA_WW4_FINDEX_INFO_LEVELS@@PAU_WIN32_FIND_DATAW@@W4_FINDEX_SEARCH_OPS@@$$TH@?$__crt_char_traits@_W@@SAPAXABQA_W$$QAW4_FINDEX_INFO_LEVELS@@$$QAPAU_WIN32_FIND_DATAW@@$$QAW4_FINDEX_SEARCH_OPS@@$$QA$$T$$QAH@Z 1004ecdb f i libucrt:argv_wildcards.obj
 0001:0004dd10       ??$find_next_file@PAXPAU_WIN32_FIND_DATAA@@@?$__crt_char_traits@D@@SAH$$QAPAX$$QAPAU_WIN32_FIND_DATAA@@@Z 1004ed10 f i libucrt:argv_wildcards.obj
 0001:0004dd2c       ??$find_next_file@PAXPAU_WIN32_FIND_DATAW@@@?$__crt_char_traits@_W@@SAH$$QAPAX$$QAPAU_WIN32_FIND_DATAW@@@Z 1004ed2c f i libucrt:argv_wildcards.obj
 0001:0004dd48       ??$tcsncpy_s@AAPADIAAPADABI@?$__crt_char_traits@D@@SAHAAPAD$$QAI0ABI@Z 1004ed48 f i libucrt:argv_wildcards.obj
 0001:0004dd73       ??$tcsncpy_s@AAPA_WIAAPA_WABI@?$__crt_char_traits@_W@@SAHAAPA_W$$QAI0ABI@Z 1004ed73 f i libucrt:argv_wildcards.obj
 0001:0004dd9e       ??$tcsncpy_s@PAD$$CBIABQBDABI@?$__crt_char_traits@D@@SAH$$QAPAD$$QBIABQBDABI@Z 1004ed9e f i libucrt:argv_wildcards.obj
 0001:0004ddc9       ??$tcsncpy_s@PADABIABQBDABI@?$__crt_char_traits@D@@SAH$$QAPADABIABQBD1@Z 1004edc9 f i libucrt:argv_wildcards.obj
 0001:0004ddf4       ??$tcsncpy_s@PA_W$$CBIABQB_WABI@?$__crt_char_traits@_W@@SAH$$QAPA_W$$QBIABQB_WABI@Z 1004edf4 f i libucrt:argv_wildcards.obj
 0001:0004de1f       ??$tcsncpy_s@PA_WABIABQB_WABI@?$__crt_char_traits@_W@@SAH$$QAPA_WABIABQB_W1@Z 1004ee1f f i libucrt:argv_wildcards.obj
 0001:0004de4a       ??$tcspbrk@AAPADAAY02$$CBD@?$__crt_char_traits@D@@SAPADAAPADAAY02$$CBD@Z 1004ee4a f i libucrt:argv_wildcards.obj
 0001:0004de65       ??$tcspbrk@AAPA_WAAY02$$CB_W@?$__crt_char_traits@_W@@SAPA_WAAPA_WAAY02$$CB_W@Z 1004ee65 f i libucrt:argv_wildcards.obj
 0001:0004de80       ??0?$__crt_unique_handle_t@U__crt_findfile_traits@@@@QAE@QAX@Z 1004ee80 f i libucrt:argv_wildcards.obj
 0001:0004de94       ??0?$argument_list@D@?A0xb0e4b824@@QAE@XZ 1004ee94 f i libucrt:argv_wildcards.obj
 0001:0004dea4       ??0?$argument_list@_W@?A0xb0e4b824@@QAE@XZ 1004eea4 f i libucrt:argv_wildcards.obj
 0001:0004deb4       ??1?$__crt_unique_handle_t@U__crt_findfile_traits@@@@QAE@XZ 1004eeb4 f i libucrt:argv_wildcards.obj
 0001:0004ded0       ??1?$argument_list@D@?A0xb0e4b824@@QAE@XZ 1004eed0 f i libucrt:argv_wildcards.obj
 0001:0004defe       ??1?$argument_list@_W@?A0xb0e4b824@@QAE@XZ 1004eefe f i libucrt:argv_wildcards.obj
 0001:0004df8c       ?append@?$argument_list@D@?A0xb0e4b824@@QAEHQAD@Z 1004ef8c f i libucrt:argv_wildcards.obj
 0001:0004dfce       ?append@?$argument_list@_W@?A0xb0e4b824@@QAEHQA_W@Z 1004efce f i libucrt:argv_wildcards.obj
 0001:0004e010       ?begin@?$argument_list@D@?A0xb0e4b824@@QBEPAPADXZ 1004f010 f i libucrt:argv_wildcards.obj
 0001:0004e013       ?begin@?$argument_list@_W@?A0xb0e4b824@@QBEPAPA_WXZ 1004f013 f i libucrt:argv_wildcards.obj
 0001:0004e016       ?close@?$__crt_unique_handle_t@U__crt_findfile_traits@@@@QAEXXZ 1004f016 f i libucrt:argv_wildcards.obj
 0001:0004e032       ?close@__crt_findfile_traits@@SA_NPAX@Z 1004f032 f i libucrt:argv_wildcards.obj
 0001:0004e04d       ?end@?$argument_list@D@?A0xb0e4b824@@QBEPAPADXZ 1004f04d f i libucrt:argv_wildcards.obj
 0001:0004e051       ?end@?$argument_list@_W@?A0xb0e4b824@@QBEPAPA_WXZ 1004f051 f i libucrt:argv_wildcards.obj
 0001:0004e055       ?expand_if_necessary@?$argument_list@D@?A0xb0e4b824@@AAEHXZ 1004f055 f i libucrt:argv_wildcards.obj
 0001:0004e0fd       ?expand_if_necessary@?$argument_list@_W@?A0xb0e4b824@@AAEHXZ 1004f0fd f i libucrt:argv_wildcards.obj
 0001:0004e1a5       ?get@?$__crt_unique_handle_t@U__crt_findfile_traits@@@@QBEPAXXZ 1004f1a5 f i libucrt:argv_wildcards.obj
 0001:0004e1a8       ?get_invalid_value@__crt_findfile_traits@@SAPAXXZ 1004f1a8 f i libucrt:argv_wildcards.obj
 0001:0004e1c9       ?size@?$argument_list@D@?A0xb0e4b824@@QBEIXZ 1004f1c9 f i libucrt:argv_wildcards.obj
 0001:0004e1d4       ?size@?$argument_list@_W@?A0xb0e4b824@@QBEIXZ 1004f1d4 f i libucrt:argv_wildcards.obj
 0001:0004e1df       ?strpbrk@@YAPADQADQBD@Z    1004f1df f i libucrt:argv_wildcards.obj
 0001:0004e1ec       ?wcspbrk@@YAPA_WPA_WPB_W@Z 1004f1ec f i libucrt:argv_wildcards.obj
 0001:0004e1f9       ___acrt_expand_narrow_argv_wildcards 1004f1f9 f   libucrt:argv_wildcards.obj
 0001:0004e206       ___acrt_expand_wide_argv_wildcards 1004f206 f   libucrt:argv_wildcards.obj
 0001:0004e213       ??$?RV<lambda_978dc153c237d78434369da87b74ff60>@@AAV<lambda_ad1ced32f4ac17aa236e5ef05d6b3b7c>@@V<lambda_4a8533e2866a575feecb8298ce776b0d>@@@?$__crt_seh_guarded_call@X@@QAEX$$QAV<lambda_978dc153c237d78434369da87b74ff60>@@AAV<lambda_ad1ced32f4ac17aa236e5ef05d6b3b7c>@@$$QAV<lambda_4a8533e2866a575feecb8298ce776b0d>@@@Z 1004f213 f i libucrt:mbctype.obj
 0001:0004e266       ??$__acrt_lock_and_call@V<lambda_ad1ced32f4ac17aa236e5ef05d6b3b7c>@@@@YAXW4__acrt_lock_id@@$$QAV<lambda_ad1ced32f4ac17aa236e5ef05d6b3b7c>@@@Z 1004f266 f i libucrt:mbctype.obj
 0001:0004e877       ___acrt_initialize_multibyte 1004f877 f   libucrt:mbctype.obj
 0001:0004e89c       ___acrt_update_thread_multibyte_data 1004f89c f   libucrt:mbctype.obj
 0001:0004e966       ___p__mbcasemap            1004f966 f   libucrt:mbctype.obj
 0001:0004e96c       ___p__mbctype              1004f96c f   libucrt:mbctype.obj
 0001:0004e972       __getmbcp                  1004f972 f   libucrt:mbctype.obj
 0001:0004e9b5       __setmbcp                  1004f9b5 f   libucrt:mbctype.obj
 0001:0004e9cc       __setmbcp_nolock           1004f9cc f   libucrt:mbctype.obj
 0001:0004ed49       __ismbbalnum               1004fd49 f   libucrt:ismbbyte.obj
 0001:0004ed6a       __ismbbalnum_l             1004fd6a f   libucrt:ismbbyte.obj
 0001:0004ed8d       __ismbbalpha               1004fd8d f   libucrt:ismbbyte.obj
 0001:0004edae       __ismbbalpha_l             1004fdae f   libucrt:ismbbyte.obj
 0001:0004edd1       __ismbbblank               1004fdd1 f   libucrt:ismbbyte.obj
 0001:0004edfc       __ismbbblank_l             1004fdfc f   libucrt:ismbbyte.obj
 0001:0004ee29       __ismbbgraph               1004fe29 f   libucrt:ismbbyte.obj
 0001:0004ee4a       __ismbbgraph_l             1004fe4a f   libucrt:ismbbyte.obj
 0001:0004ee6d       __ismbbkalnum              1004fe6d f   libucrt:ismbbyte.obj
 0001:0004ee8b       __ismbbkalnum_l            1004fe8b f   libucrt:ismbbyte.obj
 0001:0004eeaa       __ismbbkana                1004feaa f   libucrt:ismbbyte.obj
 0001:0004eec1       __ismbbkana_l              1004fec1 f   libucrt:ismbbyte.obj
 0001:0004ef26       __ismbbkprint              1004ff26 f   libucrt:ismbbyte.obj
 0001:0004ef44       __ismbbkprint_l            1004ff44 f   libucrt:ismbbyte.obj
 0001:0004ef63       __ismbbkpunct              1004ff63 f   libucrt:ismbbyte.obj
 0001:0004ef81       __ismbbkpunct_l            1004ff81 f   libucrt:ismbbyte.obj
 0001:0004efa0       __ismbblead                1004ffa0 f   libucrt:ismbbyte.obj
 0001:0004efbe       __ismbblead_l              1004ffbe f   libucrt:ismbbyte.obj
 0001:0004efdd       __ismbbprint               1004ffdd f   libucrt:ismbbyte.obj
 0001:0004effe       __ismbbprint_l             1004fffe f   libucrt:ismbbyte.obj
 0001:0004f021       __ismbbpunct               10050021 f   libucrt:ismbbyte.obj
 0001:0004f03f       __ismbbpunct_l             1005003f f   libucrt:ismbbyte.obj
 0001:0004f05e       __ismbbtrail               1005005e f   libucrt:ismbbyte.obj
 0001:0004f07c       __ismbbtrail_l             1005007c f   libucrt:ismbbyte.obj
 0001:0004f09b       ___acrt_initialize_command_line 1005009b f   libucrt:argv_data.obj
 0001:0004f0ba       ___acrt_uninitialize_command_line 100500ba f   libucrt:argv_data.obj
 0001:0004f0bd       ___p___argc                100500bd f   libucrt:argv_data.obj
 0001:0004f0c3       ___p___argv                100500c3 f   libucrt:argv_data.obj
 0001:0004f0c9       ___p___wargv               100500c9 f   libucrt:argv_data.obj
 0001:0004f0cf       ___p__acmdln               100500cf f   libucrt:argv_data.obj
 0001:0004f0d5       ___p__pgmptr               100500d5 f   libucrt:argv_data.obj
 0001:0004f0db       ___p__wcmdln               100500db f   libucrt:argv_data.obj
 0001:0004f0e1       ___p__wpgmptr              100500e1 f   libucrt:argv_data.obj
 0001:0004f0e7       __get_pgmptr               100500e7 f   libucrt:argv_data.obj
 0001:0004f124       __get_wpgmptr              10050124 f   libucrt:argv_data.obj
 0001:0004f161       ??0?$__crt_unique_handle_t@Uenvironment_strings_traits@?A0x588e5281@@@@QAE@QA_W@Z 10050161 f i libucrt:get_environment_from_os.obj
 0001:0004f175       ??1?$__crt_unique_handle_t@Uenvironment_strings_traits@?A0x588e5281@@@@QAE@XZ 10050175 f i libucrt:get_environment_from_os.obj
 0001:0004f191       ??B?$__crt_unique_handle_t@Uenvironment_strings_traits@?A0x588e5281@@@@QBE_NXZ 10050191 f i libucrt:get_environment_from_os.obj
 0001:0004f19b       ?close@?$__crt_unique_handle_t@Uenvironment_strings_traits@?A0x588e5281@@@@QAEXXZ 1005019b f i libucrt:get_environment_from_os.obj
 0001:0004f1b7       ?close@environment_strings_traits@?A0x588e5281@@SA_NPA_W@Z 100501b7 f i libucrt:get_environment_from_os.obj
 0001:0004f211       ?get@?$__crt_unique_handle_t@Uenvironment_strings_traits@?A0x588e5281@@@@QBEPA_WXZ 10050211 f i libucrt:get_environment_from_os.obj
 0001:0004f214       ?get_invalid_value@environment_strings_traits@?A0x588e5281@@SAPA_WXZ 10050214 f i libucrt:get_environment_from_os.obj
 0001:0004f217       ?is_valid@?$__crt_unique_handle_t@Uenvironment_strings_traits@?A0x588e5281@@@@QBE_NXZ 10050217 f i libucrt:get_environment_from_os.obj
 0001:0004f221       ___dcrt_get_narrow_environment_from_os 10050221 f   libucrt:get_environment_from_os.obj
 0001:0004f2c4       ___dcrt_get_wide_environment_from_os 100502c4 f   libucrt:get_environment_from_os.obj
 0001:0004fb5c       ??$get_or_create_environment_nolock@$$$V@?$__crt_char_traits@D@@SAPAPADXZ 10050b5c f i libucrt:setenv.obj
 0001:0004fb61       ??$get_or_create_environment_nolock@$$$V@?$__crt_char_traits@_W@@SAPAPA_WXZ 10050b61 f i libucrt:setenv.obj
 0001:0004fb66       ??$set_environment_variable@ABQADQAD@?$__crt_char_traits@D@@SAHABQAD$$QBQAD@Z 10050b66 f i libucrt:setenv.obj
 0001:0004fb82       ??$set_environment_variable@ABQA_WQA_W@?$__crt_char_traits@_W@@SAHABQA_W$$QBQA_W@Z 10050b82 f i libucrt:setenv.obj
 0001:0004fb9e       ??$tcschr@ABQADD@?$__crt_char_traits@D@@SAPADABQAD$$QAD@Z 10050b9e f i libucrt:setenv.obj
 0001:0004fbbe       ??$tcschr@ABQA_WD@?$__crt_char_traits@_W@@SAPA_WABQA_W$$QAD@Z 10050bbe f i libucrt:setenv.obj
 0001:0004fbe3       ??$tcscpy_s@AAPADABIAAPAD@?$__crt_char_traits@D@@SAHAAPADABI0@Z 10050be3 f i libucrt:setenv.obj
 0001:0004fc08       ??$tcscpy_s@AAPA_WABIAAPA_W@?$__crt_char_traits@_W@@SAHAAPA_WABI0@Z 10050c08 f i libucrt:setenv.obj
 0001:0004fc2d       ??$tcscpy_s@ABQADABIABQAD@?$__crt_char_traits@D@@SAHABQADABI0@Z 10050c2d f i libucrt:setenv.obj
 0001:0004fc52       ??$tcscpy_s@ABQA_WABIABQA_W@?$__crt_char_traits@_W@@SAHABQA_WABI0@Z 10050c52 f i libucrt:setenv.obj
 0001:0004fc77       ??$tcsnicoll@ABQBDAAPADABI@?$__crt_char_traits@D@@SAHABQBDAAPADABI@Z 10050c77 f i libucrt:setenv.obj
 0001:0004fc9c       ??$tcsnicoll@ABQB_WAAPA_WABI@?$__crt_char_traits@_W@@SAHABQB_WAAPA_WABI@Z 10050c9c f i libucrt:setenv.obj
 0001:0004fce5       ?strchr@@YAPADQADH@Z       10050ce5 f i libucrt:setenv.obj
 0001:0004fcf2       ?wcschr@@YAPA_WPA_W_W@Z    10050cf2 f i libucrt:setenv.obj
 0001:0004fcff       ___dcrt_set_variable_in_narrow_environment_nolock 10050cff f   libucrt:setenv.obj
 0001:0004fd0c       ___dcrt_set_variable_in_wide_environment_nolock 10050d0c f   libucrt:setenv.obj
 0001:0004fd19       __recalloc                 10050d19 f   libucrt:recalloc.obj
 0001:0004fd26       __recalloc_base            10050d26 f   libucrt:recalloc.obj
 0001:0004fdae       ___acrt_getheap            10050dae f   libucrt:heap_handle.obj
 0001:0004fdb4       ___acrt_initialize_heap    10050db4 f   libucrt:heap_handle.obj
 0001:0004fdc9       ___acrt_uninitialize_heap  10050dc9 f   libucrt:heap_handle.obj
 0001:0004fdd5       __get_heap_handle          10050dd5 f   libucrt:heap_handle.obj
 0001:0004fddb       ___acrt_execute_initializers 10050ddb f   libucrt:shared_initialization.obj
 0001:0004fe7e       ___acrt_execute_uninitializers 10050e7e f   libucrt:shared_initialization.obj
 0001:0004fede       ??$?B$$A6AHI@Z@__crt_fast_encoded_nullptr_t@@QBEP6AHI@ZXZ 10050ede f i libucrt:new_handler.obj
 0001:0004fefc       ??$__crt_fast_decode_pointer@P6AHI@Z@@YAP6AHI@ZQ6AHI@Z@Z 10050efc f i libucrt:new_handler.obj
 0001:0004ff17       ??$__crt_fast_encode_pointer@P6AHI@Z@@YAP6AHI@ZQ6AHI@Z@Z 10050f17 f i libucrt:new_handler.obj
 0001:0004ff3d       ?_set_new_handler@@YAP6AHI@ZH@Z 10050f3d f   libucrt:new_handler.obj
 0001:0004ff63       ?initialize@?$dual_state_global@P6AHI@Z@__crt_state_management@@QAEXQ6AHI@Z@Z 10050f63 f i libucrt:new_handler.obj
 0001:0004ffa0       ?value@?$dual_state_global@P6AHI@Z@__crt_state_management@@QAEAAP6AHI@ZXZ 10050fa0 f i libucrt:new_handler.obj
 0001:0004ffa3       ___acrt_initialize_new_handler 10050fa3 f   libucrt:new_handler.obj
 0001:0004ffbc       __callnewh                 10050fbc f   libucrt:new_handler.obj
 0001:00050011       __query_new_handler        10051011 f   libucrt:new_handler.obj
 0001:00050077       __set_new_handler          10051077 f   libucrt:new_handler.obj
 0001:000500ef       ?value@?$dual_state_global@J@__crt_state_management@@QAEAAJXZ 100510ef f i libucrt:new_mode.obj
 0001:000500f2       __query_new_mode           100510f2 f   libucrt:new_mode.obj
 0001:000500f8       __set_new_mode             100510f8 f   libucrt:new_mode.obj
 0001:00050132       ___pctype_func             10051132 f   libucrt:ctype.obj
 0001:00050161       ___pwctype_func            10051161 f   libucrt:ctype.obj
 0001:00050167       __iswctype_l               10051167 f   libucrt:iswctype.obj
 0001:00050180       _iswctype                  10051180 f   libucrt:iswctype.obj
 0001:000501f6       __isctype                  100511f6 f   libucrt:isctype.obj
 0001:00050233       __isctype_l                10051233 f   libucrt:isctype.obj
 0001:000504fa       ___acrt_DownlevelLCIDToLocaleName 100514fa f   libucrt:lcidtoname_downlevel.obj
 0001:000505ce       ___acrt_DownlevelLocaleNameToLCID 100515ce f   libucrt:lcidtoname_downlevel.obj
 0001:00050605       ??$?RV<lambda_61cee617f5178ae960314fd4d05640a0>@@AAV<lambda_6978c1fb23f02e42e1d9e99668cc68aa>@@V<lambda_9cd88cf8ad10232537feb2133f08c833>@@@?$__crt_seh_guarded_call@H@@QAEH$$QAV<lambda_61cee617f5178ae960314fd4d05640a0>@@AAV<lambda_6978c1fb23f02e42e1d9e99668cc68aa>@@$$QAV<lambda_9cd88cf8ad10232537feb2133f08c833>@@@Z 10051605 f i libucrt:commit.obj
 0001:000506c3       ??$__acrt_lowio_lock_fh_and_call@V<lambda_6978c1fb23f02e42e1d9e99668cc68aa>@@@@YAHH$$QAV<lambda_6978c1fb23f02e42e1d9e99668cc68aa>@@@Z 100516c3 f i libucrt:commit.obj
 0001:000507b5       __commit                   100517b5 f   libucrt:commit.obj
 0001:0005083f       ??$?RU__crt_lowio_handle_data@@@__crt_internal_free_policy@@QBEXQBU__crt_lowio_handle_data@@@Z 1005183f f i libucrt:osfinfo.obj
 0001:00050855       ??0?$__crt_unique_heap_ptr@U__crt_lowio_handle_data@@U__crt_internal_free_policy@@@@QAE@QAU__crt_lowio_handle_data@@@Z 10051855 f i libucrt:osfinfo.obj
 0001:00050869       ??1?$__crt_unique_heap_ptr@U__crt_lowio_handle_data@@U__crt_internal_free_policy@@@@QAE@XZ 10051869 f i libucrt:osfinfo.obj
 0001:0005087f       ??B?$__crt_unique_heap_ptr@U__crt_lowio_handle_data@@U__crt_internal_free_policy@@@@QBE_NXZ 1005187f f i libucrt:osfinfo.obj
 0001:00050889       ?detach@?$__crt_unique_heap_ptr@U__crt_lowio_handle_data@@U__crt_internal_free_policy@@@@QAEPAU__crt_lowio_handle_data@@XZ 10051889 f i libucrt:osfinfo.obj
 0001:0005088f       ?get@?$__crt_unique_heap_ptr@U__crt_lowio_handle_data@@U__crt_internal_free_policy@@@@QBEPAU__crt_lowio_handle_data@@XZ 1005188f f i libucrt:osfinfo.obj
 0001:00050892       ?is_valid@?$__crt_unique_heap_ptr@U__crt_lowio_handle_data@@U__crt_internal_free_policy@@@@QBE_NXZ 10051892 f i libucrt:osfinfo.obj
 0001:0005089c       ?release@?$__crt_unique_heap_ptr@U__crt_lowio_handle_data@@U__crt_internal_free_policy@@@@QAEXXZ 1005189c f i libucrt:osfinfo.obj
 0001:000508b2       ___acrt_lowio_create_handle_array 100518b2 f   libucrt:osfinfo.obj
 0001:0005094a       ___acrt_lowio_destroy_handle_array 1005194a f   libucrt:osfinfo.obj
 0001:0005098c       ___acrt_lowio_ensure_fh_exists 1005198c f   libucrt:osfinfo.obj
 0001:00050a4a       ___acrt_lowio_lock_fh      10051a4a f   libucrt:osfinfo.obj
 0001:00050a75       ___acrt_lowio_set_os_handle 10051a75 f   libucrt:osfinfo.obj
 0001:00050b2e       ___acrt_lowio_unlock_fh    10051b2e f   libucrt:osfinfo.obj
 0001:00050b59       __alloc_osfhnd             10051b59 f   libucrt:osfinfo.obj
 0001:00050caf       __free_osfhnd              10051caf f   libucrt:osfinfo.obj
 0001:00050d64       __get_osfhandle            10051d64 f   libucrt:osfinfo.obj
 0001:00050de8       __open_osfhandle           10051de8 f   libucrt:osfinfo.obj
 0001:00050f39       ___iswcsym                 10051f39 f i libucrt:_wctype.obj
 0001:00050f68       ___iswcsymf                10051f68 f i libucrt:_wctype.obj
 0001:00050f97       __isleadbyte_l             10051f97 f i libucrt:_wctype.obj
 0001:00050fde       __iswalnum_l               10051fde f i libucrt:_wctype.obj
 0001:00050ff9       __iswalpha_l               10051ff9 f i libucrt:_wctype.obj
 0001:00051014       __iswblank_l               10052014 f i libucrt:_wctype.obj
 0001:00051038       __iswcntrl_l               10052038 f i libucrt:_wctype.obj
 0001:0005104f       __iswcsym_l                1005204f f i libucrt:_wctype.obj
 0001:0005107e       __iswcsymf_l               1005207e f i libucrt:_wctype.obj
 0001:000510ad       __iswdigit_l               100520ad f i libucrt:_wctype.obj
 0001:000510c4       __iswgraph_l               100520c4 f i libucrt:_wctype.obj
 0001:000510df       __iswlower_l               100520df f i libucrt:_wctype.obj
 0001:000510f6       __iswprint_l               100520f6 f i libucrt:_wctype.obj
 0001:00051111       __iswpunct_l               10052111 f i libucrt:_wctype.obj
 0001:00051128       __iswspace_l               10052128 f i libucrt:_wctype.obj
 0001:0005113f       __iswupper_l               1005213f f i libucrt:_wctype.obj
 0001:00051156       __iswxdigit_l              10052156 f i libucrt:_wctype.obj
 0001:00051171       _isleadbyte                10052171 f i libucrt:_wctype.obj
 0001:00051188       _iswalnum                  10052188 f i libucrt:_wctype.obj
 0001:000511a3       _iswalpha                  100521a3 f i libucrt:_wctype.obj
 0001:000511be       _iswascii                  100521be f i libucrt:_wctype.obj
 0001:000511d7       _iswblank                  100521d7 f i libucrt:_wctype.obj
 0001:000511fb       _iswcntrl                  100521fb f i libucrt:_wctype.obj
 0001:00051212       _iswdigit                  10052212 f i libucrt:_wctype.obj
 0001:00051229       _iswgraph                  10052229 f i libucrt:_wctype.obj
 0001:00051244       _iswlower                  10052244 f i libucrt:_wctype.obj
 0001:0005125b       _iswprint                  1005225b f i libucrt:_wctype.obj
 0001:00051276       _iswpunct                  10052276 f i libucrt:_wctype.obj
 0001:0005128d       _iswspace                  1005228d f i libucrt:_wctype.obj
 0001:000512a4       _iswupper                  100522a4 f i libucrt:_wctype.obj
 0001:000512bb       _iswxdigit                 100522bb f i libucrt:_wctype.obj
 0001:000512d6       ??0?$__crt_scoped_stack_ptr@_W@@QAE@U?$__crt_scoped_stack_ptr_tag@_W@@@Z 100522d6 f i libucrt:lcmapstringa.obj
 0001:000512ea       ??0?$__crt_scoped_stack_ptr_tag@_W@@QAE@QA_W@Z 100522ea f i libucrt:lcmapstringa.obj
 0001:000512fe       ??1?$__crt_scoped_stack_ptr@_W@@QAE@XZ 100522fe f i libucrt:lcmapstringa.obj
 0001:00051309       ??B?$__crt_scoped_stack_ptr@_W@@QBE_NXZ 10052309 f i libucrt:lcmapstringa.obj
 0001:000515b7       ?get@?$__crt_scoped_stack_ptr@_W@@QBEPA_WXZ 100525b7 f i libucrt:lcmapstringa.obj
 0001:000515ba       __MallocaComputeSize       100525ba f i libucrt:lcmapstringa.obj
 0001:000515d1       __MarkAllocaS              100525d1 f i libucrt:lcmapstringa.obj
 0001:000515ec       ___acrt_LCMapStringA       100525ec f   libucrt:lcmapstringa.obj
 0001:00051649       __freea_crt                10052649 f i libucrt:lcmapstringa.obj
 0001:00051671       ??$?RG@__crt_internal_free_policy@@QBEXQBG@Z 10052671 f i libucrt:initctype.obj
 0001:00051687       ??$?RJ@__crt_internal_free_policy@@QBEXQBJ@Z 10052687 f i libucrt:initctype.obj
 0001:0005169d       ??0?$__crt_unique_heap_ptr@GU__crt_internal_free_policy@@@@QAE@QAG@Z 1005269d f i libucrt:initctype.obj
 0001:000516b1       ??0?$__crt_unique_heap_ptr@JU__crt_internal_free_policy@@@@QAE@QAJ@Z 100526b1 f i libucrt:initctype.obj
 0001:000516c5       ??1?$__crt_unique_heap_ptr@GU__crt_internal_free_policy@@@@QAE@XZ 100526c5 f i libucrt:initctype.obj
 0001:000516db       ??1?$__crt_unique_heap_ptr@JU__crt_internal_free_policy@@@@QAE@XZ 100526db f i libucrt:initctype.obj
 0001:000516f1       ?detach@?$__crt_unique_heap_ptr@GU__crt_internal_free_policy@@@@QAEPAGXZ 100526f1 f i libucrt:initctype.obj
 0001:000516f7       ?detach@?$__crt_unique_heap_ptr@JU__crt_internal_free_policy@@@@QAEPAJXZ 100526f7 f i libucrt:initctype.obj
 0001:000516fd       ?release@?$__crt_unique_heap_ptr@GU__crt_internal_free_policy@@@@QAEXXZ 100526fd f i libucrt:initctype.obj
 0001:00051713       ?release@?$__crt_unique_heap_ptr@JU__crt_internal_free_policy@@@@QAEXXZ 10052713 f i libucrt:initctype.obj
 0001:00051729       ____lc_codepage_func       10052729 f   libucrt:initctype.obj
 0001:00051759       ____lc_collate_cp_func     10052759 f   libucrt:initctype.obj
 0001:00051789       ____lc_locale_name_func    10052789 f   libucrt:initctype.obj
 0001:000517bc       ____mb_cur_max_func        100527bc f   libucrt:initctype.obj
 0001:000517ec       ____mb_cur_max_l_func      100527ec f   libucrt:initctype.obj
 0001:0005180b       ___acrt_locale_initialize_ctype 1005280b f   libucrt:initctype.obj
 0001:00051c90       ___acrt_add_locale_ref     10052c90 f   libucrt:locale_refcounting.obj
 0001:00051d2c       ___acrt_free_locale        10052d2c f   libucrt:locale_refcounting.obj
 0001:00051ec8       ___acrt_locale_add_lc_time_reference 10052ec8 f   libucrt:locale_refcounting.obj
 0001:00051efb       ___acrt_locale_free_lc_time_if_unreferenced 10052efb f   libucrt:locale_refcounting.obj
 0001:00051f37       ___acrt_locale_release_lc_time_reference 10052f37 f   libucrt:locale_refcounting.obj
 0001:00051f6a       ___acrt_release_locale_ref 10052f6a f   libucrt:locale_refcounting.obj
 0001:0005200b       ___acrt_update_thread_locale_data 1005300b f   libucrt:locale_refcounting.obj
 0001:0005209f       __updatetlocinfoEx_nolock  1005309f f   libucrt:locale_refcounting.obj
 0001:00052103       ___acrt_fp_strflt_to_string 10053103 f   libucrt:_fptostr.obj
 0001:00053930       ??0big_integer@__crt_strtox@@QAE@ABU01@@Z 10054930 f i libucrt:cfout.obj
 0001:00053970       ??0big_integer@__crt_strtox@@QAE@XZ 10054970 f i libucrt:cfout.obj
 0001:0005397b       ??0scoped_fp_state_reset@?A0x48fbfdd4@@QAE@XZ 1005497b f i libucrt:cfout.obj
 0001:000539af       ??1scoped_fp_state_reset@?A0x48fbfdd4@@QAE@XZ 100549af f i libucrt:cfout.obj
 0001:000539c0       ??4big_integer@__crt_strtox@@QAEAAU01@ABU01@@Z 100549c0 f i libucrt:cfout.obj
 0001:00053a00       ??8__crt_strtox@@YA_NABUbig_integer@0@0@Z 10054a00 f i libucrt:cfout.obj
 0001:00053a50       ??9__crt_strtox@@YA_NABUbig_integer@0@0@Z 10054a50 f i libucrt:cfout.obj
 0001:00053ab0       ?add_carry@__crt_strtox@@YAIAAIII@Z 10054ab0 f i libucrt:cfout.obj
 0001:00053ae0       ?add_multiply_carry@__crt_strtox@@YAIAAIIII@Z 10054ae0 f i libucrt:cfout.obj
 0001:00053b10       ?bit_scan_reverse@__crt_strtox@@YAII@Z 10054b10 f i libucrt:cfout.obj
 0001:00053b40       ?count_sequential_high_zeroes@__crt_strtox@@YAII@Z 10054b40 f i libucrt:cfout.obj
 0001:00053b70       ?divide@__crt_strtox@@YA_KAAUbig_integer@1@ABU21@@Z 10054b70 f i libucrt:cfout.obj
 0001:00054150       ?is_zero@__crt_strtox@@YA_NABUbig_integer@1@@Z 10055150 f i libucrt:cfout.obj
 0001:00054170       ?make_big_integer@__crt_strtox@@YA?AUbig_integer@1@_K@Z 10055170 f i libucrt:cfout.obj
 0001:000541a0       ?make_big_integer_power_of_two@__crt_strtox@@YA?AUbig_integer@1@I@Z 100551a0 f i libucrt:cfout.obj
 0001:00054200       ?multiply@__crt_strtox@@YA_NAAUbig_integer@1@ABU21@@Z 10055200 f i libucrt:cfout.obj
 0001:000546b0       ?multiply@__crt_strtox@@YA_NAAUbig_integer@1@I@Z 100556b0 f i libucrt:cfout.obj
 0001:000547b0       ?multiply_64_32@__crt_strtox@@YA_K_KI@Z 100557b0 f i libucrt:cfout.obj
 0001:000547d0       ?multiply_by_power_of_ten@__crt_strtox@@YA_NAAUbig_integer@1@I@Z 100557d0 f i libucrt:cfout.obj
 0001:00054ed0       ?multiply_core@__crt_strtox@@YAIQAIII@Z 10055ed0 f i libucrt:cfout.obj
 0001:00054f20       ?shift_left@__crt_strtox@@YA_NAAUbig_integer@1@I@Z 10055f20 f i libucrt:cfout.obj
 0001:000550c2       ___acrt_fltout             100560c2 f   libucrt:cfout.obj
 0001:000569e6       __isatty                   100579e6 f   libucrt:isatty.obj
 0001:00056a51       ??$?RUlconv@@@__crt_internal_free_policy@@QBEXQBUlconv@@@Z 10057a51 f i libucrt:initmon.obj
 0001:00056a67       ??0?$__crt_unique_heap_ptr@Ulconv@@U__crt_internal_free_policy@@@@QAE@QAUlconv@@@Z 10057a67 f i libucrt:initmon.obj
 0001:00056a7b       ??1?$__crt_unique_heap_ptr@Ulconv@@U__crt_internal_free_policy@@@@QAE@XZ 10057a7b f i libucrt:initmon.obj
 0001:00056a91       ?detach@?$__crt_unique_heap_ptr@Ulconv@@U__crt_internal_free_policy@@@@QAEPAUlconv@@XZ 10057a91 f i libucrt:initmon.obj
 0001:00056a97       ?release@?$__crt_unique_heap_ptr@Ulconv@@U__crt_internal_free_policy@@@@QAEXXZ 10057a97 f i libucrt:initmon.obj
 0001:00056aad       ___acrt_locale_free_monetary 10057aad f   libucrt:initmon.obj
 0001:00056bea       ___acrt_locale_initialize_monetary 10057bea f   libucrt:initmon.obj
 0001:000570dd       ___acrt_locale_free_numeric 100580dd f   libucrt:initnum.obj
 0001:00057160       ___acrt_locale_initialize_numeric 10058160 f   libucrt:initnum.obj
 0001:0005744b       ??$?RU__crt_lc_time_data@@@__crt_internal_free_policy@@QBEXQBU__crt_lc_time_data@@@Z 1005844b f i libucrt:inittime.obj
 0001:000574eb       ??0?$__crt_unique_heap_ptr@U__crt_lc_time_data@@U__crt_internal_free_policy@@@@QAE@QAU__crt_lc_time_data@@@Z 100584eb f i libucrt:inittime.obj
 0001:000574ff       ??1?$__crt_unique_heap_ptr@U__crt_lc_time_data@@U__crt_internal_free_policy@@@@QAE@XZ 100584ff f i libucrt:inittime.obj
 0001:00057515       ??B?$__crt_unique_heap_ptr@U__crt_lc_time_data@@U__crt_internal_free_policy@@@@QBE_NXZ 10058515 f i libucrt:inittime.obj
 0001:0005751f       ?detach@?$__crt_unique_heap_ptr@U__crt_lc_time_data@@U__crt_internal_free_policy@@@@QAEPAU__crt_lc_time_data@@XZ 1005851f f i libucrt:inittime.obj
 0001:00057570       ?get@?$__crt_unique_heap_ptr@U__crt_lc_time_data@@U__crt_internal_free_policy@@@@QBEPAU__crt_lc_time_data@@XZ 10058570 f i libucrt:inittime.obj
 0001:00057908       ?is_valid@?$__crt_unique_heap_ptr@U__crt_lc_time_data@@U__crt_internal_free_policy@@@@QBE_NXZ 10058908 f i libucrt:inittime.obj
 0001:00057912       ?release@?$__crt_unique_heap_ptr@U__crt_lc_time_data@@U__crt_internal_free_policy@@@@QAEXXZ 10058912 f i libucrt:inittime.obj
 0001:00057928       ___acrt_locale_free_time   10058928 f   libucrt:inittime.obj
 0001:00057a45       ___acrt_locale_initialize_time 10058a45 f   libucrt:inittime.obj
 0001:00057be3       _wcsncpy_s                 10058be3 f   libucrt:wcsncpy_s.obj
 0001:00057bf0       _wcscspn                   10058bf0 f   libucrt:wcscspn.obj
 0001:00057c54       _wcsncmp                   10058c54 f   libucrt:wcsncmp.obj
 0001:00057c9c       _wcspbrk                   10058c9c f   libucrt:wcspbrk.obj
 0001:00057cf2       ___acrt_GetStringTypeA     10058cf2 f   libucrt:getstringtypea.obj
 0001:00058766       ___acrt_get_qualified_locale 10059766 f   libucrt:get_qualified_locale.obj
 0001:0005930d       ___acrt_get_qualified_locale_downlevel 1005a30d f   libucrt:getqloc_downlevel.obj
 0001:00059595       _localeconv                1005a595 f   libucrt:localeconv.obj
 0001:000595c9       __wcsnicmp                 1005a5c9 f   libucrt:wcsnicmp.obj
 0001:000596af       __wcsnicmp_l               1005a6af f   libucrt:wcsnicmp.obj
 0001:000597f0       _strncmp                   1005a7f0 f   libucrt:strncmp.obj
 0001:00059886       __strnicmp                 1005a886 f   libucrt:strnicmp.obj
 0001:0005990d       __strnicmp_l               1005a90d f   libucrt:strnicmp.obj
 0001:000599f1       ??$__vcrt_va_start_verify_argument_type@$$CBH@@YAXXZ 1005a9f1 f i libucrt:open.obj
 0001:00059da8       ??$tsopen_nolock@PAHABQAHABQBDABHABHABHABH@?$__crt_char_traits@D@@SAH$$QAPAHABQAHABQBDABH333@Z 1005ada8 f i libucrt:open.obj
 0001:00059de6       ??$tsopen_nolock@PAHABQAHABQB_WABHABHABHABH@?$__crt_char_traits@_W@@SAH$$QAPAHABQAHABQB_WABH333@Z 1005ade6 f i libucrt:open.obj
 0001:00059e24       ??$tsopen_nolock@PAHPAHABQBDABHHABHH@?$__crt_char_traits@D@@SAH$$QAPAH0ABQBDABH$$QAH23@Z 1005ae24 f i libucrt:open.obj
 0001:00059e62       ??$tsopen_nolock@PAHPAHABQB_WABHHABHH@?$__crt_char_traits@_W@@SAH$$QAPAH0ABQB_WABH$$QAH23@Z 1005ae62 f i libucrt:open.obj
 0001:0005a630       __open                     1005b630 f   libucrt:open.obj
 0001:0005a64e       __sopen                    1005b64e f   libucrt:open.obj
 0001:0005a690       __sopen_dispatch           1005b690 f   libucrt:open.obj
 0001:0005a69d       __sopen_nolock             1005b69d f   libucrt:open.obj
 0001:0005a702       __sopen_s                  1005b702 f   libucrt:open.obj
 0001:0005a72a       __wopen                    1005b72a f   libucrt:open.obj
 0001:0005a748       __wsopen                   1005b748 f   libucrt:open.obj
 0001:0005a78a       __wsopen_dispatch          1005b78a f   libucrt:open.obj
 0001:0005a797       __wsopen_nolock            1005b797 f   libucrt:open.obj
 0001:0005ab8a       __wsopen_s                 1005bb8a f   libucrt:open.obj
 0001:0005abb2       ___p__commode              1005bbb2 f   libucrt:ncommode.obj
 0001:0005abb8       ___acrt_stdio_allocate_buffer_nolock 1005bbb8 f   libucrt:_getbuf.obj
 0001:0005ac2c       ??$?RV<lambda_4980db0136e49a56f91ef52c46ca659a>@@AAV<lambda_6e3e78bb6855d1e4040e022c1b427e22>@@V<lambda_9c074eaf62197b4fd0274ed9e7824161>@@@?$__crt_seh_guarded_call@G@@QAEG$$QAV<lambda_4980db0136e49a56f91ef52c46ca659a>@@AAV<lambda_6e3e78bb6855d1e4040e022c1b427e22>@@$$QAV<lambda_9c074eaf62197b4fd0274ed9e7824161>@@@Z 1005bc2c f i libucrt:putwch.obj
 0001:0005aca1       ??$__acrt_lock_and_call@V<lambda_6e3e78bb6855d1e4040e022c1b427e22>@@@@YAGW4__acrt_lock_id@@$$QAV<lambda_6e3e78bb6855d1e4040e022c1b427e22>@@@Z 1005bca1 f i libucrt:putwch.obj
 0001:0005ad39       __putwch                   1005bd39 f   libucrt:putwch.obj
 0001:0005ad5d       __putwch_nolock            1005bd5d f   libucrt:putwch.obj
 0001:0005adb3       _nextafter                 1005bdb3 f   libucrt:nextafter.obj
 0001:0005add9       ??1scoped_global_state_reset@__crt_state_management@@QAE@XZ 1005bdd9 f i libucrt:qsort.obj
 0001:0005aef0       _qsort                     1005bef0 f   libucrt:qsort.obj
 0001:0005b44d       _strncpy_s                 1005c44d f   libucrt:strncpy_s.obj
 0001:0005b460       _strpbrk                   1005c460 f   libucrt:strpbrk.obj
 0001:0005b4b0       __mbsdec                   1005c4b0 f   libucrt:mbsdec.obj
 0001:0005b4cc       __mbsdec_l                 1005c4cc f   libucrt:mbsdec.obj
 0001:0005b58e       __wcsnicoll                1005c58e f   libucrt:wcsnicol.obj
 0001:0005b692       __wcsnicoll_l              1005c692 f   libucrt:wcsnicol.obj
 0001:0005b80a       __strnicoll                1005c80a f   libucrt:strnicol.obj
 0001:0005b83d       __strnicoll_l              1005c83d f   libucrt:strnicol.obj
 0001:0005b978       __msize                    1005c978 f   libucrt:msize.obj
 0001:0005b9b7       ___strncnt                 1005c9b7 f   libucrt:strncnt.obj
 0001:0005bb13       ___acrt_GetLocaleInfoA     1005cb13 f   libucrt:getlocaleinfoa.obj
 0001:0005bd31       _fegetenv                  1005cd31 f   libucrt:fegetenv.obj
 0001:0005bd55       _fesetenv                  1005cd55 f   libucrt:fesetenv.obj
 0001:0005bdb0       _feholdexcept              1005cdb0 f   libucrt:feholdexcept.obj
 0001:0005be20       _log10                     1005ce20 f   libucrt:log10.obj
 0001:0005be60       __CIlog10                  1005ce60 f   libucrt:log10.obj
 0001:0005be9b       __CIlog10_default          1005ce9b f   libucrt:log10.obj
 0001:0005beaf       __log10_default            1005ceaf     libucrt:log10.obj
 0001:0005bfd0       _ceil                      1005cfd0 f   libucrt:ceil_pentium4.obj
 0001:0005c010       __ceil_pentium4            1005d010 f   libucrt:ceil_pentium4.obj
 0001:0005c134       __wcsicmp                  1005d134 f   libucrt:wcsicmp.obj
 0001:0005c1ee       __wcsicmp_l                1005d1ee f   libucrt:wcsicmp.obj
 0001:0005c306       __towlower_l               1005d306 f   libucrt:towlower.obj
 0001:0005c401       _towlower                  1005d401 f   libucrt:towlower.obj
 0001:0005c420       ___ascii_strnicmp          1005d420 f   libucrt:_strnicm.obj
 0001:0005c499       ??$__crt_interlocked_read@H@@YAHPDH@Z 1005d499 f i libucrt:setmode.obj
 0001:0005c4a8       __get_fmode                1005d4a8 f   libucrt:setmode.obj
 0001:0005c4df       __set_fmode                1005d4df f   libucrt:setmode.obj
 0001:0005c52b       __setmode                  1005d52b f   libucrt:setmode.obj
 0001:0005c67c       __setmode_nolock           1005d67c f   libucrt:setmode.obj
 0001:0005c781       ??$?RV<lambda_4cfda81533ccf5a03113a1ca40a30445>@@AAV<lambda_1cffa78e445b1da5fba1a2e0e533226f>@@V<lambda_68c952aa1b860373b2109ef12d0bba9d>@@@?$__crt_seh_guarded_call@H@@QAEH$$QAV<lambda_4cfda81533ccf5a03113a1ca40a30445>@@AAV<lambda_1cffa78e445b1da5fba1a2e0e533226f>@@$$QAV<lambda_68c952aa1b860373b2109ef12d0bba9d>@@@Z 1005d781 f i libucrt:chsize.obj
 0001:0005c82b       ??$__acrt_lowio_lock_fh_and_call@V<lambda_1cffa78e445b1da5fba1a2e0e533226f>@@@@YAHH$$QAV<lambda_1cffa78e445b1da5fba1a2e0e533226f>@@@Z 1005d82b f i libucrt:chsize.obj
 0001:0005c90d       __chsize                   1005d90d f   libucrt:chsize.obj
 0001:0005c930       __chsize_nolock            1005d930 f   libucrt:chsize.obj
 0001:0005cb25       __chsize_s                 1005db25 f   libucrt:chsize.obj
 0001:0005cbe6       __umask                    1005dbe6 f   libucrt:umask.obj
 0001:0005cc14       __umask_s                  1005dc14 f   libucrt:umask.obj
 0001:0005cc5d       ___dcrt_lowio_initialize_console_output 1005dc5d f   libucrt:initcon.obj
 0001:0005cc83       ___dcrt_terminate_console_output 1005dc83 f   libucrt:initcon.obj
 0001:0005cc9f       _nexttoward                1005dc9f f   libucrt:nexttoward.obj
 0001:0005ce50       ___acrt_CompareStringW     1005de50 f   libucrt:comparestringw.obj
 0001:0005d224       ___acrt_CompareStringA     1005e224 f   libucrt:comparestringa.obj
 0001:0005d27e       ___acrt_fenv_get_fp_status_word_from_exception_mask 1005e27e f   libucrt:_fenvutils.obj
 0001:0005d6c1       __getfpcontrolword         1005e6c1 f   libucrt:_fenvutils.obj
 0001:0005d714       __getfpstatusword          1005e714 f   libucrt:_fenvutils.obj
 0001:0005d7e6       __setfpcontrolword         1005e7e6 f   libucrt:_fenvutils.obj
 0001:0005d886       __setfpstatusword          1005e886 f   libucrt:_fenvutils.obj
 0001:0005dabc       ___control87_2             1005eabc f   libucrt:ieee87.obj
 0001:0005e090       ___fpreset_sse2            1005f090 f   libucrt:ieee87.obj
 0001:0005e2e3       __clearfp                  1005f2e3 f   libucrt:ieee87.obj
 0001:0005e3f8       __control87                1005f3f8 f   libucrt:ieee87.obj
 0001:0005e7ba       __controlfp                1005f7ba f   libucrt:ieee87.obj
 0001:0005e7da       __fpreset                  1005f7da f   libucrt:ieee87.obj
 0001:0005e8d7       __set_controlfp            1005f8d7 f   libucrt:ieee87.obj
 0001:0005e96d       __statusfp                 1005f96d f   libucrt:ieee87.obj
 0001:0005ea30       __statusfp2                1005fa30 f   libucrt:ieee87.obj
 0001:0005eaad       ___acrt_initialize_sse2    1005faad f   libucrt:mathfcns.obj
 0001:0005eabf       __set_SSE2_enable          1005fabf f   libucrt:mathfcns.obj
 0001:0005eaf0       __CIlog10_pentium4         1005faf0 f   libucrt:log10_pentium4.obj
 0001:0005eb08       __log10_pentium4           1005fb08     libucrt:log10_pentium4.obj
 0001:0005ee41       __fFEXP                    1005fe41     libucrt:87tran.obj
 0001:0005ee98       __rtinfpopse               1005fe98     libucrt:87tran.obj
 0001:0005ee9a       __rtinfnpopse              1005fe9a     libucrt:87tran.obj
 0001:0005eeaa       __fFLN                     1005feaa     libucrt:87tran.obj
 0001:0005ef5f       __rtinfpop                 1005ff5f     libucrt:87tran.obj
 0001:0005ef61       __rtinfnpop                1005ff61     libucrt:87tran.obj
 0001:0005ef7e       __ffexpm1                  1005ff7e     libucrt:87tran.obj
 0001:0005f0b0       __trandisp1                100600b0 f   libucrt:87disp.obj
 0001:0005f117       __trandisp2                10060117 f   libucrt:87disp.obj
 0001:0005f1a3       __rttospopde               100601a3     libucrt:87disp.obj
 0001:0005f1a8       __rttospop                 100601a8     libucrt:87disp.obj
 0001:0005f1aa       __rtnospop                 100601aa     libucrt:87disp.obj
 0001:0005f1ac       __rttosnpop                100601ac     libucrt:87disp.obj
 0001:0005f1ad       __rtnospopde               100601ad     libucrt:87disp.obj
 0001:0005f1b4       __rtzeropop                100601b4     libucrt:87disp.obj
 0001:0005f1b6       __rtzeronpop               100601b6     libucrt:87disp.obj
 0001:0005f1bb       __rtzerospop               100601bb     libucrt:87disp.obj
 0001:0005f1c8       __rtonepop                 100601c8     libucrt:87disp.obj
 0001:0005f1ca       __rtonenpop                100601ca     libucrt:87disp.obj
 0001:0005f1cf       __tosnan1                  100601cf     libucrt:87disp.obj
 0001:0005f1fa       __nosnan2                  100601fa     libucrt:87disp.obj
 0001:0005f1fc       __tosnan2                  100601fc     libucrt:87disp.obj
 0001:0005f224       __nan2                     10060224     libucrt:87disp.obj
 0001:0005f263       __rtindfpop                10060263     libucrt:87disp.obj
 0001:0005f265       __rtindfnpop               10060265     libucrt:87disp.obj
 0001:0005f276       __rttosnpopde              10060276     libucrt:87disp.obj
 0001:0005f280       __rtatan2inf               10060280     libucrt:87disp.obj
 0001:0005f29d       __rtchsifneg               1006029d     libucrt:87disp.obj
 0001:0005f321       ___setfflag                10060321 f   libucrt:fp_flags.obj
 0001:0005f340       __twoToTOS                 10060340 f   libucrt:common.obj
 0001:0005f355       __load_CW                  10060355 f   libucrt:common.obj
 0001:0005f36c       __convertTOStoQNaN         1006036c f   libucrt:common.obj
 0001:0005f385       __fload_withFB             10060385 f   libucrt:common.obj
 0001:0005f3c8       __checkTOS_withFB          100603c8 f   libucrt:common.obj
 0001:0005f3de       __fast_exit                100603de f   libucrt:common.obj
 0001:0005f3eb       __math_exit                100603eb f   libucrt:common.obj
 0001:0005f415       __check_overflow_exit      10060415 f   libucrt:common.obj
 0001:0005f429       __check_range_exit         10060429 f   libucrt:common.obj
 0001:0005f530       __startTwoArgErrorHandling 10060530 f   libucrt:genexcep.obj
 0001:0005f547       __startOneArgErrorHandling 10060547 f   libucrt:genexcep.obj
 0001:0005f597       ___libm_error_support      10060597 f   libucrt:libm_error.obj
 0001:0005f835       ___libm_setusermatherr     10060835 f   libucrt:libm_error.obj
 0001:0005f86e       __ceil_default             1006086e f   libucrt:ceil.obj
 0001:0005f955       ___acrt_LCMapStringW       10060955 f   libucrt:lcmapstringw.obj
 0001:0005f9a2       ___p__fmode                100609a2 f   libucrt:txtmode.obj
 0001:0005f9a8       __d_int                    100609a8 f   libucrt:_test.obj
 0001:0005faf0       __dtest                    10060af0 f   libucrt:_test.obj
 0001:0005fb6d       __fd_int                   10060b6d f   libucrt:_test.obj
 0001:0005fc6f       __fdtest                   10060c6f f   libucrt:_test.obj
 0001:0005fcd0       __fperrraise               10060cd0 f   libucrt:_test.obj
 0001:0005fcfb       __ld_int                   10060cfb f   libucrt:_test.obj
 0001:0005fd08       __ldtest                   10060d08 f   libucrt:_test.obj
 0001:0005fdad       __controlfp_s              10060dad f   libucrt:contrlfp.obj
 0001:0005fe23       __d_inttype                10060e23 f   libucrt:powhlp.obj
 0001:0005fea7       __powhlp                   10060ea7 f   libucrt:powhlp.obj
 0001:0006001c       __87except                 1006101c f   libucrt:87except.obj
 0001:00060169       __frnd                     10061169 f   libucrt:frnd.obj
 0001:00060184       _fegetexceptflag           10061184 f   libucrt:fegetexceptflag.obj
 0001:000601c1       _fesetexceptflag           100611c1 f   libucrt:fesetexceptflag.obj
 0001:00060222       _fetestexcept              10061222 f   libucrt:fetestexcept.obj
 0001:00060250       __FindPESection            10061250 f   LIBCMT:pesect.obj
 0001:000602b0       __IsNonwritableInCurrentImage 100612b0 f   LIBCMT:pesect.obj
 0001:000603a0       __ValidateImageBase        100613a0 f   LIBCMT:pesect.obj
 0001:000603e0       __aulldvrm                 100613e0 f   LIBCMT:ulldvrm.obj
 0001:0006049a       ??1type_info@@UAE@XZ       1006149a f   LIBCMT:std_type_info_static.obj
 0001:000604a1       ??_Etype_info@@UAEPAXI@Z   100614a1 f i LIBCMT:std_type_info_static.obj
 0001:000604a1       ??_Gtype_info@@UAEPAXI@Z   100614a1 f i LIBCMT:std_type_info_static.obj
 0001:000604d0       __SEH_prolog4_GS           100614d0 f   LIBCMT:_sehprolg4gs_.obj
 0001:00060519       __SEH_epilog4_GS           10061519 f   LIBCMT:_sehprolg4gs_.obj
 0001:00060540       __allmul                   10061540 f   LIBCMT:llmul.obj
 0001:00060590       __alldvrm                  10061590 f   LIBCMT:lldvrm.obj
 0001:000606b0       __aullshr                  100616b0 f   LIBCMT:ullshr.obj
 0001:000606e0       __chkstk                   100616e0 f   LIBCMT:chkstk.obj
 0001:000606e0       __alloca_probe             100616e0 f   LIBCMT:chkstk.obj
 0001:00060720       __alloca_probe_16          10061720 f   LIBCMT:alloca16.obj
 0001:00060736       __alloca_probe_8           10061736     LIBCMT:alloca16.obj
 0001:00060760       __allshl                   10061760 f   LIBCMT:llshl.obj
 0001:00060790       __ftol2_sse                10061790 f   LIBCMT:_ftol2_.obj
 0001:00060799       __ftol2_pentium4           10061799 f   LIBCMT:_ftol2_.obj
 0001:000607ac       __ftol2_sse_excpt          100617ac f   LIBCMT:_ftol2_.obj
 0001:000607d0       __ftol2                    100617d0 f   LIBCMT:_ftol2_.obj
 0001:00060872       __initialize_default_precision 10061872 f   LIBCMT:default_precision.obj
 0001:0006089b       ??3@YAXPAXI@Z              1006189b f   LIBCMT:delete_scalar_size.obj
 0001:000608ac       ??3@YAXPAX@Z               100618ac f   LIBCMT:delete_scalar.obj
 0001:000608b2       _InterlockedPushEntrySList@8 100618b2 f   kernel32:KERNEL32.dll
 0001:000608b8       _InterlockedFlushSList@4   100618b8 f   kernel32:KERNEL32.dll
 0001:000608be       _RtlUnwind@16              100618be f   kernel32:KERNEL32.dll
 0001:000608c4       _GetLastError@0            100618c4 f   kernel32:KERNEL32.dll
 0001:000608ca       _SetLastError@4            100618ca f   kernel32:KERNEL32.dll
 0001:000608d0       _EnterCriticalSection@4    100618d0 f   kernel32:KERNEL32.dll
 0001:000608d6       _LeaveCriticalSection@4    100618d6 f   kernel32:KERNEL32.dll
 0001:000608dc       _DeleteCriticalSection@4   100618dc f   kernel32:KERNEL32.dll
 0001:000608e2       _InitializeCriticalSectionAndSpinCount@8 100618e2 f   kernel32:KERNEL32.dll
 0001:000608e8       _TlsAlloc@0                100618e8 f   kernel32:KERNEL32.dll
 0001:000608ee       _TlsGetValue@4             100618ee f   kernel32:KERNEL32.dll
 0001:000608f4       _TlsSetValue@8             100618f4 f   kernel32:KERNEL32.dll
 0001:000608fa       _TlsFree@4                 100618fa f   kernel32:KERNEL32.dll
 0001:00060900       _FreeLibrary@4             10061900 f   kernel32:KERNEL32.dll
 0001:00060906       _LoadLibraryExW@12         10061906 f   kernel32:KERNEL32.dll
 0001:0006090c       _GetStdHandle@4            1006190c f   kernel32:KERNEL32.dll
 0001:00060912       _GetFileType@4             10061912 f   kernel32:KERNEL32.dll
 0001:00060918       _GetModuleFileNameA@12     10061918 f   kernel32:KERNEL32.dll
 0001:0006091e       _GetModuleFileNameW@12     1006191e f   kernel32:KERNEL32.dll
 0001:00060924       _GetModuleHandleExW@12     10061924 f   kernel32:KERNEL32.dll
 0001:0006092a       _WriteConsoleW@20          1006192a f   kernel32:KERNEL32.dll
 0001:00060930       _ExitProcess@4             10061930 f   kernel32:KERNEL32.dll
 0001:00060936       _RaiseException@16         10061936 f   kernel32:KERNEL32.dll
 0001:0006093c       _MultiByteToWideChar@24    1006193c f   kernel32:KERNEL32.dll
 0001:00060942       _WideCharToMultiByte@32    10061942 f   kernel32:KERNEL32.dll
 0001:00060948       _HeapFree@12               10061948 f   kernel32:KERNEL32.dll
 0001:0006094e       _HeapAlloc@12              1006194e f   kernel32:KERNEL32.dll
 0001:00060954       _GetDateFormatW@24         10061954 f   kernel32:KERNEL32.dll
 0001:0006095a       _GetTimeFormatW@24         1006195a f   kernel32:KERNEL32.dll
 0001:00060960       _CompareStringW@24         10061960 f   kernel32:KERNEL32.dll
 0001:00060966       _LCMapStringW@24           10061966 f   kernel32:KERNEL32.dll
 0001:0006096c       _GetLocaleInfoW@16         1006196c f   kernel32:KERNEL32.dll
 0001:00060972       _IsValidLocale@8           10061972 f   kernel32:KERNEL32.dll
 0001:00060978       _GetUserDefaultLCID@0      10061978 f   kernel32:KERNEL32.dll
 0001:0006097e       _EnumSystemLocalesW@8      1006197e f   kernel32:KERNEL32.dll
 0001:00060984       _GetCurrentThread@0        10061984 f   kernel32:KERNEL32.dll
 0001:0006098a       _GetACP@0                  1006198a f   kernel32:KERNEL32.dll
 0001:00060990       _WriteFile@20              10061990 f   kernel32:KERNEL32.dll
 0001:00060996       _OutputDebugStringA@4      10061996 f   kernel32:KERNEL32.dll
 0001:0006099c       _OutputDebugStringW@4      1006199c f   kernel32:KERNEL32.dll
 0001:000609a2       _CloseHandle@4             100619a2 f   kernel32:KERNEL32.dll
 0001:000609a8       _WaitForSingleObjectEx@12  100619a8 f   kernel32:KERNEL32.dll
 0001:000609ae       _CreateThread@24           100619ae f   kernel32:KERNEL32.dll
 0001:000609b4       _SetConsoleCtrlHandler@8   100619b4 f   kernel32:KERNEL32.dll
 0001:000609ba       _HeapReAlloc@16            100619ba f   kernel32:KERNEL32.dll
 0001:000609c0       _ReadFile@20               100619c0 f   kernel32:KERNEL32.dll
 0001:000609c6       _GetConsoleMode@8          100619c6 f   kernel32:KERNEL32.dll
 0001:000609cc       _ReadConsoleW@20           100619cc f   kernel32:KERNEL32.dll
 0001:000609d2       _GetConsoleCP@0            100619d2 f   kernel32:KERNEL32.dll
 0001:000609d8       _DeleteFileW@4             100619d8 f   kernel32:KERNEL32.dll
 0001:000609de       _SetFilePointerEx@20       100619de f   kernel32:KERNEL32.dll
 0001:000609e4       _FindClose@4               100619e4 f   kernel32:KERNEL32.dll
 0001:000609ea       _FindFirstFileExA@24       100619ea f   kernel32:KERNEL32.dll
 0001:000609f0       _FindFirstFileExW@24       100619f0 f   kernel32:KERNEL32.dll
 0001:000609f6       _FindNextFileA@8           100619f6 f   kernel32:KERNEL32.dll
 0001:000609fc       _FindNextFileW@8           100619fc f   kernel32:KERNEL32.dll
 0001:00060a02       _IsValidCodePage@4         10061a02 f   kernel32:KERNEL32.dll
 0001:00060a08       _GetOEMCP@0                10061a08 f   kernel32:KERNEL32.dll
 0001:00060a0e       _GetCPInfo@8               10061a0e f   kernel32:KERNEL32.dll
 0001:00060a14       _GetCommandLineA@0         10061a14 f   kernel32:KERNEL32.dll
 0001:00060a1a       _GetCommandLineW@0         10061a1a f   kernel32:KERNEL32.dll
 0001:00060a20       _GetEnvironmentStringsW@0  10061a20 f   kernel32:KERNEL32.dll
 0001:00060a26       _FreeEnvironmentStringsW@4 10061a26 f   kernel32:KERNEL32.dll
 0001:00060a2c       _SetEnvironmentVariableA@8 10061a2c f   kernel32:KERNEL32.dll
 0001:00060a32       _SetEnvironmentVariableW@8 10061a32 f   kernel32:KERNEL32.dll
 0001:00060a38       _GetProcessHeap@0          10061a38 f   kernel32:KERNEL32.dll
 0001:00060a3e       _GetStringTypeW@16         10061a3e f   kernel32:KERNEL32.dll
 0001:00060a44       _FlushFileBuffers@4        10061a44 f   kernel32:KERNEL32.dll
 0001:00060a4a       _SetStdHandle@8            10061a4a f   kernel32:KERNEL32.dll
 0001:00060a50       _CreateFileW@28            10061a50 f   kernel32:KERNEL32.dll
 0001:00060a56       _HeapSize@12               10061a56 f   kernel32:KERNEL32.dll
 0001:00060a5c       _SetEndOfFile@4            10061a5c f   kernel32:KERNEL32.dll
 0001:00060a62       _EncodePointer@4           10061a62 f   kernel32:KERNEL32.dll
 0001:00060a68       _DecodePointer@4           10061a68 f   kernel32:KERNEL32.dll
 0001:00060a70       _strrchr                   10061a70 f   libvcruntime:strrchr.obj
 0001:00060d57       _memcmp                    10061d57 f   libvcruntime:_memcmp_.obj
 0001:0006483f       _wcschr                    1006583f f   libvcruntime:wcschr.obj
 0002:00000000       ___xc_a                    10066000     LIBCMT:initializers.obj
 0002:00000104       ___xc_z                    10066104     LIBCMT:initializers.obj
 0002:00000208       ___xi_a                    10066208     LIBCMT:initializers.obj
 0002:0000030c       ___acrt_stdio_initializer  1006630c     libucrt:stdio_initializer.obj
 0002:00000310       ___acrt_multibyte_initializer 10066310     libucrt:multibyte_initializer.obj
 0002:00000314       ___acrt_tran_sse2_initializer 10066314     libucrt:sse2_initializer.obj
 0002:0000041c       ___xi_z                    1006641c     LIBCMT:initializers.obj
 0002:00000520       ___xp_a                    10066520     LIBCMT:initializers.obj
 0002:00000624       ___acrt_locale_terminator  10066624     libucrt:locale_initializer.obj
 0002:00000628       ___dcrt_console_output_terminator 10066628     libucrt:console_output_initializer.obj
 0002:00000730       ___acrt_stdio_terminator   10066730     libucrt:stdio_initializer.obj
 0002:00000834       ___xp_z                    10066834     LIBCMT:initializers.obj
 0002:00000938       ___xt_a                    10066938     LIBCMT:initializers.obj
 0002:00000a3c       ___xt_z                    10066a3c     LIBCMT:initializers.obj
 0002:00000b40       ??_C@_00CNPNBAHC@?$AA@     10066b40     PID_LoadCell_Magnet.obj
 0002:00000b44       ??_C@_08INHBMDAJ@Setpoint?$AA@ 10066b44     PID_LoadCell_Magnet.obj
 0002:00000b50       ??_C@_0M@OCJOIDIA@Error?5Sigal?$AA@ 10066b50     PID_LoadCell_Magnet.obj
 0002:00000b60       ??_C@_0P@HGGDJAMI@Motor?5Position?$AA@ 10066b60     PID_LoadCell_Magnet.obj
 0002:00000b74       ??_C@_0CB@CNKEEOFE@PID_LoadCell_Magnet?1setpoint_Out@ 10066b74     PID_LoadCell_Magnet.obj
 0002:00000b9c       ??_C@_0CE@GEEEOEEM@PID_LoadCell_Magnet?1errorSignal_@ 10066b9c     PID_LoadCell_Magnet.obj
 0002:00000bc8       ??_C@_0CB@CDKIAAEG@PID_LoadCell_Magnet?1motorPos_Out@ 10066bc8     PID_LoadCell_Magnet.obj
 0002:00000bf0       ??_C@_0CA@IENLMIAP@PID_LoadCell_Magnet?1loadCell_In?$AA@ 10066bf0     PID_LoadCell_Magnet.obj
 0002:00000c18       _PID_LoadCell_Magnet_M     10066c18     PID_LoadCell_Magnet.obj
 0002:00000c94       ??_C@_0BI@PEBACBDB@Error?5creating?5scope?53?6?$AA@ 10066c94     PID_LoadCell_Magnet.obj
 0002:00000cb0       ??_C@_07PFAGFFFO@Gain?1s1?$AA@ 10066cb0     PID_LoadCell_Magnet.obj
 0002:00000cbc       ??_C@_07NOCLAGJN@Gain?1s2?$AA@ 10066cbc     PID_LoadCell_Magnet.obj
 0002:00000cc8       ??_C@_07MHDADHNM@Gain?1s3?$AA@ 10066cc8     PID_LoadCell_Magnet.obj
 0002:00000cd4       ??_C@_07IIHBKBBL@Gain?1s4?$AA@ 10066cd4     PID_LoadCell_Magnet.obj
 0002:00000ce0       ??_C@_0BG@HCGNMBDA@Setpoint?5?5?5?5?5?5?5?5?$CF3?42f?$AA@ 10066ce0     PID_LoadCell_Magnet.obj
 0002:00000cfc       ??_C@_0BG@KBNMBNLJ@Motor?5Position?5?5?$CF3?42f?$AA@ 10066cfc     PID_LoadCell_Magnet.obj
 0002:00000d18       ??_C@_0BG@OKNLFNOK@Error?5Signal?5?5?5?5?$CF3?42f?$AA@ 10066d18     PID_LoadCell_Magnet.obj
 0002:00000d34       ??_C@_0BH@EEADBKDE@Load?5Cell?5?$CIV?$CJ?5?5?5?5?$CF4?43f?$AA@ 10066d34     PID_LoadCell_Magnet.obj
 0002:00000d50       ??_C@_0BI@PFNCELAG@Error?5creating?5scope?52?6?$AA@ 10066d50     PID_LoadCell_Magnet.obj
 0002:00000d6c       ??_C@_04JMNNLCJG@Sum1?$AA@ 10066d6c     PID_LoadCell_Magnet.obj
 0002:00000d74       ??_C@_0BI@PDBJIJON@Error?5creating?5scope?57?6?$AA@ 10066d74     PID_LoadCell_Magnet.obj
 0002:00000d90       ??_C@_0EN@BAAEGADN@Real?5motor?1angular_position?5?$DN?5?5?$FL@ 10066d90     PID_LoadCell_Magnet.obj
 0002:00000dec       ??_C@_0BI@PHJEPFFP@Error?5creating?5scope?51?6?$AA@ 10066dec     PID_LoadCell_Magnet.obj
 0002:00000e08       ??_C@_04CNCNIFFP@gain?$AA@ 10066e08     PID_LoadCell_Magnet.obj
 0002:00000e10       ??_C@_04CMIMOENB@ode3?$AA@ 10066e10     PID_LoadCell_Magnet.obj
 0002:00000e18       ??_C@_04EPKDLPPB@tout?$AA@ 10066e18     PID_LoadCell_Magnet.obj
 0002:00000e20       ??_C@_03HBFGMJOD@rt_?$AA@  10066e20     PID_LoadCell_Magnet.obj
 0002:00000e24       ??_C@_04LHDDHLEA@yout?$AA@ 10066e24     PID_LoadCell_Magnet.obj
 0002:00000e2c       ??_C@_0BO@FGDALDHL@Channel?50?5of?5?6Encoder?5Inputs?5?$AA@ 10066e2c     PID_LoadCell_Magnet.obj
 0002:00000e50       ??_C@_0DN@POBJNFAH@PID_LoadCell_Magnet?1Real?5motor?1C@ 10066e50     PID_LoadCell_Magnet.obj
 0002:00000e9c       ??_C@_09OEBDMAHA@Load?5Cell?$AA@ 10066e9c     PID_LoadCell_Magnet.obj
 0002:00000ea8       ??_C@_0BO@DANHKCDI@PID_LoadCell_Magnet?1Load?5Cell?$AA@ 10066ea8     PID_LoadCell_Magnet.obj
 0002:00000ecc       ??_C@_0DH@LFMGCAGH@Channel?50?5?9Control?5signal?5to?5?6mo@ 10066ecc     PID_LoadCell_Magnet.obj
 0002:00000f10       ??_C@_0EL@GHHJBJML@PID_LoadCell_Magnet?1Channel?50?5?9C@ 10066f10     PID_LoadCell_Magnet.obj
 0002:00000f6c       ??_C@_06EDCPIJAI@Q4?5DO?5?$AA@ 10066f6c     PID_LoadCell_Magnet.obj
 0002:00000f74       ??_C@_0BL@DMDFABKK@PID_LoadCell_Magnet?1Q4?5DO?5?$AA@ 10066f74     PID_LoadCell_Magnet.obj
 0002:00000f94       ??_C@_06EHKCPFLK@Q4?5DI?5?$AA@ 10066f94     PID_LoadCell_Magnet.obj
 0002:00000f9c       ??_C@_0BL@DILIHNBI@PID_LoadCell_Magnet?1Q4?5DI?5?$AA@ 10066f9c     PID_LoadCell_Magnet.obj
 0002:00000fc0       __real@0000000000000000    10066fc0     PID_LoadCell_Magnet.obj
 0002:00000fd0       __real@3f50624dd2f1a9fc    10066fd0     PID_LoadCell_Magnet.obj
 0002:00000fe0       __real@3fcc71c71c71c71c    10066fe0     PID_LoadCell_Magnet.obj
 0002:00000ff0       __real@3fd5555555555555    10066ff0     PID_LoadCell_Magnet.obj
 0002:00001000       __real@3fdc71c71c71c71c    10067000     PID_LoadCell_Magnet.obj
 0002:00001010       __real@3fe0000000000000    10067010     PID_LoadCell_Magnet.obj
 0002:00001020       __real@3fe8000000000000    10067020     PID_LoadCell_Magnet.obj
 0002:00001030       __real@4008000000000000    10067030     PID_LoadCell_Magnet.obj
 0002:00001040       __real@4024000000000000    10067040     PID_LoadCell_Magnet.obj
 0002:00001050       __real@4065400000000000    10067050     PID_LoadCell_Magnet.obj
 0002:00001060       __real@4066800000000000    10067060     PID_LoadCell_Magnet.obj
 0002:00001070       __real@4069000000000000    10067070     PID_LoadCell_Magnet.obj
 0002:00001080       __real@407f400000000000    10067080     PID_LoadCell_Magnet.obj
 0002:00001090       __real@41f0000000000000    10067090     PID_LoadCell_Magnet.obj
 0002:000010a0       __real@bff0000000000000    100670a0     PID_LoadCell_Magnet.obj
 0002:000010b0       __real@c066800000000000    100670b0     PID_LoadCell_Magnet.obj
 0002:000010c0       __xmm@00000001000000010000000100000001 100670c0     PID_LoadCell_Magnet.obj
 0002:000010e0       __xmm@00000095000000140000002900000002 100670e0     PID_LoadCell_Magnet.obj
 0002:00001100       __xmm@3f50624dd2f1a9fc0000000000000000 10067100     PID_LoadCell_Magnet.obj
 0002:00001120       __xmm@41f00000000000000000000000000000 10067120     PID_LoadCell_Magnet.obj
 0002:00001140       __xmm@7fffffffffffffff7fffffffffffffff 10067140     PID_LoadCell_Magnet.obj
 0002:00001158       __real@3cb0000000000000    10067158     rt_matrx.obj
 0002:00001168       __real@3ff0000000000000    10067168     rt_matrx.obj
 0002:00001b24       ??_C@_09MODAECCC@AbsDError?$AA@ 10067b24     PID_LoadCell_Magnet_capi.obj
 0002:00001b30       ??_C@_08NMGCEGGL@AbsError?$AA@ 10067b30     PID_LoadCell_Magnet_capi.obj
 0002:00001b3c       ??_C@_03ONDNACEM@LED?$AA@  10067b3c     PID_LoadCell_Magnet_capi.obj
 0002:00001b40       ??_C@_0O@KMOEPDCA@DerivativePID?$AA@ 10067b40     PID_LoadCell_Magnet_capi.obj
 0002:00001b50       ??_C@_04OMOMKKFL@Gain?$AA@ 10067b50     PID_LoadCell_Magnet_capi.obj
 0002:00001b58       ??_C@_02HNOAOKGP@Kd?$AA@   10067b58     PID_LoadCell_Magnet_capi.obj
 0002:00001b5c       ??_C@_02MIEOJECC@Ki?$AA@   10067b5c     PID_LoadCell_Magnet_capi.obj
 0002:00001b60       ??_C@_02FDEODNDK@Kp?$AA@   10067b60     PID_LoadCell_Magnet_capi.obj
 0002:00001b64       ??_C@_0O@IAJKEFBN@IntegratorPID?$AA@ 10067b64     PID_LoadCell_Magnet_capi.obj
 0002:00001b74       ??_C@_05DIANJFID@Merge?$AA@ 10067b74     PID_LoadCell_Magnet_capi.obj
 0002:00001b7c       ??_C@_0L@EICILOBK@Saturation?$AA@ 10067b7c     PID_LoadCell_Magnet_capi.obj
 0002:00001b8c       ??_C@_0BF@LIOOJHEJ@Analog?5Filter?5Design?$AA@ 10067b8c     PID_LoadCell_Magnet_capi.obj
 0002:00001ba8       ??_C@_04OBKKEGND@Sum4?$AA@ 10067ba8     PID_LoadCell_Magnet_capi.obj
 0002:00001bb0       ??_C@_07OCBIOHEM@Switch1?$AA@ 10067bb0     PID_LoadCell_Magnet_capi.obj
 0002:00001bbc       ??_C@_0BD@KJLJAFAA@Else?5Subsystem?1In1?$AA@ 10067bbc     PID_LoadCell_Magnet_capi.obj
 0002:00001bd4       ??_C@_0BB@BAPICNDG@If?5Subsystem?1In1?$AA@ 10067bd4     PID_LoadCell_Magnet_capi.obj
 0002:00001be8       ??_C@_0CJ@GBFCCONM@Real?5motor?1Channel?50?5of?5?5Encoder@ 10067be8     PID_LoadCell_Magnet_capi.obj
 0002:00001c1c       ??_C@_02MOPPPLEE@5V?$AA@   10067c1c     PID_LoadCell_Magnet_capi.obj
 0002:00001c20       ??_C@_05LPIJGKJ@Value?$AA@ 10067c20     PID_LoadCell_Magnet_capi.obj
 0002:00001c28       ??_C@_06DGFMLKGB@Degree?$AA@ 10067c28     PID_LoadCell_Magnet_capi.obj
 0002:00001c30       ??_C@_0BC@JJDNPNE@DegreeErrorThresh?$AA@ 10067c30     PID_LoadCell_Magnet_capi.obj
 0002:00001c48       ??_C@_0BA@JBLOPHPB@RateErrorThresh?$AA@ 10067c48     PID_LoadCell_Magnet_capi.obj
 0002:00001c5c       ??_C@_08OBEDHCOE@magnetOn?$AA@ 10067c5c     PID_LoadCell_Magnet_capi.obj
 0002:00001c68       ??_C@_0BB@CFEOEMDC@InitialCondition?$AA@ 10067c68     PID_LoadCell_Magnet_capi.obj
 0002:00001c7c       ??_C@_0L@FBCGKKEN@UpperLimit?$AA@ 10067c7c     PID_LoadCell_Magnet_capi.obj
 0002:00001c8c       ??_C@_0L@DGFJOHKP@LowerLimit?$AA@ 10067c8c     PID_LoadCell_Magnet_capi.obj
 0002:00001c9c       ??_C@_0DH@HKHAPGAF@Channel?50?5?9Control?5signal?5to?5?5mo@ 10067c9c     PID_LoadCell_Magnet_capi.obj
 0002:00001ce0       ??_C@_02KKFPAPOP@P1?$AA@   10067ce0     PID_LoadCell_Magnet_capi.obj
 0002:00001ce4       ??_C@_02IBHCFMCM@P2?$AA@   10067ce4     PID_LoadCell_Magnet_capi.obj
 0002:00001ce8       ??_C@_02JIGJGNGN@P3?$AA@   10067ce8     PID_LoadCell_Magnet_capi.obj
 0002:00001cec       ??_C@_02NHCIPLKK@P4?$AA@   10067cec     PID_LoadCell_Magnet_capi.obj
 0002:00001cf0       ??_C@_02MODDMKOL@P5?$AA@   10067cf0     PID_LoadCell_Magnet_capi.obj
 0002:00001cf4       ??_C@_02OFBOJJCI@P6?$AA@   10067cf4     PID_LoadCell_Magnet_capi.obj
 0002:00001cf8       ??_C@_02PMAFKIGJ@P7?$AA@   10067cf8     PID_LoadCell_Magnet_capi.obj
 0002:00001cfc       ??_C@_02HLJNLEKG@P8?$AA@   10067cfc     PID_LoadCell_Magnet_capi.obj
 0002:00001d00       ??_C@_02GCIGIFOH@P9?$AA@   10067d00     PID_LoadCell_Magnet_capi.obj
 0002:00001d04       ??_C@_01FHEEJDEE@A?$AA@    10067d04     PID_LoadCell_Magnet_capi.obj
 0002:00001d08       ??_C@_01HMGJMAIH@B?$AA@    10067d08     PID_LoadCell_Magnet_capi.obj
 0002:00001d0c       ??_C@_01GFHCPBMG@C?$AA@    10067d0c     PID_LoadCell_Magnet_capi.obj
 0002:00001d10       ??_C@_02LNFHGPBG@X0?$AA@   10067d10     PID_LoadCell_Magnet_capi.obj
 0002:00001d14       ??_C@_09HLCHFPPJ@Threshold?$AA@ 10067d14     PID_LoadCell_Magnet_capi.obj
 0002:00001d20       ??_C@_03OPFJJGBF@P10?$AA@  10067d20     PID_LoadCell_Magnet_capi.obj
 0002:00001d24       ??_C@_03PGECKHFE@P11?$AA@  10067d24     PID_LoadCell_Magnet_capi.obj
 0002:00001d28       ??_C@_03NNGPPEJH@P12?$AA@  10067d28     PID_LoadCell_Magnet_capi.obj
 0002:00001d2c       ??_C@_06BNJCAIGJ@double?$AA@ 10067d2c     PID_LoadCell_Magnet_capi.obj
 0002:00001d34       ??_C@_06CNMIJIPB@real_T?$AA@ 10067d34     PID_LoadCell_Magnet_capi.obj
 0002:00001d3c       ??_C@_05KNFBNCOH@float?$AA@ 10067d3c     PID_LoadCell_Magnet_capi.obj
 0002:00001d44       _serialfifoground          10067d44     xpc_datatype_ground.obj
 0002:00001d50       _bcmsg1553ground           10067d50     xpc_datatype_ground.obj
 0002:00001d60       _bcstatground              10067d60     xpc_datatype_ground.obj
 0002:00001d78       _bmmsg1553ground           10067d78     xpc_datatype_ground.obj
 0002:00001db4       ??_C@_0BI@INNPNFJN@Memory?5Allocation?5Error?$AA@ 10067db4     rtw_modelmap_utils.obj
 0002:00001dd0       ??_C@_1HC@IFMGIDHA@?$AAC?$AA?3?$AA?2?$AAP?$AAR?$AAO?$AAG?$AAR?$AAA?$AA?$HO?$AA1?$AA?2?$AAM?$AAA?$AAT?$AAL?$AAA?$AAB?$AA?2?$AAR?$AA2?$AA0?$AA1?$AA7?$AAa?$AA?2?$AAr?$AAt?$AAw?$AA?2?$AAc?$AA?2@ 10067dd0     rtw_modelmap_utils.obj
 0002:00001e58       ??_C@_1CI@OEAJCJND@?$AAj?$AA?5?$AA?$DN?$AA?$DN?$AA?5?$AAe?$AAn?$AAc?$AAo?$AAd?$AAe?$AAd?$AAP?$AAa?$AAt?$AAh?$AAL?$AAe?$AAn?$AA?$AA@ 10067e58     rtw_modelmap_utils.obj
 0002:00001e88       ??_C@_1DC@NFAOIFKB@?$AAe?$AAn?$AAc?$AAo?$AAd?$AAe?$AAd?$AAP?$AAa?$AAt?$AAh?$AA?$FL?$AAj?$AA?9?$AA1?$AA?$FN?$AA?5?$AA?$DN?$AA?$DN?$AA?5?$AA?8?$AA?2?$AA0?$AA?8?$AA?$AA@ 10067e88     rtw_modelmap_utils.obj
 0002:00001ec4       ??_C@_1DI@FLNJGPEE@?$AAs?$AAi?$AAg?$AAC?$AAo?$AAm?$AAp?$AAl?$AAe?$AAx?$AAi?$AAt?$AAy?$AA?$FL?$AA?$CK?$AAs?$AAi?$AAg?$AAI?$AAd?$AAx?$AA?$FN?$AA?5?$AA?$CB?$AA?$DN?$AA?5?$AA1?$AA?$AA@ 10067ec4     rtw_modelmap_utils.obj
 0002:00001f08       ??_C@_1KI@OFELMGBG@?$AA?$CI?$AA?$CI?$AA?$CI?$AAd?$AAa?$AAt?$AAa?$AAT?$AAy?$AAp?$AAe?$AAM?$AAa?$AAp?$AA?$CJ?$AA?$FL?$AA?$CI?$AA?$CI?$AA?$CI?$AAs?$AAt?$AAa?$AAt?$AAe?$AAs?$AA?$CJ?$AA?$FL?$AA?$CI?$AAi?$AA?$CJ?$AA?$FN?$AA?4@ 10067f08     rtw_modelmap_utils.obj
 0002:00001fd4       ??_C@_1DA@ILCMPHNE@?$AAf?$AAu?$AAl?$AAl?$AAP?$AAa?$AAt?$AAh?$AA?5?$AA?$CB?$AA?$DN?$AA?5?$AA?$CI?$AA?$CI?$AAv?$AAo?$AAi?$AAd?$AA?5?$AA?$CK?$AA?$CJ?$AA0?$AA?$CJ?$AA?$AA@ 10067fd4     rtw_modelmap_utils.obj
 0002:00002010       ??_C@_1CI@OEPPFCCA@?$AAp?$AAa?$AAt?$AAh?$AA?5?$AA?$CB?$AA?$DN?$AA?5?$AA?$CI?$AA?$CI?$AAv?$AAo?$AAi?$AAd?$AA?5?$AA?$CK?$AA?$CJ?$AA0?$AA?$CJ?$AA?$AA@ 10068010     rtw_modelmap_utils.obj
 0002:00002040       ??_C@_1FK@GLJIMFHB@?$AA?$CI?$AA?$CI?$AAm?$AAm?$AAi?$AA?$CJ?$AA?9?$AA?$DO?$AAI?$AAn?$AAs?$AAt?$AAa?$AAn?$AAc?$AAe?$AAM?$AAa?$AAp?$AA?4?$AAf?$AAu?$AAl?$AAl?$AAP?$AAa?$AAt?$AAh?$AA?$CJ?$AA?5?$AA?$DN?$AA?$DN@ 10068040     rtw_modelmap_utils.obj
 0002:000020ac       ??_C@_1DG@HPCJGNCE@?$AAm?$AAm?$AAi?$AAP?$AAa?$AAt?$AAh?$AA?$FL?$AAp?$AAa?$AAt?$AAh?$AAL?$AAe?$AAn?$AA?9?$AA1?$AA?$FN?$AA?5?$AA?$DN?$AA?$DN?$AA?5?$AA?8?$AA?2?$AA0?$AA?8?$AA?$AA@ 100680ac     rtw_modelmap_utils.obj
 0002:000020ec       ??_C@_1DM@DBAOGGOO@?$AAm?$AAm?$AAi?$AAP?$AAa?$AAt?$AAh?$AA?$FL?$AAm?$AAm?$AAi?$AAP?$AAa?$AAt?$AAh?$AAL?$AAe?$AAn?$AA?9?$AA1?$AA?$FN?$AA?5?$AA?$DN?$AA?$DN?$AA?5?$AA?8?$AA?2?$AA0?$AA?8?$AA?$AA@ 100680ec     rtw_modelmap_utils.obj
 0002:00002134       ??_C@_1DC@LHIAKAFE@?$AAb?$AAl?$AAo?$AAc?$AAk?$AAP?$AAa?$AAt?$AAh?$AA?5?$AA?$CB?$AA?$DN?$AA?5?$AA?$CI?$AA?$CI?$AAv?$AAo?$AAi?$AAd?$AA?5?$AA?$CK?$AA?$CJ?$AA0?$AA?$CJ?$AA?$AA@ 10068134     rtw_modelmap_utils.obj
 0002:00002170       ??_C@_1GI@KIEJKPGC@?$AAf?$AAu?$AAl?$AAl?$AAS?$AAt?$AAa?$AAt?$AAe?$AAB?$AAl?$AAo?$AAc?$AAk?$AAP?$AAa?$AAt?$AAh?$AA?$FL?$AAf?$AAu?$AAl?$AAl?$AAS?$AAt?$AAa?$AAt?$AAe?$AAB?$AAl?$AAo?$AAc@ 10068170     rtw_modelmap_utils.obj
 0002:000021f0       ??_C@_1EE@DNPIBJHC@?$AA?$CI?$AA?$CI?$AAd?$AAi?$AAm?$AAM?$AAa?$AAp?$AA?$CJ?$AA?$FL?$AA?$CI?$AAm?$AAa?$AAp?$AAI?$AAd?$AAx?$AA?$CJ?$AA?$FN?$AA?4?$AAn?$AAu?$AAm?$AAD?$AAi?$AAm?$AAs?$AA?$CJ?$AA?5?$AA?$DN?$AA?$DN?$AA?5@ 100681f0     rtw_modelmap_utils.obj
 0002:00002244       ??_C@_06JFOKFOED@CSTATE?$AA@ 10068244     rtw_modelmap_utils.obj
 0002:0000224c       ??_C@_06FAENGAMN@DSTATE?$AA@ 1006824c     rtw_modelmap_utils.obj
 0002:00002254       ??_C@_1BI@LEBJNOGG@?$AAc?$AAs?$AAv?$AAI?$AAd?$AAx?$AA?5?$AA?$DO?$AA?$DN?$AA?5?$AA0?$AA?$AA@ 10068254     rtw_modelmap_utils.obj
 0002:00002270       ??_C@_1BA@KDMGHCHP@?$AAT?$AAI?$AAD?$AA?$DN?$AA?$DN?$AA?9?$AA1?$AA?$AA@ 10068270     rtw_modelmap_utils.obj
 0002:00002284       ??_C@_1DM@DHGKBPCE@?$AAs?$AAi?$AAg?$AAP?$AAa?$AAt?$AAh?$AA?$FL?$AAs?$AAi?$AAg?$AAP?$AAa?$AAt?$AAh?$AAL?$AAe?$AAn?$AA?9?$AA1?$AA?$FN?$AA?5?$AA?$DN?$AA?$DN?$AA?5?$AA?8?$AA?2?$AA0?$AA?8?$AA?$AA@ 10068284     rtw_modelmap_utils.obj
 0002:00002b30       ??_C@_0DJ@FHKINPLE@Unexpected?5itemKind?5?$DN?5DATA_ITEM?5@ 10068b30     rt_logging.obj
 0002:00002b74       ??_C@_0DA@IEHFPFCJ@Unexpected?5itemKind?$DN?$CFd?5in?5rt_Pro@ 10068b74     rt_logging.obj
 0002:00002bb0       ??_C@_0DA@IFLHJPBO@Unexpected?5itemKind?$DN?$CFd?5in?5rt_Pro@ 10068bb0     rt_logging.obj
 0002:00002bec       ??_C@_0DA@IAPIIJJL@Unexpected?5itemKind?$DN?$CFd?5in?5rt_Pro@ 10068bec     rt_logging.obj
 0002:00002c28       ??_C@_0BE@LCIGPJIG@MATLAB?55?40?5MAT?9file?$AA@ 10068c28     rt_logging.obj
 0002:00002c40       ??_C@_0FB@PCJEAJIB@?$CK?$CK?$CK?5Log?5variable?5?$CFs?5has?5wrapped?5@ 10068c40     rt_logging.obj
 0002:00002ca8       ??_C@_0MG@NKMLMOGF@?$CK?$CK?$CK?5To?5avoid?5wrapping?0?5explicitl@ 10068ca8     rt_logging.obj
 0002:00002d98       ??_C@_0N@IPAEOLLP@_rtw_tmw?4tmw?$AA@ 10068d98     rt_logging.obj
 0002:00002da8       ??_C@_04HDOCAJNK@?$CFs?$CFs?$AA@ 10068da8     rt_logging.obj
 0002:00002db0       ??_C@_03ELIABIOC@w?$CLb?$AA@ 10068db0     rt_logging.obj
 0002:00002db4       ??_C@_0BF@JPILDDFA@?$CK?$CK?$CK?5Error?5opening?5?$CFs?$AA@ 10068db4     rt_logging.obj
 0002:00002dd0       ??_C@_0BK@EEMDELA@unable?5to?5open?5data?5file?6?$AA@ 10068dd0     rt_logging.obj
 0002:00002df0       ??_C@_04CGFJFPFD@none?$AA@ 10068df0     rt_logging.obj
 0002:00002df8       ??_C@_0EE@LCGFPNON@?$CK?$CK?$CK?5Error?5creating?5signals?5struc@ 10068df8     rt_logging.obj
 0002:00002e4c       ??_C@_0CE@NHECEDMK@?$CK?$CK?$CK?5Error?5creating?5log?5variable?5@ 10068e4c     rt_logging.obj
 0002:00002e78       ??_C@_0DB@IOCGKAGH@?$CK?$CK?$CK?5Errors?5occurred?5when?5startin@ 10068e78     rt_logging.obj
 0002:00002eb4       ??_C@_0BO@BBLOGEBK@?$CK?$CK?$CK?5Memory?5allocation?5error?4?6?$AA@ 10068eb4     rt_logging.obj
 0002:00002ed8       ??_C@_0N@LGFBAGEL@?5?$CIreal?5part?$CJ?$AA@ 10068ed8     rt_logging.obj
 0002:00002ee8       ??_C@_0KH@CGNMHNFE@?5?5?5?5varName?5?5?5?5?5?5?5?5?5?5?$DN?5?$CFs?$CFs?6?5?5?5?5@ 10068ee8     rt_logging.obj
 0002:00002fb0       ??_C@_0LE@OALKKEFM@?5?5?5?5varName?5?5?5?5?5?5?5?5?5?5?$DN?5?$CFs?5?$CIcompl@ 10068fb0     rt_logging.obj
 0002:00003088       ??_C@_0KF@JDDLEOKO@?5?5?5?5varName?5?5?5?5?5?5?5?5?5?5?$DN?5?$CFs?6?5?5?5?5nR@ 10069088     rt_logging.obj
 0002:00003150       ??_C@_0DP@HPDMIOFM@?$CK?$CK?$CK?5Using?5a?5default?5buffer?5of?5si@ 10069150     rt_logging.obj
 0002:000031a0       ??_C@_0KE@JEFOLKNF@?6?$CK?$CK?$CK?5Memory?5required?5to?5log?5vari@ 100691a0     rt_logging.obj
 0002:00003268       ??_C@_0JP@DKLMHCBI@?$CK?$CK?$CK?5Details?3?6?5?5?5?5?5?5?5varName?5?5?5?5?5@ 10069268     rt_logging.obj
 0002:00003328       ??_C@_0CM@CAMILBED@?$CK?$CK?$CK?5Error?5allocating?5memory?5for?5@ 10069328     rt_logging.obj
 0002:0000335c       ??_C@_0DF@BBCNMOPM@?$CK?$CK?$CK?5Error?5allocating?5memory?5for?5@ 1006935c     rt_logging.obj
 0002:000033a0       ??_C@_0JP@DBCLPCCI@?$CK?$CK?$CK?5Details?3?6?5?5?5?5?5?5?5varName?5?5?5?5?5@ 100693a0     rt_logging.obj
 0002:00003460       ??_C@_0FK@DPGAOBGA@?$CK?$CK?$CK?5Error?5allocating?5memory?5for?5@ 10069460     rt_logging.obj
 0002:000034cc       ??_C@_0BI@GGDNPHLJ@?$CK?$CK?$CK?5Error?5writing?5to?5?$CFs?$AA@ 100694cc     rt_logging.obj
 0002:000034e8       ??_C@_0CB@IBGJGELG@?$CK?$CK?$CK?5Error?5writing?5?$CFs?5due?5to?3?5?$CFs?6@ 100694e8     rt_logging.obj
 0002:00003510       ??_C@_0CN@FLMCHCPB@?$CK?$CK?$CK?5Error?5writing?5log?5variable?5?$CF@ 10069510     rt_logging.obj
 0002:00003548       ??_C@_0DH@GAJCNOJP@?$CK?$CK?$CK?5Error?5writing?5structure?5log?5@ 10069548     rt_logging.obj
 0002:0000358c       ??_C@_0BD@POEALECL@?$CK?$CK?5created?5?$CFs?5?$CK?$CK?6?6?$AA@ 1006958c     rt_logging.obj
 0002:000035a8       __real@4020000000000000    100695a8     rt_logging.obj
 0002:000035b8       __real@41dfffffffc00000    100695b8     rt_logging.obj
 0002:000035c8       __real@41efffffffe00000    100695c8     rt_logging.obj
 0002:000035d8       __real@4330000000000000    100695d8     rt_logging.obj
 0002:000035e8       __real@8000000000000000    100695e8     rt_logging.obj
 0002:000035f8       __real@bfbf9add3afd2773    100695f8     rt_logging.obj
 0002:00003608       __real@c000000000000000    10069608     rt_logging.obj
 0002:00003620       __xmm@20202020202020202020202020202020 10069620     rt_logging.obj
 0002:00003634       ??_C@_0BE@EDLJHFBJ@PID_LoadCell_Magnet?$AA@ 10069634     xpctarget.obj
 0002:0000364c       _ptsetfilename             1006964c     xpctarget.obj
 0002:00003650       _xmlfile                   10069650     xpctarget.obj
 0002:00003658       ??_C@_0L@CHBJKKFC@xpceSetVar?$AA@ 10069658     xpctarget.obj
 0002:00003668       ??_C@_03LADEHNAB@6?46?$AA@ 10069668     xpctarget.obj
 0002:00003670       __real@3fb999999999999a    10069670     xpctarget.obj
 0002:00003680       __real@408f400000000000    10069680     xpctarget.obj
 0002:00003690       _PID_LoadCell_Magnet_BIOMAP 10069690     appmappingData.obj
 0002:000037a4       _PID_LoadCell_Magnet_dtmap 100697a4     appmappingData.obj
 0002:000037b0       _PID_LoadCell_Magnet_LBLMAP 100697b0     appmappingData.obj
 0002:000038c8       _PID_LoadCell_Magnet_SIDMAP 100698c8     appmappingData.obj
 0002:000039e0       _PID_LoadCell_Magnet_SBIO  100699e0     appmappingData.obj
 0002:00003a40       _PID_LoadCell_Magnet_SLBL  10069a40     appmappingData.obj
 0002:00003aa0       _PID_LoadCell_Magnet_PTIDSMAP 10069aa0     appmappingData.obj
 0002:00003c90       _PID_LoadCell_Magnet_PTNAMESMAP 10069c90     appmappingData.obj
 0002:00003e80       _PID_LoadCell_Magnet_SPTMAP 10069e80     appmappingData.obj
 0002:00003f78       _appInfo                   10069f78     appmappingData.obj
 0002:0000419c       ??_C@_0CC@FIFFDAB@?$CFd?5input?5args?5expected?0?5?$CFd?5passe@ 1006a19c     adquanserq8.obj
 0002:000041c4       ??_C@_0L@GPCJJFPH@Quanser?5Q8?$AA@ 1006a1c4     adquanserq8.obj
 0002:000041d4       ??_C@_0L@MDJMNKPL@Quanser?5Q4?$AA@ 1006a1d4     adquanserq8.obj
 0002:000041e4       ??_C@_0BI@IHCNPKCM@No?5?$CFs?5at?5bus?5?$CFd?5slot?5?$CFd?$AA@ 1006a1e4     adquanserq8.obj
 0002:00004200       ??_C@_0BN@HPKICLI@?$CFs?5A?1D?5driver?5internal?5error?$AA@ 1006a200     adquanserq8.obj
 0002:00004228       __real@3f54000000000000    1006a228     adquanserq8.obj
 0002:00004234       ??_C@_0BK@DJPPGIA@Bad?5channel?5in?5?$CFs?5D?1A?3?5?$CFn?$AA@ 1006a234     daquanserq8.obj
 0002:00004254       ??_C@_0BI@OLGKMIEO@Bad?5range?5in?5?$CFs?5D?1A?3?5?$CFd?$AA@ 1006a254     daquanserq8.obj
 0002:00004270       __real@4014000000000000    1006a270     daquanserq8.obj
 0002:00004280       __real@406999999999999a    1006a280     daquanserq8.obj
 0002:00004290       __real@407999999999999a    1006a290     daquanserq8.obj
 0002:0000429c       ??_C@_0BL@NBOIGMKP@Q8?1Q4?5encoder?5error?5?$CFx?5?$CFx?6?$AA@ 1006a29c     encquanserq8.obj
 0002:000042bc       ??_C@_0CC@DMFKNLL@VendorId?5?$DN?50x?$CFx?0?5DeviceId?5?$DN?50x?$CFx@ 1006a2bc     xpcruntime:xpcimports.obj
 0002:000042e4       ??_C@_0DH@OHCBLNMG@Subsystem?5Device?5ID?5?$DN?50x?$CFx?6Subsy@ 1006a2e4     xpcruntime:xpcimports.obj
 0002:00004328       ??_C@_0BD@MMMMEFCM@Class?5Code?5?$DN?50x?$CFx?6?$AA@ 1006a328     xpcruntime:xpcimports.obj
 0002:00004340       ??_C@_0BE@OLDDDNHM@InterruptLine?5?$DN?5?$CFd?6?$AA@ 1006a340     xpcruntime:xpcimports.obj
 0002:00004358       ??_C@_0BF@OLKLEKBD@bus?5?$DN?5?$CFd?0?5slot?5?$DN?5?$CFd?6?$AA@ 1006a358     xpcruntime:xpcimports.obj
 0002:00004374       ??_C@_0CE@DGLLGDFH@?5?5?5?5Phys?5?5?5Virtual?5?5?5Length?5IO?1M@ 1006a374     xpcruntime:xpcimports.obj
 0002:000043a0       ??_C@_0BI@FEOPLEMG@?$CF08x?5?$CF08x?5?$CF08x?5?5?5?5?5?5?$CFc?6?$AA@ 1006a3a0     xpcruntime:xpcimports.obj
 0002:000043bc       ??_C@_0BB@BNNCEDPC@rl32eScopeExists?$AA@ 1006a3bc     xpcruntime:xpcimports.obj
 0002:000043d0       ??_C@_0BM@FJBFEGFG@rl32eScopeExists?5not?5found?6?$AA@ 1006a3d0     xpcruntime:xpcimports.obj
 0002:000043f4       ??_C@_0O@BNNGKJEA@rl32eDefScope?$AA@ 1006a3f4     xpcruntime:xpcimports.obj
 0002:00004404       ??_C@_0BJ@CDNOENKA@rl32eDefScope?5not?5found?6?$AA@ 1006a404     xpcruntime:xpcimports.obj
 0002:00004424       ??_C@_0P@CKNKILDP@rl32eAddSignal?$AA@ 1006a424     xpcruntime:xpcimports.obj
 0002:00004438       ??_C@_0BK@GMJAJBAI@rl32eAddSignal?5not?5found?6?$AA@ 1006a438     xpcruntime:xpcimports.obj
 0002:00004458       ??_C@_0BB@LDMIHGCE@rl32eGetSignalNo?$AA@ 1006a458     xpcruntime:xpcimports.obj
 0002:0000446c       ??_C@_0BM@LGAMBAID@rl32eGetSignalNo?5not?5found?6?$AA@ 1006a46c     xpcruntime:xpcimports.obj
 0002:00004490       ??_C@_0O@CFDGALBP@rl32eSetScope?$AA@ 1006a490     xpcruntime:xpcimports.obj
 0002:000044a0       ??_C@_0BJ@JCLHHIN@rl32eSetScope?5not?5found?6?$AA@ 1006a4a0     xpcruntime:xpcimports.obj
 0002:000044c0       ??_C@_0P@IKMCBMHH@xpceFSScopeSet?$AA@ 1006a4c0     xpcruntime:xpcimports.obj
 0002:000044d4       ??_C@_0BK@JODJPNNH@xpceFSScopeSet?5not?5found?6?$AA@ 1006a4d4     xpcruntime:xpcimports.obj
 0002:000044f4       ??_C@_0BE@DLACEEJM@rl32eSetTargetScope?$AA@ 1006a4f4     xpcruntime:xpcimports.obj
 0002:0000450c       ??_C@_0BP@JCHFMKPJ@rl32eSetTargetScope?5not?5found?6?$AA@ 1006a50c     xpcruntime:xpcimports.obj
 0002:00004534       ??_C@_0BJ@LIDLNDHC@rl32eSetTargetScopeSigFt?$AA@ 1006a534     xpcruntime:xpcimports.obj
 0002:00004554       ??_C@_0CE@JLGHCFHI@rl32eSetTargetScopeSigFt?5not?5fou@ 1006a554     xpcruntime:xpcimports.obj
 0002:00004580       ??_C@_0BI@JAPOIDNG@rl32eRestartAcquisition?$AA@ 1006a580     xpcruntime:xpcimports.obj
 0002:0000459c       ??_C@_0CD@LLBEFFBO@rl32eRestartAcquisition?5not?5foun@ 1006a59c     xpcruntime:xpcimports.obj
 0002:000045c8       ??_C@_0P@IEIIADJB@xpceScopeAcqOK?$AA@ 1006a5c8     xpcruntime:xpcimports.obj
 0002:000045dc       ??_C@_0BK@NJCKNFPN@xpceScopeAcqOK?5not?5found?6?$AA@ 1006a5dc     xpcruntime:xpcimports.obj
 0002:000045fc       ??_C@_0BA@IJINKAHF@xpceRegisterISR?$AA@ 1006a5fc     xpcruntime:xpcimports.obj
 0002:00004610       ??_C@_0BL@NNDLOEJE@xpceRegisterISR?5not?5found?6?$AA@ 1006a610     xpcruntime:xpcimports.obj
 0002:00004630       ??_C@_0BC@NLBADGKF@xpceDeRegisterISR?$AA@ 1006a630     xpcruntime:xpcimports.obj
 0002:00004648       ??_C@_0BN@DCAIKFFD@xpceDeRegisterISR?5not?5found?6?$AA@ 1006a648     xpcruntime:xpcimports.obj
 0002:0000466c       ??_C@_07JPMEPILD@xpcInpB?$AA@ 1006a66c     xpcruntime:xpcimports.obj
 0002:00004678       ??_C@_0BD@PGABEJOL@xpcInpB?5not?5found?6?$AA@ 1006a678     xpcruntime:xpcimports.obj
 0002:00004690       ??_C@_07KIHBBOKH@xpcInpW?$AA@ 1006a690     xpcruntime:xpcimports.obj
 0002:0000469c       ??_C@_0BD@FPCJFMCC@xpcInpW?5not?5found?6?$AA@ 1006a69c     xpcruntime:xpcimports.obj
 0002:000046b4       ??_C@_08KDIAJBOP@xpcInpDW?$AA@ 1006a6b4     xpcruntime:xpcimports.obj
 0002:000046c0       ??_C@_0BE@PIELDNIL@xpcInpDW?5not?5found?6?$AA@ 1006a6c0     xpcruntime:xpcimports.obj
 0002:000046d8       ??_C@_08PJFMOIGO@xpcOutpB?$AA@ 1006a6d8     xpcruntime:xpcimports.obj
 0002:000046e4       ??_C@_0BE@HCKNCEKF@xpcOutpB?5not?5found?6?$AA@ 1006a6e4     xpcruntime:xpcimports.obj
 0002:000046fc       ??_C@_08MOOJAOHK@xpcOutpW?$AA@ 1006a6fc     xpcruntime:xpcimports.obj
 0002:00004708       ??_C@_0BE@NLIFDBGM@xpcOutpW?5not?5found?6?$AA@ 1006a708     xpcruntime:xpcimports.obj
 0002:00004720       ??_C@_09FLIEKHJG@xpcOutpDW?$AA@ 1006a720     xpcruntime:xpcimports.obj
 0002:0000472c       ??_C@_0BF@GJKLPNHB@xpcOutpDW?5not?5found?6?$AA@ 1006a72c     xpcruntime:xpcimports.obj
 0002:00004748       ??_C@_0BH@EHOLELHH@xpcReserveMemoryRegion?$AA@ 1006a748     xpcruntime:xpcimports.obj
 0002:00004764       ??_C@_0CC@KAAAGPI@xpcReserveMemoryRegion?5not?5found@ 1006a764     xpcruntime:xpcimports.obj
 0002:0000478c       ??_C@_0BA@JGPMHGAF@rl32eShowPCIDev?$AA@ 1006a78c     xpcruntime:xpcimports.obj
 0002:000047a0       ??_C@_0BL@DDFFLNHI@rl32eShowPCIDev?5not?5found?6?$AA@ 1006a7a0     xpcruntime:xpcimports.obj
 0002:000047c0       ??_C@_0BB@KBCOJPFB@rl32eShowPCIInfo?$AA@ 1006a7c0     xpcruntime:xpcimports.obj
 0002:000047d4       ??_C@_0BM@IFDMAGLO@rl32eShowPCIInfo?5not?5found?6?$AA@ 1006a7d4     xpcruntime:xpcimports.obj
 0002:000047f8       ??_C@_0BA@BGPAADB@rl32eGetPCIInfo?$AA@ 1006a7f8     xpcruntime:xpcimports.obj
 0002:0000480c       ??_C@_0BL@IGOMLDCK@rl32eGetPCIInfo?5not?5found?6?$AA@ 1006a80c     xpcruntime:xpcimports.obj
 0002:0000482c       ??_C@_0BG@NJPFKFDP@rl32eGetPCIInfoAtSlot?$AA@ 1006a82c     xpcruntime:xpcimports.obj
 0002:00004848       ??_C@_0CB@BBKIPMLA@rl32eGetPCIInfoAtSlot?5not?5found?6@ 1006a848     xpcruntime:xpcimports.obj
 0002:00004870       ??_C@_0BH@OKBOPNFG@xpceAssignPCIInterrupt?$AA@ 1006a870     xpcruntime:xpcimports.obj
 0002:0000488c       ??_C@_0CC@CDNDNJBJ@xpceAssignPCIInterrupt?5not?5found@ 1006a88c     xpcruntime:xpcimports.obj
 0002:000048b4       ??_C@_0BD@PCKOKHO@xpceGetSignalValue?$AA@ 1006a8b4     xpcruntime:xpcimports.obj
 0002:000048cc       ??_C@_0BO@GCBDJHMB@xpceGetSignalValue?5not?5found?6?$AA@ 1006a8cc     xpcruntime:xpcimports.obj
 0002:000048f0       ??_C@_0BB@BJONJAGA@xpceSetParameter?$AA@ 1006a8f0     xpcruntime:xpcimports.obj
 0002:00004904       ??_C@_0BM@BJIKDLHA@xpceSetParameter?5not?5found?6?$AA@ 1006a904     xpcruntime:xpcimports.obj
 0002:00004928       ??_C@_0BB@GNFDFMCM@xpceGetParameter?$AA@ 1006a928     xpcruntime:xpcimports.obj
 0002:0000493c       ??_C@_0BM@POHNKBC@xpceGetParameter?5not?5found?6?$AA@ 1006a93c     xpcruntime:xpcimports.obj
 0002:00004960       ??_C@_0BB@CEIJLFCD@xpceGetParamDims?$AA@ 1006a960     xpcruntime:xpcimports.obj
 0002:00004974       ??_C@_0BM@OABDBKAO@xpceGetParamDims?5not?5found?6?$AA@ 1006a974     xpcruntime:xpcimports.obj
 0002:00004998       ??_C@_0L@OCBLLHBM@xpceGetTET?$AA@ 1006a998     xpcruntime:xpcimports.obj
 0002:000049a8       ??_C@_0BG@HNOFBOB@xpceGetTET?5not?5found?6?$AA@ 1006a9a8     xpcruntime:xpcimports.obj
 0002:000049c4       ??_C@_0P@OKGNGAGH@xpcIsModelInit?$AA@ 1006a9c4     xpcruntime:xpcimports.obj
 0002:000049d8       ??_C@_0BK@DHEMLBIM@xpcIsModelInit?5not?5found?6?$AA@ 1006a9d8     xpcruntime:xpcimports.obj
 0002:000049f8       ??_C@_0BH@KJJLCAOJ@xpcAllocPhysicalMemory?$AA@ 1006a9f8     xpcruntime:xpcimports.obj
 0002:00004a14       ??_C@_0CC@MOJPNHKL@xpcAllocPhysicalMemory?5not?5found@ 1006aa14     xpcruntime:xpcimports.obj
 0002:00004a3c       ??_C@_0BG@CBNPGAEL@xpcFreePhysicalMemory?$AA@ 1006aa3c     xpcruntime:xpcimports.obj
 0002:00004a58       ??_C@_0CB@PKJEBPOG@xpcFreePhysicalMemory?5not?5found?6@ 1006aa58     xpcruntime:xpcimports.obj
 0002:00004a80       ??_C@_0BC@JGKNLICL@xpcGetElapsedTime?$AA@ 1006aa80     xpcruntime:xpcimports.obj
 0002:00004a98       ??_C@_0BN@OEOAHCIO@xpcGetElapsedTime?5not?5found?6?$AA@ 1006aa98     xpcruntime:xpcimports.obj
 0002:00004abc       ??_C@_0M@ICBLMODA@xpcBusyWait?$AA@ 1006aabc     xpcruntime:xpcimports.obj
 0002:00004acc       ??_C@_0BH@FBOPECBI@xpcBusyWait?5not?5found?6?$AA@ 1006aacc     xpcruntime:xpcimports.obj
 0002:00004ae8       ??_C@_0N@LKKJEKKA@TBCreateSpin?$AA@ 1006aae8     xpcruntime:xpcimports.obj
 0002:00004af8       ??_C@_0BI@FHKMLKOE@TBCreateSpin?5not?5found?6?$AA@ 1006aaf8     xpcruntime:xpcimports.obj
 0002:00004b14       ??_C@_0N@HOAJHNBD@TBDeleteSpin?$AA@ 1006ab14     xpcruntime:xpcimports.obj
 0002:00004b24       ??_C@_0BI@BKCPAAG@TBDeleteSpin?5not?5found?6?$AA@ 1006ab24     xpcruntime:xpcimports.obj
 0002:00004b40       ??_C@_0P@DAHDDBJG@TBTakeSpinFast?$AA@ 1006ab40     xpcruntime:xpcimports.obj
 0002:00004b54       ??_C@_0BK@NKAIBHGB@TBTakeSpinFast?5not?5found?6?$AA@ 1006ab54     xpcruntime:xpcimports.obj
 0002:00004b74       ??_C@_0P@FKNAAELA@TBGiveSpinFast?$AA@ 1006ab74     xpcruntime:xpcimports.obj
 0002:00004b88       ??_C@_0BK@KGPJBJND@TBGiveSpinFast?5not?5found?6?$AA@ 1006ab88     xpcruntime:xpcimports.obj
 0002:00004ba8       ??_C@_0BE@IIGBFDHK@xpceCreateSemaphore?$AA@ 1006aba8     xpcruntime:xpcimports.obj
 0002:00004bc0       ??_C@_0BP@KFBAFFKJ@xpceCreateSemaphore?5not?5found?6?$AA@ 1006abc0     xpcruntime:xpcimports.obj
 0002:00004be8       ??_C@_0BC@IFNIONKJ@xpceWaitSemaphore?$AA@ 1006abe8     xpcruntime:xpcimports.obj
 0002:00004c00       ??_C@_0BN@NMFAADIO@xpceWaitSemaphore?5not?5found?6?$AA@ 1006ac00     xpcruntime:xpcimports.obj
 0002:00004c24       ??_C@_0BE@NNDIOBKE@xpceSignalSemaphore?$AA@ 1006ac24     xpcruntime:xpcimports.obj
 0002:00004c3c       ??_C@_0BP@LBANMHJP@xpceSignalSemaphore?5not?5found?6?$AA@ 1006ac3c     xpcruntime:xpcimports.obj
 0002:00004c64       ??_C@_0BE@MEBEKOIM@xpceDeleteSemaphore?$AA@ 1006ac64     xpcruntime:xpcimports.obj
 0002:00004c7c       ??_C@_0BP@OFNCKOJH@xpceDeleteSemaphore?5not?5found?6?$AA@ 1006ac7c     xpcruntime:xpcimports.obj
 0002:00004ca4       ??_C@_0BD@MFNDMBOF@FindUsbVideoDevice?$AA@ 1006aca4     xpcruntime:xpcimports.obj
 0002:00004cbc       ??_C@_0BO@POKLDHMI@FindUsbVideoDevice?5not?5found?6?$AA@ 1006acbc     xpcruntime:xpcimports.obj
 0002:00004ce0       ??_C@_0BA@PLPAPNAB@GetVideoConfigs?$AA@ 1006ace0     xpcruntime:xpcimports.obj
 0002:00004cf4       ??_C@_0BL@DALDHKHC@GetVideoConfigs?5not?5found?6?$AA@ 1006acf4     xpcruntime:xpcimports.obj
 0002:00004d14       ??_C@_0L@GBAEMHMH@StartVideo?$AA@ 1006ad14     xpcruntime:xpcimports.obj
 0002:00004d24       ??_C@_0BG@HDCELEBP@StartVideo?5not?5found?6?$AA@ 1006ad24     xpcruntime:xpcimports.obj
 0002:00004d40       ??_C@_0BA@FDNPOCLN@ReadFrameBuffer?$AA@ 1006ad40     xpcruntime:xpcimports.obj
 0002:00004d54       ??_C@_0BL@JHGHPNBI@ReadFrameBuffer?5not?5found?6?$AA@ 1006ad54     xpcruntime:xpcimports.obj
 0002:00004d74       ??_C@_09FAHCLKAG@StopVideo?$AA@ 1006ad74     xpcruntime:xpcimports.obj
 0002:00004d80       ??_C@_0BF@NKGKKADL@StopVideo?5not?5found?6?$AA@ 1006ad80     xpcruntime:xpcimports.obj
 0002:00004d9c       ??_C@_0O@MCPKDLLL@ConvertUImage?$AA@ 1006ad9c     xpcruntime:xpcimports.obj
 0002:00004dac       ??_C@_0BJ@PHJKOAFL@ConvertUImage?5not?5found?6?$AA@ 1006adac     xpcruntime:xpcimports.obj
 0002:00004dcc       ??_C@_0BD@NKCBPBJJ@CreateVideoDisplay?$AA@ 1006adcc     xpcruntime:xpcimports.obj
 0002:00004de4       ??_C@_0BO@HPPLLNFP@CreateVideoDisplay?5not?5found?6?$AA@ 1006ade4     xpcruntime:xpcimports.obj
 0002:00004e08       ??_C@_0BE@KJCKGPHA@DestroyVideoDisplay?$AA@ 1006ae08     xpcruntime:xpcimports.obj
 0002:00004e20       ??_C@_0BP@FMGLJAIJ@DestroyVideoDisplay?5not?5found?6?$AA@ 1006ae20     xpcruntime:xpcimports.obj
 0002:00004e48       ??_C@_0BC@HCMIMIDN@StartVideoDisplay?$AA@ 1006ae48     xpcruntime:xpcimports.obj
 0002:00004e60       ??_C@_0BN@EFIEBGOO@StartVideoDisplay?5not?5found?6?$AA@ 1006ae60     xpcruntime:xpcimports.obj
 0002:00004e84       ??_C@_0BB@JBBLMILG@StopVideoDisplay?$AA@ 1006ae84     xpcruntime:xpcimports.obj
 0002:00004e98       ??_C@_0BM@DBJBPLEL@StopVideoDisplay?5not?5found?6?$AA@ 1006ae98     xpcruntime:xpcimports.obj
 0002:00004ebc       ??_C@_0M@MFJEGMHC@StreamVideo?$AA@ 1006aebc     xpcruntime:xpcimports.obj
 0002:00004ecc       ??_C@_0BH@OINCDMLA@StreamVideo?5not?5found?6?$AA@ 1006aecc     xpcruntime:xpcimports.obj
 0002:00004ee8       ??_C@_0N@IGGLCIGE@xpceaddEvent?$AA@ 1006aee8     xpcruntime:xpcimports.obj
 0002:00004ef8       ??_C@_0BI@NHJNFMKH@xpceaddEvent?5not?5found?6?$AA@ 1006aef8     xpcruntime:xpcimports.obj
 0002:00004f14       ??_C@_0BB@HDPOIJAB@xpceDAQPostEvent?$AA@ 1006af14     xpcruntime:xpcimports.obj
 0002:00004f28       ??_C@_0BM@IHANBKGN@xpceDAQPostEvent?5not?5found?6?$AA@ 1006af28     xpcruntime:xpcimports.obj
 0002:00004f4c       ??_C@_0BH@MBACMOD@xpceDAQUpdateTimeStamp?$AA@ 1006af4c     xpcruntime:xpcimports.obj
 0002:00004f68       ??_C@_0CC@DAKBBINL@xpceDAQUpdateTimeStamp?5not?5found@ 1006af68     xpcruntime:xpcimports.obj
 0002:00004f90       ??_C@_0BN@HJOHIFOM@xpceGetIntTimerGranularityNS?$AA@ 1006af90     xpcruntime:xpcimports.obj
 0002:00004fb4       ??_C@_0CI@OADDPMKB@xpceGetIntTimerGranularityNS?5not@ 1006afb4     xpcruntime:xpcimports.obj
 0002:00004fe4       ??_C@_0BG@CCHICKPN@slrteSetStepSizeDelta?$AA@ 1006afe4     xpcruntime:xpcimports.obj
 0002:00005000       ??_C@_0CB@MKHINEIJ@slrteSetStepSizeDelta?5not?5found?6@ 1006b000     xpcruntime:xpcimports.obj
 0002:00005028       ??_C@_0BI@CLNBLDKJ@slrteGetCurrentStepSize?$AA@ 1006b028     xpcruntime:xpcimports.obj
 0002:00005044       ??_C@_0CD@GIOJPGJA@slrteGetCurrentStepSize?5not?5foun@ 1006b044     xpcruntime:xpcimports.obj
 0002:00005070       ??_C@_0BE@FCLCBOC@registerPTPTimeRead?$AA@ 1006b070     xpcruntime:xpcimports.obj
 0002:00005088       ??_C@_0BP@LHPKAJIP@registerPTPTimeRead?5not?5found?6?$AA@ 1006b088     xpcruntime:xpcimports.obj
 0002:000050b0       ??_C@_0BG@KIGCDDJI@unRegisterPTPTimeRead?$AA@ 1006b0b0     xpcruntime:xpcimports.obj
 0002:000050cc       ??_C@_0CB@MLFFBFCM@unRegisterPTPTimeRead?5not?5found?6@ 1006b0cc     xpcruntime:xpcimports.obj
 0002:000050f4       ??_C@_0BB@IPMDDBHK@slTestInitialize?$AA@ 1006b0f4     xpcruntime:xpcimports.obj
 0002:00005108       ??_C@_0BM@LAJFCCJH@slTestInitialize?5not?5found?6?$AA@ 1006b108     xpcruntime:xpcimports.obj
 0002:0000512c       ??_C@_0BF@OOMPMEBC@slTestLogAssessments?$AA@ 1006b12c     xpcruntime:xpcimports.obj
 0002:00005148       ??_C@_0CA@FGJCEBAG@slTestLogAssessments?5not?5found?6?$AA@ 1006b148     xpcruntime:xpcimports.obj
 0002:00005170       ??_C@_0BB@HJHKONHO@slTestEvalOnFail?$AA@ 1006b170     xpcruntime:xpcimports.obj
 0002:00005184       ??_C@_0BM@JIKCFFNJ@slTestEvalOnFail?5not?5found?6?$AA@ 1006b184     xpcruntime:xpcimports.obj
 0002:000051a8       ??_C@_0BA@LBHLABFP@slTestTerminate?$AA@ 1006b1a8     xpcruntime:xpcimports.obj
 0002:000051bc       ??_C@_0BL@EMFGKAPA@slTestTerminate?5not?5found?6?$AA@ 1006b1bc     xpcruntime:xpcimports.obj
 0002:000051dc       ??_C@_0BE@JPNPBBEO@slTestRegAssessment?$AA@ 1006b1dc     xpcruntime:xpcimports.obj
 0002:000051f4       ??_C@_0BP@FBDEJJJH@slTestRegAssessment?5not?5found?6?$AA@ 1006b1f4     xpcruntime:xpcimports.obj
 0002:0000521c       ??_C@_0O@NCLGDNIB@slrteSetupMSI?$AA@ 1006b21c     xpcruntime:xpcimports.obj
 0002:0000522c       ??_C@_0BJ@HEFMECLM@slrteSetupMSI?5not?5found?6?$AA@ 1006b22c     xpcruntime:xpcimports.obj
 0002:0000524c       ??_C@_0BH@BPOLALHD@slrtGetCRBScratchSpace?$AA@ 1006b24c     xpcruntime:xpcimports.obj
 0002:00005268       ??_C@_0CC@KCKAJKKJ@slrtGetCRBScratchSpace?5not?5found@ 1006b268     xpcruntime:xpcimports.obj
 0002:00005290       ??_C@_0BC@MKFDAKOL@slrtGetSgCRBSpace?$AA@ 1006b290     xpcruntime:xpcimports.obj
 0002:000052a8       ??_C@_0BN@JDPHPLHL@slrtGetSgCRBSpace?5not?5found?6?$AA@ 1006b2a8     xpcruntime:xpcimports.obj
 0002:000052cc       ??_C@_0P@EPAPKLIF@slrtfsOpenFile?$AA@ 1006b2cc     xpcruntime:xpcimports.obj
 0002:000052e0       ??_C@_0BK@FIHCBOHG@slrtfsOpenFile?5not?5found?6?$AA@ 1006b2e0     xpcruntime:xpcimports.obj
 0002:00005300       ??_C@_0BA@LILAFDDL@slrtfsCloseFile?$AA@ 1006b300     xpcruntime:xpcimports.obj
 0002:00005314       ??_C@_0BL@DEGHJFIB@slrtfsCloseFile?5not?5found?6?$AA@ 1006b314     xpcruntime:xpcimports.obj
 0002:00005334       ??_C@_0BC@OKMJDIEH@slrtfsWriteToFile?$AA@ 1006b334     xpcruntime:xpcimports.obj
 0002:0000534c       ??_C@_0BN@KCFLCLAH@slrtfsWriteToFile?5not?5found?6?$AA@ 1006b34c     xpcruntime:xpcimports.obj
 0002:00005370       ??_C@_0BK@GIPNFFFF@slrtfsGetFileErrorMessage?$AA@ 1006b370     xpcruntime:xpcimports.obj
 0002:00005390       ??_C@_0CF@BCBLMKLE@slrtfsGetFileErrorMessage?5not?5fo@ 1006b390     xpcruntime:xpcimports.obj
 0002:000053bc       ??_C@_0BD@ICBOKMK@slrtfsGetFileError?$AA@ 1006b3bc     xpcruntime:xpcimports.obj
 0002:000053d4       ??_C@_0BO@FNBANAE@slrtfsGetFileError?5not?5found?6?$AA@ 1006b3d4     xpcruntime:xpcimports.obj
 0002:000053f8       ??_C@_0BE@PPAJMHJP@slrtfsOpenFileAsync?$AA@ 1006b3f8     xpcruntime:xpcimports.obj
 0002:00005410       ??_C@_0BP@HKBMMJOK@slrtfsOpenFileAsync?5not?5found?6?$AA@ 1006b410     xpcruntime:xpcimports.obj
 0002:00005438       ??_C@_0BF@IGNDIBPF@slrtfsCloseFileAsync?$AA@ 1006b438     xpcruntime:xpcimports.obj
 0002:00005454       ??_C@_0CA@GJPFDBKN@slrtfsCloseFileAsync?5not?5found?6?$AA@ 1006b454     xpcruntime:xpcimports.obj
 0002:0000547c       ??_C@_0BE@IOLEBNB@slrtfsGetFileStatus?$AA@ 1006b47c     xpcruntime:xpcimports.obj
 0002:00005494       ??_C@_0BP@PEFHDGHL@slrtfsGetFileStatus?5not?5found?6?$AA@ 1006b494     xpcruntime:xpcimports.obj
 0002:000054bc       ??_C@_0M@HKIJIMG@slrtfsFread?$AA@ 1006b4bc     xpcruntime:xpcimports.obj
 0002:000054cc       ??_C@_0BH@OOKBGONO@slrtfsFread?5not?5found?6?$AA@ 1006b4cc     xpcruntime:xpcimports.obj
 0002:000054e8       ??_C@_0BE@OGCMPLAP@slrtGetDefaultDrive?$AA@ 1006b4e8     xpcruntime:xpcimports.obj
 0002:00005500       ??_C@_0BP@HKFGLHOE@slrtGetDefaultDrive?5not?5found?6?$AA@ 1006b500     xpcruntime:xpcimports.obj
 0002:00005528       ??_C@_0N@NAJIKFFI@slrtLogEvent?$AA@ 1006b528     xpcruntime:xpcimports.obj
 0002:00005538       ??_C@_0BI@NKCEACND@slrtLogEvent?5not?5found?6?$AA@ 1006b538     xpcruntime:xpcimports.obj
 0002:00005554       ??_C@_0N@IDKFJOHI@getlasterror?$AA@ 1006b554     xpcruntime:xpcimports.obj
 0002:00005564       ??_C@_0BI@MIHMCHGL@getlasterror?5not?5found?6?$AA@ 1006b564     xpcruntime:xpcimports.obj
 0002:00005580       ??_C@_0P@OKHGKJKN@geterrorstring?$AA@ 1006b580     xpcruntime:xpcimports.obj
 0002:00005594       ??_C@_0BK@NOHFDMLP@geterrorstring?5not?5found?6?$AA@ 1006b594     xpcruntime:xpcimports.obj
 0002:000055b4       ??_C@_0BD@HNFFKMGJ@slrtGetCPUTCelsius?$AA@ 1006b5b4     xpcruntime:xpcimports.obj
 0002:000055cc       ??_C@_0BO@LHBFKLIH@slrtGetCPUTCelsius?5not?5found?6?$AA@ 1006b5cc     xpcruntime:xpcimports.obj
 0002:000055f0       ??_C@_0M@OONCNCLM@slrtWarning?$AA@ 1006b5f0     xpcruntime:xpcimports.obj
 0002:00005600       ??_C@_0BH@ICKGIEMB@slrtWarning?5not?5found?6?$AA@ 1006b600     xpcruntime:xpcimports.obj
 0002:0000561c       ??_C@_0N@EAAOMIIE@isUsedByRTIP?$AA@ 1006b61c     xpcruntime:xpcimports.obj
 0002:0000562c       ??_C@_0BI@GNHHHICK@isUsedByRTIP?5not?5found?6?$AA@ 1006b62c     xpcruntime:xpcimports.obj
 0002:00005648       ??_C@_0BC@HLDKJAG@SetIPTASKPriority?$AA@ 1006b648     xpcruntime:xpcimports.obj
 0002:00005660       ??_C@_0BN@OGKMHHAE@SetIPTASKPriority?5not?5found?6?$AA@ 1006b660     xpcruntime:xpcimports.obj
 0002:00005684       ??_C@_0O@LHENMBDD@OpenInterface?$AA@ 1006b684     xpcruntime:xpcimports.obj
 0002:00005694       ??_C@_0BJ@PFGDBKHB@OpenInterface?5not?5found?6?$AA@ 1006b694     xpcruntime:xpcimports.obj
 0002:000056b4       ??_C@_0P@IINFELKD@CloseInterface?$AA@ 1006b6b4     xpcruntime:xpcimports.obj
 0002:000056c8       ??_C@_0BK@PAPDNDBK@CloseInterface?5not?5found?6?$AA@ 1006b6c8     xpcruntime:xpcimports.obj
 0002:000056e8       ??_C@_05LEFIAAOI@SetIP?$AA@ 1006b6e8     xpcruntime:xpcimports.obj
 0002:000056f0       ??_C@_0BB@CGLIBAMM@SetIP?5not?5found?6?$AA@ 1006b6f0     xpcruntime:xpcimports.obj
 0002:00005704       ??_C@_0BA@HIJJHHMD@AddGatewayRoute?$AA@ 1006b704     xpcruntime:xpcimports.obj
 0002:00005718       ??_C@_0BL@BFCFMDMN@AddGatewayRoute?5not?5found?6?$AA@ 1006b718     xpcruntime:xpcimports.obj
 0002:00005738       ??_C@_0M@PHMABFPI@DeleteRoute?$AA@ 1006b738     xpcruntime:xpcimports.obj
 0002:00005748       ??_C@_0BH@JPJGLLID@DeleteRoute?5not?5found?6?$AA@ 1006b748     xpcruntime:xpcimports.obj
 0002:00005764       ??_C@_0BA@FCDIMKIJ@GetHostTarIPAdd?$AA@ 1006b764     xpcruntime:xpcimports.obj
 0002:00005778       ??_C@_0BL@MBKDGKBO@GetHostTarIPAdd?5not?5found?6?$AA@ 1006b778     xpcruntime:xpcimports.obj
 0002:00005798       ??_C@_0M@HPMIPIBI@GetDCUUsage?$AA@ 1006b798     xpcruntime:xpcimports.obj
 0002:000057a8       ??_C@_0BH@EBLJKCJC@GetDCUUsage?5not?5found?6?$AA@ 1006b7a8     xpcruntime:xpcimports.obj
 0002:000057c4       ??_C@_06MPKMECK@accept?$AA@ 1006b7c4     xpcruntime:xpcimports.obj
 0002:000057cc       ??_C@_0BC@GBGIEMNO@accept?5not?5found?6?$AA@ 1006b7cc     xpcruntime:xpcimports.obj
 0002:000057e4       ??_C@_04NPNJNMMP@bind?$AA@ 1006b7e4     xpcruntime:xpcimports.obj
 0002:000057ec       ??_C@_0BA@DAJNENLO@bind?5not?5found?6?$AA@ 1006b7ec     xpcruntime:xpcimports.obj
 0002:00005800       ??_C@_0L@CKHNIFCM@setsockopt?$AA@ 1006b800     xpcruntime:xpcimports.obj
 0002:00005810       ??_C@_0BG@MFIIOMFE@setsockopt?5not?5found?6?$AA@ 1006b810     xpcruntime:xpcimports.obj
 0002:0000582c       ??_C@_0M@ODDJDCDK@closesocket?$AA@ 1006b82c     xpcruntime:xpcimports.obj
 0002:0000583c       ??_C@_0BH@JHGHMIL@closesocket?5not?5found?6?$AA@ 1006b83c     xpcruntime:xpcimports.obj
 0002:00005858       ??_C@_07KAIBNCHO@connect?$AA@ 1006b858     xpcruntime:xpcimports.obj
 0002:00005864       ??_C@_0BD@MKLLMBM@connect?5not?5found?6?$AA@ 1006b864     xpcruntime:xpcimports.obj
 0002:0000587c       ??_C@_0M@PBPOCKDG@ioctlsocket?$AA@ 1006b87c     xpcruntime:xpcimports.obj
 0002:0000588c       ??_C@_0BH@NFCNHHIH@ioctlsocket?5not?5found?6?$AA@ 1006b88c     xpcruntime:xpcimports.obj
 0002:000058a8       ??_C@_06OODDLKLE@listen?$AA@ 1006b8a8     xpcruntime:xpcimports.obj
 0002:000058b0       ??_C@_0BC@NHBILEKI@listen?5not?5found?6?$AA@ 1006b8b0     xpcruntime:xpcimports.obj
 0002:000058c8       ??_C@_08HMBBGFHE@recvfrom?$AA@ 1006b8c8     xpcruntime:xpcimports.obj
 0002:000058d4       ??_C@_0BE@BJAJFFLF@recvfrom?5not?5found?6?$AA@ 1006b8d4     xpcruntime:xpcimports.obj
 0002:000058ec       ??_C@_06MEPBGKEC@sendto?$AA@ 1006b8ec     xpcruntime:xpcimports.obj
 0002:000058f4       ??_C@_0BC@BHPIMDJO@sendto?5not?5found?6?$AA@ 1006b8f4     xpcruntime:xpcimports.obj
 0002:0000590c       ??_C@_09JKBDEEOB@inet_addr?$AA@ 1006b90c     xpcruntime:xpcimports.obj
 0002:00005918       ??_C@_0BF@HKJPGECN@inet_addr?5not?5found?6?$AA@ 1006b918     xpcruntime:xpcimports.obj
 0002:00005934       ??_C@_06HBELJPBO@socket?$AA@ 1006b934     xpcruntime:xpcimports.obj
 0002:0000593c       ??_C@_0BC@NAGFFJGA@socket?5not?5found?6?$AA@ 1006b93c     xpcruntime:xpcimports.obj
 0002:00005954       ??_C@_09ICJIFGNC@GetSocket?$AA@ 1006b954     xpcruntime:xpcimports.obj
 0002:00005960       ??_C@_0BF@KDBCKMOJ@GetSocket?5not?5found?6?$AA@ 1006b960     xpcruntime:xpcimports.obj
 0002:0000597c       ??_C@_0P@KJEGJMJI@GetSocketState?$AA@ 1006b97c     xpcruntime:xpcimports.obj
 0002:00005990       ??_C@_0BK@IALBJHEB@GetSocketState?5not?5found?6?$AA@ 1006b990     xpcruntime:xpcimports.obj
 0002:000059b0       ??_C@_0L@MEAJHNHB@SocketSend?$AA@ 1006b9b0     xpcruntime:xpcimports.obj
 0002:000059c0       ??_C@_0BG@EOCMBFJA@SocketSend?5not?5found?6?$AA@ 1006b9c0     xpcruntime:xpcimports.obj
 0002:000059dc       ??_C@_0O@PFPCLEMF@SocketReceive?$AA@ 1006b9dc     xpcruntime:xpcimports.obj
 0002:000059ec       ??_C@_0BJ@HIBADDFO@SocketReceive?5not?5found?6?$AA@ 1006b9ec     xpcruntime:xpcimports.obj
 0002:00005a0c       ??_C@_0BD@OOGFNAIK@CreateServerSocket?$AA@ 1006ba0c     xpcruntime:xpcimports.obj
 0002:00005a24       ??_C@_0BO@GKIJHIPH@CreateServerSocket?5not?5found?6?$AA@ 1006ba24     xpcruntime:xpcimports.obj
 0002:00005a48       ??_C@_0BB@KGHJGFFO@OpenServerListen?$AA@ 1006ba48     xpcruntime:xpcimports.obj
 0002:00005a5c       ??_C@_0BM@NFMMLIO@OpenServerListen?5not?5found?6?$AA@ 1006ba5c     xpcruntime:xpcimports.obj
 0002:00005a80       ??_C@_0BE@BAJLDJAH@ConnectServerSocket?$AA@ 1006ba80     xpcruntime:xpcimports.obj
 0002:00005a98       ??_C@_0BP@KJNODIKE@ConnectServerSocket?5not?5found?6?$AA@ 1006ba98     xpcruntime:xpcimports.obj
 0002:00005ac0       ??_C@_0BC@PLKKJDIM@CloseServerSocket?$AA@ 1006bac0     xpcruntime:xpcimports.obj
 0002:00005ad8       ??_C@_0BN@KEJEPNMB@CloseServerSocket?5not?5found?6?$AA@ 1006bad8     xpcruntime:xpcimports.obj
 0002:00005afc       ??_C@_0BD@MCLPKCPP@CreateClientSocket?$AA@ 1006bafc     xpcruntime:xpcimports.obj
 0002:00005b14       ??_C@_0BO@DILAGPFN@CreateClientSocket?5not?5found?6?$AA@ 1006bb14     xpcruntime:xpcimports.obj
 0002:00005b38       ??_C@_0BB@DAPKNNLG@BindClientSocket?$AA@ 1006bb38     xpcruntime:xpcimports.obj
 0002:00005b4c       ??_C@_0BM@LLLMMDFN@BindClientSocket?5not?5found?6?$AA@ 1006bb4c     xpcruntime:xpcimports.obj
 0002:00005b70       ??_C@_0BE@DMEBELHC@ConnectClientSocket?$AA@ 1006bb70     xpcruntime:xpcimports.obj
 0002:00005b88       ??_C@_0BP@PLOHCPAO@ConnectClientSocket?5not?5found?6?$AA@ 1006bb88     xpcruntime:xpcimports.obj
 0002:00005bb0       ??_C@_0BC@NHHAOBPJ@CloseClientSocket?$AA@ 1006bbb0     xpcruntime:xpcimports.obj
 0002:00005bc8       ??_C@_0BN@PGKNOKGL@CloseClientSocket?5not?5found?6?$AA@ 1006bbc8     xpcruntime:xpcimports.obj
 0002:00005c98       __pDefaultRawDllMain       1006bc98     LIBCMT:dll_dllmain.obj
 0002:00005c98       __pRawDllMain              1006bc98     LIBCMT:dll_dllmain.obj
 0002:00005cb0       ??_C@_1BC@DNHGCMLG@?$AAa?$AAd?$AAv?$AAa?$AAp?$AAi?$AA3?$AA2?$AA?$AA@ 1006bcb0     libvcruntime:winapi_downlevel.obj
 0002:00005cc8       ??_C@_1DM@KHCHBNEB@?$AAa?$AAp?$AAi?$AA?9?$AAm?$AAs?$AA?9?$AAw?$AAi?$AAn?$AA?9?$AAc?$AAo?$AAr?$AAe?$AA?9?$AAf?$AAi?$AAb?$AAe?$AAr?$AAs?$AA?9?$AAl?$AA1?$AA?9?$AA1?$AA?9?$AA1?$AA?$AA@ 1006bcc8     libvcruntime:winapi_downlevel.obj
 0002:00005d10       ??_C@_1DK@LPPGFMPP@?$AAa?$AAp?$AAi?$AA?9?$AAm?$AAs?$AA?9?$AAw?$AAi?$AAn?$AA?9?$AAc?$AAo?$AAr?$AAe?$AA?9?$AAs?$AAy?$AAn?$AAc?$AAh?$AA?9?$AAl?$AA1?$AA?9?$AA2?$AA?9?$AA0?$AA?$AA@ 1006bd10     libvcruntime:winapi_downlevel.obj
 0002:00005d58       ??_C@_1BC@GDMECMAK@?$AAk?$AAe?$AAr?$AAn?$AAe?$AAl?$AA3?$AA2?$AA?$AA@ 1006bd58     libvcruntime:winapi_downlevel.obj
 0002:00005d74       ??_C@_0O@BAMBGLIE@EventRegister?$AA@ 1006bd74     libvcruntime:winapi_downlevel.obj
 0002:00005d88       ??_C@_0BE@BJEEGHGK@EventSetInformation?$AA@ 1006bd88     libvcruntime:winapi_downlevel.obj
 0002:00005da4       ??_C@_0BA@FAKLIPIC@EventUnregister?$AA@ 1006bda4     libvcruntime:winapi_downlevel.obj
 0002:00005dbc       ??_C@_0BD@PKLHJPHD@EventWriteTransfer?$AA@ 1006bdbc     libvcruntime:winapi_downlevel.obj
 0002:00005de0       ??_C@_08KNHFBNJ@FlsAlloc?$AA@ 1006bde0     libvcruntime:winapi_downlevel.obj
 0002:00005df8       ??_C@_07PEJMOBNF@FlsFree?$AA@ 1006bdf8     libvcruntime:winapi_downlevel.obj
 0002:00005e10       ??_C@_0M@GDNOONDI@FlsGetValue?$AA@ 1006be10     libvcruntime:winapi_downlevel.obj
 0002:00005e2c       ??_C@_0M@JCPCPOEF@FlsSetValue?$AA@ 1006be2c     libvcruntime:winapi_downlevel.obj
 0002:00005e48       ??_C@_0BM@HCFOFFN@InitializeCriticalSectionEx?$AA@ 1006be48     libvcruntime:winapi_downlevel.obj
 0002:00006050       ??_C@_08EHJDFFNH@__based?$CI?$AA@ 1006c050     libvcruntime:undname.obj
 0002:0000605c       ??_C@_07KOLFKCDI@__cdecl?$AA@ 1006c05c     libvcruntime:undname.obj
 0002:00006068       ??_C@_08GHMPAG@__pascal?$AA@ 1006c068     libvcruntime:undname.obj
 0002:00006074       ??_C@_09IFJBGAPI@__stdcall?$AA@ 1006c074     libvcruntime:undname.obj
 0002:00006080       ??_C@_0L@NPHFGOKO@__thiscall?$AA@ 1006c080     libvcruntime:undname.obj
 0002:00006090       ??_C@_0L@JMKHOMEK@__fastcall?$AA@ 1006c090     libvcruntime:undname.obj
 0002:000060a0       ??_C@_0N@BCKKPABJ@__vectorcall?$AA@ 1006c0a0     libvcruntime:undname.obj
 0002:000060b0       ??_C@_09HIJEGCPM@__clrcall?$AA@ 1006c0b0     libvcruntime:undname.obj
 0002:000060bc       ??_C@_06GHPCKEAG@__eabi?$AA@ 1006c0bc     libvcruntime:undname.obj
 0002:000060c4       ??_C@_07JOMMBBKO@__ptr64?$AA@ 1006c0c4     libvcruntime:undname.obj
 0002:000060d0       ??_C@_0L@PILCLIHE@__restrict?$AA@ 1006c0d0     libvcruntime:undname.obj
 0002:000060e0       ??_C@_0M@GFIIJFMG@__unaligned?$AA@ 1006c0e0     libvcruntime:undname.obj
 0002:000060f0       ??_C@_09DHDLOLLB@restrict?$CI?$AA@ 1006c0f0     libvcruntime:undname.obj
 0002:000060fc       ??_C@_04NIHEBCM@?5new?$AA@ 1006c0fc     libvcruntime:undname.obj
 0002:00006104       ??_C@_07FPCDHGMM@?5delete?$AA@ 1006c104     libvcruntime:undname.obj
 0002:00006110       ??_C@_01NEMOKFLO@?$DN?$AA@ 1006c110     libvcruntime:undname.obj
 0002:00006114       ??_C@_02GPIOPFAK@?$DO?$DO?$AA@ 1006c114     libvcruntime:undname.obj
 0002:00006118       ??_C@_02FODMEDOG@?$DM?$DM?$AA@ 1006c118     libvcruntime:undname.obj
 0002:0000611c       ??_C@_01DCLJPIOD@?$CB?$AA@ 1006c11c     libvcruntime:undname.obj
 0002:00006120       ??_C@_02EGOFBIJA@?$DN?$DN?$AA@ 1006c120     libvcruntime:undname.obj
 0002:00006124       ??_C@_02FDNJECIE@?$CB?$DN?$AA@ 1006c124     libvcruntime:undname.obj
 0002:00006128       ??_C@_02GPECMEKF@?$FL?$FN?$AA@ 1006c128     libvcruntime:undname.obj
 0002:0000612c       ??_C@_08LHJFAFGD@operator?$AA@ 1006c12c     libvcruntime:undname.obj
 0002:00006138       ??_C@_02HBOOOICD@?9?$DO?$AA@ 1006c138     libvcruntime:undname.obj
 0002:0000613c       ??_C@_01NBENCBCI@?$CK?$AA@ 1006c13c     libvcruntime:undname.obj
 0002:00006140       ??_C@_02ECNGHCIF@?$CL?$CL?$AA@ 1006c140     libvcruntime:undname.obj
 0002:00006144       ??_C@_02BAABKJLB@?9?9?$AA@ 1006c144     libvcruntime:undname.obj
 0002:00006148       ??_C@_01JOAMLHOP@?9?$AA@   1006c148     libvcruntime:undname.obj
 0002:0000614c       ??_C@_01MIFGBAGJ@?$CL?$AA@ 1006c14c     libvcruntime:undname.obj
 0002:00006150       ??_C@_01HNPIGOCE@?$CG?$AA@ 1006c150     libvcruntime:undname.obj
 0002:00006154       ??_C@_03MNHNFDLC@?9?$DO?$CK?$AA@ 1006c154     libvcruntime:undname.obj
 0002:00006158       ??_C@_01KMDKNFGN@?1?$AA@   1006c158     libvcruntime:undname.obj
 0002:0000615c       ??_C@_01FGNFDNOH@?$CF?$AA@ 1006c15c     libvcruntime:undname.obj
 0002:00006160       ??_C@_01MNNFJEPP@?$DM?$AA@ 1006c160     libvcruntime:undname.obj
 0002:00006164       ??_C@_02EHCHHCKH@?$DM?$DN?$AA@ 1006c164     libvcruntime:undname.obj
 0002:00006168       ??_C@_01PPODPGHN@?$DO?$AA@ 1006c168     libvcruntime:undname.obj
 0002:0000616c       ??_C@_02EEKDKGMJ@?$DO?$DN?$AA@ 1006c16c     libvcruntime:undname.obj
 0002:00006170       ??_C@_01IHBHIGKO@?0?$AA@   1006c170     libvcruntime:undname.obj
 0002:00006174       ??_C@_02HCKGKOFO@?$CI?$CJ?$AA@ 1006c174     libvcruntime:undname.obj
 0002:00006178       ??_C@_01PJKLJHI@?$HO?$AA@  1006c178     libvcruntime:undname.obj
 0002:0000617c       ??_C@_01JKBOJNNK@?$FO?$AA@ 1006c17c     libvcruntime:undname.obj
 0002:00006180       ??_C@_01DNKMNLPK@?$HM?$AA@ 1006c180     libvcruntime:undname.obj
 0002:00006184       ??_C@_02PPKAJPJL@?$CG?$CG?$AA@ 1006c184     libvcruntime:undname.obj
 0002:00006188       ??_C@_02NONPIBCD@?$HM?$HM?$AA@ 1006c188     libvcruntime:undname.obj
 0002:0000618c       ??_C@_02FPIMKNGF@?$CK?$DN?$AA@ 1006c18c     libvcruntime:undname.obj
 0002:00006190       ??_C@_02FOEOMHFC@?$CL?$DN?$AA@ 1006c190     libvcruntime:undname.obj
 0002:00006194       ??_C@_02FKMDLLOA@?9?$DN?$AA@ 1006c194     libvcruntime:undname.obj
 0002:00006198       ??_C@_02FJEHGPIO@?1?$DN?$AA@ 1006c198     libvcruntime:undname.obj
 0002:0000619c       ??_C@_02FENAOKFI@?$CF?$DN?$AA@ 1006c19c     libvcruntime:undname.obj
 0002:000061a0       ??_C@_03IKFCCPFF@?$DO?$DO?$DN?$AA@ 1006c1a0     libvcruntime:undname.obj
 0002:000061a4       ??_C@_03CDNPDDLA@?$DM?$DM?$DN?$AA@ 1006c1a4     libvcruntime:undname.obj
 0002:000061a8       ??_C@_02FGJGFEAB@?$CG?$DN?$AA@ 1006c1a8     libvcruntime:undname.obj
 0002:000061ac       ??_C@_02DHLNPPGH@?$HM?$DN?$AA@ 1006c1ac     libvcruntime:undname.obj
 0002:000061b0       ??_C@_02MHEGNOJ@?$FO?$DN?$AA@ 1006c1b0     libvcruntime:undname.obj
 0002:000061b4       ??_C@_09IFPLHPGF@?$GAvftable?8?$AA@ 1006c1b4     libvcruntime:undname.obj
 0002:000061c0       ??_C@_09BLBHBJP@?$GAvbtable?8?$AA@ 1006c1c0     libvcruntime:undname.obj
 0002:000061cc       ??_C@_07FEEIOKP@?$GAvcall?8?$AA@ 1006c1cc     libvcruntime:undname.obj
 0002:000061d8       ??_C@_08LLFFHHDJ@?$GAtypeof?8?$AA@ 1006c1d8     libvcruntime:undname.obj
 0002:000061e4       ??_C@_0BF@KDPPACIK@?$GAlocal?5static?5guard?8?$AA@ 1006c1e4     libvcruntime:undname.obj
 0002:00006200       ??_C@_08OBABFOLI@?$GAstring?8?$AA@ 1006c200     libvcruntime:undname.obj
 0002:0000620c       ??_C@_0BD@JDLKDPAB@?$GAvbase?5destructor?8?$AA@ 1006c20c     libvcruntime:undname.obj
 0002:00006224       ??_C@_0BN@DEGPLNFK@?$GAvector?5deleting?5destructor?8?$AA@ 1006c224     libvcruntime:undname.obj
 0002:00006248       ??_C@_0BO@OBMKPJIG@?$GAdefault?5constructor?5closure?8?$AA@ 1006c248     libvcruntime:undname.obj
 0002:0000626c       ??_C@_0BN@IMDCHIKM@?$GAscalar?5deleting?5destructor?8?$AA@ 1006c26c     libvcruntime:undname.obj
 0002:00006290       ??_C@_0BO@PFGOCPJJ@?$GAvector?5constructor?5iterator?8?$AA@ 1006c290     libvcruntime:undname.obj
 0002:000062b4       ??_C@_0BN@LFPFMEDL@?$GAvector?5destructor?5iterator?8?$AA@ 1006c2b4     libvcruntime:undname.obj
 0002:000062d8       ??_C@_0CE@IKBNEHA@?$GAvector?5vbase?5constructor?5iterat@ 1006c2d8     libvcruntime:undname.obj
 0002:00006304       ??_C@_0BL@NILFHHPC@?$GAvirtual?5displacement?5map?8?$AA@ 1006c304     libvcruntime:undname.obj
 0002:00006324       ??_C@_0CB@JONCMFFK@?$GAeh?5vector?5constructor?5iterator?8@ 1006c324     libvcruntime:undname.obj
 0002:0000634c       ??_C@_0CA@GCEOPDGL@?$GAeh?5vector?5destructor?5iterator?8?$AA@ 1006c34c     libvcruntime:undname.obj
 0002:00006374       ??_C@_0CH@OOJPLCPH@?$GAeh?5vector?5vbase?5constructor?5ite@ 1006c374     libvcruntime:undname.obj
 0002:000063a4       ??_C@_0BL@LLKPOHJI@?$GAcopy?5constructor?5closure?8?$AA@ 1006c3a4     libvcruntime:undname.obj
 0002:000063c4       ??_C@_0BA@KBCDOMBN@?$GAudt?5returning?8?$AA@ 1006c3c4     libvcruntime:undname.obj
 0002:000063d8       ??_C@_03KLGMFNMG@?$GAEH?$AA@ 1006c3d8     libvcruntime:undname.obj
 0002:000063dc       ??_C@_05KHLCHHI@?$GARTTI?$AA@ 1006c3dc     libvcruntime:undname.obj
 0002:000063e4       ??_C@_0BA@KKLDJDLB@?$GAlocal?5vftable?8?$AA@ 1006c3e4     libvcruntime:undname.obj
 0002:000063f8       ??_C@_0CE@IIHCMGGL@?$GAlocal?5vftable?5constructor?5closu@ 1006c3f8     libvcruntime:undname.obj
 0002:00006424       ??_C@_06FHBGPFGH@?5new?$FL?$FN?$AA@ 1006c424     libvcruntime:undname.obj
 0002:0000642c       ??_C@_09LBNFPBCA@?5delete?$FL?$FN?$AA@ 1006c42c     libvcruntime:undname.obj
 0002:00006438       ??_C@_0P@HJKNJFNN@?$GAomni?5callsig?8?$AA@ 1006c438     libvcruntime:undname.obj
 0002:0000644c       ??_C@_0BL@CNOONJFP@?$GAplacement?5delete?5closure?8?$AA@ 1006c44c     libvcruntime:undname.obj
 0002:0000646c       ??_C@_0BN@CKNJLHMB@?$GAplacement?5delete?$FL?$FN?5closure?8?$AA@ 1006c46c     libvcruntime:undname.obj
 0002:00006490       ??_C@_0CG@CFDHKGGD@?$GAmanaged?5vector?5constructor?5iter@ 1006c490     libvcruntime:undname.obj
 0002:000064c0       ??_C@_0CF@IMGKMJNO@?$GAmanaged?5vector?5destructor?5itera@ 1006c4c0     libvcruntime:undname.obj
 0002:000064ec       ??_C@_0CG@HLDDJMAG@?$GAeh?5vector?5copy?5constructor?5iter@ 1006c4ec     libvcruntime:undname.obj
 0002:0000651c       ??_C@_0CM@FCBBDIGB@?$GAeh?5vector?5vbase?5copy?5constructo@ 1006c51c     libvcruntime:undname.obj
 0002:00006550       ??_C@_0BL@CLIPGLGB@?$GAdynamic?5initializer?5for?5?8?$AA@ 1006c550     libvcruntime:undname.obj
 0002:00006570       ??_C@_0CB@PDBIFEP@?$GAdynamic?5atexit?5destructor?5for?5?8@ 1006c570     libvcruntime:undname.obj
 0002:00006598       ??_C@_0CD@CGAJBKEJ@?$GAvector?5copy?5constructor?5iterato@ 1006c598     libvcruntime:undname.obj
 0002:000065c4       ??_C@_0CJ@GJELGAMM@?$GAvector?5vbase?5copy?5constructor?5i@ 1006c5c4     libvcruntime:undname.obj
 0002:000065f8       ??_C@_0CL@FGIJHLCE@?$GAmanaged?5vector?5copy?5constructor@ 1006c5f8     libvcruntime:undname.obj
 0002:0000662c       ??_C@_0BM@PMGGMLDN@?$GAlocal?5static?5thread?5guard?8?$AA@ 1006c62c     libvcruntime:undname.obj
 0002:00006650       ??_C@_0N@BDNMDMOL@operator?5?$CC?$CC?5?$AA@ 1006c650     libvcruntime:undname.obj
 0002:00006660       ??_C@_0BC@DAFEJGAK@?5Type?5Descriptor?8?$AA@ 1006c660     libvcruntime:undname.obj
 0002:00006678       ??_C@_0BM@LDKODKLH@?5Base?5Class?5Descriptor?5at?5?$CI?$AA@ 1006c678     libvcruntime:undname.obj
 0002:0000669c       ??_C@_0BD@LGICGFMM@?5Base?5Class?5Array?8?$AA@ 1006c69c     libvcruntime:undname.obj
 0002:000066b4       ??_C@_0BN@MECKDCOJ@?5Class?5Hierarchy?5Descriptor?8?$AA@ 1006c6b4     libvcruntime:undname.obj
 0002:000066d8       ??_C@_0BK@CFCOFLF@?5Complete?5Object?5Locator?8?$AA@ 1006c6d8     libvcruntime:undname.obj
 0002:000066f8       ??_C@_04HEJADOOB@CV?3?5?$AA@ 1006c6f8     libvcruntime:undname.obj
 0002:00006700       ??_C@_02MOLJINC@?3?3?$AA@  1006c700     libvcruntime:undname.obj
 0002:00006704       ??_C@_0BE@JAEOCHPE@template?9parameter?9?$AA@ 1006c704     libvcruntime:undname.obj
 0002:0000671c       ??_C@_0O@KHGCOMHP@generic?9type?9?$AA@ 1006c71c     libvcruntime:undname.obj
 0002:0000672c       ??_C@_01NLNLIGKH@?$GA?$AA@ 1006c72c     libvcruntime:undname.obj
 0002:00006730       ??_C@_01GEODFPGF@?8?$AA@   1006c730     libvcruntime:undname.obj
 0002:00006734       ??_C@_0BG@JNJLAMPM@?$GAanonymous?5namespace?8?$AA@ 1006c734     libvcruntime:undname.obj
 0002:00006750       ??_C@_02OHHJMEON@?8?8?$AA@ 1006c750     libvcruntime:undname.obj
 0002:00006754       ??_C@_0BN@IBLMMFAP@?$GAnon?9type?9template?9parameter?$AA@ 1006c754     libvcruntime:undname.obj
 0002:00006778       ??_C@_04GKJNKENE@void?$AA@ 1006c778     libvcruntime:undname.obj
 0002:00006780       ??_C@_0BE@EODMJLIF@?$GAtemplate?9parameter?$AA@ 1006c780     libvcruntime:undname.obj
 0002:00006798       ??_C@_03KHICJKCI@?4?4?4?$AA@ 1006c798     libvcruntime:undname.obj
 0002:0000679c       ??_C@_04HIBGFPH@NULL?$AA@  1006c79c     libvcruntime:undname.obj
 0002:000067a4       ??_C@_02DPKJAMEF@?$CFd?$AA@ 1006c7a4     libvcruntime:undname.obj
 0002:000067a8       ??_C@_0BK@IHCCFNEL@?$GAtemplate?9type?9parameter?9?$AA@ 1006c7a8     libvcruntime:undname.obj
 0002:000067c8       ??_C@_0BK@OFCNNNKO@?$GAgeneric?9class?9parameter?9?$AA@ 1006c7c8     libvcruntime:undname.obj
 0002:000067e8       ??_C@_0BL@NGJBLFIL@?$GAgeneric?9method?9parameter?9?$AA@ 1006c7e8     libvcruntime:undname.obj
 0002:00006808       ??_C@_03OPGICMGF@?$HN?8?5?$AA@ 1006c808     libvcruntime:undname.obj
 0002:0000680c       ??_C@_02IGFCGPIL@?$HN?8?$AA@ 1006c80c     libvcruntime:undname.obj
 0002:00006810       ??_C@_01CLKCMJKC@?5?$AA@   1006c810     libvcruntime:undname.obj
 0002:00006814       ??_C@_0N@CBHHHENL@?$GAvtordispex?$HL?$AA@ 1006c814     libvcruntime:undname.obj
 0002:00006824       ??_C@_0L@GHPFDFH@?$GAvtordisp?$HL?$AA@ 1006c824     libvcruntime:undname.obj
 0002:00006834       ??_C@_0L@HNGCOGAE@?$GAadjustor?$HL?$AA@ 1006c834     libvcruntime:undname.obj
 0002:00006844       ??_C@_0CB@KJDOOODE@?$GAlocal?5static?5destructor?5helper?8@ 1006c844     libvcruntime:undname.obj
 0002:0000686c       ??_C@_0DB@ILEFOCIJ@?$GAtemplate?5static?5data?5member?5con@ 1006c86c     libvcruntime:undname.obj
 0002:000068a8       ??_C@_0DA@HGFJFBBE@?$GAtemplate?5static?5data?5member?5des@ 1006c8a8     libvcruntime:undname.obj
 0002:000068e4       ??_C@_07PGOEDBHP@static?5?$AA@ 1006c8e4     libvcruntime:undname.obj
 0002:000068f0       ??_C@_08NIEOINHE@virtual?5?$AA@ 1006c8f0     libvcruntime:undname.obj
 0002:000068fc       ??_C@_09LAPHOOG@private?3?5?$AA@ 1006c8fc     libvcruntime:undname.obj
 0002:00006908       ??_C@_0M@GAIFPFIP@protected?3?5?$AA@ 1006c908     libvcruntime:undname.obj
 0002:00006918       ??_C@_08GPDDCMKI@public?3?5?$AA@ 1006c918     libvcruntime:undname.obj
 0002:00006924       ??_C@_08KJLFOPNE@?$FLthunk?$FN?3?$AA@ 1006c924     libvcruntime:undname.obj
 0002:00006930       ??_C@_0M@DHNBOJMP@extern?5?$CCC?$CC?5?$AA@ 1006c930     libvcruntime:undname.obj
 0002:00006940       ??_C@_02KCKGHPCA@?$CJ?5?$AA@ 1006c940     libvcruntime:undname.obj
 0002:00006944       ??_C@_05CIHEBHNO@char?5?$AA@ 1006c944     libvcruntime:undname.obj
 0002:0000694c       ??_C@_06EHJMALKF@short?5?$AA@ 1006c94c     libvcruntime:undname.obj
 0002:00006954       ??_C@_04LAHKHJMA@int?5?$AA@ 1006c954     libvcruntime:undname.obj
 0002:0000695c       ??_C@_05CJIMAING@long?5?$AA@ 1006c95c     libvcruntime:undname.obj
 0002:00006964       ??_C@_09EBBEKKIH@unsigned?5?$AA@ 1006c964     libvcruntime:undname.obj
 0002:00006970       ??_C@_05BEFAKPML@void?5?$AA@ 1006c970     libvcruntime:undname.obj
 0002:00006978       ??_C@_08PABEKFH@volatile?$AA@ 1006c978     libvcruntime:undname.obj
 0002:00006984       ??_C@_0BA@LKIJLKPP@std?3?3nullptr_t?5?$AA@ 1006c984     libvcruntime:undname.obj
 0002:00006998       ??_C@_0P@GCOCNKDM@std?3?3nullptr_t?$AA@ 1006c998     libvcruntime:undname.obj
 0002:000069ac       ??_C@_0L@EGPHHEKN@?$DMellipsis?$DO?$AA@ 1006c9ac     libvcruntime:undname.obj
 0002:000069bc       ??_C@_04EENFHACM@?0?4?4?4?$AA@ 1006c9bc     libvcruntime:undname.obj
 0002:000069c4       ??_C@_0M@ELJOJFFH@?0?$DMellipsis?$DO?$AA@ 1006c9c4     libvcruntime:undname.obj
 0002:000069d4       ??_C@_07HDJPLPEK@?5throw?$CI?$AA@ 1006c9d4     libvcruntime:undname.obj
 0002:000069e0       ??_C@_03PBJBJNON@cpu?$AA@  1006c9e0     libvcruntime:undname.obj
 0002:000069e4       ??_C@_03DCBBJBAA@amp?$AA@  1006c9e4     libvcruntime:undname.obj
 0002:000069e8       ??_C@_02KEGNLNML@?0?5?$AA@ 1006c9e8     libvcruntime:undname.obj
 0002:000069ec       ??_C@_04ENMBGAPA@char?$AA@ 1006c9ec     libvcruntime:undname.obj
 0002:000069f4       ??_C@_05BFKKPKCG@short?$AA@ 1006c9f4     libvcruntime:undname.obj
 0002:000069fc       ??_C@_03JBIPMCLC@int?$AA@  1006c9fc     libvcruntime:undname.obj
 0002:00006a00       ??_C@_04GOKPGOLB@long?$AA@ 1006ca00     libvcruntime:undname.obj
 0002:00006a08       ??_C@_04DDKJGDCM@bool?$AA@ 1006ca08     libvcruntime:undname.obj
 0002:00006a10       ??_C@_06EBGKOKIG@__int8?$AA@ 1006ca10     libvcruntime:undname.obj
 0002:00006a18       ??_C@_07ICFHOGAF@__int16?$AA@ 1006ca18     libvcruntime:undname.obj
 0002:00006a24       ??_C@_07OFLPPHGP@__int32?$AA@ 1006ca24     libvcruntime:undname.obj
 0002:00006a30       ??_C@_07LFCOJCAC@__int64?$AA@ 1006ca30     libvcruntime:undname.obj
 0002:00006a3c       ??_C@_08GAHOLHEO@__int128?$AA@ 1006ca3c     libvcruntime:undname.obj
 0002:00006a48       ??_C@_09EEKGDCPH@?$DMunknown?$DO?$AA@ 1006ca48     libvcruntime:undname.obj
 0002:00006a54       ??_C@_08HBIPOFJB@char16_t?$AA@ 1006ca54     libvcruntime:undname.obj
 0002:00006a60       ??_C@_08IECNCBKG@char32_t?$AA@ 1006ca60     libvcruntime:undname.obj
 0002:00006a6c       ??_C@_07CLGGIAMF@wchar_t?$AA@ 1006ca6c     libvcruntime:undname.obj
 0002:00006a78       ??_C@_06GCICPBLB@__w64?5?$AA@ 1006ca78     libvcruntime:undname.obj
 0002:00006a80       ??_C@_07NFANNNEC@UNKNOWN?$AA@ 1006ca80     libvcruntime:undname.obj
 0002:00006a8c       ??_C@_07EDHNAJHC@signed?5?$AA@ 1006ca8c     libvcruntime:undname.obj
 0002:00006a98       ??_C@_05BNCCCJPP@const?$AA@ 1006ca98     libvcruntime:undname.obj
 0002:00006aa0       ??_C@_09EFNPDFFP@?5volatile?$AA@ 1006caa0     libvcruntime:undname.obj
 0002:00006aac       ??_C@_0P@GCIFDJCJ@?$GAunknown?5ecsu?8?$AA@ 1006caac     libvcruntime:undname.obj
 0002:00006ac0       ??_C@_06MOJHIBMG@union?5?$AA@ 1006cac0     libvcruntime:undname.obj
 0002:00006ac8       ??_C@_07DIBCDNGL@struct?5?$AA@ 1006cac8     libvcruntime:undname.obj
 0002:00006ad4       ??_C@_06LJBABKPM@class?5?$AA@ 1006cad4     libvcruntime:undname.obj
 0002:00006adc       ??_C@_08KOFANOFK@coclass?5?$AA@ 1006cadc     libvcruntime:undname.obj
 0002:00006ae8       ??_C@_0N@DLIEFKNA@cointerface?5?$AA@ 1006cae8     libvcruntime:undname.obj
 0002:00006af8       ??_C@_05LJGMCFOG@enum?5?$AA@ 1006caf8     libvcruntime:undname.obj
 0002:00006b00       ??_C@_09GAIEOBLP@volatile?5?$AA@ 1006cb00     libvcruntime:undname.obj
 0002:00006b0c       ??_C@_06LIJLOJAG@const?5?$AA@ 1006cb0c     libvcruntime:undname.obj
 0002:00006b14       ??_C@_02KJPKDIBN@?$CG?5?$AA@ 1006cb14     libvcruntime:undname.obj
 0002:00006b18       ??_C@_03PCKGMOPB@?$CG?$CG?5?$AA@ 1006cb18     libvcruntime:undname.obj
 0002:00006b1c       ??_C@_0M@EALIELKG@cli?3?3array?$DM?$AA@ 1006cb1c     libvcruntime:undname.obj
 0002:00006b2c       ??_C@_0O@GKABPPIF@cli?3?3pin_ptr?$DM?$AA@ 1006cb2c     libvcruntime:undname.obj
 0002:00006b3c       ??_C@_02GOGNNPBN@?$CJ?$FL?$AA@ 1006cb3c     libvcruntime:undname.obj
 0002:00006b40       ??_C@_06EEGAIFAK@?$HLflat?$HN?$AA@ 1006cb40     libvcruntime:undname.obj
 0002:00006b48       ??_C@_05JIBOFOHK@?$HLfor?5?$AA@ 1006cb48     libvcruntime:undname.obj
 0002:00006b50       ??_C@_02MDINNEEG@s?5?$AA@  1006cb50     libvcruntime:undname.obj
 0002:00006b58       ??_7DNameNode@@6B@         1006cb58     libvcruntime:undname.obj
 0002:00006b6c       ??_7charNode@@6B@          1006cb6c     libvcruntime:undname.obj
 0002:00006b80       ??_7pcharNode@@6B@         1006cb80     libvcruntime:undname.obj
 0002:00006b94       ??_7pDNameNode@@6B@        1006cb94     libvcruntime:undname.obj
 0002:00006ba8       ??_7DNameStatusNode@@6B@   1006cba8     libvcruntime:undname.obj
 0002:00006bbc       ??_7pairNode@@6B@          1006cbbc     libvcruntime:undname.obj
 0002:00006bcc       ??_C@_04OKOHEJBO@?5?$DP?$DP?5?$AA@ 1006cbcc     libvcruntime:undname.obj
 0002:00006bd8       _standard_lookup_table     1006cbd8     libucrt:output.obj
 0002:00006c48       _format_validation_lookup_table 1006cc48     libucrt:output.obj
 0002:00006cb8       ??_C@_06OJHGLDPL@?$CInull?$CJ?$AA@ 1006ccb8     libucrt:output.obj
 0002:00006cc0       ??_C@_1O@CEDCILHN@?$AA?$CI?$AAn?$AAu?$AAl?$AAl?$AA?$CJ?$AA?$AA@ 1006ccc0     libucrt:output.obj
 0002:00006cd0       ??_C@_0CF@GOGNBNAK@Microsoft?5Visual?5C?$CL?$CL?5Runtime?5Lib@ 1006ccd0     libucrt:assert.obj
 0002:00006d00       ??_C@_1EK@MBDPDCGA@?$AAM?$AAi?$AAc?$AAr?$AAo?$AAs?$AAo?$AAf?$AAt?$AA?5?$AAV?$AAi?$AAs?$AAu?$AAa?$AAl?$AA?5?$AAC?$AA?$CL?$AA?$CL?$AA?5?$AAR?$AAu?$AAn?$AAt?$AAi?$AAm?$AAe?$AA?5?$AAL?$AAi?$AAb@ 1006cd00     libucrt:assert.obj
 0002:00006d58       ??_C@_0CK@CFPGFGGO@Assertion?5failed?3?5?$CFTs?0?5file?5?$CFTs?0@ 1006cd58     libucrt:assert.obj
 0002:00006d90       ??_C@_1FE@LHBLIKM@?$AAA?$AAs?$AAs?$AAe?$AAr?$AAt?$AAi?$AAo?$AAn?$AA?5?$AAf?$AAa?$AAi?$AAl?$AAe?$AAd?$AA?3?$AA?5?$AA?$CF?$AAT?$AAs?$AA?0?$AA?5?$AAf?$AAi?$AAl?$AAe?$AA?5?$AA?$CF?$AAT?$AAs?$AA?0@ 1006cd90     libucrt:assert.obj
 0002:00006df4       ??_C@_0BC@LAIDCHCH@Assertion?5failed?$CB?$AA@ 1006cdf4     libucrt:assert.obj
 0002:00006e0c       ??_C@_1CE@OJBNHDMO@?$AAA?$AAs?$AAs?$AAe?$AAr?$AAt?$AAi?$AAo?$AAn?$AA?5?$AAf?$AAa?$AAi?$AAl?$AAe?$AAd?$AA?$CB?$AA?$AA@ 1006ce0c     libucrt:assert.obj
 0002:00006e38       ??_C@_09KLGCKDOD@Program?3?5?$AA@ 1006ce38     libucrt:assert.obj
 0002:00006e44       ??_C@_1BE@PHKBBGE@?$AAP?$AAr?$AAo?$AAg?$AAr?$AAa?$AAm?$AA?3?$AA?5?$AA?$AA@ 1006ce44     libucrt:assert.obj
 0002:00006e5c       ??_C@_06IGPBOHMJ@File?3?5?$AA@ 1006ce5c     libucrt:assert.obj
 0002:00006e64       ??_C@_1O@HEMHKNDC@?$AAF?$AAi?$AAl?$AAe?$AA?3?$AA?5?$AA?$AA@ 1006ce64     libucrt:assert.obj
 0002:00006e74       ??_C@_06FIEBOLOH@Line?3?5?$AA@ 1006ce74     libucrt:assert.obj
 0002:00006e7c       ??_C@_1O@KCAFKHJE@?$AAL?$AAi?$AAn?$AAe?$AA?3?$AA?5?$AA?$AA@ 1006ce7c     libucrt:assert.obj
 0002:00006e8c       ??_C@_0N@MEECIJGN@Expression?3?5?$AA@ 1006ce8c     libucrt:assert.obj
 0002:00006e9c       ??_C@_1BK@PEDCIPMA@?$AAE?$AAx?$AAp?$AAr?$AAe?$AAs?$AAs?$AAi?$AAo?$AAn?$AA?3?$AA?5?$AA?$AA@ 1006ce9c     libucrt:assert.obj
 0002:00006ec0       ??_C@_0HA@OJHAGA@For?5information?5on?5how?5your?5prog@ 1006cec0     libucrt:assert.obj
 0002:00006f48       ??_C@_1OA@EGMLFBHJ@?$AAF?$AAo?$AAr?$AA?5?$AAi?$AAn?$AAf?$AAo?$AAr?$AAm?$AAa?$AAt?$AAi?$AAo?$AAn?$AA?5?$AAo?$AAn?$AA?5?$AAh?$AAo?$AAw?$AA?5?$AAy?$AAo?$AAu?$AAr?$AA?5?$AAp?$AAr?$AAo?$AAg@ 1006cf48     libucrt:assert.obj
 0002:00007054       ??_C@_0DN@EBBNMLME@?$CIPress?5Retry?5to?5debug?5the?5applic@ 1006d054     libucrt:assert.obj
 0002:000070a0       ??_C@_1HK@POCJMFGK@?$AA?$CI?$AAP?$AAr?$AAe?$AAs?$AAs?$AA?5?$AAR?$AAe?$AAt?$AAr?$AAy?$AA?5?$AAt?$AAo?$AA?5?$AAd?$AAe?$AAb?$AAu?$AAg?$AA?5?$AAt?$AAh?$AAe?$AA?5?$AAa?$AAp?$AAp?$AAl?$AAi?$AAc@ 1006d0a0     libucrt:assert.obj
 0002:00007134       ??_C@_17LGKOMLJ@?$AA?4?$AA?4?$AA?4?$AA?$AA@ 1006d134     libucrt:assert.obj
 0002:00007140       ??_C@_01EEMJAFIK@?6?$AA@   1006d140     libucrt:assert.obj
 0002:00007144       ??_C@_13LBAGMAIH@?$AA?6?$AA?$AA@ 1006d144     libucrt:assert.obj
 0002:00007148       ??_C@_02PHMGELLB@?6?6?$AA@ 1006d148     libucrt:assert.obj
 0002:0000714c       ??_C@_15IABLJNFO@?$AA?6?$AA?6?$AA?$AA@ 1006d14c     libucrt:assert.obj
 0002:00007154       ??_C@_0BH@DNAGHKFM@?$DMprogram?5name?5unknown?$DO?$AA@ 1006d154     libucrt:assert.obj
 0002:00007170       ??_C@_1CO@EAEJAADC@?$AA?$DM?$AAp?$AAr?$AAo?$AAg?$AAr?$AAa?$AAm?$AA?5?$AAn?$AAa?$AAm?$AAe?$AA?5?$AAu?$AAn?$AAk?$AAn?$AAo?$AAw?$AAn?$AA?$DO?$AA?$AA@ 1006d170     libucrt:assert.obj
 0002:000071a8       _RtlNtPathSeperatorString  1006d1a8     libucrt:exit.obj
 0002:000071b4       ??_C@_13FPGAJAPJ@?$AA?2?$AA?$AA@ 1006d1b4     libucrt:exit.obj
 0002:000071b8       _RtlDosPathSeperatorsString 1006d1b8     libucrt:exit.obj
 0002:000071c4       ??_C@_15MNCACJLI@?$AA?2?$AA?1?$AA?$AA@ 1006d1c4     libucrt:exit.obj
 0002:000071cc       _RtlAlternateDosPathSeperatorString 1006d1cc     libucrt:exit.obj
 0002:000071d8       ??_C@_13CGOKJPIL@?$AA?1?$AA?$AA@ 1006d1d8     libucrt:exit.obj
 0002:000071dc       ??_C@_1BI@BGOHAHKC@?$AAm?$AAs?$AAc?$AAo?$AAr?$AAe?$AAe?$AA?4?$AAd?$AAl?$AAl?$AA?$AA@ 1006d1dc     libucrt:exit.obj
 0002:000071f8       ??_C@_0P@MIGLKIOC@CorExitProcess?$AA@ 1006d1f8     libucrt:exit.obj
 0002:0000720c       ??_C@_04FJHINJAO@tanh?$AA@ 1006d20c     libucrt:fpexcept.obj
 0002:00007214       ??_C@_04FIHNOPOL@asin?$AA@ 1006d214     libucrt:fpexcept.obj
 0002:0000721c       ??_C@_04PDIFKINK@acos?$AA@ 1006d21c     libucrt:fpexcept.obj
 0002:00007224       ??_C@_04MLLJIGOK@atan?$AA@ 1006d224     libucrt:fpexcept.obj
 0002:0000722c       ??_C@_05KNGEOGJB@atan2?$AA@ 1006d22c     libucrt:fpexcept.obj
 0002:00007234       ??_C@_04EIAKFFMI@sqrt?$AA@ 1006d234     libucrt:fpexcept.obj
 0002:0000723c       ??_C@_03BLEJJJBH@sin?$AA@  1006d23c     libucrt:fpexcept.obj
 0002:00007240       ??_C@_03LALBNOCG@cos?$AA@  1006d240     libucrt:fpexcept.obj
 0002:00007244       ??_C@_03IIINPABG@tan?$AA@  1006d244     libucrt:fpexcept.obj
 0002:00007248       ??_C@_04GFPJNGEK@ceil?$AA@ 1006d248     libucrt:fpexcept.obj
 0002:00007250       ??_C@_05PBJFFIGL@floor?$AA@ 1006d250     libucrt:fpexcept.obj
 0002:00007258       ??_C@_04ODHECPBC@fabs?$AA@ 1006d258     libucrt:fpexcept.obj
 0002:00007260       ??_C@_04EHEDPDJG@modf?$AA@ 1006d260     libucrt:fpexcept.obj
 0002:00007268       ??_C@_05CEJMAHNP@ldexp?$AA@ 1006d268     libucrt:fpexcept.obj
 0002:00007270       ??_C@_05KBKMEMPO@_cabs?$AA@ 1006d270     libucrt:fpexcept.obj
 0002:00007278       ??_C@_06MEIMCGCF@_hypot?$AA@ 1006d278     libucrt:fpexcept.obj
 0002:00007280       ??_C@_04KEPJIHGP@fmod?$AA@ 1006d280     libucrt:fpexcept.obj
 0002:00007288       ??_C@_05GKKHEGJL@frexp?$AA@ 1006d288     libucrt:fpexcept.obj
 0002:00007290       ??_C@_03MJLDFKDL@_y0?$AA@  1006d290     libucrt:fpexcept.obj
 0002:00007294       ??_C@_03NAKIGLHK@_y1?$AA@  1006d294     libucrt:fpexcept.obj
 0002:00007298       ??_C@_03ONILCKOB@_yn?$AA@  1006d298     libucrt:fpexcept.obj
 0002:0000729c       ??_C@_05JGDBENOH@_logb?$AA@ 1006d29c     libucrt:fpexcept.obj
 0002:000072a4       ??_C@_0L@KDOEJCKC@_nextafter?$AA@ 1006d2a4     libucrt:fpexcept.obj
 0002:000073d0       ??_C@_03KHJOGHMM@exp?$AA@  1006d3d0     libucrt:fpexcept.obj
 0002:000073d4       ??_C@_03JGHBODFD@pow?$AA@  1006d3d4     libucrt:fpexcept.obj
 0002:000073d8       ??_C@_03MGHMBJCF@log?$AA@  1006d3d8     libucrt:fpexcept.obj
 0002:000073dc       ??_C@_05HGHHAHAP@log10?$AA@ 1006d3dc     libucrt:fpexcept.obj
 0002:000073e4       ??_C@_04COOMCNPB@sinh?$AA@ 1006d3e4     libucrt:fpexcept.obj
 0002:000073ec       ??_C@_04HPJJNFIM@cosh?$AA@ 1006d3ec     libucrt:fpexcept.obj
 0002:000073f8       ___acrt_exception_action_table 1006d3f8     libucrt:exception_filter.obj
 0002:000074a4       ___acrt_signal_action_table_count 1006d4a4     libucrt:exception_filter.obj
 0002:000074a8       ___acrt_signal_action_table_size 1006d4a8     libucrt:exception_filter.obj
 0002:000074ac       ___acrt_signal_action_first_fpe_index 1006d4ac     libucrt:exception_filter.obj
 0002:000074b0       ___acrt_signal_action_fpe_count 1006d4b0     libucrt:exception_filter.obj
 0002:00007548       ??_C@_1BG@HHIFPOEK@?$AAm?$AAs?$AAv?$AAc?$AAr?$AAt?$AA?4?$AAd?$AAl?$AAl?$AA?$AA@ 1006d548     libucrt:free_base.obj
 0002:00007564       __Fenv0                    1006d564     libucrt:atox.obj
 0002:00007780       ??_C@_1EG@CNNIPFIM@?$AAa?$AAp?$AAi?$AA?9?$AAm?$AAs?$AA?9?$AAw?$AAi?$AAn?$AA?9?$AAa?$AAp?$AAp?$AAm?$AAo?$AAd?$AAe?$AAl?$AA?9?$AAr?$AAu?$AAn?$AAt?$AAi?$AAm?$AAe?$AA?9?$AAl?$AA1?$AA?9?$AA1@ 1006d780     libucrt:winapi_thunks.obj
 0002:000077d8       ??_C@_1EA@JGEFHKEI@?$AAa?$AAp?$AAi?$AA?9?$AAm?$AAs?$AA?9?$AAw?$AAi?$AAn?$AA?9?$AAc?$AAo?$AAr?$AAe?$AA?9?$AAd?$AAa?$AAt?$AAe?$AAt?$AAi?$AAm?$AAe?$AA?9?$AAl?$AA1?$AA?9?$AA1?$AA?9?$AA1?$AA?$AA@ 1006d7d8     libucrt:winapi_thunks.obj
 0002:00007824       ??_C@_1DI@GCIAAENM@?$AAa?$AAp?$AAi?$AA?9?$AAm?$AAs?$AA?9?$AAw?$AAi?$AAn?$AA?9?$AAc?$AAo?$AAr?$AAe?$AA?9?$AAf?$AAi?$AAl?$AAe?$AA?9?$AAl?$AA2?$AA?9?$AA1?$AA?9?$AA1?$AA?$AA@ 1006d824     libucrt:winapi_thunks.obj
 0002:00007868       ??_C@_1EI@MPIAOHOC@?$AAa?$AAp?$AAi?$AA?9?$AAm?$AAs?$AA?9?$AAw?$AAi?$AAn?$AA?9?$AAc?$AAo?$AAr?$AAe?$AA?9?$AAl?$AAo?$AAc?$AAa?$AAl?$AAi?$AAz?$AAa?$AAt?$AAi?$AAo?$AAn?$AA?9?$AAl?$AA1?$AA?9@ 1006d868     libucrt:winapi_thunks.obj
 0002:000078c0       ??_C@_1FK@FPHCKFIE@?$AAa?$AAp?$AAi?$AA?9?$AAm?$AAs?$AA?9?$AAw?$AAi?$AAn?$AA?9?$AAc?$AAo?$AAr?$AAe?$AA?9?$AAl?$AAo?$AAc?$AAa?$AAl?$AAi?$AAz?$AAa?$AAt?$AAi?$AAo?$AAn?$AA?9?$AAo?$AAb?$AAs@ 1006d8c0     libucrt:winapi_thunks.obj
 0002:00007930       ??_C@_1EM@DILCGIIO@?$AAa?$AAp?$AAi?$AA?9?$AAm?$AAs?$AA?9?$AAw?$AAi?$AAn?$AA?9?$AAc?$AAo?$AAr?$AAe?$AA?9?$AAp?$AAr?$AAo?$AAc?$AAe?$AAs?$AAs?$AAt?$AAh?$AAr?$AAe?$AAa?$AAd?$AAs?$AA?9?$AAl@ 1006d930     libucrt:winapi_thunks.obj
 0002:0000798c       ??_C@_1DM@LNCGDDPN@?$AAa?$AAp?$AAi?$AA?9?$AAm?$AAs?$AA?9?$AAw?$AAi?$AAn?$AA?9?$AAc?$AAo?$AAr?$AAe?$AA?9?$AAs?$AAt?$AAr?$AAi?$AAn?$AAg?$AA?9?$AAl?$AA1?$AA?9?$AA1?$AA?9?$AA0?$AA?$AA@ 1006d98c     libucrt:winapi_thunks.obj
 0002:000079d4       ??_C@_1DO@FPAPJEMD@?$AAa?$AAp?$AAi?$AA?9?$AAm?$AAs?$AA?9?$AAw?$AAi?$AAn?$AA?9?$AAc?$AAo?$AAr?$AAe?$AA?9?$AAs?$AAy?$AAs?$AAi?$AAn?$AAf?$AAo?$AA?9?$AAl?$AA1?$AA?9?$AA2?$AA?9?$AA1?$AA?$AA@ 1006d9d4     libucrt:winapi_thunks.obj
 0002:00007a20       ??_C@_1DK@NDHNAHIO@?$AAa?$AAp?$AAi?$AA?9?$AAm?$AAs?$AA?9?$AAw?$AAi?$AAn?$AA?9?$AAc?$AAo?$AAr?$AAe?$AA?9?$AAw?$AAi?$AAn?$AAr?$AAt?$AA?9?$AAl?$AA1?$AA?9?$AA1?$AA?9?$AA0?$AA?$AA@ 1006da20     libucrt:winapi_thunks.obj
 0002:00007a68       ??_C@_1DM@KGHDGBCM@?$AAa?$AAp?$AAi?$AA?9?$AAm?$AAs?$AA?9?$AAw?$AAi?$AAn?$AA?9?$AAc?$AAo?$AAr?$AAe?$AA?9?$AAx?$AAs?$AAt?$AAa?$AAt?$AAe?$AA?9?$AAl?$AA2?$AA?9?$AA1?$AA?9?$AA0?$AA?$AA@ 1006da68     libucrt:winapi_thunks.obj
 0002:00007ab0       ??_C@_1EO@IJIOEFOH@?$AAa?$AAp?$AAi?$AA?9?$AAm?$AAs?$AA?9?$AAw?$AAi?$AAn?$AA?9?$AAr?$AAt?$AAc?$AAo?$AAr?$AAe?$AA?9?$AAn?$AAt?$AAu?$AAs?$AAe?$AAr?$AA?9?$AAw?$AAi?$AAn?$AAd?$AAo?$AAw?$AA?9@ 1006dab0     libucrt:winapi_thunks.obj
 0002:00007b10       ??_C@_1FG@HHGEKANL@?$AAa?$AAp?$AAi?$AA?9?$AAm?$AAs?$AA?9?$AAw?$AAi?$AAn?$AA?9?$AAs?$AAe?$AAc?$AAu?$AAr?$AAi?$AAt?$AAy?$AA?9?$AAs?$AAy?$AAs?$AAt?$AAe?$AAm?$AAf?$AAu?$AAn?$AAc?$AAt?$AAi@ 1006db10     libucrt:winapi_thunks.obj
 0002:00007b78       ??_C@_1FG@NCKKOLKO@?$AAe?$AAx?$AAt?$AA?9?$AAm?$AAs?$AA?9?$AAw?$AAi?$AAn?$AA?9?$AAk?$AAe?$AAr?$AAn?$AAe?$AAl?$AA3?$AA2?$AA?9?$AAp?$AAa?$AAc?$AAk?$AAa?$AAg?$AAe?$AA?9?$AAc?$AAu?$AAr?$AAr@ 1006db78     libucrt:winapi_thunks.obj
 0002:00007be0       ??_C@_1EG@DBIOJECG@?$AAe?$AAx?$AAt?$AA?9?$AAm?$AAs?$AA?9?$AAw?$AAi?$AAn?$AA?9?$AAn?$AAt?$AAu?$AAs?$AAe?$AAr?$AA?9?$AAd?$AAi?$AAa?$AAl?$AAo?$AAg?$AAb?$AAo?$AAx?$AA?9?$AAl?$AA1?$AA?9?$AA1@ 1006dbe0     libucrt:winapi_thunks.obj
 0002:00007c38       ??_C@_1EO@FIHMJCLF@?$AAe?$AAx?$AAt?$AA?9?$AAm?$AAs?$AA?9?$AAw?$AAi?$AAn?$AA?9?$AAn?$AAt?$AAu?$AAs?$AAe?$AAr?$AA?9?$AAw?$AAi?$AAn?$AAd?$AAo?$AAw?$AAs?$AAt?$AAa?$AAt?$AAi?$AAo?$AAn?$AA?9@ 1006dc38     libucrt:winapi_thunks.obj
 0002:00007c98       ??_C@_1O@BCCLBEOE@?$AAu?$AAs?$AAe?$AAr?$AA3?$AA2?$AA?$AA@ 1006dc98     libucrt:winapi_thunks.obj
 0002:00007cac       ??_C@_0BA@FHFNEAED@AreFileApisANSI?$AA@ 1006dcac     libucrt:winapi_thunks.obj
 0002:00007ccc       ??_C@_0BA@IHGNDAEB@CompareStringEx?$AA@ 1006dccc     libucrt:winapi_thunks.obj
 0002:00007cec       ??_C@_0BE@LJANKFHF@EnumSystemLocalesEx?$AA@ 1006dcec     libucrt:winapi_thunks.obj
 0002:00007d40       ??_C@_0BA@HNOPNCHB@GetActiveWindow?$AA@ 1006dd40     libucrt:winapi_thunks.obj
 0002:00007d60       ??_C@_0BE@JOGNEJCI@GetCurrentPackageId?$AA@ 1006dd60     libucrt:winapi_thunks.obj
 0002:00007d84       ??_C@_0BA@EPCJIIPD@GetDateFormatEx?$AA@ 1006dd84     libucrt:winapi_thunks.obj
 0002:00007da4       ??_C@_0BJ@DIBIJBHA@GetEnabledXStateFeatures?$AA@ 1006dda4     libucrt:winapi_thunks.obj
 0002:00007dd0       ??_C@_0BN@NEEHBBPO@GetFileInformationByHandleEx?$AA@ 1006ddd0     libucrt:winapi_thunks.obj
 0002:00007e00       ??_C@_0BD@HHGDFDBJ@GetLastActivePopup?$AA@ 1006de00     libucrt:winapi_thunks.obj
 0002:00007e24       ??_C@_0BA@ONOKGCMP@GetLocaleInfoEx?$AA@ 1006de24     libucrt:winapi_thunks.obj
 0002:00007e44       ??_C@_0BI@DFKBFLJE@GetProcessWindowStation?$AA@ 1006de44     libucrt:winapi_thunks.obj
 0002:00007e64       ??_C@_0BP@FPNJPEJC@GetSystemTimePreciseAsFileTime?$AA@ 1006de64     libucrt:winapi_thunks.obj
 0002:00007e98       ??_C@_0BA@CIJJKCJJ@GetTimeFormatEx?$AA@ 1006de98     libucrt:winapi_thunks.obj
 0002:00007eb8       ??_C@_0BJ@PBCCBIPI@GetUserDefaultLocaleName?$AA@ 1006deb8     libucrt:winapi_thunks.obj
 0002:00007ee4       ??_C@_0BK@DEKFELLI@GetUserObjectInformationW?$AA@ 1006dee4     libucrt:winapi_thunks.obj
 0002:00007f10       ??_C@_0BG@IKLDMBLM@GetXStateFeaturesMask?$AA@ 1006df10     libucrt:winapi_thunks.obj
 0002:00007f44       ??_C@_0BC@CELBKLLA@IsValidLocaleName?$AA@ 1006df44     libucrt:winapi_thunks.obj
 0002:00007f68       ??_C@_0O@KKBNKAPF@LCMapStringEx?$AA@ 1006df68     libucrt:winapi_thunks.obj
 0002:00007f84       ??_C@_0BB@CDHDDLLP@LCIDToLocaleName?$AA@ 1006df84     libucrt:winapi_thunks.obj
 0002:00007fa4       ??_C@_0BB@HBDEELFH@LocaleNameToLCID?$AA@ 1006dfa4     libucrt:winapi_thunks.obj
 0002:00007fc4       ??_C@_0BE@KINNKFDA@LocateXStateFeature?$AA@ 1006dfc4     libucrt:winapi_thunks.obj
 0002:00007fe8       ??_C@_0M@CHKKJDAI@MessageBoxA?$AA@ 1006dfe8     libucrt:winapi_thunks.obj
 0002:00008004       ??_C@_0M@DLDCCGNP@MessageBoxW?$AA@ 1006e004     libucrt:winapi_thunks.obj
 0002:00008018       ??_C@_0N@PPOMPGGK@RoInitialize?$AA@ 1006e018     libucrt:winapi_thunks.obj
 0002:0000802c       ??_C@_0P@LLFHBIJD@RoUninitialize?$AA@ 1006e02c     libucrt:winapi_thunks.obj
 0002:0000804c       ??_C@_0BI@BKLFFAPO@SetThreadStackGuarantee?$AA@ 1006e04c     libucrt:winapi_thunks.obj
 0002:00008074       ??_C@_0BC@JEAENNKH@SystemFunction036?$AA@ 1006e074     libucrt:winapi_thunks.obj
 0002:0000808c       ??_C@_03OEIAHPBN@INF?$AA@  1006e08c     libucrt:cvt.obj
 0002:00008090       ??_C@_03OJHLLCGB@inf?$AA@  1006e090     libucrt:cvt.obj
 0002:00008094       ??_C@_03LKNCIKJB@NAN?$AA@  1006e094     libucrt:cvt.obj
 0002:00008098       ??_C@_03LHCJEHON@nan?$AA@  1006e098     libucrt:cvt.obj
 0002:0000809c       ??_C@_09OFJJIMPC@NAN?$CISNAN?$CJ?$AA@ 1006e09c     libucrt:cvt.obj
 0002:000080a8       ??_C@_09IPFBKMDL@nan?$CIsnan?$CJ?$AA@ 1006e0a8     libucrt:cvt.obj
 0002:000080b4       ??_C@_08IKHNHAJ@NAN?$CIIND?$CJ?$AA@ 1006e0b4     libucrt:cvt.obj
 0002:000080c0       ??_C@_08OFCDMILK@nan?$CIind?$CJ?$AA@ 1006e0c0     libucrt:cvt.obj
 0002:000080cc       ??_C@_05KLBDPFGC@e?$CL000?$AA@ 1006e0cc     libucrt:cvt.obj
 0002:000080d8       ___lc_category             1006e0d8     libucrt:wsetlocale.obj
 0002:00008130       ??_C@_1O@GIFLHMA@?$AAL?$AAC?$AA_?$AAA?$AAL?$AAL?$AA?$AA@ 1006e130     libucrt:wsetlocale.obj
 0002:00008140       ??_C@_1BG@PPOMIBNJ@?$AAL?$AAC?$AA_?$AAC?$AAO?$AAL?$AAL?$AAA?$AAT?$AAE?$AA?$AA@ 1006e140     libucrt:wsetlocale.obj
 0002:0000815c       ??_C@_1BC@FFJGAPJM@?$AAL?$AAC?$AA_?$AAC?$AAT?$AAY?$AAP?$AAE?$AA?$AA@ 1006e15c     libucrt:wsetlocale.obj
 0002:00008174       ??_C@_1BI@PCKFNJFB@?$AAL?$AAC?$AA_?$AAM?$AAO?$AAN?$AAE?$AAT?$AAA?$AAR?$AAY?$AA?$AA@ 1006e174     libucrt:wsetlocale.obj
 0002:00008190       ??_C@_1BG@ENIEDKID@?$AAL?$AAC?$AA_?$AAN?$AAU?$AAM?$AAE?$AAR?$AAI?$AAC?$AA?$AA@ 1006e190     libucrt:wsetlocale.obj
 0002:000081ac       ??_C@_1BA@HAAOMIIG@?$AAL?$AAC?$AA_?$AAT?$AAI?$AAM?$AAE?$AA?$AA@ 1006e1ac     libucrt:wsetlocale.obj
 0002:00008258       ??_C@_15NBPDDFIP@?$AA?$DN?$AA?$DL?$AA?$AA@ 1006e258     libucrt:wsetlocale.obj
 0002:00008260       ??_C@_13PJJBFPED@?$AA?$DL?$AA?$AA@ 1006e260     libucrt:wsetlocale.obj
 0002:00008264       ??_C@_13NMPKAAJP@?$AA?$DN?$AA?$AA@ 1006e264     libucrt:wsetlocale.obj
 0002:00008268       ??_C@_13FHBKNHDA@?$AAC?$AA?$AA@ 1006e268     libucrt:wsetlocale.obj
 0002:0000826c       ??_C@_17MBJJLFDM@?$AA_?$AA?4?$AA?0?$AA?$AA@ 1006e26c     libucrt:wsetlocale.obj
 0002:00008278       ??_C@_13ENNFDPBH@?$AA_?$AA?$AA@ 1006e278     libucrt:wsetlocale.obj
 0002:0000827c       ??_C@_13JOFGPIOO@?$AA?4?$AA?$AA@ 1006e27c     libucrt:wsetlocale.obj
 0002:00008280       ??_C@_03KOEHGMDN@Sun?$AA@  1006e280     libucrt:nlsdata.obj
 0002:00008284       ??_C@_03PDAGKDH@Mon?$AA@   1006e284     libucrt:nlsdata.obj
 0002:00008288       ??_C@_03NAGEINEP@Tue?$AA@  1006e288     libucrt:nlsdata.obj
 0002:0000828c       ??_C@_03MHOMLAJA@Wed?$AA@  1006e28c     libucrt:nlsdata.obj
 0002:00008290       ??_C@_03IOFIKPDN@Thu?$AA@  1006e290     libucrt:nlsdata.obj
 0002:00008294       ??_C@_03IDIOELNC@Fri?$AA@  1006e294     libucrt:nlsdata.obj
 0002:00008298       ??_C@_03FEFJNEK@Sat?$AA@   1006e298     libucrt:nlsdata.obj
 0002:0000829c       ??_C@_06OOPIFAJ@Sunday?$AA@ 1006e29c     libucrt:nlsdata.obj
 0002:000082a4       ??_C@_06JLEDEDGH@Monday?$AA@ 1006e2a4     libucrt:nlsdata.obj
 0002:000082ac       ??_C@_07BAAGCFCM@Tuesday?$AA@ 1006e2ac     libucrt:nlsdata.obj
 0002:000082b8       ??_C@_09DLIGFAKA@Wednesday?$AA@ 1006e2b8     libucrt:nlsdata.obj
 0002:000082c4       ??_C@_08HACCIKIA@Thursday?$AA@ 1006e2c4     libucrt:nlsdata.obj
 0002:000082d0       ??_C@_06JECMNKMI@Friday?$AA@ 1006e2d0     libucrt:nlsdata.obj
 0002:000082d8       ??_C@_08INBOOONO@Saturday?$AA@ 1006e2d8     libucrt:nlsdata.obj
 0002:000082e4       ??_C@_03JIHJHPIE@Jan?$AA@  1006e2e4     libucrt:nlsdata.obj
 0002:000082e8       ??_C@_03HJBDCHOM@Feb?$AA@  1006e2e8     libucrt:nlsdata.obj
 0002:000082ec       ??_C@_03ODNJBKGA@Mar?$AA@  1006e2ec     libucrt:nlsdata.obj
 0002:000082f0       ??_C@_03LEOLGMJP@Apr?$AA@  1006e2f0     libucrt:nlsdata.obj
 0002:000082f4       ??_C@_03CNMDKL@May?$AA@    1006e2f4     libucrt:nlsdata.obj
 0002:000082f8       ??_C@_03IDFGHECI@Jun?$AA@  1006e2f8     libucrt:nlsdata.obj
 0002:000082fc       ??_C@_03LBGABGKK@Jul?$AA@  1006e2fc     libucrt:nlsdata.obj
 0002:00008300       ??_C@_03IFJFEIGA@Aug?$AA@  1006e300     libucrt:nlsdata.obj
 0002:00008304       ??_C@_03GGCAPAJC@Sep?$AA@  1006e304     libucrt:nlsdata.obj
 0002:00008308       ??_C@_03BMAOKBAD@Oct?$AA@  1006e308     libucrt:nlsdata.obj
 0002:0000830c       ??_C@_03JPJOFNIA@Nov?$AA@  1006e30c     libucrt:nlsdata.obj
 0002:00008310       ??_C@_03MKABNOCG@Dec?$AA@  1006e310     libucrt:nlsdata.obj
 0002:00008314       ??_C@_07CGJPFGJA@January?$AA@ 1006e314     libucrt:nlsdata.obj
 0002:00008320       ??_C@_08GNJGEPFN@February?$AA@ 1006e320     libucrt:nlsdata.obj
 0002:0000832c       ??_C@_05HPCKOFNC@March?$AA@ 1006e32c     libucrt:nlsdata.obj
 0002:00008334       ??_C@_05DMJDNLEJ@April?$AA@ 1006e334     libucrt:nlsdata.obj
 0002:0000833c       ??_C@_04CNLMGBGM@June?$AA@ 1006e33c     libucrt:nlsdata.obj
 0002:00008344       ??_C@_04MIEPOIFP@July?$AA@ 1006e344     libucrt:nlsdata.obj
 0002:0000834c       ??_C@_06LBBHFDDG@August?$AA@ 1006e34c     libucrt:nlsdata.obj
 0002:00008354       ??_C@_09BHHEALKD@September?$AA@ 1006e354     libucrt:nlsdata.obj
 0002:00008360       ??_C@_07JJNFCEND@October?$AA@ 1006e360     libucrt:nlsdata.obj
 0002:0000836c       ??_C@_08HCHEGEOA@November?$AA@ 1006e36c     libucrt:nlsdata.obj
 0002:00008378       ??_C@_08EDHMEBNP@December?$AA@ 1006e378     libucrt:nlsdata.obj
 0002:00008384       ??_C@_02DEDBPAFC@AM?$AA@   1006e384     libucrt:nlsdata.obj
 0002:00008388       ??_C@_02CJNFDJBF@PM?$AA@   1006e388     libucrt:nlsdata.obj
 0002:0000838c       ??_C@_08BPBNCDIB@MM?1dd?1yy?$AA@ 1006e38c     libucrt:nlsdata.obj
 0002:00008398       ??_C@_0BE@CKGJFCPC@dddd?0?5MMMM?5dd?0?5yyyy?$AA@ 1006e398     libucrt:nlsdata.obj
 0002:000083b0       ??_C@_08JCCMCCIL@HH?3mm?3ss?$AA@ 1006e3b0     libucrt:nlsdata.obj
 0002:000083bc       ??_C@_17MBGCMIPB@?$AAS?$AAu?$AAn?$AA?$AA@ 1006e3bc     libucrt:nlsdata.obj
 0002:000083c8       ??_C@_17KBOMKBF@?$AAM?$AAo?$AAn?$AA?$AA@ 1006e3c8     libucrt:nlsdata.obj
 0002:000083d4       ??_C@_17BMKGEGOJ@?$AAT?$AAu?$AAe?$AA?$AA@ 1006e3d4     libucrt:nlsdata.obj
 0002:000083e0       ??_C@_17CJEDCEPE@?$AAW?$AAe?$AAd?$AA?$AA@ 1006e3e0     libucrt:nlsdata.obj
 0002:000083ec       ??_C@_17PDPHAADD@?$AAT?$AAh?$AAu?$AA?$AA@ 1006e3ec     libucrt:nlsdata.obj
 0002:000083f8       ??_C@_17HFOLPPLP@?$AAF?$AAr?$AAi?$AA?$AA@ 1006e3f8     libucrt:nlsdata.obj
 0002:00008404       ??_C@_17GGIBDPIH@?$AAS?$AAa?$AAt?$AA?$AA@ 1006e404     libucrt:nlsdata.obj
 0002:00008410       ??_C@_1O@IHNHDHPB@?$AAS?$AAu?$AAn?$AAd?$AAa?$AAy?$AA?$AA@ 1006e410     libucrt:nlsdata.obj
 0002:00008420       ??_C@_1O@MMNBFLIA@?$AAM?$AAo?$AAn?$AAd?$AAa?$AAy?$AA?$AA@ 1006e420     libucrt:nlsdata.obj
 0002:00008430       ??_C@_1BA@ENFBFFEK@?$AAT?$AAu?$AAe?$AAs?$AAd?$AAa?$AAy?$AA?$AA@ 1006e430     libucrt:nlsdata.obj
 0002:00008444       ??_C@_1BE@EBOGMDOH@?$AAW?$AAe?$AAd?$AAn?$AAe?$AAs?$AAd?$AAa?$AAy?$AA?$AA@ 1006e444     libucrt:nlsdata.obj
 0002:0000845c       ??_C@_1BC@HHMNLIHE@?$AAT?$AAh?$AAu?$AAr?$AAs?$AAd?$AAa?$AAy?$AA?$AA@ 1006e45c     libucrt:nlsdata.obj
 0002:00008474       ??_C@_1O@PDICJHAG@?$AAF?$AAr?$AAi?$AAd?$AAa?$AAy?$AA?$AA@ 1006e474     libucrt:nlsdata.obj
 0002:00008484       ??_C@_1BC@ENMNNPAJ@?$AAS?$AAa?$AAt?$AAu?$AAr?$AAd?$AAa?$AAy?$AA?$AA@ 1006e484     libucrt:nlsdata.obj
 0002:0000849c       ??_C@_17DKNBKCHM@?$AAJ?$AAa?$AAn?$AA?$AA@ 1006e49c     libucrt:nlsdata.obj
 0002:000084a8       ??_C@_17LMDJEKJN@?$AAF?$AAe?$AAb?$AA?$AA@ 1006e4a8     libucrt:nlsdata.obj
 0002:000084b4       ??_C@_17CKNLEDEC@?$AAM?$AAa?$AAr?$AA?$AA@ 1006e4b4     libucrt:nlsdata.obj
 0002:000084c0       ??_C@_17LFPOIHDD@?$AAA?$AAp?$AAr?$AA?$AA@ 1006e4c0     libucrt:nlsdata.obj
 0002:000084cc       ??_C@_17PNNKMEED@?$AAM?$AAa?$AAy?$AA?$AA@ 1006e4cc     libucrt:nlsdata.obj
 0002:000084d8       ??_C@_17KCJGOCPB@?$AAJ?$AAu?$AAn?$AA?$AA@ 1006e4d8     libucrt:nlsdata.obj
 0002:000084e4       ??_C@_17IJPCKHK@?$AAJ?$AAu?$AAl?$AA?$AA@ 1006e4e4     libucrt:nlsdata.obj
 0002:000084f0       ??_C@_17ICPELBCN@?$AAA?$AAu?$AAg?$AA?$AA@ 1006e4f0     libucrt:nlsdata.obj
 0002:000084fc       ??_C@_17HCHCOKMG@?$AAS?$AAe?$AAp?$AA?$AA@ 1006e4fc     libucrt:nlsdata.obj
 0002:00008508       ??_C@_17FNLKOI@?$AAO?$AAc?$AAt?$AA?$AA@ 1006e508     libucrt:nlsdata.obj
 0002:00008514       ??_C@_17BBDMLCIG@?$AAN?$AAo?$AAv?$AA?$AA@ 1006e514     libucrt:nlsdata.obj
 0002:00008520       ??_C@_17EGKACKIF@?$AAD?$AAe?$AAc?$AA?$AA@ 1006e520     libucrt:nlsdata.obj
 0002:0000852c       ??_C@_1BA@EFMEIEBA@?$AAJ?$AAa?$AAn?$AAu?$AAa?$AAr?$AAy?$AA?$AA@ 1006e52c     libucrt:nlsdata.obj
 0002:00008540       ??_C@_1BC@JGDDFFAM@?$AAF?$AAe?$AAb?$AAr?$AAu?$AAa?$AAr?$AAy?$AA?$AA@ 1006e540     libucrt:nlsdata.obj
 0002:00008558       ??_C@_1M@IKEENEDF@?$AAM?$AAa?$AAr?$AAc?$AAh?$AA?$AA@ 1006e558     libucrt:nlsdata.obj
 0002:00008568       ??_C@_1M@GJNLMHFD@?$AAA?$AAp?$AAr?$AAi?$AAl?$AA?$AA@ 1006e568     libucrt:nlsdata.obj
 0002:00008578       ??_C@_19EPFLPGAP@?$AAJ?$AAu?$AAn?$AAe?$AA?$AA@ 1006e578     libucrt:nlsdata.obj
 0002:00008584       ??_C@_19BIFMLPCD@?$AAJ?$AAu?$AAl?$AAy?$AA?$AA@ 1006e584     libucrt:nlsdata.obj
 0002:00008590       ??_C@_1O@PAHLKOAC@?$AAA?$AAu?$AAg?$AAu?$AAs?$AAt?$AA?$AA@ 1006e590     libucrt:nlsdata.obj
 0002:000085a0       ??_C@_1BE@DKAAMBJL@?$AAS?$AAe?$AAp?$AAt?$AAe?$AAm?$AAb?$AAe?$AAr?$AA?$AA@ 1006e5a0     libucrt:nlsdata.obj
 0002:000085b8       ??_C@_1BA@EPANDLNG@?$AAO?$AAc?$AAt?$AAo?$AAb?$AAe?$AAr?$AA?$AA@ 1006e5b8     libucrt:nlsdata.obj
 0002:000085cc       ??_C@_1BC@BGLIFPF@?$AAN?$AAo?$AAv?$AAe?$AAm?$AAb?$AAe?$AAr?$AA?$AA@ 1006e5cc     libucrt:nlsdata.obj
 0002:000085e4       ??_C@_1BC@FEMKIFH@?$AAD?$AAe?$AAc?$AAe?$AAm?$AAb?$AAe?$AAr?$AA?$AA@ 1006e5e4     libucrt:nlsdata.obj
 0002:000085fc       ??_C@_15ODEHAHHF@?$AAA?$AAM?$AA?$AA@ 1006e5fc     libucrt:nlsdata.obj
 0002:00008604       ??_C@_15CLMNNGEL@?$AAP?$AAM?$AA?$AA@ 1006e604     libucrt:nlsdata.obj
 0002:0000860c       ??_C@_1BC@IEBCMHCM@?$AAM?$AAM?$AA?1?$AAd?$AAd?$AA?1?$AAy?$AAy?$AA?$AA@ 1006e60c     libucrt:nlsdata.obj
 0002:00008624       ??_C@_1CI@KNAKOEBC@?$AAd?$AAd?$AAd?$AAd?$AA?0?$AA?5?$AAM?$AAM?$AAM?$AAM?$AA?5?$AAd?$AAd?$AA?0?$AA?5?$AAy?$AAy?$AAy?$AAy?$AA?$AA@ 1006e624     libucrt:nlsdata.obj
 0002:00008654       ??_C@_1BC@GDGBMEMK@?$AAH?$AAH?$AA?3?$AAm?$AAm?$AA?3?$AAs?$AAs?$AA?$AA@ 1006e654     libucrt:nlsdata.obj
 0002:0000866c       ??_C@_1M@BMHNFIME@?$AAe?$AAn?$AA?9?$AAU?$AAS?$AA?$AA@ 1006e66c     libucrt:nlsdata.obj
 0002:00008680       ___lc_time_c               1006e680     libucrt:nlsdata.obj
 0002:0000882c       ??_C@_1DE@JNGNBFGO@?$AAR?$AAu?$AAn?$AAt?$AAi?$AAm?$AAe?$AA?5?$AAE?$AAr?$AAr?$AAo?$AAr?$AA?$CB?$AA?6?$AA?6?$AAP?$AAr?$AAo?$AAg?$AAr?$AAa?$AAm?$AA?3?$AA?5?$AA?$AA@ 1006e82c     libucrt:report_runtime_error.obj
 0002:0000886c       ?ccs@?BL@???$__acrt_stdio_parse_mode@D@@YA?AU__acrt_stdio_stream_mode@@QBD@Z@4QBDB 1006e86c     libucrt:openfile.obj
 0002:00008870       ?utf8_encoding@?BL@???$__acrt_stdio_parse_mode@D@@YA?AU__acrt_stdio_stream_mode@@QBD@Z@4QBDB 1006e870     libucrt:openfile.obj
 0002:00008878       ?utf16_encoding@?BL@???$__acrt_stdio_parse_mode@D@@YA?AU__acrt_stdio_stream_mode@@QBD@Z@4QBDB 1006e878     libucrt:openfile.obj
 0002:00008884       ?unicode_encoding@?BL@???$__acrt_stdio_parse_mode@D@@YA?AU__acrt_stdio_stream_mode@@QBD@Z@4QBDB 1006e884     libucrt:openfile.obj
 0002:0000888c       ?ccs@?BL@???$__acrt_stdio_parse_mode@_W@@YA?AU__acrt_stdio_stream_mode@@QB_W@Z@4QB_WB 1006e88c     libucrt:openfile.obj
 0002:00008894       ?utf8_encoding@?BL@???$__acrt_stdio_parse_mode@_W@@YA?AU__acrt_stdio_stream_mode@@QB_W@Z@4QB_WB 1006e894     libucrt:openfile.obj
 0002:000088a0       ?utf16_encoding@?BL@???$__acrt_stdio_parse_mode@_W@@YA?AU__acrt_stdio_stream_mode@@QB_W@Z@4QB_WB 1006e8a0     libucrt:openfile.obj
 0002:000088b4       ?unicode_encoding@?BL@???$__acrt_stdio_parse_mode@_W@@YA?AU__acrt_stdio_stream_mode@@QB_W@Z@4QB_WB 1006e8b4     libucrt:openfile.obj
 0002:000088c8       __d_inf                    1006e8c8     libucrt:util.obj
 0002:000088d8       __d_ind                    1006e8d8     libucrt:util.obj
 0002:000088e8       __d_max                    1006e8e8     libucrt:util.obj
 0002:000088f8       __d_min                    1006e8f8     libucrt:util.obj
 0002:00008908       __d_mzero                  1006e908     libucrt:util.obj
 0002:00008948       ??_C@_1M@HPNHIDJI@?$AAj?$AAa?$AA?9?$AAJ?$AAP?$AA?$AA@ 1006e948     libucrt:mbctype.obj
 0002:00008958       ??_C@_1M@BIBDDEMK@?$AAz?$AAh?$AA?9?$AAC?$AAN?$AA?$AA@ 1006e958     libucrt:mbctype.obj
 0002:00008968       ??_C@_1M@JLOOOEGK@?$AAk?$AAo?$AA?9?$AAK?$AAR?$AA?$AA@ 1006e968     libucrt:mbctype.obj
 0002:00008978       ??_C@_1M@CLNBBOPM@?$AAz?$AAh?$AA?9?$AAT?$AAW?$AA?$AA@ 1006e978     libucrt:mbctype.obj
 0002:00008988       __wctype                   1006e988     libucrt:ctype.obj
 0002:00008bf8       ___newctype                1006ebf8     libucrt:ctype.obj
 0002:00008f98       ___newclmap                1006ef98     libucrt:ctype.obj
 0002:00009168       ___newcumap                1006f168     libucrt:ctype.obj
 0002:00009bc4       ??_C@_15EMKDOKLE@?$AAa?$AAr?$AA?$AA@ 1006fbc4     libucrt:lcidtoname_downlevel.obj
 0002:00009bcc       ??_C@_15KNPADPLH@?$AAb?$AAg?$AA?$AA@ 1006fbcc     libucrt:lcidtoname_downlevel.obj
 0002:00009bd4       ??_C@_15EDMHLDMO@?$AAc?$AAa?$AA?$AA@ 1006fbd4     libucrt:lcidtoname_downlevel.obj
 0002:00009bdc       ??_C@_1O@BPEAJADD@?$AAz?$AAh?$AA?9?$AAC?$AAH?$AAS?$AA?$AA@ 1006fbdc     libucrt:lcidtoname_downlevel.obj
 0002:00009bec       ??_C@_15LJNHCMNK@?$AAc?$AAs?$AA?$AA@ 1006fbec     libucrt:lcidtoname_downlevel.obj
 0002:00009bf4       ??_C@_15FOMCIDHG@?$AAd?$AAa?$AA?$AA@ 1006fbf4     libucrt:lcidtoname_downlevel.obj
 0002:00009bfc       ??_C@_15NBKABECB@?$AAd?$AAe?$AA?$AA@ 1006fbfc     libucrt:lcidtoname_downlevel.obj
 0002:00009c04       ??_C@_15GHPEIIAO@?$AAe?$AAl?$AA?$AA@ 1006fc04     libucrt:lcidtoname_downlevel.obj
 0002:00009c0c       ??_C@_15MNPNEAIF@?$AAe?$AAn?$AA?$AA@ 1006fc0c     libucrt:lcidtoname_downlevel.obj
 0002:00009c14       ??_C@_15GPIOMPMH@?$AAe?$AAs?$AA?$AA@ 1006fc14     libucrt:lcidtoname_downlevel.obj
 0002:00009c1c       ??_C@_15NGLOAKJC@?$AAf?$AAi?$AA?$AA@ 1006fc1c     libucrt:lcidtoname_downlevel.obj
 0002:00009c24       ??_C@_15FBKGNKAM@?$AAf?$AAr?$AA?$AA@ 1006fc24     libucrt:lcidtoname_downlevel.obj
 0002:00009c2c       ??_C@_15KGGCNEFK@?$AAh?$AAe?$AA?$AA@ 1006fc2c     libucrt:lcidtoname_downlevel.obj
 0002:00009c34       ??_C@_15PGHLIDMF@?$AAh?$AAu?$AA?$AA@ 1006fc34     libucrt:lcidtoname_downlevel.obj
 0002:00009c3c       ??_C@_15BIEMAPLM@?$AAi?$AAs?$AA?$AA@ 1006fc3c     libucrt:lcidtoname_downlevel.obj
 0002:00009c44       ??_C@_15IFJLDHAF@?$AAi?$AAt?$AA?$AA@ 1006fc44     libucrt:lcidtoname_downlevel.obj
 0002:00009c4c       ??_C@_15GEMIOCAG@?$AAj?$AAa?$AA?$AA@ 1006fc4c     libucrt:lcidtoname_downlevel.obj
 0002:00009c54       ??_C@_15EPELEGJA@?$AAk?$AAo?$AA?$AA@ 1006fc54     libucrt:lcidtoname_downlevel.obj
 0002:00009c5c       ??_C@_15NDDHIMN@?$AAn?$AAl?$AA?$AA@ 1006fc5c     libucrt:lcidtoname_downlevel.obj
 0002:00009c64       ??_C@_15BPIGNHCD@?$AAn?$AAo?$AA?$AA@ 1006fc64     libucrt:lcidtoname_downlevel.obj
 0002:00009c6c       ??_C@_15DEOPBLCG@?$AAp?$AAl?$AA?$AA@ 1006fc6c     libucrt:lcidtoname_downlevel.obj
 0002:00009c74       ??_C@_15KBECGEFG@?$AAp?$AAt?$AA?$AA@ 1006fc74     libucrt:lcidtoname_downlevel.obj
 0002:00009c7c       ??_C@_15GLJCBFMD@?$AAr?$AAo?$AA?$AA@ 1006fc7c     libucrt:lcidtoname_downlevel.obj
 0002:00009c84       ??_C@_15FEDGKCDI@?$AAr?$AAu?$AA?$AA@ 1006fc84     libucrt:lcidtoname_downlevel.obj
 0002:00009c8c       ??_C@_15GLKMLLHM@?$AAh?$AAr?$AA?$AA@ 1006fc8c     libucrt:lcidtoname_downlevel.obj
 0002:00009c94       ??_C@_15CPKMFBDB@?$AAs?$AAk?$AA?$AA@ 1006fc94     libucrt:lcidtoname_downlevel.obj
 0002:00009c9c       ??_C@_15BAAIOGMK@?$AAs?$AAq?$AA?$AA@ 1006fc9c     libucrt:lcidtoname_downlevel.obj
 0002:00009ca4       ??_C@_15INNPNOHD@?$AAs?$AAv?$AA?$AA@ 1006fca4     libucrt:lcidtoname_downlevel.obj
 0002:00009cac       ??_C@_15CABMMOGH@?$AAt?$AAh?$AA?$AA@ 1006fcac     libucrt:lcidtoname_downlevel.obj
 0002:00009cb4       ??_C@_15BPLIHJJM@?$AAt?$AAr?$AA?$AA@ 1006fcb4     libucrt:lcidtoname_downlevel.obj
 0002:00009cbc       ??_C@_15NEOEKKDJ@?$AAu?$AAr?$AA?$AA@ 1006fcbc     libucrt:lcidtoname_downlevel.obj
 0002:00009cc4       ??_C@_15NFICGAJK@?$AAi?$AAd?$AA?$AA@ 1006fcc4     libucrt:lcidtoname_downlevel.obj
 0002:00009ccc       ??_C@_15PJPFLCCM@?$AAu?$AAk?$AA?$AA@ 1006fccc     libucrt:lcidtoname_downlevel.obj
 0002:00009cd4       ??_C@_15HPJPHDM@?$AAb?$AAe?$AA?$AA@ 1006fcd4     libucrt:lcidtoname_downlevel.obj
 0002:00009cdc       ??_C@_15LCHLGJII@?$AAs?$AAl?$AA?$AA@ 1006fcdc     libucrt:lcidtoname_downlevel.obj
 0002:00009ce4       ??_C@_15PCFJPHHO@?$AAe?$AAt?$AA?$AA@ 1006fce4     libucrt:lcidtoname_downlevel.obj
 0002:00009cec       ??_C@_15HPFPGODN@?$AAl?$AAv?$AA?$AA@ 1006fcec     libucrt:lcidtoname_downlevel.obj
 0002:00009cf4       ??_C@_15NFFGKGLG@?$AAl?$AAt?$AA?$AA@ 1006fcf4     libucrt:lcidtoname_downlevel.obj
 0002:00009cfc       ??_C@_15BDAKCCHN@?$AAf?$AAa?$AA?$AA@ 1006fcfc     libucrt:lcidtoname_downlevel.obj
 0002:00009d04       ??_C@_15NFGIAIAJ@?$AAv?$AAi?$AA?$AA@ 1006fd04     libucrt:lcidtoname_downlevel.obj
 0002:00009d0c       ??_C@_15LMKNDMHN@?$AAh?$AAy?$AA?$AA@ 1006fd0c     libucrt:lcidtoname_downlevel.obj
 0002:00009d14       ??_C@_15IJBHMCFL@?$AAa?$AAz?$AA?$AA@ 1006fd14     libucrt:lcidtoname_downlevel.obj
 0002:00009d1c       ??_C@_15EKOFJABL@?$AAe?$AAu?$AA?$AA@ 1006fd1c     libucrt:lcidtoname_downlevel.obj
 0002:00009d24       ??_C@_15BGHADCNK@?$AAm?$AAk?$AA?$AA@ 1006fd24     libucrt:lcidtoname_downlevel.obj
 0002:00009d2c       ??_C@_15JDNICKHM@?$AAa?$AAf?$AA?$AA@ 1006fd2c     libucrt:lcidtoname_downlevel.obj
 0002:00009d34       ??_C@_15KPJEDBKD@?$AAk?$AAa?$AA?$AA@ 1006fd34     libucrt:lcidtoname_downlevel.obj
 0002:00009d3c       ??_C@_15PDNFFFEO@?$AAf?$AAo?$AA?$AA@ 1006fd3c     libucrt:lcidtoname_downlevel.obj
 0002:00009d44       ??_C@_15OMLEGLOC@?$AAh?$AAi?$AA?$AA@ 1006fd44     libucrt:lcidtoname_downlevel.obj
 0002:00009d4c       ??_C@_15IDNNENKK@?$AAm?$AAs?$AA?$AA@ 1006fd4c     libucrt:lcidtoname_downlevel.obj
 0002:00009d54       ??_C@_15MACJNBMH@?$AAk?$AAk?$AA?$AA@ 1006fd54     libucrt:lcidtoname_downlevel.obj
 0002:00009d5c       ??_C@_15DKDJEOND@?$AAk?$AAy?$AA?$AA@ 1006fd5c     libucrt:lcidtoname_downlevel.obj
 0002:00009d64       ??_C@_15DFGDLJBG@?$AAs?$AAw?$AA?$AA@ 1006fd64     libucrt:lcidtoname_downlevel.obj
 0002:00009d6c       ??_C@_15BBFAICNG@?$AAu?$AAz?$AA?$AA@ 1006fd6c     libucrt:lcidtoname_downlevel.obj
 0002:00009d74       ??_C@_15DKNDCGEA@?$AAt?$AAt?$AA?$AA@ 1006fd74     libucrt:lcidtoname_downlevel.obj
 0002:00009d7c       ??_C@_15MGIFMDPL@?$AAp?$AAa?$AA?$AA@ 1006fd7c     libucrt:lcidtoname_downlevel.obj
 0002:00009d84       ??_C@_15HCNDBBA@?$AAg?$AAu?$AA?$AA@ 1006fd84     libucrt:lcidtoname_downlevel.obj
 0002:00009d8c       ??_C@_15FNBEIBON@?$AAt?$AAa?$AA?$AA@ 1006fd8c     libucrt:lcidtoname_downlevel.obj
 0002:00009d94       ??_C@_15NCHGBGLK@?$AAt?$AAe?$AA?$AA@ 1006fd94     libucrt:lcidtoname_downlevel.obj
 0002:00009d9c       ??_C@_15PHPHCBPF@?$AAk?$AAn?$AA?$AA@ 1006fd9c     libucrt:lcidtoname_downlevel.obj
 0002:00009da4       ??_C@_15DLGBCKMP@?$AAm?$AAr?$AA?$AA@ 1006fda4     libucrt:lcidtoname_downlevel.obj
 0002:00009dac       ??_C@_15EABBLBFF@?$AAs?$AAa?$AA?$AA@ 1006fdac     libucrt:lcidtoname_downlevel.obj
 0002:00009db4       ??_C@_15CBKOMCOI@?$AAm?$AAn?$AA?$AA@ 1006fdb4     libucrt:lcidtoname_downlevel.obj
 0002:00009dbc       ??_C@_15CKDMCJAF@?$AAg?$AAl?$AA?$AA@ 1006fdbc     libucrt:lcidtoname_downlevel.obj
 0002:00009dc4       ??_C@_17CNJFBPG@?$AAk?$AAo?$AAk?$AA?$AA@ 1006fdc4     libucrt:lcidtoname_downlevel.obj
 0002:00009dd0       ??_C@_17FFBJICPL@?$AAs?$AAy?$AAr?$AA?$AA@ 1006fdd0     libucrt:lcidtoname_downlevel.obj
 0002:00009ddc       ??_C@_17KPNDCPAF@?$AAd?$AAi?$AAv?$AA?$AA@ 1006fddc     libucrt:lcidtoname_downlevel.obj
 0002:00009de8       ??_C@_11LOCGONAA@?$AA?$AA@ 1006fde8     libucrt:lcidtoname_downlevel.obj
 0002:00009dec       ??_C@_1M@OKAHONE@?$AAa?$AAr?$AA?9?$AAS?$AAA?$AA?$AA@ 1006fdec     libucrt:lcidtoname_downlevel.obj
 0002:00009dfc       ??_C@_1M@FFFIGIGK@?$AAb?$AAg?$AA?9?$AAB?$AAG?$AA?$AA@ 1006fdfc     libucrt:lcidtoname_downlevel.obj
 0002:00009e0c       ??_C@_1M@BJNKEDC@?$AAc?$AAa?$AA?9?$AAE?$AAS?$AA?$AA@ 1006fe0c     libucrt:lcidtoname_downlevel.obj
 0002:00009e1c       ??_C@_1M@IJJHFJHA@?$AAc?$AAs?$AA?9?$AAC?$AAZ?$AA?$AA@ 1006fe1c     libucrt:lcidtoname_downlevel.obj
 0002:00009e2c       ??_C@_1M@CLPEOBGI@?$AAd?$AAa?$AA?9?$AAD?$AAK?$AA?$AA@ 1006fe2c     libucrt:lcidtoname_downlevel.obj
 0002:00009e3c       ??_C@_1M@MCMADGCB@?$AAd?$AAe?$AA?9?$AAD?$AAE?$AA?$AA@ 1006fe3c     libucrt:lcidtoname_downlevel.obj
 0002:00009e4c       ??_C@_1M@OOCKEMAM@?$AAe?$AAl?$AA?9?$AAG?$AAR?$AA?$AA@ 1006fe4c     libucrt:lcidtoname_downlevel.obj
 0002:00009e5c       ??_C@_1M@DDNJFGID@?$AAf?$AAi?$AA?9?$AAF?$AAI?$AA?$AA@ 1006fe5c     libucrt:lcidtoname_downlevel.obj
 0002:00009e6c       ??_C@_1M@GLIPPMAC@?$AAf?$AAr?$AA?9?$AAF?$AAR?$AA?$AA@ 1006fe6c     libucrt:lcidtoname_downlevel.obj
 0002:00009e7c       ??_C@_1M@GFMCHPE@?$AAh?$AAe?$AA?9?$AAI?$AAL?$AA?$AA@ 1006fe7c     libucrt:lcidtoname_downlevel.obj
 0002:00009e8c       ??_C@_1M@MHLPGNKM@?$AAh?$AAu?$AA?9?$AAH?$AAU?$AA?$AA@ 1006fe8c     libucrt:lcidtoname_downlevel.obj
 0002:00009e9c       ??_C@_1M@LPDDNNPN@?$AAi?$AAs?$AA?9?$AAI?$AAS?$AA?$AA@ 1006fe9c     libucrt:lcidtoname_downlevel.obj
 0002:00009eac       ??_C@_1M@MADIPODN@?$AAi?$AAt?$AA?9?$AAI?$AAT?$AA?$AA@ 1006feac     libucrt:lcidtoname_downlevel.obj
 0002:00009ebc       ??_C@_1M@IHBJJGG@?$AAn?$AAl?$AA?9?$AAN?$AAL?$AA?$AA@ 1006febc     libucrt:lcidtoname_downlevel.obj
 0002:00009ecc       ??_C@_1M@EANAGDL@?$AAn?$AAb?$AA?9?$AAN?$AAO?$AA?$AA@ 1006fecc     libucrt:lcidtoname_downlevel.obj
 0002:00009edc       ??_C@_1M@NEIEMEGP@?$AAp?$AAl?$AA?9?$AAP?$AAL?$AA?$AA@ 1006fedc     libucrt:lcidtoname_downlevel.obj
 0002:00009eec       ??_C@_1M@BOCFIGEP@?$AAp?$AAt?$AA?9?$AAB?$AAR?$AA?$AA@ 1006feec     libucrt:lcidtoname_downlevel.obj
 0002:00009efc       ??_C@_1M@IMPFOPBG@?$AAr?$AAo?$AA?9?$AAR?$AAO?$AA?$AA@ 1006fefc     libucrt:lcidtoname_downlevel.obj
 0002:00009f0c       ??_C@_1M@IDNNEJMM@?$AAr?$AAu?$AA?9?$AAR?$AAU?$AA?$AA@ 1006ff0c     libucrt:lcidtoname_downlevel.obj
 0002:00009f1c       ??_C@_1M@LILEEOGM@?$AAh?$AAr?$AA?9?$AAH?$AAR?$AA?$AA@ 1006ff1c     libucrt:lcidtoname_downlevel.obj
 0002:00009f2c       ??_C@_1M@FKIFEHPB@?$AAs?$AAk?$AA?9?$AAS?$AAK?$AA?$AA@ 1006ff2c     libucrt:lcidtoname_downlevel.obj
 0002:00009f3c       ??_C@_1M@LJMAMNPJ@?$AAs?$AAq?$AA?9?$AAA?$AAL?$AA?$AA@ 1006ff3c     libucrt:lcidtoname_downlevel.obj
 0002:00009f4c       ??_C@_1M@GIAKDKJK@?$AAs?$AAv?$AA?9?$AAS?$AAE?$AA?$AA@ 1006ff4c     libucrt:lcidtoname_downlevel.obj
 0002:00009f5c       ??_C@_1M@MKJKIKCL@?$AAt?$AAh?$AA?9?$AAT?$AAH?$AA?$AA@ 1006ff5c     libucrt:lcidtoname_downlevel.obj
 0002:00009f6c       ??_C@_1M@MFLCCMPB@?$AAt?$AAr?$AA?9?$AAT?$AAR?$AA?$AA@ 1006ff6c     libucrt:lcidtoname_downlevel.obj
 0002:00009f7c       ??_C@_1M@OIJHDKJN@?$AAu?$AAr?$AA?9?$AAP?$AAK?$AA?$AA@ 1006ff7c     libucrt:lcidtoname_downlevel.obj
 0002:00009f8c       ??_C@_1M@LHIPCIEK@?$AAi?$AAd?$AA?9?$AAI?$AAD?$AA?$AA@ 1006ff8c     libucrt:lcidtoname_downlevel.obj
 0002:00009f9c       ??_C@_1M@MFMOBGI@?$AAu?$AAk?$AA?9?$AAU?$AAA?$AA?$AA@ 1006ff9c     libucrt:lcidtoname_downlevel.obj
 0002:00009fac       ??_C@_1M@OBGLJIPL@?$AAb?$AAe?$AA?9?$AAB?$AAY?$AA?$AA@ 1006ffac     libucrt:lcidtoname_downlevel.obj
 0002:00009fbc       ??_C@_1M@BCFAJEAD@?$AAs?$AAl?$AA?9?$AAS?$AAI?$AA?$AA@ 1006ffbc     libucrt:lcidtoname_downlevel.obj
 0002:00009fcc       ??_C@_1M@FKFFEDDN@?$AAe?$AAt?$AA?9?$AAE?$AAE?$AA?$AA@ 1006ffcc     libucrt:lcidtoname_downlevel.obj
 0002:00009fdc       ??_C@_1M@KGKKAACI@?$AAl?$AAv?$AA?9?$AAL?$AAV?$AA?$AA@ 1006ffdc     libucrt:lcidtoname_downlevel.obj
 0002:00009fec       ??_C@_1M@IFGBIJO@?$AAl?$AAt?$AA?9?$AAL?$AAT?$AA?$AA@ 1006ffec     libucrt:lcidtoname_downlevel.obj
 0002:00009ffc       ??_C@_1M@FGEAHEDM@?$AAf?$AAa?$AA?9?$AAI?$AAR?$AA?$AA@ 1006fffc     libucrt:lcidtoname_downlevel.obj
 0002:0000a00c       ??_C@_1M@KBMAIBFN@?$AAv?$AAi?$AA?9?$AAV?$AAN?$AA?$AA@ 1007000c     libucrt:lcidtoname_downlevel.obj
 0002:0000a01c       ??_C@_1M@GPCBKDJK@?$AAh?$AAy?$AA?9?$AAA?$AAM?$AA?$AA@ 1007001c     libucrt:lcidtoname_downlevel.obj
 0002:0000a02c       ??_C@_1BG@BECMDDJB@?$AAa?$AAz?$AA?9?$AAA?$AAZ?$AA?9?$AAL?$AAa?$AAt?$AAn?$AA?$AA@ 1007002c     libucrt:lcidtoname_downlevel.obj
 0002:0000a048       ??_C@_1M@MAOFCAEA@?$AAe?$AAu?$AA?9?$AAE?$AAS?$AA?$AA@ 10070048     libucrt:lcidtoname_downlevel.obj
 0002:0000a058       ??_C@_1M@IGHABKPI@?$AAm?$AAk?$AA?9?$AAM?$AAK?$AA?$AA@ 10070058     libucrt:lcidtoname_downlevel.obj
 0002:0000a068       ??_C@_1M@IAIGNEJG@?$AAt?$AAn?$AA?9?$AAZ?$AAA?$AA?$AA@ 10070068     libucrt:lcidtoname_downlevel.obj
 0002:0000a078       ??_C@_1M@IIJCOJFA@?$AAx?$AAh?$AA?9?$AAZ?$AAA?$AA?$AA@ 10070078     libucrt:lcidtoname_downlevel.obj
 0002:0000a088       ??_C@_1M@LGPJHNJH@?$AAz?$AAu?$AA?9?$AAZ?$AAA?$AA?$AA@ 10070088     libucrt:lcidtoname_downlevel.obj
 0002:0000a098       ??_C@_1M@HOKAOIO@?$AAa?$AAf?$AA?9?$AAZ?$AAA?$AA?$AA@ 10070098     libucrt:lcidtoname_downlevel.obj
 0002:0000a0a8       ??_C@_1M@DPCLHLIE@?$AAk?$AAa?$AA?9?$AAG?$AAE?$AA?$AA@ 100700a8     libucrt:lcidtoname_downlevel.obj
 0002:0000a0b8       ??_C@_1M@BLKMHJBI@?$AAf?$AAo?$AA?9?$AAF?$AAO?$AA?$AA@ 100700b8     libucrt:lcidtoname_downlevel.obj
 0002:0000a0c8       ??_C@_1M@LGGJAPPB@?$AAh?$AAi?$AA?9?$AAI?$AAN?$AA?$AA@ 100700c8     libucrt:lcidtoname_downlevel.obj
 0002:0000a0d8       ??_C@_1M@FIKPIHFE@?$AAm?$AAt?$AA?9?$AAM?$AAT?$AA?$AA@ 100700d8     libucrt:lcidtoname_downlevel.obj
 0002:0000a0e8       ??_C@_1M@HEGGPBFA@?$AAs?$AAe?$AA?9?$AAN?$AAO?$AA?$AA@ 100700e8     libucrt:lcidtoname_downlevel.obj
 0002:0000a0f8       ??_C@_1M@EIBJEEPA@?$AAm?$AAs?$AA?9?$AAM?$AAY?$AA?$AA@ 100700f8     libucrt:lcidtoname_downlevel.obj
 0002:0000a108       ??_C@_1M@FHLBGMPP@?$AAk?$AAk?$AA?9?$AAK?$AAZ?$AA?$AA@ 10070108     libucrt:lcidtoname_downlevel.obj
 0002:0000a118       ??_C@_1M@NGJJLCGI@?$AAk?$AAy?$AA?9?$AAK?$AAG?$AA?$AA@ 10070118     libucrt:lcidtoname_downlevel.obj
 0002:0000a128       ??_C@_1M@GIENNBFC@?$AAs?$AAw?$AA?9?$AAK?$AAE?$AA?$AA@ 10070128     libucrt:lcidtoname_downlevel.obj
 0002:0000a138       ??_C@_1BG@NDGMJIMJ@?$AAu?$AAz?$AA?9?$AAU?$AAZ?$AA?9?$AAL?$AAa?$AAt?$AAn?$AA?$AA@ 10070138     libucrt:lcidtoname_downlevel.obj
 0002:0000a154       ??_C@_1M@IDCCIHBC@?$AAt?$AAt?$AA?9?$AAR?$AAU?$AA?$AA@ 10070154     libucrt:lcidtoname_downlevel.obj
 0002:0000a164       ??_C@_1M@LOICPMOJ@?$AAb?$AAn?$AA?9?$AAI?$AAN?$AA?$AA@ 10070164     libucrt:lcidtoname_downlevel.obj
 0002:0000a174       ??_C@_1M@KPKKNEAH@?$AAp?$AAa?$AA?9?$AAI?$AAN?$AA?$AA@ 10070174     libucrt:lcidtoname_downlevel.obj
 0002:0000a184       ??_C@_1M@PJGPPBOG@?$AAg?$AAu?$AA?9?$AAI?$AAN?$AA?$AA@ 10070184     libucrt:lcidtoname_downlevel.obj
 0002:0000a194       ??_C@_1M@KMKMOPHI@?$AAt?$AAa?$AA?9?$AAI?$AAN?$AA?$AA@ 10070194     libucrt:lcidtoname_downlevel.obj
 0002:0000a1a4       ??_C@_1M@KFEHEPAC@?$AAt?$AAe?$AA?9?$AAI?$AAN?$AA?$AA@ 100701a4     libucrt:lcidtoname_downlevel.obj
 0002:0000a1b4       ??_C@_1M@CDCLMGHI@?$AAk?$AAn?$AA?9?$AAI?$AAN?$AA?$AA@ 100701b4     libucrt:lcidtoname_downlevel.obj
 0002:0000a1c4       ??_C@_1M@MIODLDKF@?$AAm?$AAl?$AA?9?$AAI?$AAN?$AA?$AA@ 100701c4     libucrt:lcidtoname_downlevel.obj
 0002:0000a1d4       ??_C@_1M@PBIEACPO@?$AAm?$AAr?$AA?9?$AAI?$AAN?$AA?$AA@ 100701d4     libucrt:lcidtoname_downlevel.obj
 0002:0000a1e4       ??_C@_1M@NIDEAGPH@?$AAs?$AAa?$AA?9?$AAI?$AAN?$AA?$AA@ 100701e4     libucrt:lcidtoname_downlevel.obj
 0002:0000a1f4       ??_C@_1M@FHIHCBIO@?$AAm?$AAn?$AA?9?$AAM?$AAN?$AA?$AA@ 100701f4     libucrt:lcidtoname_downlevel.obj
 0002:0000a204       ??_C@_1M@JAIJPENP@?$AAc?$AAy?$AA?9?$AAG?$AAB?$AA?$AA@ 10070204     libucrt:lcidtoname_downlevel.obj
 0002:0000a214       ??_C@_1M@PHGFBEPN@?$AAg?$AAl?$AA?9?$AAE?$AAS?$AA?$AA@ 10070214     libucrt:lcidtoname_downlevel.obj
 0002:0000a224       ??_C@_1O@KPIPDNCP@?$AAk?$AAo?$AAk?$AA?9?$AAI?$AAN?$AA?$AA@ 10070224     libucrt:lcidtoname_downlevel.obj
 0002:0000a234       ??_C@_1O@KNHJLDJA@?$AAs?$AAy?$AAr?$AA?9?$AAS?$AAY?$AA?$AA@ 10070234     libucrt:lcidtoname_downlevel.obj
 0002:0000a244       ??_C@_1O@MKEKBLAH@?$AAd?$AAi?$AAv?$AA?9?$AAM?$AAV?$AA?$AA@ 10070244     libucrt:lcidtoname_downlevel.obj
 0002:0000a254       ??_C@_1O@OHDCKDDF@?$AAq?$AAu?$AAz?$AA?9?$AAB?$AAO?$AA?$AA@ 10070254     libucrt:lcidtoname_downlevel.obj
 0002:0000a264       ??_C@_1M@LEPJNLFD@?$AAn?$AAs?$AA?9?$AAZ?$AAA?$AA?$AA@ 10070264     libucrt:lcidtoname_downlevel.obj
 0002:0000a274       ??_C@_1M@OMLEIIJB@?$AAm?$AAi?$AA?9?$AAN?$AAZ?$AA?$AA@ 10070274     libucrt:lcidtoname_downlevel.obj
 0002:0000a284       ??_C@_1M@PMPEAILG@?$AAa?$AAr?$AA?9?$AAI?$AAQ?$AA?$AA@ 10070284     libucrt:lcidtoname_downlevel.obj
 0002:0000a294       ??_C@_1M@CNKPNOEE@?$AAd?$AAe?$AA?9?$AAC?$AAH?$AA?$AA@ 10070294     libucrt:lcidtoname_downlevel.obj
 0002:0000a2a4       ??_C@_1M@LKMGMLKO@?$AAe?$AAn?$AA?9?$AAG?$AAB?$AA?$AA@ 100702a4     libucrt:lcidtoname_downlevel.obj
 0002:0000a2b4       ??_C@_1M@PGKJFFGL@?$AAe?$AAs?$AA?9?$AAM?$AAX?$AA?$AA@ 100702b4     libucrt:lcidtoname_downlevel.obj
 0002:0000a2c4       ??_C@_1M@DNNANBDC@?$AAf?$AAr?$AA?9?$AAB?$AAE?$AA?$AA@ 100702c4     libucrt:lcidtoname_downlevel.obj
 0002:0000a2d4       ??_C@_1M@HLGMDFHM@?$AAi?$AAt?$AA?9?$AAC?$AAH?$AA?$AA@ 100702d4     libucrt:lcidtoname_downlevel.obj
 0002:0000a2e4       ??_C@_1M@CLLBGJH@?$AAn?$AAl?$AA?9?$AAB?$AAE?$AA?$AA@ 100702e4     libucrt:lcidtoname_downlevel.obj
 0002:0000a2f4       ??_C@_1M@BODBOGLF@?$AAn?$AAn?$AA?9?$AAN?$AAO?$AA?$AA@ 100702f4     libucrt:lcidtoname_downlevel.obj
 0002:0000a304       ??_C@_1M@HFFAHKAD@?$AAp?$AAt?$AA?9?$AAP?$AAT?$AA?$AA@ 10070304     libucrt:lcidtoname_downlevel.obj
 0002:0000a314       ??_C@_1BG@LNOAKHIE@?$AAs?$AAr?$AA?9?$AAS?$AAP?$AA?9?$AAL?$AAa?$AAt?$AAn?$AA?$AA@ 10070314     libucrt:lcidtoname_downlevel.obj
 0002:0000a330       ??_C@_1M@HBMHBGAK@?$AAs?$AAv?$AA?9?$AAF?$AAI?$AA?$AA@ 10070330     libucrt:lcidtoname_downlevel.obj
 0002:0000a340       ??_C@_1BG@DGCJGJBE@?$AAa?$AAz?$AA?9?$AAA?$AAZ?$AA?9?$AAC?$AAy?$AAr?$AAl?$AA?$AA@ 10070340     libucrt:lcidtoname_downlevel.obj
 0002:0000a35c       ??_C@_1M@KEJDAAHB@?$AAs?$AAe?$AA?9?$AAS?$AAE?$AA?$AA@ 1007035c     libucrt:lcidtoname_downlevel.obj
 0002:0000a36c       ??_C@_1M@HEIBJJAD@?$AAm?$AAs?$AA?9?$AAB?$AAN?$AA?$AA@ 1007036c     libucrt:lcidtoname_downlevel.obj
 0002:0000a37c       ??_C@_1BG@PBGJMCEM@?$AAu?$AAz?$AA?9?$AAU?$AAZ?$AA?9?$AAC?$AAy?$AAr?$AAl?$AA?$AA@ 1007037c     libucrt:lcidtoname_downlevel.obj
 0002:0000a398       ??_C@_1O@LAOBCMDF@?$AAq?$AAu?$AAz?$AA?9?$AAE?$AAC?$AA?$AA@ 10070398     libucrt:lcidtoname_downlevel.obj
 0002:0000a3a8       ??_C@_1M@POEEMAIO@?$AAa?$AAr?$AA?9?$AAE?$AAG?$AA?$AA@ 100703a8     libucrt:lcidtoname_downlevel.obj
 0002:0000a3b8       ??_C@_1M@EFAKDEDL@?$AAz?$AAh?$AA?9?$AAH?$AAK?$AA?$AA@ 100703b8     libucrt:lcidtoname_downlevel.obj
 0002:0000a3c8       ??_C@_1M@HKKIJHGI@?$AAd?$AAe?$AA?9?$AAA?$AAT?$AA?$AA@ 100703c8     libucrt:lcidtoname_downlevel.obj
 0002:0000a3d8       ??_C@_1M@KBFBEHJF@?$AAe?$AAn?$AA?9?$AAA?$AAU?$AA?$AA@ 100703d8     libucrt:lcidtoname_downlevel.obj
 0002:0000a3e8       ??_C@_1M@MNPLFAAH@?$AAe?$AAs?$AA?9?$AAE?$AAS?$AA?$AA@ 100703e8     libucrt:lcidtoname_downlevel.obj
 0002:0000a3f8       ??_C@_1M@HJOOJFMA@?$AAf?$AAr?$AA?9?$AAC?$AAA?$AA?$AA@ 100703f8     libucrt:lcidtoname_downlevel.obj
 0002:0000a408       ??_C@_1BG@JPOFPNAB@?$AAs?$AAr?$AA?9?$AAS?$AAP?$AA?9?$AAC?$AAy?$AAr?$AAl?$AA?$AA@ 10070408     libucrt:lcidtoname_downlevel.obj
 0002:0000a424       ??_C@_1M@LNFOCMOB@?$AAs?$AAe?$AA?9?$AAF?$AAI?$AA?$AA@ 10070424     libucrt:lcidtoname_downlevel.obj
 0002:0000a434       ??_C@_1O@MGJBOAMB@?$AAq?$AAu?$AAz?$AA?9?$AAP?$AAE?$AA?$AA@ 10070434     libucrt:lcidtoname_downlevel.obj
 0002:0000a444       ??_C@_1M@GJINLBOK@?$AAa?$AAr?$AA?9?$AAL?$AAY?$AA?$AA@ 10070444     libucrt:lcidtoname_downlevel.obj
 0002:0000a454       ??_C@_1M@GGMNHJNL@?$AAz?$AAh?$AA?9?$AAS?$AAG?$AA?$AA@ 10070454     libucrt:lcidtoname_downlevel.obj
 0002:0000a464       ??_C@_1M@HOIKODND@?$AAd?$AAe?$AA?9?$AAL?$AAU?$AA?$AA@ 10070464     libucrt:lcidtoname_downlevel.obj
 0002:0000a474       ??_C@_1M@DDOCCGFG@?$AAe?$AAn?$AA?9?$AAC?$AAA?$AA?$AA@ 10070474     libucrt:lcidtoname_downlevel.obj
 0002:0000a484       ??_C@_1M@BNOEMJLF@?$AAe?$AAs?$AA?9?$AAG?$AAT?$AA?$AA@ 10070484     libucrt:lcidtoname_downlevel.obj
 0002:0000a494       ??_C@_1M@EOGNKEK@?$AAf?$AAr?$AA?9?$AAC?$AAH?$AA?$AA@ 10070494     libucrt:lcidtoname_downlevel.obj
 0002:0000a4a4       ??_C@_1M@FLIDJFHL@?$AAh?$AAr?$AA?9?$AAB?$AAA?$AA?$AA@ 100704a4     libucrt:lcidtoname_downlevel.obj
 0002:0000a4b4       ??_C@_1O@FMCELNAJ@?$AAs?$AAm?$AAj?$AA?9?$AAN?$AAO?$AA?$AA@ 100704b4     libucrt:lcidtoname_downlevel.obj
 0002:0000a4c4       ??_C@_1M@JHGLJMGJ@?$AAa?$AAr?$AA?9?$AAD?$AAZ?$AA?$AA@ 100704c4     libucrt:lcidtoname_downlevel.obj
 0002:0000a4d4       ??_C@_1M@JKKFDCNP@?$AAz?$AAh?$AA?9?$AAM?$AAO?$AA?$AA@ 100704d4     libucrt:lcidtoname_downlevel.obj
 0002:0000a4e4       ??_C@_1M@GEEFALPE@?$AAd?$AAe?$AA?9?$AAL?$AAI?$AA?$AA@ 100704e4     libucrt:lcidtoname_downlevel.obj
 0002:0000a4f4       ??_C@_1M@IGEOFBG@?$AAe?$AAn?$AA?9?$AAN?$AAZ?$AA?$AA@ 100704f4     libucrt:lcidtoname_downlevel.obj
 0002:0000a504       ??_C@_1M@KDBONEHP@?$AAe?$AAs?$AA?9?$AAC?$AAR?$AA?$AA@ 10070504     libucrt:lcidtoname_downlevel.obj
 0002:0000a514       ??_C@_1M@FHMDOHNN@?$AAf?$AAr?$AA?9?$AAL?$AAU?$AA?$AA@ 10070514     libucrt:lcidtoname_downlevel.obj
 0002:0000a524       ??_C@_1BG@NFKKMAFG@?$AAb?$AAs?$AA?9?$AAB?$AAA?$AA?9?$AAL?$AAa?$AAt?$AAn?$AA?$AA@ 10070524     libucrt:lcidtoname_downlevel.obj
 0002:0000a540       ??_C@_1O@IMNBEMCI@?$AAs?$AAm?$AAj?$AA?9?$AAS?$AAE?$AA?$AA@ 10070540     libucrt:lcidtoname_downlevel.obj
 0002:0000a550       ??_C@_1M@DHHMBNDP@?$AAa?$AAr?$AA?9?$AAM?$AAA?$AA?$AA@ 10070550     libucrt:lcidtoname_downlevel.obj
 0002:0000a560       ??_C@_1M@BNBLJCGH@?$AAe?$AAn?$AA?9?$AAI?$AAE?$AA?$AA@ 10070560     libucrt:lcidtoname_downlevel.obj
 0002:0000a570       ??_C@_1M@GEPAFMDL@?$AAe?$AAs?$AA?9?$AAP?$AAA?$AA?$AA@ 10070570     libucrt:lcidtoname_downlevel.obj
 0002:0000a580       ??_C@_1M@OJONDMDL@?$AAf?$AAr?$AA?9?$AAM?$AAC?$AA?$AA@ 10070580     libucrt:lcidtoname_downlevel.obj
 0002:0000a590       ??_C@_1BG@OBCNFJB@?$AAs?$AAr?$AA?9?$AAB?$AAA?$AA?9?$AAL?$AAa?$AAt?$AAn?$AA?$AA@ 10070590     libucrt:lcidtoname_downlevel.obj
 0002:0000a5ac       ??_C@_1O@KEMEEGPO@?$AAs?$AAm?$AAa?$AA?9?$AAN?$AAO?$AA?$AA@ 100705ac     libucrt:lcidtoname_downlevel.obj
 0002:0000a5bc       ??_C@_1M@ELMGFODK@?$AAa?$AAr?$AA?9?$AAT?$AAN?$AA?$AA@ 100705bc     libucrt:lcidtoname_downlevel.obj
 0002:0000a5cc       ??_C@_1M@BHDLHFAF@?$AAe?$AAn?$AA?9?$AAZ?$AAA?$AA?$AA@ 100705cc     libucrt:lcidtoname_downlevel.obj
 0002:0000a5dc       ??_C@_1M@BMGIGLIF@?$AAe?$AAs?$AA?9?$AAD?$AAO?$AA?$AA@ 100705dc     libucrt:lcidtoname_downlevel.obj
 0002:0000a5ec       ??_C@_1BG@CMBHIPBE@?$AAs?$AAr?$AA?9?$AAB?$AAA?$AA?9?$AAC?$AAy?$AAr?$AAl?$AA?$AA@ 100705ec     libucrt:lcidtoname_downlevel.obj
 0002:0000a608       ??_C@_1O@HEDBLHNP@?$AAs?$AAm?$AAa?$AA?9?$AAS?$AAE?$AA?$AA@ 10070608     libucrt:lcidtoname_downlevel.obj
 0002:0000a618       ??_C@_1M@DAGCADIM@?$AAa?$AAr?$AA?9?$AAO?$AAM?$AA?$AA@ 10070618     libucrt:lcidtoname_downlevel.obj
 0002:0000a628       ??_C@_1M@FODLMICG@?$AAe?$AAn?$AA?9?$AAJ?$AAM?$AA?$AA@ 10070628     libucrt:lcidtoname_downlevel.obj
 0002:0000a638       ??_C@_1M@DNMLCIHB@?$AAe?$AAs?$AA?9?$AAV?$AAE?$AA?$AA@ 10070638     libucrt:lcidtoname_downlevel.obj
 0002:0000a648       ??_C@_1O@EOKHMKJK@?$AAs?$AAm?$AAs?$AA?9?$AAF?$AAI?$AA?$AA@ 10070648     libucrt:lcidtoname_downlevel.obj
 0002:0000a658       ??_C@_1M@CAFJMKOF@?$AAa?$AAr?$AA?9?$AAY?$AAE?$AA?$AA@ 10070658     libucrt:lcidtoname_downlevel.obj
 0002:0000a668       ??_C@_1M@CBFHIJLI@?$AAe?$AAn?$AA?9?$AAC?$AAB?$AA?$AA@ 10070668     libucrt:lcidtoname_downlevel.obj
 0002:0000a678       ??_C@_1M@BGNFLDN@?$AAe?$AAs?$AA?9?$AAC?$AAO?$AA?$AA@ 10070678     libucrt:lcidtoname_downlevel.obj
 0002:0000a688       ??_C@_1O@JMPHMAMC@?$AAs?$AAm?$AAn?$AA?9?$AAF?$AAI?$AA?$AA@ 10070688     libucrt:lcidtoname_downlevel.obj
 0002:0000a698       ??_C@_1M@JLANABKE@?$AAa?$AAr?$AA?9?$AAS?$AAY?$AA?$AA@ 10070698     libucrt:lcidtoname_downlevel.obj
 0002:0000a6a8       ??_C@_1M@HPKGCFGN@?$AAe?$AAn?$AA?9?$AAB?$AAZ?$AA?$AA@ 100706a8     libucrt:lcidtoname_downlevel.obj
 0002:0000a6b8       ??_C@_1M@OLJCMLGM@?$AAe?$AAs?$AA?9?$AAP?$AAE?$AA?$AA@ 100706b8     libucrt:lcidtoname_downlevel.obj
 0002:0000a6c8       ??_C@_1M@MKKGFKLE@?$AAa?$AAr?$AA?9?$AAJ?$AAO?$AA?$AA@ 100706c8     libucrt:lcidtoname_downlevel.obj
 0002:0000a6d8       ??_C@_1M@EKPGLDNI@?$AAe?$AAn?$AA?9?$AAT?$AAT?$AA?$AA@ 100706d8     libucrt:lcidtoname_downlevel.obj
 0002:0000a6e8       ??_C@_1M@OONGHFHE@?$AAe?$AAs?$AA?9?$AAA?$AAR?$AA?$AA@ 100706e8     libucrt:lcidtoname_downlevel.obj
 0002:0000a6f8       ??_C@_1M@OOJFGBHE@?$AAa?$AAr?$AA?9?$AAL?$AAB?$AA?$AA@ 100706f8     libucrt:lcidtoname_downlevel.obj
 0002:0000a708       ??_C@_1M@GCEJHNEG@?$AAe?$AAn?$AA?9?$AAZ?$AAW?$AA?$AA@ 10070708     libucrt:lcidtoname_downlevel.obj
 0002:0000a718       ??_C@_1M@JNOCAHJI@?$AAe?$AAs?$AA?9?$AAE?$AAC?$AA?$AA@ 10070718     libucrt:lcidtoname_downlevel.obj
 0002:0000a728       ??_C@_1M@JEFHPGGB@?$AAa?$AAr?$AA?9?$AAK?$AAW?$AA?$AA@ 10070728     libucrt:lcidtoname_downlevel.obj
 0002:0000a738       ??_C@_1M@MLKIBJOJ@?$AAe?$AAn?$AA?9?$AAP?$AAH?$AA?$AA@ 10070738     libucrt:lcidtoname_downlevel.obj
 0002:0000a748       ??_C@_1M@BDNIPEND@?$AAe?$AAs?$AA?9?$AAC?$AAL?$AA?$AA@ 10070748     libucrt:lcidtoname_downlevel.obj
 0002:0000a758       ??_C@_1M@MPNMEKBD@?$AAa?$AAr?$AA?9?$AAA?$AAE?$AA?$AA@ 10070758     libucrt:lcidtoname_downlevel.obj
 0002:0000a768       ??_C@_1M@KBJALCPI@?$AAe?$AAs?$AA?9?$AAU?$AAY?$AA?$AA@ 10070768     libucrt:lcidtoname_downlevel.obj
 0002:0000a778       ??_C@_1M@LLCCOAGA@?$AAa?$AAr?$AA?9?$AAB?$AAH?$AA?$AA@ 10070778     libucrt:lcidtoname_downlevel.obj
 0002:0000a788       ??_C@_1M@PBFNCDEL@?$AAe?$AAs?$AA?9?$AAP?$AAY?$AA?$AA@ 10070788     libucrt:lcidtoname_downlevel.obj
 0002:0000a798       ??_C@_1M@EDGINPNP@?$AAa?$AAr?$AA?9?$AAQ?$AAA?$AA?$AA@ 10070798     libucrt:lcidtoname_downlevel.obj
 0002:0000a7a8       ??_C@_1M@MKDBIIJI@?$AAe?$AAs?$AA?9?$AAB?$AAO?$AA?$AA@ 100707a8     libucrt:lcidtoname_downlevel.obj
 0002:0000a7b8       ??_C@_1M@CPKKEBLD@?$AAe?$AAs?$AA?9?$AAS?$AAV?$AA?$AA@ 100707b8     libucrt:lcidtoname_downlevel.obj
 0002:0000a7c8       ??_C@_1M@NDBGMMJL@?$AAe?$AAs?$AA?9?$AAH?$AAN?$AA?$AA@ 100707c8     libucrt:lcidtoname_downlevel.obj
 0002:0000a7d8       ??_C@_1M@JIJIBHDP@?$AAe?$AAs?$AA?9?$AAN?$AAI?$AA?$AA@ 100707d8     libucrt:lcidtoname_downlevel.obj
 0002:0000a7e8       ??_C@_1M@CGFMKEEK@?$AAe?$AAs?$AA?9?$AAP?$AAR?$AA?$AA@ 100707e8     libucrt:lcidtoname_downlevel.obj
 0002:0000a7f8       ??_C@_1O@ICJHKIIK@?$AAz?$AAh?$AA?9?$AAC?$AAH?$AAT?$AA?$AA@ 100707f8     libucrt:lcidtoname_downlevel.obj
 0002:0000a808       ??_C@_15CLNEJCE@?$AAs?$AAr?$AA?$AA@ 10070808     libucrt:lcidtoname_downlevel.obj
 0002:0000b09c       ??_C@_1M@KAHEKEIG@?$AAa?$AAf?$AA?9?$AAz?$AAa?$AA?$AA@ 1007109c     libucrt:lcidtoname_downlevel.obj
 0002:0000b0ac       ??_C@_1M@GIECOABL@?$AAa?$AAr?$AA?9?$AAa?$AAe?$AA?$AA@ 100710ac     libucrt:lcidtoname_downlevel.obj
 0002:0000b0bc       ??_C@_1M@BMLMEKGI@?$AAa?$AAr?$AA?9?$AAb?$AAh?$AA?$AA@ 100710bc     libucrt:lcidtoname_downlevel.obj
 0002:0000b0cc       ??_C@_1M@DAPFDGGB@?$AAa?$AAr?$AA?9?$AAd?$AAz?$AA?$AA@ 100710cc     libucrt:lcidtoname_downlevel.obj
 0002:0000b0dc       ??_C@_1M@FJNKGKIG@?$AAa?$AAr?$AA?9?$AAe?$AAg?$AA?$AA@ 100710dc     libucrt:lcidtoname_downlevel.obj
 0002:0000b0ec       ??_C@_1M@FLGKKCLO@?$AAa?$AAr?$AA?9?$AAi?$AAq?$AA?$AA@ 100710ec     libucrt:lcidtoname_downlevel.obj
 0002:0000b0fc       ??_C@_1M@GNDIPALM@?$AAa?$AAr?$AA?9?$AAj?$AAo?$AA?$AA@ 100710fc     libucrt:lcidtoname_downlevel.obj
 0002:0000b10c       ??_C@_1M@DDMJFMGJ@?$AAa?$AAr?$AA?9?$AAk?$AAw?$AA?$AA@ 1007110c     libucrt:lcidtoname_downlevel.obj
 0002:0000b11c       ??_C@_1M@EJALMLHM@?$AAa?$AAr?$AA?9?$AAl?$AAb?$AA?$AA@ 1007111c     libucrt:lcidtoname_downlevel.obj
 0002:0000b12c       ??_C@_1M@MOBDBLOC@?$AAa?$AAr?$AA?9?$AAl?$AAy?$AA?$AA@ 1007112c     libucrt:lcidtoname_downlevel.obj
 0002:0000b13c       ??_C@_1M@JAOCLHDH@?$AAa?$AAr?$AA?9?$AAm?$AAa?$AA?$AA@ 1007113c     libucrt:lcidtoname_downlevel.obj
 0002:0000b14c       ??_C@_1M@JHPMKJIE@?$AAa?$AAr?$AA?9?$AAo?$AAm?$AA?$AA@ 1007114c     libucrt:lcidtoname_downlevel.obj
 0002:0000b15c       ??_C@_1M@OEPGHFNH@?$AAa?$AAr?$AA?9?$AAq?$AAa?$AA?$AA@ 1007115c     libucrt:lcidtoname_downlevel.obj
 0002:0000b16c       ??_C@_1M@KJDONENM@?$AAa?$AAr?$AA?9?$AAs?$AAa?$AA?$AA@ 1007116c     libucrt:lcidtoname_downlevel.obj
 0002:0000b17c       ??_C@_1M@DMJDKLKM@?$AAa?$AAr?$AA?9?$AAs?$AAy?$AA?$AA@ 1007117c     libucrt:lcidtoname_downlevel.obj
 0002:0000b18c       ??_C@_1M@OMFIPEDC@?$AAa?$AAr?$AA?9?$AAt?$AAn?$AA?$AA@ 1007118c     libucrt:lcidtoname_downlevel.obj
 0002:0000b19c       ??_C@_1M@IHMHGAON@?$AAa?$AAr?$AA?9?$AAy?$AAe?$AA?$AA@ 1007119c     libucrt:lcidtoname_downlevel.obj
 0002:0000b1ac       ??_C@_1BG@KDCPGJGB@?$AAa?$AAz?$AA?9?$AAa?$AAz?$AA?9?$AAc?$AAy?$AAr?$AAl?$AA?$AA@ 100711ac     libucrt:lcidtoname_downlevel.obj
 0002:0000b1c8       ??_C@_1BG@IBCKDDOE@?$AAa?$AAz?$AA?9?$AAa?$AAz?$AA?9?$AAl?$AAa?$AAt?$AAn?$AA?$AA@ 100711c8     libucrt:lcidtoname_downlevel.obj
 0002:0000b1e4       ??_C@_1M@EGPFDCPD@?$AAb?$AAe?$AA?9?$AAb?$AAy?$AA?$AA@ 100711e4     libucrt:lcidtoname_downlevel.obj
 0002:0000b1f4       ??_C@_1M@PCMGMCGC@?$AAb?$AAg?$AA?9?$AAb?$AAg?$AA?$AA@ 100711f4     libucrt:lcidtoname_downlevel.obj
 0002:0000b204       ??_C@_1M@BJBMFGOB@?$AAb?$AAn?$AA?9?$AAi?$AAn?$AA?$AA@ 10071204     libucrt:lcidtoname_downlevel.obj
 0002:0000b214       ??_C@_1BG@EAKMMACD@?$AAb?$AAs?$AA?9?$AAb?$AAa?$AA?9?$AAl?$AAa?$AAt?$AAn?$AA?$AA@ 10071214     libucrt:lcidtoname_downlevel.obj
 0002:0000b230       ??_C@_1M@KGADAODK@?$AAc?$AAa?$AA?9?$AAe?$AAs?$AA?$AA@ 10071230     libucrt:lcidtoname_downlevel.obj
 0002:0000b240       ??_C@_1M@COAJPDHI@?$AAc?$AAs?$AA?9?$AAc?$AAz?$AA?$AA@ 10071240     libucrt:lcidtoname_downlevel.obj
 0002:0000b250       ??_C@_1M@DHBHFONH@?$AAc?$AAy?$AA?9?$AAg?$AAb?$AA?$AA@ 10071250     libucrt:lcidtoname_downlevel.obj
 0002:0000b260       ??_C@_1M@IMGKELGA@?$AAd?$AAa?$AA?9?$AAd?$AAk?$AA?$AA@ 10071260     libucrt:lcidtoname_downlevel.obj
 0002:0000b270       ??_C@_1M@NNDGDNGA@?$AAd?$AAe?$AA?9?$AAa?$AAt?$AA?$AA@ 10071270     libucrt:lcidtoname_downlevel.obj
 0002:0000b280       ??_C@_1M@IKDBHEEM@?$AAd?$AAe?$AA?9?$AAc?$AAh?$AA?$AA@ 10071280     libucrt:lcidtoname_downlevel.obj
 0002:0000b290       ??_C@_1M@GFFOJMCJ@?$AAd?$AAe?$AA?9?$AAd?$AAe?$AA?$AA@ 10071290     libucrt:lcidtoname_downlevel.obj
 0002:0000b2a0       ??_C@_1M@MDNLKBPM@?$AAd?$AAe?$AA?9?$AAl?$AAi?$AA?$AA@ 100712a0     libucrt:lcidtoname_downlevel.obj
 0002:0000b2b0       ??_C@_1M@NJBEEJNL@?$AAd?$AAe?$AA?9?$AAl?$AAu?$AA?$AA@ 100712b0     libucrt:lcidtoname_downlevel.obj
 0002:0000b2c0       ??_C@_1O@GNNELBAP@?$AAd?$AAi?$AAv?$AA?9?$AAm?$AAv?$AA?$AA@ 100712c0     libucrt:lcidtoname_downlevel.obj
 0002:0000b2d0       ??_C@_1M@EJLEOGAE@?$AAe?$AAl?$AA?9?$AAg?$AAr?$AA?$AA@ 100712d0     libucrt:lcidtoname_downlevel.obj
 0002:0000b2e0       ??_C@_1M@GMPONJN@?$AAe?$AAn?$AA?9?$AAa?$AAu?$AA?$AA@ 100712e0     libucrt:lcidtoname_downlevel.obj
 0002:0000b2f0       ??_C@_1M@NIDIIPGF@?$AAe?$AAn?$AA?9?$AAb?$AAz?$AA?$AA@ 100712f0     libucrt:lcidtoname_downlevel.obj
 0002:0000b300       ??_C@_1M@JEHMIMFO@?$AAe?$AAn?$AA?9?$AAc?$AAa?$AA?$AA@ 10071300     libucrt:lcidtoname_downlevel.obj
 0002:0000b310       ??_C@_1M@IGMJCDLA@?$AAe?$AAn?$AA?9?$AAc?$AAb?$AA?$AA@ 10071310     libucrt:lcidtoname_downlevel.obj
 0002:0000b320       ??_C@_1M@BNFIGBKG@?$AAe?$AAn?$AA?9?$AAg?$AAb?$AA?$AA@ 10071320     libucrt:lcidtoname_downlevel.obj
 0002:0000b330       ??_C@_1M@LKIFDIGP@?$AAe?$AAn?$AA?9?$AAi?$AAe?$AA?$AA@ 10071330     libucrt:lcidtoname_downlevel.obj
 0002:0000b340       ??_C@_1M@PJKFGCCO@?$AAe?$AAn?$AA?9?$AAj?$AAm?$AA?$AA@ 10071340     libucrt:lcidtoname_downlevel.obj
 0002:0000b350       ??_C@_1M@KPPKEPBO@?$AAe?$AAn?$AA?9?$AAn?$AAz?$AA?$AA@ 10071350     libucrt:lcidtoname_downlevel.obj
 0002:0000b360       ??_C@_1M@GMDGLDOB@?$AAe?$AAn?$AA?9?$AAp?$AAh?$AA?$AA@ 10071360     libucrt:lcidtoname_downlevel.obj
 0002:0000b370       ??_C@_1M@ONGIBJNA@?$AAe?$AAn?$AA?9?$AAt?$AAt?$AA?$AA@ 10071370     libucrt:lcidtoname_downlevel.obj
 0002:0000b380       ??_C@_1M@LLODPCMM@?$AAe?$AAn?$AA?9?$AAu?$AAs?$AA?$AA@ 10071380     libucrt:lcidtoname_downlevel.obj
 0002:0000b390       ??_C@_1M@LAKFNPAN@?$AAe?$AAn?$AA?9?$AAz?$AAa?$AA?$AA@ 10071390     libucrt:lcidtoname_downlevel.obj
 0002:0000b3a0       ??_C@_1M@MFNHNHEO@?$AAe?$AAn?$AA?9?$AAz?$AAw?$AA?$AA@ 100713a0     libucrt:lcidtoname_downlevel.obj
 0002:0000b3b0       ??_C@_1M@EJEINPHM@?$AAe?$AAs?$AA?9?$AAa?$AAr?$AA?$AA@ 100713b0     libucrt:lcidtoname_downlevel.obj
 0002:0000b3c0       ??_C@_1M@GNKPCCJA@?$AAe?$AAs?$AA?9?$AAb?$AAo?$AA?$AA@ 100713c0     libucrt:lcidtoname_downlevel.obj
 0002:0000b3d0       ??_C@_1M@LEEGFONL@?$AAe?$AAs?$AA?9?$AAc?$AAl?$AA?$AA@ 100713d0     libucrt:lcidtoname_downlevel.obj
 0002:0000b3e0       ??_C@_1M@KGPDPBDF@?$AAe?$AAs?$AA?9?$AAc?$AAo?$AA?$AA@ 100713e0     libucrt:lcidtoname_downlevel.obj
 0002:0000b3f0       ??_C@_1M@EIAHOHH@?$AAe?$AAs?$AA?9?$AAc?$AAr?$AA?$AA@ 100713f0     libucrt:lcidtoname_downlevel.obj
 0002:0000b400       ??_C@_1M@LLPGMBIN@?$AAe?$AAs?$AA?9?$AAd?$AAo?$AA?$AA@ 10071400     libucrt:lcidtoname_downlevel.obj
 0002:0000b410       ??_C@_1M@DKHMKNJA@?$AAe?$AAs?$AA?9?$AAe?$AAc?$AA?$AA@ 10071410     libucrt:lcidtoname_downlevel.obj
 0002:0000b420       ??_C@_1M@GKGFPKAP@?$AAe?$AAs?$AA?9?$AAe?$AAs?$AA?$AA@ 10071420     libucrt:lcidtoname_downlevel.obj
 0002:0000b430       ??_C@_1M@LKHKGDLN@?$AAe?$AAs?$AA?9?$AAg?$AAt?$AA?$AA@ 10071430     libucrt:lcidtoname_downlevel.obj
 0002:0000b440       ??_C@_1M@HEIIGGJD@?$AAe?$AAs?$AA?9?$AAh?$AAn?$AA?$AA@ 10071440     libucrt:lcidtoname_downlevel.obj
 0002:0000b450       ??_C@_1M@FBDHPPGD@?$AAe?$AAs?$AA?9?$AAm?$AAx?$AA?$AA@ 10071450     libucrt:lcidtoname_downlevel.obj
 0002:0000b460       ??_C@_1M@DPAGLNDH@?$AAe?$AAs?$AA?9?$AAn?$AAi?$AA?$AA@ 10071460     libucrt:lcidtoname_downlevel.obj
 0002:0000b470       ??_C@_1M@MDGOPGDD@?$AAe?$AAs?$AA?9?$AAp?$AAa?$AA?$AA@ 10071470     libucrt:lcidtoname_downlevel.obj
 0002:0000b480       ??_C@_1M@EMAMGBGE@?$AAe?$AAs?$AA?9?$AAp?$AAe?$AA?$AA@ 10071480     libucrt:lcidtoname_downlevel.obj
 0002:0000b490       ??_C@_1M@IBMCAOEC@?$AAe?$AAs?$AA?9?$AAp?$AAr?$AA?$AA@ 10071490     libucrt:lcidtoname_downlevel.obj
 0002:0000b4a0       ??_C@_1M@FGMDIJED@?$AAe?$AAs?$AA?9?$AAp?$AAy?$AA?$AA@ 100714a0     libucrt:lcidtoname_downlevel.obj
 0002:0000b4b0       ??_C@_1M@IIDEOLLL@?$AAe?$AAs?$AA?9?$AAs?$AAv?$AA?$AA@ 100714b0     libucrt:lcidtoname_downlevel.obj
 0002:0000b4c0       ??_C@_1M@GAOBIPA@?$AAe?$AAs?$AA?9?$AAu?$AAy?$AA?$AA@ 100714c0     libucrt:lcidtoname_downlevel.obj
 0002:0000b4d0       ??_C@_1M@JKFFICHJ@?$AAe?$AAs?$AA?9?$AAv?$AAe?$AA?$AA@ 100714d0     libucrt:lcidtoname_downlevel.obj
 0002:0000b4e0       ??_C@_1M@PNMLOJDF@?$AAe?$AAt?$AA?9?$AAe?$AAe?$AA?$AA@ 100714e0     libucrt:lcidtoname_downlevel.obj
 0002:0000b4f0       ??_C@_1M@GHHLIKEI@?$AAe?$AAu?$AA?9?$AAe?$AAs?$AA?$AA@ 100714f0     libucrt:lcidtoname_downlevel.obj
 0002:0000b500       ??_C@_1M@PBNONODE@?$AAf?$AAa?$AA?9?$AAi?$AAr?$AA?$AA@ 10071500     libucrt:lcidtoname_downlevel.obj
 0002:0000b510       ??_C@_1M@JEEHPMIL@?$AAf?$AAi?$AA?9?$AAf?$AAi?$AA?$AA@ 10071510     libucrt:lcidtoname_downlevel.obj
 0002:0000b520       ??_C@_1M@LMDCNDBA@?$AAf?$AAo?$AA?9?$AAf?$AAo?$AA?$AA@ 10071520     libucrt:lcidtoname_downlevel.obj
 0002:0000b530       ??_C@_1M@JKEOHLDK@?$AAf?$AAr?$AA?9?$AAb?$AAe?$AA?$AA@ 10071530     libucrt:lcidtoname_downlevel.obj
 0002:0000b540       ??_C@_1M@NOHADPMI@?$AAf?$AAr?$AA?9?$AAc?$AAa?$AA?$AA@ 10071540     libucrt:lcidtoname_downlevel.obj
 0002:0000b550       ??_C@_1M@KDHIHAEC@?$AAf?$AAr?$AA?9?$AAc?$AAh?$AA?$AA@ 10071550     libucrt:lcidtoname_downlevel.obj
 0002:0000b560       ??_C@_1M@MMBBFGAK@?$AAf?$AAr?$AA?9?$AAf?$AAr?$AA?$AA@ 10071560     libucrt:lcidtoname_downlevel.obj
 0002:0000b570       ??_C@_1M@PAFNENNF@?$AAf?$AAr?$AA?9?$AAl?$AAu?$AA?$AA@ 10071570     libucrt:lcidtoname_downlevel.obj
 0002:0000b580       ??_C@_1M@EOHDJGDD@?$AAf?$AAr?$AA?9?$AAm?$AAc?$AA?$AA@ 10071580     libucrt:lcidtoname_downlevel.obj
 0002:0000b590       ??_C@_1M@FAPLLOPF@?$AAg?$AAl?$AA?9?$AAe?$AAs?$AA?$AA@ 10071590     libucrt:lcidtoname_downlevel.obj
 0002:0000b5a0       ??_C@_1M@FOPBFLOO@?$AAg?$AAu?$AA?9?$AAi?$AAn?$AA?$AA@ 100715a0     libucrt:lcidtoname_downlevel.obj
 0002:0000b5b0       ??_C@_1M@KBMCINPM@?$AAh?$AAe?$AA?9?$AAi?$AAl?$AA?$AA@ 100715b0     libucrt:lcidtoname_downlevel.obj
 0002:0000b5c0       ??_C@_1M@BBPHKFPJ@?$AAh?$AAi?$AA?9?$AAi?$AAn?$AA?$AA@ 100715c0     libucrt:lcidtoname_downlevel.obj
 0002:0000b5d0       ??_C@_1M@PMBNDPHD@?$AAh?$AAr?$AA?9?$AAb?$AAa?$AA?$AA@ 100715d0     libucrt:lcidtoname_downlevel.obj
 0002:0000b5e0       ??_C@_1M@BPCKOEGE@?$AAh?$AAr?$AA?9?$AAh?$AAr?$AA?$AA@ 100715e0     libucrt:lcidtoname_downlevel.obj
 0002:0000b5f0       ??_C@_1M@GACBMHKE@?$AAh?$AAu?$AA?9?$AAh?$AAu?$AA?$AA@ 100715f0     libucrt:lcidtoname_downlevel.obj
 0002:0000b600       ??_C@_1M@MILPAJJC@?$AAh?$AAy?$AA?9?$AAa?$AAm?$AA?$AA@ 10071600     libucrt:lcidtoname_downlevel.obj
 0002:0000b610       ??_C@_1M@BABBICEC@?$AAi?$AAd?$AA?9?$AAi?$AAd?$AA?$AA@ 10071610     libucrt:lcidtoname_downlevel.obj
 0002:0000b620       ??_C@_1M@BIKNHHPF@?$AAi?$AAs?$AA?9?$AAi?$AAs?$AA?$AA@ 10071620     libucrt:lcidtoname_downlevel.obj
 0002:0000b630       ??_C@_1M@NMPCJPHE@?$AAi?$AAt?$AA?9?$AAc?$AAh?$AA?$AA@ 10071630     libucrt:lcidtoname_downlevel.obj
 0002:0000b640       ??_C@_1M@GHKGFEDF@?$AAi?$AAt?$AA?9?$AAi?$AAt?$AA?$AA@ 10071640     libucrt:lcidtoname_downlevel.obj
 0002:0000b650       ??_C@_1M@NIEJCJJA@?$AAj?$AAa?$AA?9?$AAj?$AAp?$AA?$AA@ 10071650     libucrt:lcidtoname_downlevel.obj
 0002:0000b660       ??_C@_1M@JILFNBIM@?$AAk?$AAa?$AA?9?$AAg?$AAe?$AA?$AA@ 10071660     libucrt:lcidtoname_downlevel.obj
 0002:0000b670       ??_C@_1M@PACPMGPH@?$AAk?$AAk?$AA?9?$AAk?$AAz?$AA?$AA@ 10071670     libucrt:lcidtoname_downlevel.obj
 0002:0000b680       ??_C@_1M@IELFGMHA@?$AAk?$AAn?$AA?9?$AAi?$AAn?$AA?$AA@ 10071680     libucrt:lcidtoname_downlevel.obj
 0002:0000b690       ??_C@_1O@IBBJHCH@?$AAk?$AAo?$AAk?$AA?9?$AAi?$AAn?$AA?$AA@ 10071690     libucrt:lcidtoname_downlevel.obj
 0002:0000b6a0       ??_C@_1M@DMHAEOGC@?$AAk?$AAo?$AA?9?$AAk?$AAr?$AA?$AA@ 100716a0     libucrt:lcidtoname_downlevel.obj
 0002:0000b6b0       ??_C@_1M@HBAHBIGA@?$AAk?$AAy?$AA?9?$AAk?$AAg?$AA?$AA@ 100716b0     libucrt:lcidtoname_downlevel.obj
 0002:0000b6c0       ??_C@_1M@KPMILCJG@?$AAl?$AAt?$AA?9?$AAl?$AAt?$AA?$AA@ 100716c0     libucrt:lcidtoname_downlevel.obj
 0002:0000b6d0       ??_C@_1M@BDEKKCA@?$AAl?$AAv?$AA?9?$AAl?$AAv?$AA?$AA@ 100716d0     libucrt:lcidtoname_downlevel.obj
 0002:0000b6e0       ??_C@_1M@ELCKCCJJ@?$AAm?$AAi?$AA?9?$AAn?$AAz?$AA?$AA@ 100716e0     libucrt:lcidtoname_downlevel.obj
 0002:0000b6f0       ??_C@_1M@CBOOLAPA@?$AAm?$AAk?$AA?9?$AAm?$AAk?$AA?$AA@ 100716f0     libucrt:lcidtoname_downlevel.obj
 0002:0000b700       ??_C@_1M@GPHNBJKN@?$AAm?$AAl?$AA?9?$AAi?$AAn?$AA?$AA@ 10071700     libucrt:lcidtoname_downlevel.obj
 0002:0000b710       ??_C@_1M@PABJILIG@?$AAm?$AAn?$AA?9?$AAm?$AAn?$AA?$AA@ 10071710     libucrt:lcidtoname_downlevel.obj
 0002:0000b720       ??_C@_1M@FGBKKIPG@?$AAm?$AAr?$AA?9?$AAi?$AAn?$AA?$AA@ 10071720     libucrt:lcidtoname_downlevel.obj
 0002:0000b730       ??_C@_1M@NDBPDDAL@?$AAm?$AAs?$AA?9?$AAb?$AAn?$AA?$AA@ 10071730     libucrt:lcidtoname_downlevel.obj
 0002:0000b740       ??_C@_1M@OPIHOOPI@?$AAm?$AAs?$AA?9?$AAm?$AAy?$AA?$AA@ 10071740     libucrt:lcidtoname_downlevel.obj
 0002:0000b750       ??_C@_1M@PPDBCNFM@?$AAm?$AAt?$AA?9?$AAm?$AAt?$AA?$AA@ 10071750     libucrt:lcidtoname_downlevel.obj
 0002:0000b760       ??_C@_1M@KDJDKMDD@?$AAn?$AAb?$AA?9?$AAn?$AAo?$AA?$AA@ 10071760     libucrt:lcidtoname_downlevel.obj
 0002:0000b770       ??_C@_1M@KFCFLMJP@?$AAn?$AAl?$AA?9?$AAb?$AAe?$AA?$AA@ 10071770     libucrt:lcidtoname_downlevel.obj
 0002:0000b780       ??_C@_1M@KPOPDDGO@?$AAn?$AAl?$AA?9?$AAn?$AAl?$AA?$AA@ 10071780     libucrt:lcidtoname_downlevel.obj
 0002:0000b790       ??_C@_1M@LJKPEMLN@?$AAn?$AAn?$AA?9?$AAn?$AAo?$AA?$AA@ 10071790     libucrt:lcidtoname_downlevel.obj
 0002:0000b7a0       ??_C@_1M@BDGHHBFL@?$AAn?$AAs?$AA?9?$AAz?$AAa?$AA?$AA@ 100717a0     libucrt:lcidtoname_downlevel.obj
 0002:0000b7b0       ??_C@_1M@IDEHOAP@?$AAp?$AAa?$AA?9?$AAi?$AAn?$AA?$AA@ 100717b0     libucrt:lcidtoname_downlevel.obj
 0002:0000b7c0       ??_C@_1M@HDBKGOGH@?$AAp?$AAl?$AA?9?$AAp?$AAl?$AA?$AA@ 100717c0     libucrt:lcidtoname_downlevel.obj
 0002:0000b7d0       ??_C@_1M@LJLLCMEH@?$AAp?$AAt?$AA?9?$AAb?$AAr?$AA?$AA@ 100717d0     libucrt:lcidtoname_downlevel.obj
 0002:0000b7e0       ??_C@_1M@NCMONAAL@?$AAp?$AAt?$AA?9?$AAp?$AAt?$AA?$AA@ 100717e0     libucrt:lcidtoname_downlevel.obj
 0002:0000b7f0       ??_C@_1O@EAKMAJDN@?$AAq?$AAu?$AAz?$AA?9?$AAb?$AAo?$AA?$AA@ 100717f0     libucrt:lcidtoname_downlevel.obj
 0002:0000b800       ??_C@_1O@BHHPIGDN@?$AAq?$AAu?$AAz?$AA?9?$AAe?$AAc?$AA?$AA@ 10071800     libucrt:lcidtoname_downlevel.obj
 0002:0000b810       ??_C@_1O@GBAPEKMJ@?$AAq?$AAu?$AAz?$AA?9?$AAp?$AAe?$AA?$AA@ 10071810     libucrt:lcidtoname_downlevel.obj
 0002:0000b820       ??_C@_1M@CLGLEFBO@?$AAr?$AAo?$AA?9?$AAr?$AAo?$AA?$AA@ 10071820     libucrt:lcidtoname_downlevel.obj
 0002:0000b830       ??_C@_1M@CEEDODME@?$AAr?$AAu?$AA?9?$AAr?$AAu?$AA?$AA@ 10071830     libucrt:lcidtoname_downlevel.obj
 0002:0000b840       ??_C@_1M@HPKKKMPP@?$AAs?$AAa?$AA?9?$AAi?$AAn?$AA?$AA@ 10071840     libucrt:lcidtoname_downlevel.obj
 0002:0000b850       ??_C@_1M@BKMAIGOJ@?$AAs?$AAe?$AA?9?$AAf?$AAi?$AA?$AA@ 10071850     libucrt:lcidtoname_downlevel.obj
 0002:0000b860       ??_C@_1M@NDPIFLFI@?$AAs?$AAe?$AA?9?$AAn?$AAo?$AA?$AA@ 10071860     libucrt:lcidtoname_downlevel.obj
 0002:0000b870       ??_C@_1M@DANKKHJ@?$AAs?$AAe?$AA?9?$AAs?$AAe?$AA?$AA@ 10071870     libucrt:lcidtoname_downlevel.obj
 0002:0000b880       ??_C@_1M@PNBLONPJ@?$AAs?$AAk?$AA?9?$AAs?$AAk?$AA?$AA@ 10071880     libucrt:lcidtoname_downlevel.obj
 0002:0000b890       ??_C@_1M@LFMODOAL@?$AAs?$AAl?$AA?9?$AAs?$AAi?$AA?$AA@ 10071890     libucrt:lcidtoname_downlevel.obj
 0002:0000b8a0       ??_C@_1O@DFKOMPG@?$AAs?$AAm?$AAa?$AA?9?$AAn?$AAo?$AA?$AA@ 100718a0     libucrt:lcidtoname_downlevel.obj
 0002:0000b8b0       ??_C@_1O@NDKPBNNH@?$AAs?$AAm?$AAa?$AA?9?$AAs?$AAe?$AA?$AA@ 100718b0     libucrt:lcidtoname_downlevel.obj
 0002:0000b8c0       ??_C@_1O@PLLKBHAB@?$AAs?$AAm?$AAj?$AA?9?$AAn?$AAo?$AA?$AA@ 100718c0     libucrt:lcidtoname_downlevel.obj
 0002:0000b8d0       ??_C@_1O@CLEPOGCA@?$AAs?$AAm?$AAj?$AA?9?$AAs?$AAe?$AA?$AA@ 100718d0     libucrt:lcidtoname_downlevel.obj
 0002:0000b8e0       ??_C@_1O@DLGJGKMK@?$AAs?$AAm?$AAn?$AA?9?$AAf?$AAi?$AA?$AA@ 100718e0     libucrt:lcidtoname_downlevel.obj
 0002:0000b8f0       ??_C@_1O@OJDJGAJC@?$AAs?$AAm?$AAs?$AA?9?$AAf?$AAi?$AA?$AA@ 100718f0     libucrt:lcidtoname_downlevel.obj
 0002:0000b900       ??_C@_1M@BOFOGHPB@?$AAs?$AAq?$AA?9?$AAa?$AAl?$AA?$AA@ 10071900     libucrt:lcidtoname_downlevel.obj
 0002:0000b910       ??_C@_1BG@LJBBIPGB@?$AAs?$AAr?$AA?9?$AAb?$AAa?$AA?9?$AAc?$AAy?$AAr?$AAl?$AA?$AA@ 10071910     libucrt:lcidtoname_downlevel.obj
 0002:0000b92c       ??_C@_1BG@JLBENFOE@?$AAs?$AAr?$AA?9?$AAb?$AAa?$AA?9?$AAl?$AAa?$AAt?$AAn?$AA?$AA@ 1007192c     libucrt:lcidtoname_downlevel.obj
 0002:0000b948       ??_C@_1BG@KODPNHE@?$AAs?$AAr?$AA?9?$AAs?$AAp?$AA?9?$AAc?$AAy?$AAr?$AAl?$AA?$AA@ 10071948     libucrt:lcidtoname_downlevel.obj
 0002:0000b964       ??_C@_1BG@CIOGKHPB@?$AAs?$AAr?$AA?9?$AAs?$AAp?$AA?9?$AAl?$AAa?$AAt?$AAn?$AA?$AA@ 10071964     libucrt:lcidtoname_downlevel.obj
 0002:0000b980       ??_C@_1M@NGFJLMAC@?$AAs?$AAv?$AA?9?$AAf?$AAi?$AA?$AA@ 10071980     libucrt:lcidtoname_downlevel.obj
 0002:0000b990       ??_C@_1M@MPJEJAJC@?$AAs?$AAv?$AA?9?$AAs?$AAe?$AA?$AA@ 10071990     libucrt:lcidtoname_downlevel.obj
 0002:0000b9a0       ??_C@_1M@MPNDHLFK@?$AAs?$AAw?$AA?9?$AAk?$AAe?$AA?$AA@ 100719a0     libucrt:lcidtoname_downlevel.obj
 0002:0000b9b0       ??_C@_1O@KOHBJJI@?$AAs?$AAy?$AAr?$AA?9?$AAs?$AAy?$AA?$AA@ 100719b0     libucrt:lcidtoname_downlevel.obj
 0002:0000b9c0       ??_C@_1M@LDCEFHA@?$AAt?$AAa?$AA?9?$AAi?$AAn?$AA?$AA@ 100719c0     libucrt:lcidtoname_downlevel.obj
 0002:0000b9d0       ??_C@_1M@CNJOFAK@?$AAt?$AAe?$AA?9?$AAi?$AAn?$AA?$AA@ 100719d0     libucrt:lcidtoname_downlevel.obj
 0002:0000b9e0       ??_C@_1M@GNAECACD@?$AAt?$AAh?$AA?9?$AAt?$AAh?$AA?$AA@ 100719e0     libucrt:lcidtoname_downlevel.obj
 0002:0000b9f0       ??_C@_1M@CHBIHOJO@?$AAt?$AAn?$AA?9?$AAz?$AAa?$AA?$AA@ 100719f0     libucrt:lcidtoname_downlevel.obj
 0002:0000ba00       ??_C@_1M@GCCMIGPJ@?$AAt?$AAr?$AA?9?$AAt?$AAr?$AA?$AA@ 10071a00     libucrt:lcidtoname_downlevel.obj
 0002:0000ba10       ??_C@_1M@CELMCNBK@?$AAt?$AAt?$AA?9?$AAr?$AAu?$AA?$AA@ 10071a10     libucrt:lcidtoname_downlevel.obj
 0002:0000ba20       ??_C@_1M@KLMCELGA@?$AAu?$AAk?$AA?9?$AAu?$AAa?$AA?$AA@ 10071a20     libucrt:lcidtoname_downlevel.obj
 0002:0000ba30       ??_C@_1M@EPAJJAJF@?$AAu?$AAr?$AA?9?$AAp?$AAk?$AA?$AA@ 10071a30     libucrt:lcidtoname_downlevel.obj
 0002:0000ba40       ??_C@_1BG@GEGPMCDJ@?$AAu?$AAz?$AA?9?$AAu?$AAz?$AA?9?$AAc?$AAy?$AAr?$AAl?$AA?$AA@ 10071a40     libucrt:lcidtoname_downlevel.obj
 0002:0000ba5c       ??_C@_1BG@EGGKJILM@?$AAu?$AAz?$AA?9?$AAu?$AAz?$AA?9?$AAl?$AAa?$AAt?$AAn?$AA?$AA@ 10071a5c     libucrt:lcidtoname_downlevel.obj
 0002:0000ba78       ??_C@_1M@GFOCLFF@?$AAv?$AAi?$AA?9?$AAv?$AAn?$AA?$AA@ 10071a78     libucrt:lcidtoname_downlevel.obj
 0002:0000ba88       ??_C@_1M@CPAMEDFI@?$AAx?$AAh?$AA?9?$AAz?$AAa?$AA?$AA@ 10071a88     libucrt:lcidtoname_downlevel.obj
 0002:0000ba98       ??_C@_1O@EBKIFIGN@?$AAz?$AAh?$AA?9?$AAc?$AAh?$AAs?$AA?$AA@ 10071a98     libucrt:lcidtoname_downlevel.obj
 0002:0000baa8       ??_C@_1O@NMHPGANE@?$AAz?$AAh?$AA?9?$AAc?$AAh?$AAt?$AA?$AA@ 10071aa8     libucrt:lcidtoname_downlevel.obj
 0002:0000bab8       ??_C@_1M@LPINJOMC@?$AAz?$AAh?$AA?9?$AAc?$AAn?$AA?$AA@ 10071ab8     libucrt:lcidtoname_downlevel.obj
 0002:0000bac8       ??_C@_1M@OCJEJODD@?$AAz?$AAh?$AA?9?$AAh?$AAk?$AA?$AA@ 10071ac8     libucrt:lcidtoname_downlevel.obj
 0002:0000bad8       ??_C@_1M@DNDLJINH@?$AAz?$AAh?$AA?9?$AAm?$AAo?$AA?$AA@ 10071ad8     libucrt:lcidtoname_downlevel.obj
 0002:0000bae8       ??_C@_1M@MBFDNDND@?$AAz?$AAh?$AA?9?$AAs?$AAg?$AA?$AA@ 10071ae8     libucrt:lcidtoname_downlevel.obj
 0002:0000baf8       ??_C@_1M@IMEPLEPE@?$AAz?$AAh?$AA?9?$AAt?$AAw?$AA?$AA@ 10071af8     libucrt:lcidtoname_downlevel.obj
 0002:0000bb08       ??_C@_1M@BBGHNHJP@?$AAz?$AAu?$AA?9?$AAz?$AAa?$AA?$AA@ 10071b08     libucrt:lcidtoname_downlevel.obj
 0002:0000bb18       ?large_power_data@?1??multiply_by_power_of_ten@__crt_strtox@@YA_NAAUbig_integer@2@I@Z@4QBIB 10071b18     libucrt:cfout.obj
 0002:0000c5f0       ?large_power_indices@?1??multiply_by_power_of_ten@__crt_strtox@@YA_NAAUbig_integer@2@I@Z@4QBUunpack_index@?1??12@YA_N0I@Z@B 100725f0     libucrt:cfout.obj
 0002:0000c6a8       ?small_powers_of_ten@?6??multiply_by_power_of_ten@__crt_strtox@@YA_NAAUbig_integer@2@I@Z@4QBIB 100726a8     libucrt:cfout.obj
 0002:0000c6d4       ??_C@_01GBGANLPD@0?$AA@    100726d4     libucrt:cfout.obj
 0002:0000c6d8       ??_C@_05DNEBIAHO@1?$CDINF?$AA@ 100726d8     libucrt:cfout.obj
 0002:0000c6e0       ??_C@_06IMKFLFPG@1?$CDQNAN?$AA@ 100726e0     libucrt:cfout.obj
 0002:0000c6e8       ??_C@_06PGGFOGJG@1?$CDSNAN?$AA@ 100726e8     libucrt:cfout.obj
 0002:0000c6f0       ??_C@_05PHHOCPM@1?$CDIND?$AA@ 100726f0     libucrt:cfout.obj
 0002:0000c6f8       ??_C@_1BC@LLOKLNP@?$AAa?$AAm?$AAe?$AAr?$AAi?$AAc?$AAa?$AAn?$AA?$AA@ 100726f8     libucrt:get_qualified_locale.obj
 0002:0000c710       ??_C@_1CC@HEIGCDGG@?$AAa?$AAm?$AAe?$AAr?$AAi?$AAc?$AAa?$AAn?$AA?5?$AAe?$AAn?$AAg?$AAl?$AAi?$AAs?$AAh?$AA?$AA@ 10072710     libucrt:get_qualified_locale.obj
 0002:0000c738       ??_C@_1CC@IHCNOMIN@?$AAa?$AAm?$AAe?$AAr?$AAi?$AAc?$AAa?$AAn?$AA?9?$AAe?$AAn?$AAg?$AAl?$AAi?$AAs?$AAh?$AA?$AA@ 10072738     libucrt:get_qualified_locale.obj
 0002:0000c760       ??_C@_1BG@GKAGPCGG@?$AAa?$AAu?$AAs?$AAt?$AAr?$AAa?$AAl?$AAi?$AAa?$AAn?$AA?$AA@ 10072760     libucrt:get_qualified_locale.obj
 0002:0000c77c       ??_C@_1BA@GMENCENF@?$AAb?$AAe?$AAl?$AAg?$AAi?$AAa?$AAn?$AA?$AA@ 1007277c     libucrt:get_qualified_locale.obj
 0002:0000c790       ??_C@_1BC@PJMIIAAN@?$AAc?$AAa?$AAn?$AAa?$AAd?$AAi?$AAa?$AAn?$AA?$AA@ 10072790     libucrt:get_qualified_locale.obj
 0002:0000c7a8       ??_C@_17NOIMNFBF@?$AAc?$AAh?$AAh?$AA?$AA@ 100727a8     libucrt:get_qualified_locale.obj
 0002:0000c7b4       ??_C@_17GGDALCHA@?$AAc?$AAh?$AAi?$AA?$AA@ 100727b4     libucrt:get_qualified_locale.obj
 0002:0000c7c0       ??_C@_1BA@NPNJKIBL@?$AAc?$AAh?$AAi?$AAn?$AAe?$AAs?$AAe?$AA?$AA@ 100727c0     libucrt:get_qualified_locale.obj
 0002:0000c7d4       ??_C@_1CC@DINBAMMJ@?$AAc?$AAh?$AAi?$AAn?$AAe?$AAs?$AAe?$AA?9?$AAh?$AAo?$AAn?$AAg?$AAk?$AAo?$AAn?$AAg?$AA?$AA@ 100727d4     libucrt:get_qualified_locale.obj
 0002:0000c7fc       ??_C@_1CG@IOBJPACO@?$AAc?$AAh?$AAi?$AAn?$AAe?$AAs?$AAe?$AA?9?$AAs?$AAi?$AAm?$AAp?$AAl?$AAi?$AAf?$AAi?$AAe?$AAd?$AA?$AA@ 100727fc     libucrt:get_qualified_locale.obj
 0002:0000c82c       ??_C@_1CE@GAJNDCKG@?$AAc?$AAh?$AAi?$AAn?$AAe?$AAs?$AAe?$AA?9?$AAs?$AAi?$AAn?$AAg?$AAa?$AAp?$AAo?$AAr?$AAe?$AA?$AA@ 1007282c     libucrt:get_qualified_locale.obj
 0002:0000c858       ??_C@_1CI@PAJPIOOD@?$AAc?$AAh?$AAi?$AAn?$AAe?$AAs?$AAe?$AA?9?$AAt?$AAr?$AAa?$AAd?$AAi?$AAt?$AAi?$AAo?$AAn?$AAa?$AAl?$AA?$AA@ 10072858     libucrt:get_qualified_locale.obj
 0002:0000c888       ??_C@_1BM@NILJBMMD@?$AAd?$AAu?$AAt?$AAc?$AAh?$AA?9?$AAb?$AAe?$AAl?$AAg?$AAi?$AAa?$AAn?$AA?$AA@ 10072888     libucrt:get_qualified_locale.obj
 0002:0000c8ac       ??_C@_1CC@OOJPJNEJ@?$AAe?$AAn?$AAg?$AAl?$AAi?$AAs?$AAh?$AA?9?$AAa?$AAm?$AAe?$AAr?$AAi?$AAc?$AAa?$AAn?$AA?$AA@ 100728ac     libucrt:get_qualified_locale.obj
 0002:0000c8d4       ??_C@_1BI@IOLFEEM@?$AAe?$AAn?$AAg?$AAl?$AAi?$AAs?$AAh?$AA?9?$AAa?$AAu?$AAs?$AA?$AA@ 100728d4     libucrt:get_qualified_locale.obj
 0002:0000c8f0       ??_C@_1BO@HFFNLENJ@?$AAe?$AAn?$AAg?$AAl?$AAi?$AAs?$AAh?$AA?9?$AAb?$AAe?$AAl?$AAi?$AAz?$AAe?$AA?$AA@ 100728f0     libucrt:get_qualified_locale.obj
 0002:0000c914       ??_C@_1BI@HAPKJMPO@?$AAe?$AAn?$AAg?$AAl?$AAi?$AAs?$AAh?$AA?9?$AAc?$AAa?$AAn?$AA?$AA@ 10072914     libucrt:get_qualified_locale.obj
 0002:0000c930       ??_C@_1CE@HLNDMIOJ@?$AAe?$AAn?$AAg?$AAl?$AAi?$AAs?$AAh?$AA?9?$AAc?$AAa?$AAr?$AAi?$AAb?$AAb?$AAe?$AAa?$AAn?$AA?$AA@ 10072930     libucrt:get_qualified_locale.obj
 0002:0000c95c       ??_C@_1BI@LDHJHHAC@?$AAe?$AAn?$AAg?$AAl?$AAi?$AAs?$AAh?$AA?9?$AAi?$AAr?$AAe?$AA?$AA@ 1007295c     libucrt:get_qualified_locale.obj
 0002:0000c978       ??_C@_1CA@NJMMCFOC@?$AAe?$AAn?$AAg?$AAl?$AAi?$AAs?$AAh?$AA?9?$AAj?$AAa?$AAm?$AAa?$AAi?$AAc?$AAa?$AA?$AA@ 10072978     libucrt:get_qualified_locale.obj
 0002:0000c9a0       ??_C@_1BG@BHJEBBGG@?$AAe?$AAn?$AAg?$AAl?$AAi?$AAs?$AAh?$AA?9?$AAn?$AAz?$AA?$AA@ 100729a0     libucrt:get_qualified_locale.obj
 0002:0000c9bc       ??_C@_1CK@FGOEJJCO@?$AAe?$AAn?$AAg?$AAl?$AAi?$AAs?$AAh?$AA?9?$AAs?$AAo?$AAu?$AAt?$AAh?$AA?5?$AAa?$AAf?$AAr?$AAi?$AAc?$AAa?$AA?$AA@ 100729bc     libucrt:get_qualified_locale.obj
 0002:0000c9f0       ??_C@_1DE@PDBJPCJ@?$AAe?$AAn?$AAg?$AAl?$AAi?$AAs?$AAh?$AA?9?$AAt?$AAr?$AAi?$AAn?$AAi?$AAd?$AAa?$AAd?$AA?5?$AAy?$AA?5?$AAt?$AAo?$AAb?$AAa?$AAg?$AAo?$AA?$AA@ 100729f0     libucrt:get_qualified_locale.obj
 0002:0000ca30       ??_C@_1BG@JGCANDME@?$AAe?$AAn?$AAg?$AAl?$AAi?$AAs?$AAh?$AA?9?$AAu?$AAk?$AA?$AA@ 10072a30     libucrt:get_qualified_locale.obj
 0002:0000ca4c       ??_C@_1BG@DINKMLE@?$AAe?$AAn?$AAg?$AAl?$AAi?$AAs?$AAh?$AA?9?$AAu?$AAs?$AA?$AA@ 10072a4c     libucrt:get_qualified_locale.obj
 0002:0000ca68       ??_C@_1BI@NMFDBHJE@?$AAe?$AAn?$AAg?$AAl?$AAi?$AAs?$AAh?$AA?9?$AAu?$AAs?$AAa?$AA?$AA@ 10072a68     libucrt:get_qualified_locale.obj
 0002:0000ca84       ??_C@_1BO@OIHKJKII@?$AAf?$AAr?$AAe?$AAn?$AAc?$AAh?$AA?9?$AAb?$AAe?$AAl?$AAg?$AAi?$AAa?$AAn?$AA?$AA@ 10072a84     libucrt:get_qualified_locale.obj
 0002:0000caa8       ??_C@_1CA@NKAELJKI@?$AAf?$AAr?$AAe?$AAn?$AAc?$AAh?$AA?9?$AAc?$AAa?$AAn?$AAa?$AAd?$AAi?$AAa?$AAn?$AA?$AA@ 10072aa8     libucrt:get_qualified_locale.obj
 0002:0000cad0       ??_C@_1CE@MGKCNLGN@?$AAf?$AAr?$AAe?$AAn?$AAc?$AAh?$AA?9?$AAl?$AAu?$AAx?$AAe?$AAm?$AAb?$AAo?$AAu?$AAr?$AAg?$AA?$AA@ 10072ad0     libucrt:get_qualified_locale.obj
 0002:0000cafc       ??_C@_1BK@CEGEAILM@?$AAf?$AAr?$AAe?$AAn?$AAc?$AAh?$AA?9?$AAs?$AAw?$AAi?$AAs?$AAs?$AA?$AA@ 10072afc     libucrt:get_qualified_locale.obj
 0002:0000cb1c       ??_C@_1CA@PAFKEOCC@?$AAg?$AAe?$AAr?$AAm?$AAa?$AAn?$AA?9?$AAa?$AAu?$AAs?$AAt?$AAr?$AAi?$AAa?$AAn?$AA?$AA@ 10072b1c     libucrt:get_qualified_locale.obj
 0002:0000cb44       ??_C@_1CI@HCFHGOFD@?$AAg?$AAe?$AAr?$AAm?$AAa?$AAn?$AA?9?$AAl?$AAi?$AAc?$AAh?$AAt?$AAe?$AAn?$AAs?$AAt?$AAe?$AAi?$AAn?$AA?$AA@ 10072b44     libucrt:get_qualified_locale.obj
 0002:0000cb74       ??_C@_1CE@FEDDNPDG@?$AAg?$AAe?$AAr?$AAm?$AAa?$AAn?$AA?9?$AAl?$AAu?$AAx?$AAe?$AAm?$AAb?$AAo?$AAu?$AAr?$AAg?$AA?$AA@ 10072b74     libucrt:get_qualified_locale.obj
 0002:0000cba0       ??_C@_1BK@LIMINNMN@?$AAg?$AAe?$AAr?$AAm?$AAa?$AAn?$AA?9?$AAs?$AAw?$AAi?$AAs?$AAs?$AA?$AA@ 10072ba0     libucrt:get_qualified_locale.obj
 0002:0000cbc0       ??_C@_1BM@LGMDBEPD@?$AAi?$AAr?$AAi?$AAs?$AAh?$AA?9?$AAe?$AAn?$AAg?$AAl?$AAi?$AAs?$AAh?$AA?$AA@ 10072bc0     libucrt:get_qualified_locale.obj
 0002:0000cbe4       ??_C@_1BM@NNCFBAEE@?$AAi?$AAt?$AAa?$AAl?$AAi?$AAa?$AAn?$AA?9?$AAs?$AAw?$AAi?$AAs?$AAs?$AA?$AA@ 10072be4     libucrt:get_qualified_locale.obj
 0002:0000cc08       ??_C@_1BE@FEDJNPIB@?$AAn?$AAo?$AAr?$AAw?$AAe?$AAg?$AAi?$AAa?$AAn?$AA?$AA@ 10072c08     libucrt:get_qualified_locale.obj
 0002:0000cc20       ??_C@_1CC@CILKDEIE@?$AAn?$AAo?$AAr?$AAw?$AAe?$AAg?$AAi?$AAa?$AAn?$AA?9?$AAb?$AAo?$AAk?$AAm?$AAa?$AAl?$AA?$AA@ 10072c20     libucrt:get_qualified_locale.obj
 0002:0000cc48       ??_C@_1CE@DHMMHEPL@?$AAn?$AAo?$AAr?$AAw?$AAe?$AAg?$AAi?$AAa?$AAn?$AA?9?$AAn?$AAy?$AAn?$AAo?$AAr?$AAs?$AAk?$AA?$AA@ 10072c48     libucrt:get_qualified_locale.obj
 0002:0000cc74       ??_C@_1CK@OPNMHECD@?$AAp?$AAo?$AAr?$AAt?$AAu?$AAg?$AAu?$AAe?$AAs?$AAe?$AA?9?$AAb?$AAr?$AAa?$AAz?$AAi?$AAl?$AAi?$AAa?$AAn?$AA?$AA@ 10072c74     libucrt:get_qualified_locale.obj
 0002:0000cca8       ??_C@_1CE@KEEHCDB@?$AAs?$AAp?$AAa?$AAn?$AAi?$AAs?$AAh?$AA?9?$AAa?$AAr?$AAg?$AAe?$AAn?$AAt?$AAi?$AAn?$AAa?$AA?$AA@ 10072ca8     libucrt:get_qualified_locale.obj
 0002:0000ccd4       ??_C@_1CA@GIAOLHJD@?$AAs?$AAp?$AAa?$AAn?$AAi?$AAs?$AAh?$AA?9?$AAb?$AAo?$AAl?$AAi?$AAv?$AAi?$AAa?$AA?$AA@ 10072cd4     libucrt:get_qualified_locale.obj
 0002:0000ccfc       ??_C@_1BM@OJNDFNPD@?$AAs?$AAp?$AAa?$AAn?$AAi?$AAs?$AAh?$AA?9?$AAc?$AAh?$AAi?$AAl?$AAe?$AA?$AA@ 10072cfc     libucrt:get_qualified_locale.obj
 0002:0000cd20       ??_C@_1CC@OCOLPALL@?$AAs?$AAp?$AAa?$AAn?$AAi?$AAs?$AAh?$AA?9?$AAc?$AAo?$AAl?$AAo?$AAm?$AAb?$AAi?$AAa?$AA?$AA@ 10072d20     libucrt:get_qualified_locale.obj
 0002:0000cd48       ??_C@_1CG@BPOFMKBB@?$AAs?$AAp?$AAa?$AAn?$AAi?$AAs?$AAh?$AA?9?$AAc?$AAo?$AAs?$AAt?$AAa?$AA?5?$AAr?$AAi?$AAc?$AAa?$AA?$AA@ 10072d48     libucrt:get_qualified_locale.obj
 0002:0000cd78       ??_C@_1DG@IGOBAPBB@?$AAs?$AAp?$AAa?$AAn?$AAi?$AAs?$AAh?$AA?9?$AAd?$AAo?$AAm?$AAi?$AAn?$AAi?$AAc?$AAa?$AAn?$AA?5?$AAr?$AAe?$AAp?$AAu?$AAb?$AAl?$AAi?$AAc?$AA?$AA@ 10072d78     libucrt:get_qualified_locale.obj
 0002:0000cdb8       ??_C@_1CA@JHAPGEGI@?$AAs?$AAp?$AAa?$AAn?$AAi?$AAs?$AAh?$AA?9?$AAe?$AAc?$AAu?$AAa?$AAd?$AAo?$AAr?$AA?$AA@ 10072db8     libucrt:get_qualified_locale.obj
 0002:0000cde0       ??_C@_1CI@LAPALJPP@?$AAs?$AAp?$AAa?$AAn?$AAi?$AAs?$AAh?$AA?9?$AAe?$AAl?$AA?5?$AAs?$AAa?$AAl?$AAv?$AAa?$AAd?$AAo?$AAr?$AA?$AA@ 10072de0     libucrt:get_qualified_locale.obj
 0002:0000ce10       ??_C@_1CE@PDGBOFOM@?$AAs?$AAp?$AAa?$AAn?$AAi?$AAs?$AAh?$AA?9?$AAg?$AAu?$AAa?$AAt?$AAe?$AAm?$AAa?$AAl?$AAa?$AA?$AA@ 10072e10     libucrt:get_qualified_locale.obj
 0002:0000ce3c       ??_C@_1CC@NBEBAODI@?$AAs?$AAp?$AAa?$AAn?$AAi?$AAs?$AAh?$AA?9?$AAh?$AAo?$AAn?$AAd?$AAu?$AAr?$AAa?$AAs?$AA?$AA@ 10072e3c     libucrt:get_qualified_locale.obj
 0002:0000ce64       ??_C@_1CA@LLKGHBMF@?$AAs?$AAp?$AAa?$AAn?$AAi?$AAs?$AAh?$AA?9?$AAm?$AAe?$AAx?$AAi?$AAc?$AAa?$AAn?$AA?$AA@ 10072e64     libucrt:get_qualified_locale.obj
 0002:0000ce8c       ??_C@_1BO@LKNDOIGD@?$AAs?$AAp?$AAa?$AAn?$AAi?$AAs?$AAh?$AA?9?$AAm?$AAo?$AAd?$AAe?$AAr?$AAn?$AA?$AA@ 10072e8c     libucrt:get_qualified_locale.obj
 0002:0000ceb0       ??_C@_1CE@NMDMOEEB@?$AAs?$AAp?$AAa?$AAn?$AAi?$AAs?$AAh?$AA?9?$AAn?$AAi?$AAc?$AAa?$AAr?$AAa?$AAg?$AAu?$AAa?$AA?$AA@ 10072eb0     libucrt:get_qualified_locale.obj
 0002:0000cedc       ??_C@_1BO@LLCBEJGB@?$AAs?$AAp?$AAa?$AAn?$AAi?$AAs?$AAh?$AA?9?$AAp?$AAa?$AAn?$AAa?$AAm?$AAa?$AA?$AA@ 10072edc     libucrt:get_qualified_locale.obj
 0002:0000cf00       ??_C@_1CC@FKPGGIHO@?$AAs?$AAp?$AAa?$AAn?$AAi?$AAs?$AAh?$AA?9?$AAp?$AAa?$AAr?$AAa?$AAg?$AAu?$AAa?$AAy?$AA?$AA@ 10072f00     libucrt:get_qualified_locale.obj
 0002:0000cf28       ??_C@_1BK@CDEIHOOP@?$AAs?$AAp?$AAa?$AAn?$AAi?$AAs?$AAh?$AA?9?$AAp?$AAe?$AAr?$AAu?$AA?$AA@ 10072f28     libucrt:get_qualified_locale.obj
 0002:0000cf48       ??_C@_1CI@GAHAKKGP@?$AAs?$AAp?$AAa?$AAn?$AAi?$AAs?$AAh?$AA?9?$AAp?$AAu?$AAe?$AAr?$AAt?$AAo?$AA?5?$AAr?$AAi?$AAc?$AAo?$AA?$AA@ 10072f48     libucrt:get_qualified_locale.obj
 0002:0000cf78       ??_C@_1CA@NKJBCAGP@?$AAs?$AAp?$AAa?$AAn?$AAi?$AAs?$AAh?$AA?9?$AAu?$AAr?$AAu?$AAg?$AAu?$AAa?$AAy?$AA?$AA@ 10072f78     libucrt:get_qualified_locale.obj
 0002:0000cfa0       ??_C@_1CE@ODILCONM@?$AAs?$AAp?$AAa?$AAn?$AAi?$AAs?$AAh?$AA?9?$AAv?$AAe?$AAn?$AAe?$AAz?$AAu?$AAe?$AAl?$AAa?$AA?$AA@ 10072fa0     libucrt:get_qualified_locale.obj
 0002:0000cfcc       ??_C@_1CA@OBNMCGFO@?$AAs?$AAw?$AAe?$AAd?$AAi?$AAs?$AAh?$AA?9?$AAf?$AAi?$AAn?$AAl?$AAa?$AAn?$AAd?$AA?$AA@ 10072fcc     libucrt:get_qualified_locale.obj
 0002:0000cff4       ??_C@_1M@PIPDDPPI@?$AAs?$AAw?$AAi?$AAs?$AAs?$AA?$AA@ 10072ff4     libucrt:get_qualified_locale.obj
 0002:0000d004       ??_C@_15GMFIMNFM@?$AAu?$AAs?$AA?$AA@ 10073004     libucrt:get_qualified_locale.obj
 0002:0000d00c       ??_C@_17HAEBFAGL@?$AAu?$AAs?$AAa?$AA?$AA@ 1007300c     libucrt:get_qualified_locale.obj
 0002:0000d018       ??_C@_1BA@DPFJEPHB@?$AAa?$AAm?$AAe?$AAr?$AAi?$AAc?$AAa?$AA?$AA@ 10073018     libucrt:get_qualified_locale.obj
 0002:0000d02c       ??_C@_1BA@ELOGGFK@?$AAb?$AAr?$AAi?$AAt?$AAa?$AAi?$AAn?$AA?$AA@ 1007302c     libucrt:get_qualified_locale.obj
 0002:0000d040       ??_C@_1M@GHBGIGDA@?$AAc?$AAh?$AAi?$AAn?$AAa?$AA?$AA@ 10073040     libucrt:get_qualified_locale.obj
 0002:0000d050       ??_C@_1M@NCHEJOPO@?$AAc?$AAz?$AAe?$AAc?$AAh?$AA?$AA@ 10073050     libucrt:get_qualified_locale.obj
 0002:0000d060       ??_C@_1BA@BKPAPBLA@?$AAe?$AAn?$AAg?$AAl?$AAa?$AAn?$AAd?$AA?$AA@ 10073060     libucrt:get_qualified_locale.obj
 0002:0000d074       ??_C@_1BM@HKBCKIPC@?$AAg?$AAr?$AAe?$AAa?$AAt?$AA?5?$AAb?$AAr?$AAi?$AAt?$AAa?$AAi?$AAn?$AA?$AA@ 10073074     libucrt:get_qualified_locale.obj
 0002:0000d098       ??_C@_1BA@PPCHPGJB@?$AAh?$AAo?$AAl?$AAl?$AAa?$AAn?$AAd?$AA?$AA@ 10073098     libucrt:get_qualified_locale.obj
 0002:0000d0ac       ??_C@_1BE@JBMPEGDG@?$AAh?$AAo?$AAn?$AAg?$AA?9?$AAk?$AAo?$AAn?$AAg?$AA?$AA@ 100730ac     libucrt:get_qualified_locale.obj
 0002:0000d0c4       ??_C@_1BI@KOELBBPJ@?$AAn?$AAe?$AAw?$AA?9?$AAz?$AAe?$AAa?$AAl?$AAa?$AAn?$AAd?$AA?$AA@ 100730c4     libucrt:get_qualified_locale.obj
 0002:0000d0e0       ??_C@_15HIEBHAIO@?$AAn?$AAz?$AA?$AA@ 100730e0     libucrt:get_qualified_locale.obj
 0002:0000d0e8       ??_C@_1BC@CHBCPFPI@?$AAp?$AAr?$AA?5?$AAc?$AAh?$AAi?$AAn?$AAa?$AA?$AA@ 100730e8     libucrt:get_qualified_locale.obj
 0002:0000d100       ??_C@_1BC@JAOIIFKD@?$AAp?$AAr?$AA?9?$AAc?$AAh?$AAi?$AAn?$AAa?$AA?$AA@ 10073100     libucrt:get_qualified_locale.obj
 0002:0000d118       ??_C@_1BI@BEHPPHKC@?$AAp?$AAu?$AAe?$AAr?$AAt?$AAo?$AA?9?$AAr?$AAi?$AAc?$AAo?$AA?$AA@ 10073118     libucrt:get_qualified_locale.obj
 0002:0000d134       ??_C@_1O@PAEOFKDI@?$AAs?$AAl?$AAo?$AAv?$AAa?$AAk?$AA?$AA@ 10073134     libucrt:get_qualified_locale.obj
 0002:0000d144       ??_C@_1BK@FIHMCKAM@?$AAs?$AAo?$AAu?$AAt?$AAh?$AA?5?$AAa?$AAf?$AAr?$AAi?$AAc?$AAa?$AA?$AA@ 10073144     libucrt:get_qualified_locale.obj
 0002:0000d164       ??_C@_1BI@NAEOODKB@?$AAs?$AAo?$AAu?$AAt?$AAh?$AA?5?$AAk?$AAo?$AAr?$AAe?$AAa?$AA?$AA@ 10073164     libucrt:get_qualified_locale.obj
 0002:0000d180       ??_C@_1BK@FBDGGIFF@?$AAs?$AAo?$AAu?$AAt?$AAh?$AA?9?$AAa?$AAf?$AAr?$AAi?$AAc?$AAa?$AA?$AA@ 10073180     libucrt:get_qualified_locale.obj
 0002:0000d1a0       ??_C@_1BI@GHLEJDPK@?$AAs?$AAo?$AAu?$AAt?$AAh?$AA?9?$AAk?$AAo?$AAr?$AAe?$AAa?$AA?$AA@ 100731a0     libucrt:get_qualified_locale.obj
 0002:0000d1bc       ??_C@_1CE@PLHLOMJF@?$AAt?$AAr?$AAi?$AAn?$AAi?$AAd?$AAa?$AAd?$AA?5?$AA?$CG?$AA?5?$AAt?$AAo?$AAb?$AAa?$AAg?$AAo?$AA?$AA@ 100731bc     libucrt:get_qualified_locale.obj
 0002:0000d1e8       ??_C@_1BO@MODIMHHI@?$AAu?$AAn?$AAi?$AAt?$AAe?$AAd?$AA?9?$AAk?$AAi?$AAn?$AAg?$AAd?$AAo?$AAm?$AA?$AA@ 100731e8     libucrt:get_qualified_locale.obj
 0002:0000d20c       ??_C@_1BM@FFHJONBJ@?$AAu?$AAn?$AAi?$AAt?$AAe?$AAd?$AA?9?$AAs?$AAt?$AAa?$AAt?$AAe?$AAs?$AA?$AA@ 1007320c     libucrt:get_qualified_locale.obj
 0002:0000d230       ___acrt_rg_language        10073230     libucrt:get_qualified_locale.obj
 0002:0000d5d8       ___acrt_rg_language_count  100735d8     libucrt:get_qualified_locale.obj
 0002:0000d5e0       ___acrt_rg_country         100735e0     libucrt:get_qualified_locale.obj
 0002:0000d72c       ___acrt_rg_country_count   1007372c     libucrt:get_qualified_locale.obj
 0002:0000d730       ??_C@_17DNCLJFIF@?$AAA?$AAC?$AAP?$AA?$AA@ 10073730     libucrt:get_qualified_locale.obj
 0002:0000d73c       ??_C@_17CIKBIHLH@?$AAO?$AAC?$AAP?$AA?$AA@ 1007373c     libucrt:get_qualified_locale.obj
 0002:0000d748       ___rglangidNotDefault      10073748     libucrt:getqloc_downlevel.obj
 0002:0000d7c8       ??_C@_1BA@BALFACEM@?$AAC?$AAO?$AAN?$AAO?$AAU?$AAT?$AA$?$AA?$AA@ 100737c8     libucrt:initcon.obj
 0002:0000d920       __infinity                 10073920     libucrt:87tran.obj
 0002:0000d92a       __minfinity                1007392a     libucrt:87tran.obj
 0002:0000d934       __logemax                  10073934     libucrt:87tran.obj
 0002:0000d95a       __OP_EXPjmptab             1007395a     libucrt:87tran.obj
 0002:0000d990       __indefinite               10073990     libucrt:87disp.obj
 0002:0000d99a       __piby2                    1007399a     libucrt:87disp.obj
 0002:0000d9a4       __piby4                    100739a4     libucrt:87disp.obj
 0002:0000d9e8       __DEFAULT_CW_in_mem        100739e8     libucrt:common.obj
 0002:0000d9ea       __pi_by_2_to_61            100739ea     libucrt:common.obj
 0002:0000db40       ___acrt_log10_table_t      10073b40     libucrt:log10_tables.obj
 0002:0000e020       ___acrt_log10_table_cb     10074020     libucrt:log10_tables.obj
 0002:0000e504       ??_7type_info@@6B@         10074504     LIBCMT:std_type_info_static.obj
 0002:0000e548       __load_config_used         10074548     LIBCMT:loadcfg.obj
 0002:0000eb20       ??_R4DNameNode@@6B@        10074b20     libvcruntime:undname.obj
 0002:0000eb38       ??_R3DNameNode@@8          10074b38     libvcruntime:undname.obj
 0002:0000eb4c       ??_R2DNameNode@@8          10074b4c     libvcruntime:undname.obj
 0002:0000eb54       ??_R1A@?0A@EA@DNameNode@@8 10074b54     libvcruntime:undname.obj
 0002:0000eb78       ??_R4charNode@@6B@         10074b78     libvcruntime:undname.obj
 0002:0000eb90       ??_R3charNode@@8           10074b90     libvcruntime:undname.obj
 0002:0000eba4       ??_R2charNode@@8           10074ba4     libvcruntime:undname.obj
 0002:0000ebb0       ??_R1A@?0A@EA@charNode@@8  10074bb0     libvcruntime:undname.obj
 0002:0000ebd4       ??_R4pcharNode@@6B@        10074bd4     libvcruntime:undname.obj
 0002:0000ebec       ??_R3pcharNode@@8          10074bec     libvcruntime:undname.obj
 0002:0000ec00       ??_R2pcharNode@@8          10074c00     libvcruntime:undname.obj
 0002:0000ec0c       ??_R1A@?0A@EA@pcharNode@@8 10074c0c     libvcruntime:undname.obj
 0002:0000ec30       ??_R4pDNameNode@@6B@       10074c30     libvcruntime:undname.obj
 0002:0000ec48       ??_R3pDNameNode@@8         10074c48     libvcruntime:undname.obj
 0002:0000ec5c       ??_R2pDNameNode@@8         10074c5c     libvcruntime:undname.obj
 0002:0000ec68       ??_R1A@?0A@EA@pDNameNode@@8 10074c68     libvcruntime:undname.obj
 0002:0000ec8c       ??_R4DNameStatusNode@@6B@  10074c8c     libvcruntime:undname.obj
 0002:0000eca4       ??_R3DNameStatusNode@@8    10074ca4     libvcruntime:undname.obj
 0002:0000ecb8       ??_R2DNameStatusNode@@8    10074cb8     libvcruntime:undname.obj
 0002:0000ecc4       ??_R1A@?0A@EA@DNameStatusNode@@8 10074cc4     libvcruntime:undname.obj
 0002:0000ece8       ??_R4pairNode@@6B@         10074ce8     libvcruntime:undname.obj
 0002:0000ed00       ??_R3pairNode@@8           10074d00     libvcruntime:undname.obj
 0002:0000ed14       ??_R2pairNode@@8           10074d14     libvcruntime:undname.obj
 0002:0000ed20       ??_R1A@?0A@EA@pairNode@@8  10074d20     libvcruntime:undname.obj
 0002:0000ed44       ??_R4type_info@@6B@        10074d44     LIBCMT:std_type_info_static.obj
 0002:0000ed5c       ??_R3type_info@@8          10074d5c     LIBCMT:std_type_info_static.obj
 0002:0000ed70       ??_R2type_info@@8          10074d70     LIBCMT:std_type_info_static.obj
 0002:0000ed78       ??_R1A@?0A@EA@type_info@@8 10074d78     LIBCMT:std_type_info_static.obj
 0002:0000eeb0       ___safe_se_handler_table   10074eb0     <linker-defined>
 0002:0000f18c       ___rtc_iaa                 1007518c     LIBCMT:_initsect_.obj
 0002:0000f290       ___rtc_izz                 10075290     LIBCMT:_initsect_.obj
 0002:0000f394       ___rtc_taa                 10075394     LIBCMT:_initsect_.obj
 0002:0000f498       ___rtc_tzz                 10075498     LIBCMT:_initsect_.obj
 0003:000003d8       _PID_LoadCell_Magnet_P     100773d8     PID_LoadCell_Magnet_data.obj
 0003:00000a60       _pci20041digout            10077a60     xpctarget.obj
 0003:00000a64       _nipcdio24cnfg             10077a64     xpctarget.obj
 0003:00000a68       _rtddm6604cnfg             10077a68     xpctarget.obj
 0003:00000a9c       _DefaultCOMIOBase          10077a9c     xpcruntime:xpcimports.obj
 0003:00000aac       _DefaultCOMIRQ             10077aac     xpcruntime:xpcimports.obj
 0003:00000ac4       __fltused                  10077ac4     LIBCMT:fltused.obj
 0003:00000ad0       ___isa_enabled             10077ad0     LIBCMT:_cpu_disp_.obj
 0003:00000ad4       ___security_cookie_complement 10077ad4     LIBCMT:gs_cookie.obj
 0003:00000ad8       ___security_cookie         10077ad8     LIBCMT:gs_cookie.obj
 0003:00000ae0       ___scrt_native_dllmain_reason 10077ae0     LIBCMT:utility.obj
 0003:00000b00       __NLG_Destination          10077b00     libvcruntime:_exsup_.obj
 0003:00000b18       __iob                      10077b18     libucrt:_file.obj
 0003:00000bf4       ___abort_behavior          10077bf4     libucrt:abort.obj
 0003:00000c00       ___badioinfo               10077c00     libucrt:ioinit.obj
 0003:00000c44       ___mb_cur_max              10077c44     libucrt:nlsdata.obj
 0003:00000c48       ___acrt_initial_locale_data 10077c48     libucrt:nlsdata.obj
 0003:00000d24       ___acrt_initial_locale_pointers 10077d24     libucrt:nlsdata.obj
 0003:00000d30       ___acrt_wide_c_locale_string 10077d30     libucrt:nlsdata.obj
 0003:00000d38       __lookuptrailbytes         10077d38     libucrt:read.obj
 0003:00000f98       __mbctype                  10077f98     libucrt:mbctype.obj
 0003:000010d0       __mbcasemap                100780d0     libucrt:mbctype.obj
 0003:00001208       ___acrt_initial_multibyte_data 10078208     libucrt:mbctype.obj
 0003:00001494       ___acrt_current_multibyte_data 10078494     libucrt:mbctype.obj
 0003:00001498       __pctype                   10078498     libucrt:ctype.obj
 0003:0000149c       __pwctype                  1007849c     libucrt:ctype.obj
 0003:000014a0       ___globallocalestatus      100784a0     libucrt:glstatus.obj
 0003:000014a4       ___acrt_lconv_static_decimal 100784a4     libucrt:localeconv.obj
 0003:000014a8       ___acrt_lconv_static_W_decimal 100784a8     libucrt:localeconv.obj
 0003:000014b0       ___acrt_lconv_c            100784b0     libucrt:localeconv.obj
 0003:00001510       ___acrt_lconv              10078510     libucrt:localeconv.obj
 0003:00001520       ___dcrt_lowio_console_output_handle 10078520     libucrt:initcon.obj
 0003:00001664       ??_R0?AVDNameNode@@@8      10078664     libvcruntime:undname.obj
 0003:00001680       ??_R0?AVcharNode@@@8       10078680     libvcruntime:undname.obj
 0003:0000169c       ??_R0?AVpcharNode@@@8      1007869c     libvcruntime:undname.obj
 0003:000016b8       ??_R0?AVpDNameNode@@@8     100786b8     libvcruntime:undname.obj
 0003:000016d8       ??_R0?AVDNameStatusNode@@@8 100786d8     libvcruntime:undname.obj
 0003:000016fc       ??_R0?AVpairNode@@@8       100786fc     libvcruntime:undname.obj
 0003:00001718       ??_R0?AVtype_info@@@8      10078718     LIBCMT:std_type_info_static.obj
 0003:000018ec       ___isa_available_default   100788ec     rt_logging.obj
 0003:000018f0       _pci20098PortA             100788f0     xpctarget.obj
 0003:000018f4       _pci20098PortB             100788f4     xpctarget.obj
 0003:000018f8       _siepowercan_firmware_initialized 100788f8     xpctarget.obj
 0003:000018fc       _siepowercan_port1_configured 100788fc     xpctarget.obj
 0003:00001900       _siepowercan_port2_configured 10078900     xpctarget.obj
 0003:00001904       _CANAC2_FIRMWARE_LOADED    10078904     xpctarget.obj
 0003:00001908       _rs232ports                10078908     xpctarget.obj
 0003:00001918       _NI_AT_MIO_16F_5_commreg2  10078918     xpctarget.obj
 0003:0000191c       _RTD_DM6430_init           1007891c     xpctarget.obj
 0003:00001920       _RTD_DM6420_init           10078920     xpctarget.obj
 0003:00001924       _CANAC2_FIRMWARE_LOADED_mb1 10078924     xpctarget.obj
 0003:00001928       _CANAC2_FIRMWARE_LOADED_mb2 10078928     xpctarget.obj
 0003:0000192c       _CANAC2_FIRMWARE_LOADED_mb3 1007892c     xpctarget.obj
 0003:00001930       _xmlsize                   10078930     xpctarget.obj
 0003:0000231c       ___isa_available           1007931c     LIBCMT:_cpu_disp_.obj
 0003:00002320       ___favor                   10079320     LIBCMT:_cpu_disp_.obj
 0003:0000232c       ___scrt_current_native_startup_state 1007932c     LIBCMT:utility.obj
 0003:00002330       ___scrt_native_startup_lock 10079330     LIBCMT:utility.obj
 0003:00002358       ?__type_info_root_node@@3U__type_info_node@@A 10079358     LIBCMT:tncleanup.obj
 0003:00002368       ?_OptionsStorage@?1??__local_stdio_printf_options@@9@4_KA 10079368     LIBCMT:default_local_stdio_options.obj
 0003:00002378       ?_OptionsStorage@?1??__local_stdio_scanf_options@@9@4_KA 10079378     LIBCMT:default_local_stdio_options.obj
 0003:00002384       ___scrt_debugger_hook_flag 10079384     LIBCMT:utility_desktop.obj
 0003:0000241c       ___pPurecall               1007941c     libvcruntime:purevirt_data.obj
 0003:00002420       ?pArgList@UnDecorator@@0PAVReplicator@@A 10079420     libvcruntime:undname.obj
 0003:00002424       ?pZNameList@UnDecorator@@0PAVReplicator@@A 10079424     libvcruntime:undname.obj
 0003:00002428       ?pTemplateArgList@UnDecorator@@0PAVReplicator@@A 10079428     libvcruntime:undname.obj
 0003:0000242c       ?gName@UnDecorator@@0PBDB  1007942c     libvcruntime:undname.obj
 0003:00002430       ?name@UnDecorator@@0PBDB   10079430     libvcruntime:undname.obj
 0003:00002434       ?outputString@UnDecorator@@0PADA 10079434     libvcruntime:undname.obj
 0003:00002438       ?maxStringLength@UnDecorator@@0HA 10079438     libvcruntime:undname.obj
 0003:0000243c       ?disableFlags@UnDecorator@@0KA 1007943c     libvcruntime:undname.obj
 0003:00002440       ?fExplicitTemplateParams@UnDecorator@@0_NA 10079440     libvcruntime:undname.obj
 0003:00002441       ?fGetTemplateArgumentList@UnDecorator@@0_NA 10079441     libvcruntime:undname.obj
 0003:00002444       ?m_pGetParameter@UnDecorator@@0P6APADJ@ZA 10079444     libvcruntime:undname.obj
 0003:00002468       ?nodes@?1??make@DNameStatusNode@@SAPAV2@W4DNameStatus@@@Z@4PAV2@A 10079468     libvcruntime:undname.obj
 0003:000024a4       ??_B?1??make@DNameStatusNode@@SAPAV1@W4DNameStatus@@@Z@51 100794a4     libvcruntime:undname.obj
 0003:000024a8       __nstream                  100794a8     libucrt:_file.obj
 0003:000024ac       ___piob                    100794ac     libucrt:_file.obj
 0003:000024b4       __cflush                   100794b4     libucrt:_file.obj
 0003:0000287c       __environ_table            1007987c     libucrt:environment_initialization.obj
 0003:00002880       __wenviron_table           10079880     libucrt:environment_initialization.obj
 0003:00002888       ___dcrt_initial_wide_environment 10079888     libucrt:environment_initialization.obj
 0003:0000288c       ___dcrt_initial_narrow_environment 1007988c     libucrt:environment_initialization.obj
 0003:00002890       ___acrt_atexit_table       10079890     libucrt:onexit.obj
 0003:000028a0       ___acrt_at_quick_exit_table 100798a0     libucrt:onexit.obj
 0003:000029c0       ___pioinfo                 100799c0     libucrt:ioinit.obj
 0003:00002c28       __nhandle                  10079c28     libucrt:ioinit.obj
 0003:00002c30       ___acrt_stdout_buffer      10079c30     libucrt:_sftbuf.obj
 0003:00002c34       ___acrt_stderr_buffer      10079c34     libucrt:_sftbuf.obj
 0003:00002c38       ___acrt_locale_changed_data 10079c38     libucrt:wsetlocale.obj
 0003:00002c3c       ___acrt_current_locale_data 10079c3c     libucrt:nlsdata.obj
 0003:00003548       ___mblocalename            1007a548     libucrt:mbctype.obj
 0003:0000354c       ___mbcodepage              1007a54c     libucrt:mbctype.obj
 0003:00003550       ___ismbcodepage            1007a550     libucrt:mbctype.obj
 0003:00003554       ___mbulinfo                1007a554     libucrt:mbctype.obj
 0003:00003568       ___argc                    1007a568     libucrt:argv_data.obj
 0003:0000356c       ___argv                    1007a56c     libucrt:argv_data.obj
 0003:00003570       ___wargv                   1007a570     libucrt:argv_data.obj
 0003:00003574       __acmdln                   1007a574     libucrt:argv_data.obj
 0003:00003578       __wcmdln                   1007a578     libucrt:argv_data.obj
 0003:0000357c       __pgmptr                   1007a57c     libucrt:argv_data.obj
 0003:00003580       __wpgmptr                  1007a580     libucrt:argv_data.obj
 0003:00003584       ___acrt_heap               1007a584     libucrt:heap_handle.obj
 0003:00003590       ___acrt_lconv_static_null  1007a590     libucrt:localeconv.obj
 0003:00003594       ___acrt_lconv_static_W_null 1007a594     libucrt:localeconv.obj
 0003:00003598       __commode                  1007a598     libucrt:ncommode.obj
 0003:0000359c       __umaskval                 1007a59c     libucrt:umask.obj
 0003:000035a0       ___fastflag                1007a5a0     libucrt:fp_flags.obj
 0003:000035a8       __fmode                    1007a5a8     libucrt:txtmode.obj
 0003:000035c0       _CANAC2_2_receiveindex_mb3 1007a5c0     <common>
 0003:00006694       _CANAC2_2_receivemaxindex_mb3 1007d694     <common>
 0003:000066a0       _CANAC2_2_sendindex_mb3    1007d6a0     <common>
 0003:000069c0       _CANAC2_2_sendmaxindex_mb3 1007d9c0     <common>
 0003:000069e0       _CANAC2_1_receiveindex_mb3 1007d9e0     <common>
 0003:00006d00       _CANAC2_1_receivemaxindex_mb3 1007dd00     <common>
 0003:00006d20       _CANAC2_1_sendindex_mb3    1007dd20     <common>
 0003:00007040       _CANAC2_1_sendmaxindex_mb3 1007e040     <common>
 0003:00007060       _CANAC2_2_receive_mb3      1007e060     <common>
 0003:00007380       _CANAC2_2_send_mb3         1007e380     <common>
 0003:000076a0       _CANAC2_1_receive_mb3      1007e6a0     <common>
 0003:000079c0       _CANAC2_1_send_mb3         1007e9c0     <common>
 0003:00007ce0       _CANAC2_2_receiveindex_mb2 1007ece0     <common>
 0003:00008000       _CANAC2_2_receivemaxindex_mb2 1007f000     <common>
 0003:00008020       _CANAC2_2_sendindex_mb2    1007f020     <common>
 0003:00008340       _CANAC2_2_sendmaxindex_mb2 1007f340     <common>
 0003:00008360       _CANAC2_1_receiveindex_mb2 1007f360     <common>
 0003:00008680       _CANAC2_1_receivemaxindex_mb2 1007f680     <common>
 0003:000086a0       _CANAC2_1_sendindex_mb2    1007f6a0     <common>
 0003:000089c0       _CANAC2_1_sendmaxindex_mb2 1007f9c0     <common>
 0003:000089e0       _CANAC2_2_receive_mb2      1007f9e0     <common>
 0003:00008d00       _CANAC2_2_send_mb2         1007fd00     <common>
 0003:00009020       _CANAC2_1_receive_mb2      10080020     <common>
 0003:00009340       _CANAC2_1_send_mb2         10080340     <common>
 0003:00009660       _CANAC2_2_receiveindex_mb1 10080660     <common>
 0003:00009980       _CANAC2_2_receivemaxindex_mb1 10080980     <common>
 0003:000099a0       _CANAC2_2_sendindex_mb1    100809a0     <common>
 0003:00009cc0       _CANAC2_2_sendmaxindex_mb1 10080cc0     <common>
 0003:00009ce0       _CANAC2_1_receiveindex_mb1 10080ce0     <common>
 0003:0000a000       _CANAC2_1_receivemaxindex_mb1 10081000     <common>
 0003:0000a020       _CANAC2_1_sendindex_mb1    10081020     <common>
 0003:0000a340       _CANAC2_1_sendmaxindex_mb1 10081340     <common>
 0003:0000a360       _CANAC2_2_receive_mb1      10081360     <common>
 0003:0000a680       _CANAC2_2_send_mb1         10081680     <common>
 0003:0000a9a0       _CANAC2_1_receive_mb1      100819a0     <common>
 0003:0000acc0       _CANAC2_1_send_mb1         10081cc0     <common>
 0003:0000afe0       _CANAC2_2_receiveindex     10081fe0     <common>
 0003:0000b300       _CANAC2_2_receivemaxindex  10082300     <common>
 0003:0000b320       _CANAC2_2_sendindex        10082320     <common>
 0003:0000b640       _CANAC2_2_sendmaxindex     10082640     <common>
 0003:0000b660       _CANAC2_1_receiveindex     10082660     <common>
 0003:0000b980       _CANAC2_1_receivemaxindex  10082980     <common>
 0003:0000b9a0       _CANAC2_1_sendindex        100829a0     <common>
 0003:0000bcc0       _CANAC2_1_sendmaxindex     10082cc0     <common>
 0003:0000bce0       _CANAC2_2_receive          10082ce0     <common>
 0003:0000c000       _CANAC2_2_send             10083000     <common>
 0003:0000c320       _CANAC2_1_receive          10083320     <common>
 0003:0000c640       _CANAC2_1_send             10083640     <common>
 0003:0000c960       _siepowercan_can_object_buffer_port2 10083960     <common>
 0003:00010980       _siepowercan_can_object_buffer_port1 10087980     <common>
 0003:00014980       _rtNaNF                    1008b980     <common>
 0003:00014994       _rtMinusInfF               1008b994     <common>
 0003:00014998       _rtInfF                    1008b998     <common>
 0003:000149a0       _rtNaN                     1008b9a0     <common>
 0003:000149a8       _rtMinusInf                1008b9a8     <common>
 0003:000149b0       _rtInf                     1008b9b0     <common>
 0003:000149b8       ?_OptionsStorage@?1??__local_stdio_printf_options@@9@9 1008b9b8     <common>
 0003:00014f60       _PID_LoadCell_Magnet_M_    1008bf60     <common>
 0003:00016960       _PID_LoadCell_Magnet_Y     1008d960     <common>
 0003:00016980       _PID_LoadCell_Magnet_DW    1008d980     <common>
 0003:00016a60       _PID_LoadCell_Magnet_X     1008da60     <common>
 0003:00016a80       _PID_LoadCell_Magnet_B     1008da80     <common>
 0003:00016b38       _CloseClientSocket         1008db38     <common>
 0003:00016ba0       _ConnectClientSocket       1008dba0     <common>
 0003:00016ba4       _BindClientSocket          1008dba4     <common>
 0003:00016ba8       _CreateClientSocket        1008dba8     <common>
 0003:00016bac       _CloseServerSocket         1008dbac     <common>
 0003:00016bb0       _ConnectServerSocket       1008dbb0     <common>
 0003:00016bb4       _OpenServerListen          1008dbb4     <common>
 0003:00016bb8       _CreateServerSocket        1008dbb8     <common>
 0003:00016bbc       _SocketReceive             1008dbbc     <common>
 0003:00016bc0       _SocketSend                1008dbc0     <common>
 0003:00016bc4       _GetSocketState            1008dbc4     <common>
 0003:00016bc8       _GetSocket                 1008dbc8     <common>
 0003:00016bcc       _socket                    1008dbcc     <common>
 0003:00016bd0       _inet_addr                 1008dbd0     <common>
 0003:00016bd4       _sendto                    1008dbd4     <common>
 0003:00016bd8       _recvfrom                  1008dbd8     <common>
 0003:00016bdc       _listen                    1008dbdc     <common>
 0003:00016be0       _ioctlsocket               1008dbe0     <common>
 0003:00016be4       _connect                   1008dbe4     <common>
 0003:00016be8       _closesocket               1008dbe8     <common>
 0003:00016bec       _setsockopt                1008dbec     <common>
 0003:00016bf0       _bind                      1008dbf0     <common>
 0003:00016bf4       _accept                    1008dbf4     <common>
 0003:00016bf8       _GetHostTarIPAdd           1008dbf8     <common>
 0003:00016bfc       _GetDCUUsage               1008dbfc     <common>
 0003:00016c00       _DeleteRoute               1008dc00     <common>
 0003:00016c04       _AddGatewayRoute           1008dc04     <common>
 0003:00016c08       _SetIP                     1008dc08     <common>
 0003:00016c0c       _CloseInterface            1008dc0c     <common>
 0003:00016c10       _OpenInterface             1008dc10     <common>
 0003:00016c14       _SetIPTASKPriority         1008dc14     <common>
 0003:00016c18       _isUsedByRTIP              1008dc18     <common>
 0003:00016c1c       _slrtWarning               1008dc1c     <common>
 0003:00016c20       _slrtGetCPUTCelsius        1008dc20     <common>
 0003:00016c24       _geterrorstring            1008dc24     <common>
 0003:00016c28       _getlasterror              1008dc28     <common>
 0003:00016c2c       _slrtLogEvent              1008dc2c     <common>
 0003:00016c30       _slrtGetDefaultDrive       1008dc30     <common>
 0003:00016c34       _slrtfsFread               1008dc34     <common>
 0003:00016c38       _slrtfsGetFileStatus       1008dc38     <common>
 0003:00016c3c       _slrtfsOpenFileAsync       1008dc3c     <common>
 0003:00016c40       _slrtfsCloseFileAsync      1008dc40     <common>
 0003:00016c44       _slrtfsGetFileErrorMessage 1008dc44     <common>
 0003:00016c48       _slrtfsGetFileError        1008dc48     <common>
 0003:00016c4c       _slrtfsWriteToFile         1008dc4c     <common>
 0003:00016c50       _slrtfsCloseFile           1008dc50     <common>
 0003:00016c54       _slrtfsOpenFile            1008dc54     <common>
 0003:00016c58       _slrtGetSgCRBSpace         1008dc58     <common>
 0003:00016c5c       _slrtGetCRBScratchSpace    1008dc5c     <common>
 0003:00016c60       _slrteSetupMSI             1008dc60     <common>
 0003:00016c64       _slTestRegAssessment       1008dc64     <common>
 0003:00016c68       _slTestTerminate           1008dc68     <common>
 0003:00016c6c       _slTestEvalOnFail          1008dc6c     <common>
 0003:00016c70       _slTestLogAssessments      1008dc70     <common>
 0003:00016c74       _slTestInitialize          1008dc74     <common>
 0003:00016c78       _unRegisterPTPTimeRead     1008dc78     <common>
 0003:00016c7c       _registerPTPTimeRead       1008dc7c     <common>
 0003:00016c80       _slrteGetCurrentStepSize   1008dc80     <common>
 0003:00016c84       _slrteSetStepSizeDelta     1008dc84     <common>
 0003:00016c88       _xpceGetIntTimerGranularityNS 1008dc88     <common>
 0003:00016c8c       _xpceDAQUpdateTimeStamp    1008dc8c     <common>
 0003:00016c90       _xpceDAQPostEvent          1008dc90     <common>
 0003:00016c94       _StreamVideo               1008dc94     <common>
 0003:00016c98       _StopVideoDisplay          1008dc98     <common>
 0003:00016c9c       _StartVideoDisplay         1008dc9c     <common>
 0003:00016ca0       _DestroyVideoDisplay       1008dca0     <common>
 0003:00016ca4       _CreateVideoDisplay        1008dca4     <common>
 0003:00016ca8       _ConvertUImage             1008dca8     <common>
 0003:00016cac       _StopVideo                 1008dcac     <common>
 0003:00016cb0       _ReadFrameBuffer           1008dcb0     <common>
 0003:00016cb4       _StartVideo                1008dcb4     <common>
 0003:00016cb8       _GetVideoConfigs           1008dcb8     <common>
 0003:00016cbc       _FindUsbVideoDevice        1008dcbc     <common>
 0003:00016cc0       _xpceDeleteSemaphore       1008dcc0     <common>
 0003:00016cc4       _xpceSignalSemaphore       1008dcc4     <common>
 0003:00016cc8       _xpceWaitSemaphore         1008dcc8     <common>
 0003:00016ccc       _xpceCreateSemaphore       1008dccc     <common>
 0003:00016cd0       _TBGiveSpinFast            1008dcd0     <common>
 0003:00016cd4       _TBTakeSpinFast            1008dcd4     <common>
 0003:00016cd8       _TBDeleteSpin              1008dcd8     <common>
 0003:00016cdc       _TBCreateSpin              1008dcdc     <common>
 0003:00016ce0       _xpceScopeAcqOK            1008dce0     <common>
 0003:00016ce4       _rl32eRestartAcquisition   1008dce4     <common>
 0003:00016ce8       _rl32eSetTargetScopeSigFt  1008dce8     <common>
 0003:00016cec       _rl32eSetTargetScope       1008dcec     <common>
 0003:00016cf0       _xpceFSScopeSet            1008dcf0     <common>
 0003:00016cf4       _rl32eSetScope             1008dcf4     <common>
 0003:00016cf8       _rl32eAddSignal            1008dcf8     <common>
 0003:00016cfc       _rl32eGetSignalNo          1008dcfc     <common>
 0003:00016d00       _rl32eDefScope             1008dd00     <common>
 0003:00016d04       _rl32eScopeExists          1008dd04     <common>
 0003:00016d08       _xpceGetParamDims          1008dd08     <common>
 0003:00016d0c       _xpceGetParameter          1008dd0c     <common>
 0003:00016d10       _xpceSetParameter          1008dd10     <common>
 0003:00016d14       _xpceGetSignalValue        1008dd14     <common>
 0003:00016d18       _xpceAssignPCIInterrupt    1008dd18     <common>
 0003:00016d1c       _rl32eGetPCIInfoAtSlot     1008dd1c     <common>
 0003:00016d20       _rl32eGetPCIInfo           1008dd20     <common>
 0003:00016d24       _rl32eShowPCIInfo          1008dd24     <common>
 0003:00016d28       _rl32eShowPCIDev           1008dd28     <common>
 0003:00016d2c       _xpceGetTET                1008dd2c     <common>
 0003:00016d30       _xpceaddEvent              1008dd30     <common>
 0003:00016d34       _xpceDeRegisterISR         1008dd34     <common>
 0003:00016d38       _xpceRegisterISR           1008dd38     <common>
 0003:00016d3c       _xpcIsModelInit            1008dd3c     <common>
 0003:00016d40       _xpcGetElapsedTime         1008dd40     <common>
 0003:00016d44       _xpcBusyWait               1008dd44     <common>
 0003:00016d48       _xpcFreePhysicalMemory     1008dd48     <common>
 0003:00016d4c       _xpcAllocPhysicalMemory    1008dd4c     <common>
 0003:00016d50       _xpcReserveMemoryRegion    1008dd50     <common>
 0003:00016d54       _xpcOutpB                  1008dd54     <common>
 0003:00016d58       _xpcOutpW                  1008dd58     <common>
 0003:00016d5c       _xpcOutpDW                 1008dd5c     <common>
 0003:00016d60       _xpcInpB                   1008dd60     <common>
 0003:00016d64       _xpcInpW                   1008dd64     <common>
 0003:00016d68       _xpcInpDW                  1008dd68     <common>
 0003:00016d6c       ___scrt_ucrt_dll_is_in_use 1008dd6c     <common>
 0003:00016d78       ___dyn_tls_init_callback   1008dd78     <common>
 0003:00016d84       __pDestructExceptionObject 1008dd84     <common>
 0003:00016d90       __pmatherr                 1008dd90     <common>
 0003:00016d9c       ___use_sse2_mathfcns       1008dd9c     <common>
 0004:00000000       __imp__GetModuleHandleA@4  1008e000     kernel32:KERNEL32.dll
 0004:00000004       __imp__GetProcAddress@8    1008e004     kernel32:KERNEL32.dll
 0004:00000008       __imp__UnhandledExceptionFilter@4 1008e008     kernel32:KERNEL32.dll
 0004:0000000c       __imp__SetUnhandledExceptionFilter@4 1008e00c     kernel32:KERNEL32.dll
 0004:00000010       __imp__GetCurrentProcess@0 1008e010     kernel32:KERNEL32.dll
 0004:00000014       __imp__TerminateProcess@8  1008e014     kernel32:KERNEL32.dll
 0004:00000018       __imp__IsProcessorFeaturePresent@4 1008e018     kernel32:KERNEL32.dll
 0004:0000001c       __imp__QueryPerformanceCounter@4 1008e01c     kernel32:KERNEL32.dll
 0004:00000020       __imp__GetCurrentProcessId@0 1008e020     kernel32:KERNEL32.dll
 0004:00000024       __imp__GetCurrentThreadId@0 1008e024     kernel32:KERNEL32.dll
 0004:00000028       __imp__GetSystemTimeAsFileTime@4 1008e028     kernel32:KERNEL32.dll
 0004:0000002c       __imp__InitializeSListHead@4 1008e02c     kernel32:KERNEL32.dll
 0004:00000030       __imp__IsDebuggerPresent@0 1008e030     kernel32:KERNEL32.dll
 0004:00000034       __imp__GetStartupInfoW@4   1008e034     kernel32:KERNEL32.dll
 0004:00000038       __imp__GetModuleHandleW@4  1008e038     kernel32:KERNEL32.dll
 0004:0000003c       __imp__InterlockedPushEntrySList@8 1008e03c     kernel32:KERNEL32.dll
 0004:00000040       __imp__InterlockedFlushSList@4 1008e040     kernel32:KERNEL32.dll
 0004:00000044       __imp__RtlUnwind@16        1008e044     kernel32:KERNEL32.dll
 0004:00000048       __imp__GetLastError@0      1008e048     kernel32:KERNEL32.dll
 0004:0000004c       __imp__SetLastError@4      1008e04c     kernel32:KERNEL32.dll
 0004:00000050       __imp__EnterCriticalSection@4 1008e050     kernel32:KERNEL32.dll
 0004:00000054       __imp__LeaveCriticalSection@4 1008e054     kernel32:KERNEL32.dll
 0004:00000058       __imp__DeleteCriticalSection@4 1008e058     kernel32:KERNEL32.dll
 0004:0000005c       __imp__InitializeCriticalSectionAndSpinCount@8 1008e05c     kernel32:KERNEL32.dll
 0004:00000060       __imp__TlsAlloc@0          1008e060     kernel32:KERNEL32.dll
 0004:00000064       __imp__TlsGetValue@4       1008e064     kernel32:KERNEL32.dll
 0004:00000068       __imp__TlsSetValue@8       1008e068     kernel32:KERNEL32.dll
 0004:0000006c       __imp__TlsFree@4           1008e06c     kernel32:KERNEL32.dll
 0004:00000070       __imp__FreeLibrary@4       1008e070     kernel32:KERNEL32.dll
 0004:00000074       __imp__LoadLibraryExW@12   1008e074     kernel32:KERNEL32.dll
 0004:00000078       __imp__GetStdHandle@4      1008e078     kernel32:KERNEL32.dll
 0004:0000007c       __imp__GetFileType@4       1008e07c     kernel32:KERNEL32.dll
 0004:00000080       __imp__GetModuleFileNameA@12 1008e080     kernel32:KERNEL32.dll
 0004:00000084       __imp__GetModuleFileNameW@12 1008e084     kernel32:KERNEL32.dll
 0004:00000088       __imp__GetModuleHandleExW@12 1008e088     kernel32:KERNEL32.dll
 0004:0000008c       __imp__WriteConsoleW@20    1008e08c     kernel32:KERNEL32.dll
 0004:00000090       __imp__ExitProcess@4       1008e090     kernel32:KERNEL32.dll
 0004:00000094       __imp__RaiseException@16   1008e094     kernel32:KERNEL32.dll
 0004:00000098       __imp__MultiByteToWideChar@24 1008e098     kernel32:KERNEL32.dll
 0004:0000009c       __imp__WideCharToMultiByte@32 1008e09c     kernel32:KERNEL32.dll
 0004:000000a0       __imp__HeapFree@12         1008e0a0     kernel32:KERNEL32.dll
 0004:000000a4       __imp__HeapAlloc@12        1008e0a4     kernel32:KERNEL32.dll
 0004:000000a8       __imp__GetDateFormatW@24   1008e0a8     kernel32:KERNEL32.dll
 0004:000000ac       __imp__GetTimeFormatW@24   1008e0ac     kernel32:KERNEL32.dll
 0004:000000b0       __imp__CompareStringW@24   1008e0b0     kernel32:KERNEL32.dll
 0004:000000b4       __imp__LCMapStringW@24     1008e0b4     kernel32:KERNEL32.dll
 0004:000000b8       __imp__GetLocaleInfoW@16   1008e0b8     kernel32:KERNEL32.dll
 0004:000000bc       __imp__IsValidLocale@8     1008e0bc     kernel32:KERNEL32.dll
 0004:000000c0       __imp__GetUserDefaultLCID@0 1008e0c0     kernel32:KERNEL32.dll
 0004:000000c4       __imp__EnumSystemLocalesW@8 1008e0c4     kernel32:KERNEL32.dll
 0004:000000c8       __imp__GetCurrentThread@0  1008e0c8     kernel32:KERNEL32.dll
 0004:000000cc       __imp__GetACP@0            1008e0cc     kernel32:KERNEL32.dll
 0004:000000d0       __imp__WriteFile@20        1008e0d0     kernel32:KERNEL32.dll
 0004:000000d4       __imp__OutputDebugStringA@4 1008e0d4     kernel32:KERNEL32.dll
 0004:000000d8       __imp__OutputDebugStringW@4 1008e0d8     kernel32:KERNEL32.dll
 0004:000000dc       __imp__CloseHandle@4       1008e0dc     kernel32:KERNEL32.dll
 0004:000000e0       __imp__WaitForSingleObjectEx@12 1008e0e0     kernel32:KERNEL32.dll
 0004:000000e4       __imp__CreateThread@24     1008e0e4     kernel32:KERNEL32.dll
 0004:000000e8       __imp__SetConsoleCtrlHandler@8 1008e0e8     kernel32:KERNEL32.dll
 0004:000000ec       __imp__HeapReAlloc@16      1008e0ec     kernel32:KERNEL32.dll
 0004:000000f0       __imp__ReadFile@20         1008e0f0     kernel32:KERNEL32.dll
 0004:000000f4       __imp__GetConsoleMode@8    1008e0f4     kernel32:KERNEL32.dll
 0004:000000f8       __imp__ReadConsoleW@20     1008e0f8     kernel32:KERNEL32.dll
 0004:000000fc       __imp__GetConsoleCP@0      1008e0fc     kernel32:KERNEL32.dll
 0004:00000100       __imp__DeleteFileW@4       1008e100     kernel32:KERNEL32.dll
 0004:00000104       __imp__SetFilePointerEx@20 1008e104     kernel32:KERNEL32.dll
 0004:00000108       __imp__FindClose@4         1008e108     kernel32:KERNEL32.dll
 0004:0000010c       __imp__FindFirstFileExA@24 1008e10c     kernel32:KERNEL32.dll
 0004:00000110       __imp__FindFirstFileExW@24 1008e110     kernel32:KERNEL32.dll
 0004:00000114       __imp__FindNextFileA@8     1008e114     kernel32:KERNEL32.dll
 0004:00000118       __imp__FindNextFileW@8     1008e118     kernel32:KERNEL32.dll
 0004:0000011c       __imp__IsValidCodePage@4   1008e11c     kernel32:KERNEL32.dll
 0004:00000120       __imp__GetOEMCP@0          1008e120     kernel32:KERNEL32.dll
 0004:00000124       __imp__GetCPInfo@8         1008e124     kernel32:KERNEL32.dll
 0004:00000128       __imp__GetCommandLineA@0   1008e128     kernel32:KERNEL32.dll
 0004:0000012c       __imp__GetCommandLineW@0   1008e12c     kernel32:KERNEL32.dll
 0004:00000130       __imp__GetEnvironmentStringsW@0 1008e130     kernel32:KERNEL32.dll
 0004:00000134       __imp__FreeEnvironmentStringsW@4 1008e134     kernel32:KERNEL32.dll
 0004:00000138       __imp__SetEnvironmentVariableA@8 1008e138     kernel32:KERNEL32.dll
 0004:0000013c       __imp__SetEnvironmentVariableW@8 1008e13c     kernel32:KERNEL32.dll
 0004:00000140       __imp__GetProcessHeap@0    1008e140     kernel32:KERNEL32.dll
 0004:00000144       __imp__GetStringTypeW@16   1008e144     kernel32:KERNEL32.dll
 0004:00000148       __imp__FlushFileBuffers@4  1008e148     kernel32:KERNEL32.dll
 0004:0000014c       __imp__SetStdHandle@8      1008e14c     kernel32:KERNEL32.dll
 0004:00000150       __imp__CreateFileW@28      1008e150     kernel32:KERNEL32.dll
 0004:00000154       __imp__HeapSize@12         1008e154     kernel32:KERNEL32.dll
 0004:00000158       __imp__SetEndOfFile@4      1008e158     kernel32:KERNEL32.dll
 0004:0000015c       __imp__EncodePointer@4     1008e15c     kernel32:KERNEL32.dll
 0004:00000160       __imp__DecodePointer@4     1008e160     kernel32:KERNEL32.dll
 0004:00000164       \177KERNEL32_NULL_THUNK_DATA 1008e164     kernel32:KERNEL32.dll
 0004:000001d4       __IMPORT_DESCRIPTOR_KERNEL32 1008e1d4     kernel32:KERNEL32.dll
 0004:000001e8       __NULL_IMPORT_DESCRIPTOR   1008e1e8     kernel32:KERNEL32.dll
 0006:00000000       ___guard_check_icall_fptr  10090000     LIBCMT:guard_support.obj
