 PID_LoadCell_Magnet_slrt

 Timestamp is 5ad127e6 (Fri Apr 13 17:57:58 2018)

 Preferred load address is 10000000

 Start         Length     Name                   Class
 0001:00000000 00063f08H .text$mn                CODE
 0002:00000000 00000104H .CRT$XCA                DATA
 0002:00000104 00000104H .CRT$XCZ                DATA
 0002:00000208 00000104H .CRT$XIA                DATA
 0002:0000030c 00000110H .CRT$XIC                DATA
 0002:0000041c 00000104H .CRT$XIZ                DATA
 0002:00000520 00000104H .CRT$XPA                DATA
 0002:00000624 0000010cH .CRT$XPX                DATA
 0002:00000730 00000104H .CRT$XPXA               DATA
 0002:00000834 00000104H .CRT$XPZ                DATA
 0002:00000938 00000104H .CRT$XTA                DATA
 0002:00000a3c 00000104H .CRT$XTZ                DATA
 0002:00000b40 0000e86cH .rdata                  DATA
 0002:0000f3ac 00000394H .rdata$r                DATA
 0002:0000f740 00000110H .rdata$sxdata           DATA
 0002:0000f850 000001ccH .rdata$zzzdbg           DATA
 0002:0000fa1c 00000104H .rtc$IAA                DATA
 0002:0000fb20 00000104H .rtc$IZZ                DATA
 0002:0000fc24 00000104H .rtc$TAA                DATA
 0002:0000fd28 00000108H .rtc$TZZ                DATA
 0002:0000fe30 00000ac0H .xdata$x                DATA
 0002:000108f0 000001eeH .edata                  DATA
 0003:00000000 00001494H .data                   DATA
 0003:00001494 000001ecH .data$r                 DATA
 0003:00001680 00014800H .bss                    DATA
 0004:00000000 000001d4H .idata$5                DATA
 0004:000001d4 00000014H .idata$2                DATA
 0004:000001e8 00000014H .idata$3                DATA
 0004:000001fc 000001d4H .idata$4                DATA
 0004:000003d0 00000843H .idata$6                DATA
 0005:00000000 00000224H .gfids$x                DATA
 0005:00000224 000001a5H .gfids$y                DATA
 0006:00000000 00000104H .00cfg                  DATA

  Address         Publics by Value              Rva+Base       Lib:Object

 0000:00000000       ___guard_iat_count         00000000     <absolute>
 0000:00000000       ___guard_longjmp_table     00000000     <absolute>
 0000:00000000       ___guard_longjmp_count     00000000     <absolute>
 0000:00000000       ___guard_iat_table         00000000     <absolute>
 0000:00000000       ___guard_fids_table        00000000     <absolute>
 0000:00000000       ___dynamic_value_reloc_table 00000000     <absolute>
 0000:00000000       __except_list              00000000     <absolute>
 0000:00000000       ___guard_fids_count        00000000     <absolute>
 0000:00000003       ___safe_se_handler_count   00000003     <absolute>
 0000:00000100       ___guard_flags             00000100     <absolute>
 0000:00000000       ___ImageBase               10000000     <linker-defined>
 0001:00005f60       _MdlInitialize             10006f60 f   PID_LoadCell_Magnet.obj
 0001:00005f70       _MdlInitializeSampleTimes  10006f70 f   PID_LoadCell_Magnet.obj
 0001:00005f80       _MdlInitializeSizes        10006f80 f   PID_LoadCell_Magnet.obj
 0001:00005f90       _MdlOutputs                10006f90 f   PID_LoadCell_Magnet.obj
 0001:00005fa0       _MdlStart                  10006fa0 f   PID_LoadCell_Magnet.obj
 0001:00005fb0       _MdlTerminate              10006fb0 f   PID_LoadCell_Magnet.obj
 0001:00006000       _MdlUpdate                 10007000 f   PID_LoadCell_Magnet.obj
 0001:00006010       _PID_LoadCell_Magnet       10007010 f   PID_LoadCell_Magnet.obj
 0001:00006db0       _PID_LoadCell_Magnet_IfSubsystem 10007db0 f   PID_LoadCell_Magnet.obj
 0001:00006dd0       _PID_LoadCell_Magnet_derivatives 10007dd0 f   PID_LoadCell_Magnet.obj
 0001:00006df0       _PID_LoadCell_Magnet_initialize 10007df0 f   PID_LoadCell_Magnet.obj
 0001:000076f0       _PID_LoadCell_Magnet_output 100086f0 f   PID_LoadCell_Magnet.obj
 0001:00007c90       _PID_LoadCell_Magnet_terminate 10008c90 f   PID_LoadCell_Magnet.obj
 0001:00007ce0       _PID_LoadCell_Magnet_update 10008ce0 f   PID_LoadCell_Magnet.obj
 0001:00007e30       ___local_stdio_printf_options 10008e30 f i PID_LoadCell_Magnet.obj
 0001:00007e40       __vfprintf_l               10008e40 f i PID_LoadCell_Magnet.obj
 0001:00007e70       _printf                    10008e70 f i PID_LoadCell_Magnet.obj
 0001:00007eb0       _rt_ODECreateIntegrationData 10008eb0 f   PID_LoadCell_Magnet.obj
 0001:00007ec0       _rt_ODEDestroyIntegrationData 10008ec0 f   PID_LoadCell_Magnet.obj
 0001:00007ed0       _rt_ODEUpdateContinuousStates 10008ed0 f   PID_LoadCell_Magnet.obj
 0001:000080f0       _rt_mxCreateCharMatrixFromStrings 100090f0 f   rt_matrx.obj
 0001:00008250       _rt_mxCreateDoubleMatrix   10009250 f   rt_matrx.obj
 0001:000082b0       _rt_mxCreateNumericArray   100092b0 f   rt_matrx.obj
 0001:00008330       _rt_mxCreateString         10009330 f   rt_matrx.obj
 0001:000083c0       _rt_mxDuplicateArray       100093c0 f   rt_matrx.obj
 0001:00008420       _rt_mxGetDimensions        10009420 f   rt_matrx.obj
 0001:00008460       _rt_mxGetEps               10009460 f   rt_matrx.obj
 0001:00008470       _rt_mxGetString            10009470 f   rt_matrx.obj
 0001:000084f0       _rtPrintfNoOp              100094f0 f   rt_printf.obj
 0001:00008500       _PID_LoadCell_Magnet_GetCAPIStaticMap 10009500 f   PID_LoadCell_Magnet_capi.obj
 0001:00008510       _PID_LoadCell_Magnet_InitializeDataMapInfo 10009510 f   PID_LoadCell_Magnet_capi.obj
 0001:000085a0       _rtGetInf                  100095a0 f   rtGetInf.obj
 0001:000085d0       _rtGetInfF                 100095d0 f   rtGetInf.obj
 0001:000085f0       _rtGetMinusInf             100095f0 f   rtGetInf.obj
 0001:00008620       _rtGetMinusInfF            10009620 f   rtGetInf.obj
 0001:00008640       _rtGetNaN                  10009640 f   rtGetNaN.obj
 0001:00008670       _rtGetNaNF                 10009670 f   rtGetNaN.obj
 0001:00008690       _rtIsInf                   10009690 f   rt_nonfinite.obj
 0001:000086d0       _rtIsInfF                  100096d0 f   rt_nonfinite.obj
 0001:00008710       _rtIsNaN                   10009710 f   rt_nonfinite.obj
 0001:00008730       _rtIsNaNF                  10009730 f   rt_nonfinite.obj
 0001:00008750       _rt_InitInfAndNaN          10009750 f   rt_nonfinite.obj
 0001:000087b0       _rt_CleanUpForStateLogWithMMI 100097b0 f   rt_logging_mmi.obj
 0001:000088c0       _rt_FillStateSigInfoFromMMI 100098c0 f   rt_logging_mmi.obj
 0001:00008c60       _rtwCAPI_CountSysRan       10009c60 f   rtw_modelmap_utils.obj
 0001:00008d00       _rtwCAPI_EncodePath        10009d00 f   rtw_modelmap_utils.obj
 0001:00008e00       _rtwCAPI_FillSysRan        10009e00 f   rtw_modelmap_utils.obj
 0001:00008ef0       _rtwCAPI_FreeFullPaths     10009ef0 f   rtw_modelmap_utils.obj
 0001:00008f80       _rtwCAPI_GetFullStateBlockPath 10009f80 f   rtw_modelmap_utils.obj
 0001:00009130       _rtwCAPI_GetNumContStateRecords 1000a130 f   rtw_modelmap_utils.obj
 0001:000091f0       _rtwCAPI_GetNumSigLogRecords 1000a1f0 f   rtw_modelmap_utils.obj
 0001:00009240       _rtwCAPI_GetNumSigLogRecordsForRTWLogging 1000a240 f   rtw_modelmap_utils.obj
 0001:000092e0       _rtwCAPI_GetNumStateRecords 1000a2e0 f   rtw_modelmap_utils.obj
 0001:00009330       _rtwCAPI_GetNumStateRecordsForRTWLogging 1000a330 f   rtw_modelmap_utils.obj
 0001:000093d0       _rtwCAPI_GetSigAddrFromMap 1000a3d0 f   rtw_modelmap_utils.obj
 0001:00009490       _rtwCAPI_GetSigLogRecordInfo 1000a490 f   rtw_modelmap_utils.obj
 0001:000098c0       _rtwCAPI_GetStateRecordInfo 1000a8c0 f   rtw_modelmap_utils.obj
 0001:00009d70       _rtwCAPI_GetStateWidth     1000ad70 f   rtw_modelmap_utils.obj
 0001:00009dd0       _rtwCAPI_HasStates         1000add0 f   rtw_modelmap_utils.obj
 0001:00009e40       _rtwCAPI_UpdateFullPaths   1000ae40 f   rtw_modelmap_utils.obj
 0001:0000a020       __vsnprintf_l              1000b020 f i rt_logging.obj
 0001:0000a060       __vsprintf_l               1000b060 f i rt_logging.obj
 0001:0000a0a0       _fprintf                   1000b0a0 f i rt_logging.obj
 0001:0000a9b0       _rt_CreateLogVar           1000b9b0 f   rt_logging.obj
 0001:0000aa40       _rt_CreateLogVarWithConvert 1000ba40 f   rt_logging.obj
 0001:0000b3c0       _rt_CreateStructLogVar     1000c3c0 f   rt_logging.obj
 0001:0000c120       _rt_GetMxIdFromDTypeId     1000d120 f   rt_logging.obj
 0001:0000c150       _rt_GetMxIdFromDTypeIdForRSim 1000d150 f   rt_logging.obj
 0001:0000ea20       _rt_StartDataLogging       1000fa20 f   rt_logging.obj
 0001:0000eee0       _rt_StartDataLoggingWithStartTime 1000fee0 f   rt_logging.obj
 0001:0000f840       _rt_StopDataLogging        10010840 f   rt_logging.obj
 0001:0000f860       _rt_StopDataLoggingImpl    10010860 f   rt_logging.obj
 0001:0000fb90       _rt_UpdateLogVar           10010b90 f   rt_logging.obj
 0001:00010cb0       _rt_UpdateStructLogVar     10011cb0 f   rt_logging.obj
 0001:00010d40       _rt_UpdateTXXFYLogVars     10011d40 f   rt_logging.obj
 0001:00011070       _rt_UpdateTXYLogVars       10012070 f   rt_logging.obj
 0001:000112c0       _sprintf                   100122c0 f i rt_logging.obj
 0001:00011300       _DllMain@12                10012300 f   xpctarget.obj
 0001:00011310       _PID_LoadCell_Magnet_ChangeStepSize 10012310 f   xpctarget.obj
 0001:00011380       _SLRTSetErrorStatus        10012380 f   xpctarget.obj
 0001:000113a0       _changeStepSize            100123a0 f   xpctarget.obj
 0001:00011410       _getDLMVersion             10012410 f   xpctarget.obj
 0001:00011420       _getRefMdlPath             10012420 f   xpctarget.obj
 0001:000114a0       _getRefMdlSignalNumber     100124a0 f   xpctarget.obj
 0001:00011550       _getrlmdlinfo              10012550 f   xpctarget.obj
 0001:00011730       _updateDiscreteEvents      10012730 f   xpctarget.obj
 0001:00011740       _getNumRef                 10012740 f   appmappingData.obj
 0001:00011750       _vprintf                   10012750 f i legacy_stdio.obj
 0001:00011790       _adquanserq8               10012790 f   adquanserq8.obj
 0001:00011eb0       _daquanserq8               10012eb0 f   daquanserq8.obj
 0001:00012820       _encquanserq8              10013820 f   encquanserq8.obj
 0001:00013360       _GetPCIDeviceFull          10014360 f   xpcruntime:xpcimports.obj
 0001:000133a0       _ShowPCIDevice             100143a0 f   xpcruntime:xpcimports.obj
 0001:00013b60       _xpcGetPciConfigAtSlot     10014b60 f   xpcruntime:xpcimports.obj
 0001:00013e70       _xpcInitProcs              10014e70 f   xpcruntime:xpcimports.obj
 0001:000151d0       _xpceuploadevent           100161d0 f   xpcruntime:xpcimports.obj
 0001:000151e0       __ftoui3                   100161e0 f   LIBCMT:_ftol3_.obj
 0001:000151ef       __ftoul3                   100161ef f   LIBCMT:_ftol3_.obj
 0001:000151fe       __ftol3                    100161fe f   LIBCMT:_ftol3_.obj
 0001:0001520b       __ftol3_NaN                1001620b f   LIBCMT:_ftol3_.obj
 0001:00015223       __ftol3_work               10016223 f   LIBCMT:_ftol3_.obj
 0001:000152a9       __ftol3_common             100162a9 f   LIBCMT:_ftol3_.obj
 0001:0001536b       __ftol3_arg_error          1001636b f   LIBCMT:_ftol3_.obj
 0001:0001537d       __ftol3_except             1001637d f   LIBCMT:_ftol3_.obj
 0001:000153c1       __dtoui3                   100163c1 f   LIBCMT:_ftol3_.obj
 0001:000153d0       __dtoul3                   100163d0 f   LIBCMT:_ftol3_.obj
 0001:000153df       __dtol3                    100163df f   LIBCMT:_ftol3_.obj
 0001:000153ec       __dtol3_NaN                100163ec f   LIBCMT:_ftol3_.obj
 0001:00015409       __dtol3_work               10016409 f   LIBCMT:_ftol3_.obj
 0001:000154f0       __ultod3                   100164f0 f   LIBCMT:_ftol3_.obj
 0001:00015530       __ltod3                    10016530 f   LIBCMT:_ftol3_.obj
 0001:00015634       ___raise_securityfailure   10016634 f   LIBCMT:gs_report.obj
 0001:00015666       ___report_gsfailure        10016666 f   LIBCMT:gs_report.obj
 0001:0001579f       ___report_rangecheckfailure 1001679f f   LIBCMT:gs_report.obj
 0001:000157ae       ___report_securityfailure  100167ae f   LIBCMT:gs_report.obj
 0001:000158b2       ___report_securityfailureEx 100168b2 f   LIBCMT:gs_report.obj
 0001:00015a0d       @__security_check_cookie@4 10016a0d f   LIBCMT:_secchk_.obj
 0001:00015a22       ___isa_available_init      10016a22 f   LIBCMT:_cpu_disp_.obj
 0001:00015fea       __CRT_INIT@12              10016fea f   LIBCMT:dll_dllmain.obj
 0001:00015ff5       __DllMainCRTStartup@12     10016ff5 f   LIBCMT:dll_dllmain.obj
 0001:00016020       ??$__crt_fast_decode_pointer@PAP6AXXZ@@YAPAP6AXXZQAP6AXXZ@Z 10017020 f i LIBCMT:utility.obj
 0001:00016039       ??$__crt_fast_encode_pointer@PAP6AXXZ@@YAPAP6AXXZQAP6AXXZ@Z 10017039 f i LIBCMT:utility.obj
 0001:0001605d       ?__crt_rotate_pointer_value@@YAIIH@Z 1001705d f i LIBCMT:utility.obj
 0001:0001606d       ?configure_argv@__scrt_narrow_argv_policy@@SAHXZ 1001706d f i LIBCMT:utility.obj
 0001:00016111       _NtCurrentTeb              10017111 f i LIBCMT:utility.obj
 0001:00016118       ___scrt_acquire_startup_lock 10017118 f   LIBCMT:utility.obj
 0001:0001615a       ___scrt_dllmain_after_initialize_c 1001715a f   LIBCMT:utility.obj
 0001:0001618f       ___scrt_dllmain_before_initialize_c 1001718f f   LIBCMT:utility.obj
 0001:000161a0       ___scrt_dllmain_crt_thread_attach 100171a0 f   LIBCMT:utility.obj
 0001:000161c6       ___scrt_dllmain_crt_thread_detach 100171c6 f   LIBCMT:utility.obj
 0001:000161d6       ___scrt_dllmain_exception_filter 100171d6 f   LIBCMT:utility.obj
 0001:00016215       ___scrt_dllmain_uninitialize_c 10017215 f   LIBCMT:utility.obj
 0001:00016240       ___scrt_dllmain_uninitialize_critical 10017240 f   LIBCMT:utility.obj
 0001:00016250       ___scrt_initialize_crt     10017250 f   LIBCMT:utility.obj
 0001:00016297       ___scrt_initialize_onexit_tables 10017297 f   LIBCMT:utility.obj
 0001:00016353       ___scrt_is_nonwritable_in_current_image 10017353 f   LIBCMT:utility.obj
 0001:000163ff       ___scrt_release_startup_lock 100173ff f   LIBCMT:utility.obj
 0001:00016423       ___scrt_uninitialize_crt   10017423 f   LIBCMT:utility.obj
 0001:00016455       __onexit                   10017455 f   LIBCMT:utility.obj
 0001:0001649e       _at_quick_exit             1001749e f   LIBCMT:utility.obj
 0001:000164db       _atexit                    100174db f   LIBCMT:utility.obj
 0001:000164f5       ___security_init_cookie    100174f5 f   LIBCMT:gs_support.obj
 0001:000165b8       ?__scrt_initialize_type_info@@YAXXZ 100175b8 f   LIBCMT:tncleanup.obj
 0001:000165c7       ?__scrt_uninitialize_type_info@@YAXXZ 100175c7 f   LIBCMT:tncleanup.obj
 0001:000165d6       ___local_stdio_scanf_options 100175d6 f i LIBCMT:default_local_stdio_options.obj
 0001:000165dc       ___scrt_initialize_default_local_stdio_options 100175dc f   LIBCMT:default_local_stdio_options.obj
 0001:00016600       ___scrt_get_dyn_tls_init_callback 10017600 f   LIBCMT:dyn_tls_init.obj
 0001:00016606       ___scrt_fastfail           10017606 f   LIBCMT:utility_desktop.obj
 0001:00016767       ___scrt_get_show_window_mode 10017767 f   LIBCMT:utility_desktop.obj
 0001:000167a6       ___scrt_initialize_winrt   100177a6 f   LIBCMT:utility_desktop.obj
 0001:000167a9       ___scrt_is_managed_app     100177a9 f   LIBCMT:utility_desktop.obj
 0001:000167fe       ___scrt_set_unhandled_exception_filter 100177fe f   LIBCMT:utility_desktop.obj
 0001:0001680d       ___scrt_unhandled_exception_filter@4 1001780d f   LIBCMT:utility_desktop.obj
 0001:0001685e       __crt_debugger_hook        1001785e f   LIBCMT:utility_desktop.obj
 0001:00016868       __RTC_Initialize           10017868 f   LIBCMT:_initsect_.obj
 0001:0001689d       __RTC_Terminate            1001789d f   LIBCMT:_initsect_.obj
 0001:000168d2       @_guard_check_icall@4      100178d2 f i LIBCMT:checkcfg.obj
 0001:000168e0       __SEH_prolog4              100178e0 f   LIBCMT:_sehprolg4_.obj
 0001:00016926       __SEH_epilog4              10017926 f   LIBCMT:_sehprolg4_.obj
 0001:00016951       __get_startup_argv_mode    10017951 f   LIBCMT:argv_mode.obj
 0001:00016955       ___scrt_is_ucrt_dll_in_use 10017955 f   LIBCMT:ucrt_detection.obj
 0001:00016964       @_guard_check_icall_nop@4  10017964 f i LIBCMT:guard_support.obj
 0001:00016965       __guard_icall_checks_enforced 10017965 f i LIBCMT:guard_support.obj
 0001:0001697c       _GetModuleHandleA@4        1001797c f   kernel32:KERNEL32.dll
 0001:00016982       _GetProcAddress@8          10017982 f   kernel32:KERNEL32.dll
 0001:00016988       _UnhandledExceptionFilter@4 10017988 f   kernel32:KERNEL32.dll
 0001:0001698e       _SetUnhandledExceptionFilter@4 1001798e f   kernel32:KERNEL32.dll
 0001:00016994       _GetCurrentProcess@0       10017994 f   kernel32:KERNEL32.dll
 0001:0001699a       _TerminateProcess@8        1001799a f   kernel32:KERNEL32.dll
 0001:000169a0       _IsProcessorFeaturePresent@4 100179a0 f   kernel32:KERNEL32.dll
 0001:000169a6       _QueryPerformanceCounter@4 100179a6 f   kernel32:KERNEL32.dll
 0001:000169ac       _GetCurrentProcessId@0     100179ac f   kernel32:KERNEL32.dll
 0001:000169b2       _GetCurrentThreadId@0      100179b2 f   kernel32:KERNEL32.dll
 0001:000169b8       _GetSystemTimeAsFileTime@4 100179b8 f   kernel32:KERNEL32.dll
 0001:000169be       _InitializeSListHead@4     100179be f   kernel32:KERNEL32.dll
 0001:000169c4       _IsDebuggerPresent@0       100179c4 f   kernel32:KERNEL32.dll
 0001:000169ca       _GetStartupInfoW@4         100179ca f   kernel32:KERNEL32.dll
 0001:000169d0       _GetModuleHandleW@4        100179d0 f   kernel32:KERNEL32.dll
 0001:000169e0       _memset                    100179e0 f   libvcruntime:memset.obj
 0001:00016b90       _memcpy                    10017b90 f   libvcruntime:memcpy.obj
 0001:00017270       _memmove                   10018270 f   libvcruntime:memmove.obj
 0001:00017950       _strchr                    10018950 f   libvcruntime:strchr.obj
 0001:000179be       ___from_strstr_to_strchr   100189be     libvcruntime:strchr.obj
 0001:00017b10       __except_handler4          10018b10 f   libvcruntime:_chandler4_.obj
 0001:00017ccf       ___vcrt_initialize         10018ccf f   libvcruntime:initialization.obj
 0001:00017d02       ___vcrt_thread_attach      10018d02 f   libvcruntime:initialization.obj
 0001:00017d0f       ___vcrt_thread_detach      10018d0f f   libvcruntime:initialization.obj
 0001:00017d1c       ___vcrt_uninitialize       10018d1c f   libvcruntime:initialization.obj
 0001:00017d42       ___vcrt_uninitialize_critical 10018d42 f   libvcruntime:initialization.obj
 0001:00017d5d       ??$?RD@__crt_internal_free_policy@@QBEXQBD@Z 10018d5d f i libvcruntime:std_type_info.obj
 0001:00017d71       ??$?RX@__crt_internal_free_policy@@QBEXQBX@Z 10018d71 f i libvcruntime:std_type_info.obj
 0001:00017d85       ??$__crt_interlocked_compare_exchange_pointer@$$CBD$$T$$T@@YAPBDPDSBD$$T1@Z 10018d85 f i libvcruntime:std_type_info.obj
 0001:00017d9b       ??$__crt_interlocked_compare_exchange_pointer@$$CBDPAD$$T@@YAPBDPDSBDQAD$$T@Z 10018d9b f i libvcruntime:std_type_info.obj
 0001:00017db1       ??$__crt_interlocked_read_pointer@$$CBD@@YAPBDPDSBD@Z 10018db1 f i libvcruntime:std_type_info.obj
 0001:00017dc5       ??0?$__crt_unique_heap_ptr@DU__crt_internal_free_policy@@@@QAE@QAD@Z 10018dc5 f i libvcruntime:std_type_info.obj
 0001:00017dd6       ??0?$__crt_unique_heap_ptr@XU__crt_internal_free_policy@@@@QAE@QAX@Z 10018dd6 f i libvcruntime:std_type_info.obj
 0001:00017de7       ??1?$__crt_unique_heap_ptr@DU__crt_internal_free_policy@@@@QAE@XZ 10018de7 f i libvcruntime:std_type_info.obj
 0001:00017dfb       ??1?$__crt_unique_heap_ptr@XU__crt_internal_free_policy@@@@QAE@XZ 10018dfb f i libvcruntime:std_type_info.obj
 0001:00017e1b       ??B?$__crt_unique_heap_ptr@DU__crt_internal_free_policy@@@@QBE_NXZ 10018e1b f i libvcruntime:std_type_info.obj
 0001:00017e22       ??B?$__crt_unique_heap_ptr@XU__crt_internal_free_policy@@@@QBE_NXZ 10018e22 f i libvcruntime:std_type_info.obj
 0001:00017e51       ?detach@?$__crt_unique_heap_ptr@XU__crt_internal_free_policy@@@@QAEPAXXZ 10018e51 f i libvcruntime:std_type_info.obj
 0001:00017e57       ?get@?$__crt_unique_heap_ptr@DU__crt_internal_free_policy@@@@QBEPADXZ 10018e57 f i libvcruntime:std_type_info.obj
 0001:00017e5a       ?get@?$__crt_unique_heap_ptr@XU__crt_internal_free_policy@@@@QBEPAXXZ 10018e5a f i libvcruntime:std_type_info.obj
 0001:00017e5d       ?is_valid@?$__crt_unique_heap_ptr@DU__crt_internal_free_policy@@@@QBE_NXZ 10018e5d f i libvcruntime:std_type_info.obj
 0001:00017e64       ?is_valid@?$__crt_unique_heap_ptr@XU__crt_internal_free_policy@@@@QBE_NXZ 10018e64 f i libvcruntime:std_type_info.obj
 0001:00017e6b       ?release@?$__crt_unique_heap_ptr@DU__crt_internal_free_policy@@@@QAEXXZ 10018e6b f i libvcruntime:std_type_info.obj
 0001:00017e7f       ?release@?$__crt_unique_heap_ptr@XU__crt_internal_free_policy@@@@QAEXXZ 10018e7f f i libvcruntime:std_type_info.obj
 0001:00017e93       ___std_type_info_compare   10018e93 f   libvcruntime:std_type_info.obj
 0001:00017ede       ___std_type_info_destroy_list 10018ede f   libvcruntime:std_type_info.obj
 0001:00017f09       ___std_type_info_hash      10018f09 f   libvcruntime:std_type_info.obj
 0001:00017f38       ___std_type_info_name      10018f38 f   libvcruntime:std_type_info.obj
 0001:00018040       __local_unwind4            10019040 f   libvcruntime:_exsup4_.obj
 0001:00018116       __seh_longjmp_unwind4@4    10019116 f   libvcruntime:_exsup4_.obj
 0001:0001813e       @_EH4_CallFilterFunc@8     1001913e f   libvcruntime:_exsup4_.obj
 0001:00018155       @_EH4_TransferToHandler@8  10019155 f   libvcruntime:_exsup4_.obj
 0001:0001816e       @_EH4_GlobalUnwind2@8      1001916e f   libvcruntime:_exsup4_.obj
 0001:00018187       @_EH4_LocalUnwind@16       10019187 f   libvcruntime:_exsup4_.obj
 0001:000181f5       ___except_validate_context_record 100191f5 f   libvcruntime:jbcxrval.obj
 0001:000181f6       ___except_validate_jump_buffer 100191f6 f   libvcruntime:jbcxrval.obj
 0001:000181f7       ??$?RU__vcrt_ptd@@@__crt_internal_free_policy@@QBEXQBU__vcrt_ptd@@@Z 100191f7 f i libvcruntime:per_thread_data.obj
 0001:0001820b       ??0?$__crt_unique_heap_ptr@U__vcrt_ptd@@U__crt_internal_free_policy@@@@QAE@QAU__vcrt_ptd@@@Z 1001920b f i libvcruntime:per_thread_data.obj
 0001:0001822e       ??1?$__crt_unique_heap_ptr@U__vcrt_ptd@@U__crt_internal_free_policy@@@@QAE@XZ 1001922e f i libvcruntime:per_thread_data.obj
 0001:0001824d       ??B?$__crt_unique_heap_ptr@U__vcrt_ptd@@U__crt_internal_free_policy@@@@QBE_NXZ 1001924d f i libvcruntime:per_thread_data.obj
 0001:00018254       ?detach@?$__crt_unique_heap_ptr@U__vcrt_ptd@@U__crt_internal_free_policy@@@@QAEPAU__vcrt_ptd@@XZ 10019254 f i libvcruntime:per_thread_data.obj
 0001:0001825a       ?get@?$__crt_unique_heap_ptr@U__vcrt_ptd@@U__crt_internal_free_policy@@@@QBEPAU__vcrt_ptd@@XZ 1001925a f i libvcruntime:per_thread_data.obj
 0001:0001825d       ?is_valid@?$__crt_unique_heap_ptr@U__vcrt_ptd@@U__crt_internal_free_policy@@@@QBE_NXZ 1001925d f i libvcruntime:per_thread_data.obj
 0001:00018264       ?release@?$__crt_unique_heap_ptr@U__vcrt_ptd@@U__crt_internal_free_policy@@@@QAEXXZ 10019264 f i libvcruntime:per_thread_data.obj
 0001:00018298       ___vcrt_freefls@4          10019298 f   libvcruntime:per_thread_data.obj
 0001:000182bb       ___vcrt_freeptd            100192bb f   libvcruntime:per_thread_data.obj
 0001:000182fe       ___vcrt_getptd             100192fe f   libvcruntime:per_thread_data.obj
 0001:0001830f       ___vcrt_getptd_noexit      1001930f f   libvcruntime:per_thread_data.obj
 0001:000183c5       ___vcrt_initialize_ptd     100193c5 f   libvcruntime:per_thread_data.obj
 0001:00018404       ___vcrt_uninitialize_ptd   10019404 f   libvcruntime:per_thread_data.obj
 0001:00018425       ___vcrt_initialize_locks   10019425 f   libvcruntime:locks.obj
 0001:00018470       ___vcrt_lock               10019470 f   libvcruntime:locks.obj
 0001:0001848a       ___vcrt_uninitialize_locks 1001948a f   libvcruntime:locks.obj
 0001:000184c4       ___vcrt_unlock             100194c4 f   libvcruntime:locks.obj
 0001:000184de       ??$?BX@__crt_fast_encoded_nullptr_t@@QBEPAXXZ 100194de f i libvcruntime:winapi_downlevel.obj
 0001:000184fc       ??$__crt_fast_decode_pointer@PAX@@YAPAXQAX@Z 100194fc f i libvcruntime:winapi_downlevel.obj
 0001:00018515       ??$__crt_fast_encode_pointer@PAX@@YAPAXQAX@Z 10019515 f i libvcruntime:winapi_downlevel.obj
 0001:00018539       ??$__crt_interlocked_compare_exchange_pointer@UHINSTANCE__@@$$T$$T@@YAPAUHINSTANCE__@@PDSAU0@$$T1@Z 10019539 f i libvcruntime:winapi_downlevel.obj
 0001:0001854f       ??$__crt_interlocked_compare_exchange_pointer@X$$T$$T@@YAPAXPDSAX$$T1@Z 1001954f f i libvcruntime:winapi_downlevel.obj
 0001:00018565       ??$__crt_interlocked_exchange_pointer@UHINSTANCE__@@PAU1@@@YAPAUHINSTANCE__@@PDSAU0@QAU0@@Z 10019565 f i libvcruntime:winapi_downlevel.obj
 0001:00018575       ??$__crt_interlocked_exchange_pointer@UHINSTANCE__@@PAX@@YAPAUHINSTANCE__@@PDSAU0@QAX@Z 10019575 f i libvcruntime:winapi_downlevel.obj
 0001:00018585       ??$__crt_interlocked_exchange_pointer@XPAX@@YAPAXPDSAXQAX@Z 10019585 f i libvcruntime:winapi_downlevel.obj
 0001:00018595       ??$__crt_interlocked_read_pointer@UHINSTANCE__@@@@YAPAUHINSTANCE__@@PDSAU0@@Z 10019595 f i libvcruntime:winapi_downlevel.obj
 0001:000185a9       ??$__crt_interlocked_read_pointer@X@@YAPAXPDSAX@Z 100195a9 f i libvcruntime:winapi_downlevel.obj
 0001:000185bd       ?__crt_fast_encode_pointer@@YA?AU__crt_fast_encoded_nullptr_t@@$$T@Z 100195bd f i libvcruntime:winapi_downlevel.obj
 0001:00018901       ___vcrt_EventRegister      10019901 f   libvcruntime:winapi_downlevel.obj
 0001:00018951       ___vcrt_EventSetInformation 10019951 f   libvcruntime:winapi_downlevel.obj
 0001:000189a4       ___vcrt_EventUnregister    100199a4 f   libvcruntime:winapi_downlevel.obj
 0001:000189ec       ___vcrt_EventWriteTransfer 100199ec f   libvcruntime:winapi_downlevel.obj
 0001:00018a47       ___vcrt_FlsAlloc           10019a47 f   libvcruntime:winapi_downlevel.obj
 0001:00018a8f       ___vcrt_FlsFree            10019a8f f   libvcruntime:winapi_downlevel.obj
 0001:00018ad7       ___vcrt_FlsGetValue        10019ad7 f   libvcruntime:winapi_downlevel.obj
 0001:00018b1f       ___vcrt_FlsSetValue        10019b1f f   libvcruntime:winapi_downlevel.obj
 0001:00018b6b       ___vcrt_InitializeCriticalSectionEx 10019b6b f   libvcruntime:winapi_downlevel.obj
 0001:00018bc2       ___vcrt_initialize_winapi_thunks 10019bc2 f   libvcruntime:winapi_downlevel.obj
 0001:00018c0a       ___vcrt_uninitialize_winapi_thunks 10019c0a f   libvcruntime:winapi_downlevel.obj
 0001:00018c48       ??$?B$$A6AXXZ@__crt_fast_encoded_nullptr_t@@QBEP6AXXZXZ 10019c48 f i libvcruntime:purevirt_data.obj
 0001:00018c66       ??$__crt_fast_encode_pointer@P6AXXZ@@YAP6AXXZQ6AXXZ@Z 10019c66 f i libvcruntime:purevirt_data.obj
 0001:00018c8a       ___vcrt_initialize_pure_virtual_call_handler 10019c8a f   libvcruntime:purevirt_data.obj
 0001:00018cae       ??$__vcrt_va_start_verify_argument_type@QBD@@YAXXZ 10019cae f i libvcruntime:undname.obj
 0001:00018caf       ??0Block@_HeapManager@@QAE@XZ 10019caf f i libvcruntime:undname.obj
 0001:00018cb5       ??0DName@@QAE@AAPBDD@Z     10019cb5 f   libvcruntime:undname.obj
 0001:00018d9c       ??0DName@@QAE@ABV0@@Z      10019d9c f i libvcruntime:undname.obj
 0001:00018db7       ??0DName@@QAE@D@Z          10019db7 f   libvcruntime:undname.obj
 0001:00018dee       ??0DName@@QAE@PAV0@@Z      10019dee f   libvcruntime:undname.obj
 0001:00018e4e       ??0DName@@QAE@PBD@Z        10019e4e f   libvcruntime:undname.obj
 0001:00018e96       ??0DName@@QAE@W4DNameStatus@@@Z 10019e96 f   libvcruntime:undname.obj
 0001:00018ee9       ??0DName@@QAE@XZ           10019ee9 f i libvcruntime:undname.obj
 0001:00018efe       ??0DName@@QAE@_J@Z         10019efe f   libvcruntime:undname.obj
 0001:00018fb8       ??0DName@@QAE@_K@Z         10019fb8 f   libvcruntime:undname.obj
 0001:00019042       ??0DNameNode@@IAE@XZ       1001a042 f   libvcruntime:undname.obj
 0001:0001904d       ??0DNameStatusNode@@AAE@W4DNameStatus@@@Z 1001a04d f   libvcruntime:undname.obj
 0001:00019078       ??0Replicator@@QAE@XZ      1001a078 f i libvcruntime:undname.obj
 0001:0001907e       ??0UnDecorator@@QAE@PADPBDHP6APADJ@ZK@Z 1001a07e f i libvcruntime:undname.obj
 0001:00019101       ??0charNode@@QAE@D@Z       1001a101 f   libvcruntime:undname.obj
 0001:0001911b       ??0pDNameNode@@QAE@PAVDName@@@Z 1001a11b f   libvcruntime:undname.obj
 0001:0001914d       ??0pairNode@@QAE@PAVDNameNode@@0@Z 1001a14d f   libvcruntime:undname.obj
 0001:00019173       ??0pcharNode@@QAE@PBDH@Z   1001a173 f   libvcruntime:undname.obj
 0001:000191e2       ??2@YAPAXIAAV_HeapManager@@H@Z 1001a1e2 f i libvcruntime:undname.obj
 0001:000191fc       ??4DName@@QAEAAV0@ABV0@@Z  1001a1fc f   libvcruntime:undname.obj
 0001:00019217       ??4DName@@QAEAAV0@D@Z      1001a217 f i libvcruntime:undname.obj
 0001:0001924e       ??4DName@@QAEAAV0@PAV0@@Z  1001a24e f   libvcruntime:undname.obj
 0001:000192a9       ??4DName@@QAEAAV0@PBD@Z    1001a2a9 f   libvcruntime:undname.obj
 0001:000192e7       ??4DName@@QAEAAV0@W4DNameStatus@@@Z 1001a2e7 f   libvcruntime:undname.obj
 0001:00019329       ??AReplicator@@QBE?AVDName@@H@Z 1001a329 f   libvcruntime:undname.obj
 0001:00019374       ??BUnDecorator@@QAEPADXZ   1001a374 f i libvcruntime:undname.obj
 0001:0001954b       ??H@YA?AVDName@@DABV0@@Z   1001a54b f i libvcruntime:undname.obj
 0001:00019578       ??H@YA?AVDName@@PBDABV0@@Z 1001a578 f i libvcruntime:undname.obj
 0001:000195a5       ??H@YA?AVDName@@W4DNameStatus@@ABV0@@Z 1001a5a5 f i libvcruntime:undname.obj
 0001:000195d2       ??HDName@@QBE?AV0@ABV0@@Z  1001a5d2 f   libvcruntime:undname.obj
 0001:000195fc       ??HDName@@QBE?AV0@D@Z      1001a5fc f   libvcruntime:undname.obj
 0001:00019626       ??HDName@@QBE?AV0@PAV0@@Z  1001a626 f   libvcruntime:undname.obj
 0001:00019650       ??HDName@@QBE?AV0@PBD@Z    1001a650 f   libvcruntime:undname.obj
 0001:0001967a       ??HDName@@QBE?AV0@W4DNameStatus@@@Z 1001a67a f   libvcruntime:undname.obj
 0001:000196a4       ??YDName@@QAEAAV0@ABV0@@Z  1001a6a4 f   libvcruntime:undname.obj
 0001:000196f7       ??YDName@@QAEAAV0@D@Z      1001a6f7 f   libvcruntime:undname.obj
 0001:0001975b       ??YDName@@QAEAAV0@PAV0@@Z  1001a75b f   libvcruntime:undname.obj
 0001:000197d9       ??YDName@@QAEAAV0@PBD@Z    1001a7d9 f   libvcruntime:undname.obj
 0001:00019852       ??YDName@@QAEAAV0@W4DNameStatus@@@Z 1001a852 f   libvcruntime:undname.obj
 0001:000198a2       ??YReplicator@@QAEAAV0@ABVDName@@@Z 1001a8a2 f   libvcruntime:undname.obj
 0001:000198fe       ??_5DName@@QAEAAV0@ABV0@@Z 1001a8fe f   libvcruntime:undname.obj
 0001:00019921       ?Constructor@_HeapManager@@QAEXP6APAXI@ZP6AXPAX@Z@Z 1001a921 f i libvcruntime:undname.obj
 0001:00019945       ?Destructor@_HeapManager@@QAEXXZ 1001a945 f i libvcruntime:undname.obj
 0001:0001998c       ?UScore@UnDecorator@@SAPBDW4Tokens@@@Z 1001a98c f   libvcruntime:undname.obj
 0001:000199b0       ?append@DName@@AAEXPAVDNameNode@@@Z 1001a9b0 f   libvcruntime:undname.obj
 0001:00019a07       ?composeDeclaration@UnDecorator@@CA?AVDName@@ABV2@@Z 1001aa07 f i libvcruntime:undname.obj
 0001:0001aa42       ?doAccessSpecifiers@UnDecorator@@SAHXZ 1001ba42 f i libvcruntime:undname.obj
 0001:0001aa53       ?doAllocationLanguage@UnDecorator@@SAHXZ 1001ba53 f i libvcruntime:undname.obj
 0001:0001aa64       ?doAllocationModel@UnDecorator@@SAHXZ 1001ba64 f i libvcruntime:undname.obj
 0001:0001aa75       ?doEcsu@UnDecorator@@SAHXZ 1001ba75 f i libvcruntime:undname.obj
 0001:0001aa86       ?doEllipsis@UnDecorator@@SAHXZ 1001ba86 f i libvcruntime:undname.obj
 0001:0001aa97       ?doFunctionReturns@UnDecorator@@SAHXZ 1001ba97 f i libvcruntime:undname.obj
 0001:0001aaa8       ?doMSKeywords@UnDecorator@@SAHXZ 1001baa8 f i libvcruntime:undname.obj
 0001:0001aab8       ?doMemberTypes@UnDecorator@@SAHXZ 1001bab8 f i libvcruntime:undname.obj
 0001:0001aac9       ?doNameOnly@UnDecorator@@SAHXZ 1001bac9 f i libvcruntime:undname.obj
 0001:0001aad6       ?doNoIdentCharCheck@UnDecorator@@SAHXZ 1001bad6 f i libvcruntime:undname.obj
 0001:0001aae3       ?doPchar@DName@@AAEXPBDH@Z 1001bae3 f   libvcruntime:undname.obj
 0001:0001ab8f       ?doPtr64@UnDecorator@@SAHXZ 1001bb8f f i libvcruntime:undname.obj
 0001:0001aba0       ?doRestrictionSpec@UnDecorator@@SAHXZ 1001bba0 f i libvcruntime:undname.obj
 0001:0001abb1       ?doThisTypes@UnDecorator@@SAHXZ 1001bbb1 f i libvcruntime:undname.obj
 0001:0001abc7       ?doThrowTypes@UnDecorator@@SAHXZ 1001bbc7 f i libvcruntime:undname.obj
 0001:0001abd8       ?doTypeOnly@UnDecorator@@SAHXZ 1001bbd8 f i libvcruntime:undname.obj
 0001:0001abe5       ?doUnderScore@UnDecorator@@SAHXZ 1001bbe5 f i libvcruntime:undname.obj
 0001:0001abf2       ?getArgumentList@UnDecorator@@CA?AVDName@@XZ 1001bbf2 f   libvcruntime:undname.obj
 0001:0001ad41       ?getArgumentTypes@UnDecorator@@CA?AVDName@@XZ 1001bd41 f   libvcruntime:undname.obj
 0001:0001ae59       ?getArrayType@UnDecorator@@CA?AVDName@@ABV2@@Z 1001be59 f i libvcruntime:undname.obj
 0001:0001b0db       ?getBasedType@UnDecorator@@CA?AVDName@@XZ 1001c0db f   libvcruntime:undname.obj
 0001:0001b19a       ?getBasicDataType@UnDecorator@@CA?AVDName@@ABV2@@Z 1001c19a f   libvcruntime:undname.obj
 0001:0001b684       ?getCallIndex@UnDecorator@@CA?AVDName@@XZ 1001c684 f i libvcruntime:undname.obj
 0001:0001b69d       ?getCallingConvention@UnDecorator@@CA?AVDName@@XZ 1001c69d f   libvcruntime:undname.obj
 0001:0001b78b       ?getDataIndirectType@UnDecorator@@CA?AVDName@@ABV2@PBD0H@Z 1001c78b f   libvcruntime:undname.obj
 0001:0001bf36       ?getDataIndirectType@UnDecorator@@CA?AVDName@@XZ 1001cf36 f i libvcruntime:undname.obj
 0001:0001bf7d       ?getDataType@UnDecorator@@CA?AVDName@@PAV2@@Z 1001cf7d f   libvcruntime:undname.obj
 0001:0001c083       ?getDecoratedName@UnDecorator@@CA?AVDName@@XZ 1001d083 f   libvcruntime:undname.obj
 0001:0001c362       ?getDimension@UnDecorator@@CA?AVDName@@_N@Z 1001d362 f   libvcruntime:undname.obj
 0001:0001c4e6       ?getDispatchTarget@UnDecorator@@CA?AVDName@@XZ 1001d4e6 f   libvcruntime:undname.obj
 0001:0001c557       ?getDisplacement@UnDecorator@@CA?AVDName@@XZ 1001d557 f i libvcruntime:undname.obj
 0001:0001c570       ?getECSUDataType@UnDecorator@@CA?AVDName@@XZ 1001d570 f   libvcruntime:undname.obj
 0001:0001c6d4       ?getECSUName@UnDecorator@@CA?AVDName@@XZ 1001d6d4 f i libvcruntime:undname.obj
 0001:0001c6e9       ?getEnumType@UnDecorator@@CA?AVDName@@XZ 1001d6e9 f i libvcruntime:undname.obj
 0001:0001c810       ?getExtendedDataIndirectType@UnDecorator@@CA?AVDName@@AAPBDAA_NH@Z 1001d810 f   libvcruntime:undname.obj
 0001:0001ca23       ?getExternalDataType@UnDecorator@@CA?AVDName@@ABV2@@Z 1001da23 f i libvcruntime:undname.obj
 0001:0001caba       ?getFunctionIndirectType@UnDecorator@@CA?AVDName@@ABV2@@Z 1001daba f   libvcruntime:undname.obj
 0001:0001cfc5       ?getGuardNumber@UnDecorator@@CA?AVDName@@XZ 1001dfc5 f i libvcruntime:undname.obj
 0001:0001cfde       ?getLastChar@DName@@QBEDXZ 1001dfde f i libvcruntime:undname.obj
 0001:0001d004       ?getLastChar@DNameStatusNode@@UBEDXZ 1001e004 f i libvcruntime:undname.obj
 0001:0001d013       ?getLastChar@charNode@@UBEDXZ 1001e013 f i libvcruntime:undname.obj
 0001:0001d017       ?getLastChar@pDNameNode@@UBEDXZ 1001e017 f i libvcruntime:undname.obj
 0001:0001d028       ?getLastChar@pairNode@@UBEDXZ 1001e028 f i libvcruntime:undname.obj
 0001:0001d067       ?getLastChar@pcharNode@@UBEDXZ 1001e067 f i libvcruntime:undname.obj
 0001:0001d07d       ?getLexicalFrame@UnDecorator@@CA?AVDName@@XZ 1001e07d f i libvcruntime:undname.obj
 0001:0001d0c9       ?getMemory@_HeapManager@@QAEPAXIH@Z 1001e0c9 f   libvcruntime:undname.obj
 0001:0001d17a       ?getNumberOfDimensions@UnDecorator@@CAHXZ 1001e17a f   libvcruntime:undname.obj
 0001:0001d1f3       ?getOperatorName@UnDecorator@@CA?AVDName@@_NPA_N@Z 1001e1f3 f i libvcruntime:undname.obj
 0001:0001d9a3       ?getPointerType@UnDecorator@@CA?AVDName@@ABV2@0@Z 1001e9a3 f i libvcruntime:undname.obj
 0001:0001d9c8       ?getPointerTypeArray@UnDecorator@@CA?AVDName@@ABV2@0@Z 1001e9c8 f i libvcruntime:undname.obj
 0001:0001d9ed       ?getPrimaryDataType@UnDecorator@@CA?AVDName@@ABV2@@Z 1001e9ed f   libvcruntime:undname.obj
 0001:0001dc5e       ?getPtrRefDataType@UnDecorator@@CA?AVDName@@ABV2@H@Z 1001ec5e f   libvcruntime:undname.obj
 0001:0001dda0       ?getPtrRefType@UnDecorator@@CA?AVDName@@ABV2@0PBD@Z 1001eda0 f   libvcruntime:undname.obj
 0001:0001dedb       ?getReferenceType@UnDecorator@@CA?AVDName@@ABV2@0PBD@Z 1001eedb f i libvcruntime:undname.obj
 0001:0001defe       ?getRestrictionSpec@UnDecorator@@CA?AVDName@@XZ 1001eefe f   libvcruntime:undname.obj
 0001:0001e02c       ?getReturnType@UnDecorator@@CA?AVDName@@PAV2@@Z 1001f02c f   libvcruntime:undname.obj
 0001:0001e066       ?getScope@UnDecorator@@CA?AVDName@@XZ 1001f066 f   libvcruntime:undname.obj
 0001:0001e53b       ?getScopedName@UnDecorator@@CA?AVDName@@XZ 1001f53b f   libvcruntime:undname.obj
 0001:0001e674       ?getSignedDimension@UnDecorator@@CA?AVDName@@XZ 1001f674 f   libvcruntime:undname.obj
 0001:0001e6db       ?getStorageConvention@UnDecorator@@CA?AVDName@@XZ 1001f6db f i libvcruntime:undname.obj
 0001:0001e6f0       ?getString@DName@@QBEPADPAD0@Z 1001f6f0 f i libvcruntime:undname.obj
 0001:0001e727       ?getString@DName@@QBEPADPADH@Z 1001f727 f i libvcruntime:undname.obj
 0001:0001e792       ?getString@DNameStatusNode@@UBEPADPAD0@Z 1001f792 f i libvcruntime:undname.obj
 0001:0001e7c2       ?getString@charNode@@UBEPADPAD0@Z 1001f7c2 f i libvcruntime:undname.obj
 0001:0001e7dc       ?getString@pDNameNode@@UBEPADPAD0@Z 1001f7dc f i libvcruntime:undname.obj
 0001:0001e7f8       ?getString@pairNode@@UBEPADPAD0@Z 1001f7f8 f i libvcruntime:undname.obj
 0001:0001e84d       ?getString@pcharNode@@UBEPADPAD0@Z 1001f84d f i libvcruntime:undname.obj
 0001:0001e86e       ?getStringEncoding@UnDecorator@@CA?AVDName@@PADH@Z 1001f86e f   libvcruntime:undname.obj
 0001:0001e939       ?getStringHelper@@YAPADPAD00H@Z 1001f939 f i libvcruntime:undname.obj
 0001:0001e97d       ?getSymbolName@UnDecorator@@CA?AVDName@@XZ 1001f97d f i libvcruntime:undname.obj
 0001:0001e9d7       ?getTemplateArgumentList@UnDecorator@@CA?AVDName@@XZ 1001f9d7 f   libvcruntime:undname.obj
 0001:0001ed24       ?getTemplateConstant@UnDecorator@@CA?AVDName@@XZ 1001fd24 f   libvcruntime:undname.obj
 0001:0001f139       ?getTemplateName@UnDecorator@@CA?AVDName@@_N@Z 10020139 f   libvcruntime:undname.obj
 0001:0001f2e4       ?getThisType@UnDecorator@@CA?AVDName@@XZ 100202e4 f i libvcruntime:undname.obj
 0001:0001f32c       ?getThrowTypes@UnDecorator@@CA?AVDName@@XZ 1002032c f   libvcruntime:undname.obj
 0001:0001f3d8       ?getTypeEncoding@UnDecorator@@CAHXZ 100203d8 f i libvcruntime:undname.obj
 0001:0001f7d4       ?getVCallThunkType@UnDecorator@@CA?AVDName@@XZ 100207d4 f i libvcruntime:undname.obj
 0001:0001f81d       ?getVbTableType@UnDecorator@@CA?AVDName@@ABV2@@Z 1002081d f i libvcruntime:undname.obj
 0001:0001f837       ?getVdispMapType@UnDecorator@@CA?AVDName@@ABV2@@Z 10020837 f i libvcruntime:undname.obj
 0001:0001f8a2       ?getVfTableType@UnDecorator@@CA?AVDName@@ABV2@@Z 100208a2 f i libvcruntime:undname.obj
 0001:0001fa60       ?getZName@UnDecorator@@CA?AVDName@@_N0@Z 10020a60 f   libvcruntime:undname.obj
 0001:0001fd30       ?haveTemplateParameters@UnDecorator@@SAHXZ 10020d30 f i libvcruntime:undname.obj
 0001:0001fd3d       ?isArray@DName@@QBEHXZ     10020d3d f i libvcruntime:undname.obj
 0001:0001fd49       ?isComArray@DName@@QBEHXZ  10020d49 f i libvcruntime:undname.obj
 0001:0001fd55       ?isEmpty@DName@@QBEHXZ     10020d55 f i libvcruntime:undname.obj
 0001:0001fd5f       ?isFull@Replicator@@QBEHXZ 10020d5f f i libvcruntime:undname.obj
 0001:0001fd6a       ?isNoTE@DName@@QBEHXZ      10020d6a f i libvcruntime:undname.obj
 0001:0001fd76       ?isPinPtr@DName@@QBEHXZ    10020d76 f i libvcruntime:undname.obj
 0001:0001fd82       ?isPtrRef@DName@@QBEHXZ    10020d82 f i libvcruntime:undname.obj
 0001:0001fd8e       ?isUDC@DName@@QBEHXZ       10020d8e f i libvcruntime:undname.obj
 0001:0001fda3       ?isUDTThunk@DName@@QBEHXZ  10020da3 f i libvcruntime:undname.obj
 0001:0001fdb8       ?isVCallThunk@DName@@QBEHXZ 10020db8 f i libvcruntime:undname.obj
 0001:0001fdc4       ?isValid@DName@@QBEHXZ     10020dc4 f i libvcruntime:undname.obj
 0001:0001fdd0       ?length@DName@@QBEHXZ      10020dd0 f i libvcruntime:undname.obj
 0001:0001fdf5       ?length@DNameStatusNode@@UBEHXZ 10020df5 f i libvcruntime:undname.obj
 0001:0001fdf9       ?length@charNode@@UBEHXZ   10020df9 f i libvcruntime:undname.obj
 0001:0001fdfd       ?length@pDNameNode@@UBEHXZ 10020dfd f i libvcruntime:undname.obj
 0001:0001fe0e       ?length@pairNode@@UBEHXZ   10020e0e f i libvcruntime:undname.obj
 0001:0001fe6a       ?length@pcharNode@@UBEHXZ  10020e6a f i libvcruntime:undname.obj
 0001:0001fe6e       ?make@DNameStatusNode@@SAPAV1@W4DNameStatus@@@Z 10020e6e f i libvcruntime:undname.obj
 0001:0001ff15       ?setIsArray@DName@@QAEXXZ  10020f15 f i libvcruntime:undname.obj
 0001:0001ff1f       ?setIsComArray@DName@@QAEXXZ 10020f1f f i libvcruntime:undname.obj
 0001:0001ff29       ?setIsNoTE@DName@@QAEXXZ   10020f29 f i libvcruntime:undname.obj
 0001:0001ff33       ?setIsPinPtr@DName@@QAEXXZ 10020f33 f i libvcruntime:undname.obj
 0001:0001ff3d       ?setIsUDC@DName@@QAEXXZ    10020f3d f i libvcruntime:undname.obj
 0001:0001ff4d       ?setIsVCallThunk@DName@@QAEXXZ 10020f4d f i libvcruntime:undname.obj
 0001:0001ff57       ?setPtrRef@DName@@QAEAAV1@XZ 10020f57 f i libvcruntime:undname.obj
 0001:0001ff63       ?status@DName@@QBE?AW4DNameStatus@@XZ 10020f63 f i libvcruntime:undname.obj
 0001:0001ffe8       ___unDName                 10020fe8 f   libvcruntime:undname.obj
 0001:000200a2       ___unDNameEx               100210a2 f   libvcruntime:undname.obj
 0001:0002015c       __vsprintf_s_l             1002115c f i libvcruntime:undname.obj
 0001:00020194       _sprintf_s                 10021194 f i libvcruntime:undname.obj
 0001:000201c0       __global_unwind2           100211c0 f   libvcruntime:_exsup_.obj
 0001:00020225       __local_unwind2            10021225 f   libvcruntime:_exsup_.obj
 0001:000202a9       __abnormal_termination     100212a9 f   libvcruntime:_exsup_.obj
 0001:000202cc       __NLG_Notify1              100212cc f   libvcruntime:_exsup_.obj
 0001:000202d5       __NLG_Notify               100212d5 f   libvcruntime:_exsup_.obj
 0001:000202ec       __NLG_Dispatch2            100212ec     libvcruntime:_exsup_.obj
 0001:000202ec       __NLG_Dispatch             100212ec     libvcruntime:_exsup_.obj
 0001:000202f4       __NLG_Call                 100212f4 f   libvcruntime:_exsup_.obj
 0001:000202f6       __NLG_Return2              100212f6     libvcruntime:_exsup_.obj
 0001:00020344       ??$__crt_fast_decode_pointer@P6AXXZ@@YAP6AXXZQ6AXXZ@Z 10021344 f i libvcruntime:purevirt.obj
 0001:0002035d       ??$__crt_interlocked_compare_exchange_pointer@$$A6AXXZ$$T$$T@@YAP6AXXZPDS6AXXZ$$T1@Z 1002135d f i libvcruntime:purevirt.obj
 0001:00020373       ??$__crt_interlocked_exchange_pointer@$$A6AXXZP6AXXZ@@YAP6AXXZPDS6AXXZQ6AXXZ@Z 10021373 f i libvcruntime:purevirt.obj
 0001:00020383       ??$__crt_interlocked_read_pointer@$$A6AXXZ@@YAP6AXXZPDS6AXXZ@Z 10021383 f i libvcruntime:purevirt.obj
 0001:00020397       __get_purecall_handler     10021397 f   libvcruntime:purevirt.obj
 0001:000203bd       __purecall                 100213bd f   libvcruntime:purevirt.obj
 0001:000203de       __set_purecall_handler     100213de f   libvcruntime:purevirt.obj
 0001:0002040c       _malloc                    1002140c f   libucrt:malloc.obj
 0001:00020419       ??$?RPAU__crt_stdio_stream_data@@@__crt_internal_free_policy@@QBEXQBQAU__crt_stdio_stream_data@@@Z 10021419 f i libucrt:_file.obj
 0001:0002042f       ??0?$__crt_unique_heap_ptr@PAU__crt_stdio_stream_data@@U__crt_internal_free_policy@@@@QAE@QAPAU__crt_stdio_stream_data@@@Z 1002142f f i libucrt:_file.obj
 0001:00020443       ??0__crt_stdio_stream@@QAE@QAU_iobuf@@@Z 10021443 f i libucrt:_file.obj
 0001:00020457       ??1?$__crt_unique_heap_ptr@PAU__crt_stdio_stream_data@@U__crt_internal_free_policy@@@@QAE@XZ 10021457 f i libucrt:_file.obj
 0001:0002046d       ??C__crt_stdio_stream@@QBEPAU__crt_stdio_stream_data@@XZ 1002146d f i libucrt:_file.obj
 0001:00020470       ?detach@?$__crt_unique_heap_ptr@PAU__crt_stdio_stream_data@@U__crt_internal_free_policy@@@@QAEPAPAU__crt_stdio_stream_data@@XZ 10021470 f i libucrt:_file.obj
 0001:00020476       ?release@?$__crt_unique_heap_ptr@PAU__crt_stdio_stream_data@@U__crt_internal_free_policy@@@@QAEXXZ 10021476 f i libucrt:_file.obj
 0001:0002048c       ___acrt_initialize_stdio   1002148c f   libucrt:_file.obj
 0001:00020586       ___acrt_iob_func           10021586 f   libucrt:_file.obj
 0001:0002059a       ___acrt_uninitialize_stdio 1002159a f   libucrt:_file.obj
 0001:000205f9       __get_stream_buffer_pointers 100215f9 f   libucrt:_file.obj
 0001:00020650       __lock_file                10021650 f   libucrt:_file.obj
 0001:00020669       __unlock_file              10021669 f   libucrt:_file.obj
 0001:00020682       ??$?0ABV?$stream_output_adapter@D@__crt_stdio_output@@AB_KABQBDABQAU__crt_locale_pointers@@ABQAD@?$format_validation_base@DV?$stream_output_adapter@D@__crt_stdio_output@@@__crt_stdio_output@@IAE@ABV?$stream_output_adapter@D@1@AB_KABQBDABQAU__crt_locale_pointers@@ABQAD@Z 10021682 f i libucrt:output.obj
 0001:000206ad       ??$?0ABV?$stream_output_adapter@D@__crt_stdio_output@@AB_KABQBDABQAU__crt_locale_pointers@@ABQAD@?$positional_parameter_base@DV?$stream_output_adapter@D@__crt_stdio_output@@@__crt_stdio_output@@IAE@ABV?$stream_output_adapter@D@1@AB_KABQBDABQAU__crt_locale_pointers@@ABQAD@Z 100216ad f i libucrt:output.obj
 0001:00020707       ??$?0ABV?$stream_output_adapter@D@__crt_stdio_output@@AB_KABQBDABQAU__crt_locale_pointers@@ABQAD@?$standard_base@DV?$stream_output_adapter@D@__crt_stdio_output@@@__crt_stdio_output@@IAE@ABV?$stream_output_adapter@D@1@AB_KABQBDABQAU__crt_locale_pointers@@ABQAD@Z 10021707 f i libucrt:output.obj
 0001:00020749       ??$?0ABV?$stream_output_adapter@_W@__crt_stdio_output@@AB_KABQB_WABQAU__crt_locale_pointers@@ABQAD@?$format_validation_base@_WV?$stream_output_adapter@_W@__crt_stdio_output@@@__crt_stdio_output@@IAE@ABV?$stream_output_adapter@_W@1@AB_KABQB_WABQAU__crt_locale_pointers@@ABQAD@Z 10021749 f i libucrt:output.obj
 0001:00020774       ??$?0ABV?$stream_output_adapter@_W@__crt_stdio_output@@AB_KABQB_WABQAU__crt_locale_pointers@@ABQAD@?$positional_parameter_base@_WV?$stream_output_adapter@_W@__crt_stdio_output@@@__crt_stdio_output@@IAE@ABV?$stream_output_adapter@_W@1@AB_KABQB_WABQAU__crt_locale_pointers@@ABQAD@Z 10021774 f i libucrt:output.obj
 0001:000207ce       ??$?0ABV?$stream_output_adapter@_W@__crt_stdio_output@@AB_KABQB_WABQAU__crt_locale_pointers@@ABQAD@?$standard_base@_WV?$stream_output_adapter@_W@__crt_stdio_output@@@__crt_stdio_output@@IAE@ABV?$stream_output_adapter@_W@1@AB_KABQB_WABQAU__crt_locale_pointers@@ABQAD@Z 100217ce f i libucrt:output.obj
 0001:00020810       ??$?0ABV?$string_output_adapter@D@__crt_stdio_output@@AB_KABQBDABQAU__crt_locale_pointers@@ABQAD@?$format_validation_base@DV?$string_output_adapter@D@__crt_stdio_output@@@__crt_stdio_output@@IAE@ABV?$string_output_adapter@D@1@AB_KABQBDABQAU__crt_locale_pointers@@ABQAD@Z 10021810 f i libucrt:output.obj
 0001:0002083b       ??$?0ABV?$string_output_adapter@D@__crt_stdio_output@@AB_KABQBDABQAU__crt_locale_pointers@@ABQAD@?$positional_parameter_base@DV?$string_output_adapter@D@__crt_stdio_output@@@__crt_stdio_output@@IAE@ABV?$string_output_adapter@D@1@AB_KABQBDABQAU__crt_locale_pointers@@ABQAD@Z 1002183b f i libucrt:output.obj
 0001:00020895       ??$?0ABV?$string_output_adapter@D@__crt_stdio_output@@AB_KABQBDABQAU__crt_locale_pointers@@ABQAD@?$standard_base@DV?$string_output_adapter@D@__crt_stdio_output@@@__crt_stdio_output@@IAE@ABV?$string_output_adapter@D@1@AB_KABQBDABQAU__crt_locale_pointers@@ABQAD@Z 10021895 f i libucrt:output.obj
 0001:000208d7       ??$?0ABV?$string_output_adapter@_W@__crt_stdio_output@@AB_KABQB_WABQAU__crt_locale_pointers@@ABQAD@?$format_validation_base@_WV?$string_output_adapter@_W@__crt_stdio_output@@@__crt_stdio_output@@IAE@ABV?$string_output_adapter@_W@1@AB_KABQB_WABQAU__crt_locale_pointers@@ABQAD@Z 100218d7 f i libucrt:output.obj
 0001:00020902       ??$?0ABV?$string_output_adapter@_W@__crt_stdio_output@@AB_KABQB_WABQAU__crt_locale_pointers@@ABQAD@?$positional_parameter_base@_WV?$string_output_adapter@_W@__crt_stdio_output@@@__crt_stdio_output@@IAE@ABV?$string_output_adapter@_W@1@AB_KABQB_WABQAU__crt_locale_pointers@@ABQAD@Z 10021902 f i libucrt:output.obj
 0001:0002095c       ??$?0ABV?$string_output_adapter@_W@__crt_stdio_output@@AB_KABQB_WABQAU__crt_locale_pointers@@ABQAD@?$standard_base@_WV?$string_output_adapter@_W@__crt_stdio_output@@@__crt_stdio_output@@IAE@ABV?$string_output_adapter@_W@1@AB_KABQB_WABQAU__crt_locale_pointers@@ABQAD@Z 1002195c f i libucrt:output.obj
 0001:0002099e       ??$?RV<lambda_2293f24e3ce1ad6fe22ccfb9dec07671>@@AAV<lambda_2565fc715a641e539f44ad02d6823606>@@V<lambda_d3217f279b832965d9ca670dc2993570>@@@?$__crt_seh_guarded_call@H@@QAEH$$QAV<lambda_2293f24e3ce1ad6fe22ccfb9dec07671>@@AAV<lambda_2565fc715a641e539f44ad02d6823606>@@$$QAV<lambda_d3217f279b832965d9ca670dc2993570>@@@Z 1002199e f i libucrt:output.obj
 0001:00020a03       ??$?RV<lambda_4d4ac866be0fa3c441830420fabdd2cb>@@AAV<lambda_63a10c2dc8dbb9e4dd1890be52af7c93>@@V<lambda_002af9fa0f8fe472b648c51882d4fc32>@@@?$__crt_seh_guarded_call@H@@QAEH$$QAV<lambda_4d4ac866be0fa3c441830420fabdd2cb>@@AAV<lambda_63a10c2dc8dbb9e4dd1890be52af7c93>@@$$QAV<lambda_002af9fa0f8fe472b648c51882d4fc32>@@@Z 10021a03 f i libucrt:output.obj
 0001:00020a68       ??$?RV<lambda_5be909dfbae0a631386585770cd7b676>@@AAV<lambda_e516058a9c289d98c8ca9fea99247804>@@V<lambda_afe2e0cdc5e0ecf6f0d6f5e2f8985e38>@@@?$__crt_seh_guarded_call@H@@QAEH$$QAV<lambda_5be909dfbae0a631386585770cd7b676>@@AAV<lambda_e516058a9c289d98c8ca9fea99247804>@@$$QAV<lambda_afe2e0cdc5e0ecf6f0d6f5e2f8985e38>@@@Z 10021a68 f i libucrt:output.obj
 0001:00020acd       ??$?RV<lambda_823d65812123d985753d53e2a8c25d20>@@AAV<lambda_0a97c9e57da7be065955385c79108ff2>@@V<lambda_4d2973f3ad2d226f00468307185dca1b>@@@?$__crt_seh_guarded_call@H@@QAEH$$QAV<lambda_823d65812123d985753d53e2a8c25d20>@@AAV<lambda_0a97c9e57da7be065955385c79108ff2>@@$$QAV<lambda_4d2973f3ad2d226f00468307185dca1b>@@@Z 10021acd f i libucrt:output.obj
 0001:00020b32       ??$?RV<lambda_ab9923ffb5d694ec0d78876dd103e44f>@@AAV<lambda_481dd5778c961fbcd3b60b650e9b9dc4>@@V<lambda_7923d86c9e3f319b415918ec4b39749c>@@@?$__crt_seh_guarded_call@H@@QAEH$$QAV<lambda_ab9923ffb5d694ec0d78876dd103e44f>@@AAV<lambda_481dd5778c961fbcd3b60b650e9b9dc4>@@$$QAV<lambda_7923d86c9e3f319b415918ec4b39749c>@@@Z 10021b32 f i libucrt:output.obj
 0001:00020b97       ??$?RV<lambda_db08b09ef7aa9d4f8620ce68402612bc>@@AAV<lambda_4f2c1eaeead2a5fc776db5b62ea0fb9b>@@V<lambda_3ae262bc35d4ba6a3825c4f6bcaaf95c>@@@?$__crt_seh_guarded_call@H@@QAEH$$QAV<lambda_db08b09ef7aa9d4f8620ce68402612bc>@@AAV<lambda_4f2c1eaeead2a5fc776db5b62ea0fb9b>@@$$QAV<lambda_3ae262bc35d4ba6a3825c4f6bcaaf95c>@@@Z 10021b97 f i libucrt:output.obj
 0001:00020bfc       ??$__acrt_lock_stream_and_call@V<lambda_0a97c9e57da7be065955385c79108ff2>@@@@YAHQAU_iobuf@@$$QAV<lambda_0a97c9e57da7be065955385c79108ff2>@@@Z 10021bfc f i libucrt:output.obj
 0001:00020c2e       ??$__acrt_lock_stream_and_call@V<lambda_2565fc715a641e539f44ad02d6823606>@@@@YAHQAU_iobuf@@$$QAV<lambda_2565fc715a641e539f44ad02d6823606>@@@Z 10021c2e f i libucrt:output.obj
 0001:00020c60       ??$__acrt_lock_stream_and_call@V<lambda_481dd5778c961fbcd3b60b650e9b9dc4>@@@@YAHQAU_iobuf@@$$QAV<lambda_481dd5778c961fbcd3b60b650e9b9dc4>@@@Z 10021c60 f i libucrt:output.obj
 0001:00020c92       ??$__acrt_lock_stream_and_call@V<lambda_4f2c1eaeead2a5fc776db5b62ea0fb9b>@@@@YAHQAU_iobuf@@$$QAV<lambda_4f2c1eaeead2a5fc776db5b62ea0fb9b>@@@Z 10021c92 f i libucrt:output.obj
 0001:00020cc4       ??$__acrt_lock_stream_and_call@V<lambda_63a10c2dc8dbb9e4dd1890be52af7c93>@@@@YAHQAU_iobuf@@$$QAV<lambda_63a10c2dc8dbb9e4dd1890be52af7c93>@@@Z 10021cc4 f i libucrt:output.obj
 0001:00020cf6       ??$__acrt_lock_stream_and_call@V<lambda_e516058a9c289d98c8ca9fea99247804>@@@@YAHQAU_iobuf@@$$QAV<lambda_e516058a9c289d98c8ca9fea99247804>@@@Z 10021cf6 f i libucrt:output.obj
 0001:00020d28       ??$__crt_interlocked_read@J@@YAJPDJ@Z 10021d28 f i libucrt:output.obj
 0001:00021f73       ??$count@D@formatting_buffer@__crt_stdio_output@@QBEIXZ 10022f73 f i libucrt:output.obj
 0001:00021f91       ??$data@D@formatting_buffer@__crt_stdio_output@@QAEPADXZ 10022f91 f i libucrt:output.obj
 0001:00021fa1       ??$data@_W@formatting_buffer@__crt_stdio_output@@QAEPA_WXZ 10022fa1 f i libucrt:output.obj
 0001:00021fb1       ??$ensure_buffer_is_big_enough@D@formatting_buffer@__crt_stdio_output@@QAE_NI@Z 10022fb1 f i libucrt:output.obj
 0001:00022058       ??$extract_argument_from_va_list@C_J@?$positional_parameter_base@DV?$stream_output_adapter@D@__crt_stdio_output@@@__crt_stdio_output@@IAE_NAA_J@Z 10023058 f i libucrt:output.obj
 0001:000220f6       ??$extract_argument_from_va_list@C_J@?$positional_parameter_base@DV?$string_output_adapter@D@__crt_stdio_output@@@__crt_stdio_output@@IAE_NAA_J@Z 100230f6 f i libucrt:output.obj
 0001:00022194       ??$extract_argument_from_va_list@C_J@?$positional_parameter_base@_WV?$stream_output_adapter@_W@__crt_stdio_output@@@__crt_stdio_output@@IAE_NAA_J@Z 10023194 f i libucrt:output.obj
 0001:00022232       ??$extract_argument_from_va_list@C_J@?$positional_parameter_base@_WV?$string_output_adapter@_W@__crt_stdio_output@@@__crt_stdio_output@@IAE_NAA_J@Z 10023232 f i libucrt:output.obj
 0001:000222d0       ??$extract_argument_from_va_list@C_J@?$standard_base@DV?$stream_output_adapter@D@__crt_stdio_output@@@__crt_stdio_output@@IAE_NAA_J@Z 100232d0 f i libucrt:output.obj
 0001:000222f6       ??$extract_argument_from_va_list@C_J@?$standard_base@DV?$string_output_adapter@D@__crt_stdio_output@@@__crt_stdio_output@@IAE_NAA_J@Z 100232f6 f i libucrt:output.obj
 0001:0002231c       ??$extract_argument_from_va_list@C_J@?$standard_base@_WV?$stream_output_adapter@_W@__crt_stdio_output@@@__crt_stdio_output@@IAE_NAA_J@Z 1002331c f i libucrt:output.obj
 0001:00022342       ??$extract_argument_from_va_list@C_J@?$standard_base@_WV?$string_output_adapter@_W@__crt_stdio_output@@@__crt_stdio_output@@IAE_NAA_J@Z 10023342 f i libucrt:output.obj
 0001:00022368       ??$extract_argument_from_va_list@E_J@?$positional_parameter_base@DV?$stream_output_adapter@D@__crt_stdio_output@@@__crt_stdio_output@@IAE_NAA_J@Z 10023368 f i libucrt:output.obj
 0001:00022406       ??$extract_argument_from_va_list@E_J@?$positional_parameter_base@DV?$string_output_adapter@D@__crt_stdio_output@@@__crt_stdio_output@@IAE_NAA_J@Z 10023406 f i libucrt:output.obj
 0001:000224a4       ??$extract_argument_from_va_list@E_J@?$positional_parameter_base@_WV?$stream_output_adapter@_W@__crt_stdio_output@@@__crt_stdio_output@@IAE_NAA_J@Z 100234a4 f i libucrt:output.obj
 0001:00022542       ??$extract_argument_from_va_list@E_J@?$positional_parameter_base@_WV?$string_output_adapter@_W@__crt_stdio_output@@@__crt_stdio_output@@IAE_NAA_J@Z 10023542 f i libucrt:output.obj
 0001:000225e0       ??$extract_argument_from_va_list@E_J@?$standard_base@DV?$stream_output_adapter@D@__crt_stdio_output@@@__crt_stdio_output@@IAE_NAA_J@Z 100235e0 f i libucrt:output.obj
 0001:00022606       ??$extract_argument_from_va_list@E_J@?$standard_base@DV?$string_output_adapter@D@__crt_stdio_output@@@__crt_stdio_output@@IAE_NAA_J@Z 10023606 f i libucrt:output.obj
 0001:0002262c       ??$extract_argument_from_va_list@E_J@?$standard_base@_WV?$stream_output_adapter@_W@__crt_stdio_output@@@__crt_stdio_output@@IAE_NAA_J@Z 1002362c f i libucrt:output.obj
 0001:00022652       ??$extract_argument_from_va_list@E_J@?$standard_base@_WV?$string_output_adapter@_W@__crt_stdio_output@@@__crt_stdio_output@@IAE_NAA_J@Z 10023652 f i libucrt:output.obj
 0001:00022678       ??$extract_argument_from_va_list@F_J@?$positional_parameter_base@DV?$stream_output_adapter@D@__crt_stdio_output@@@__crt_stdio_output@@IAE_NAA_J@Z 10023678 f i libucrt:output.obj
 0001:00022716       ??$extract_argument_from_va_list@F_J@?$positional_parameter_base@DV?$string_output_adapter@D@__crt_stdio_output@@@__crt_stdio_output@@IAE_NAA_J@Z 10023716 f i libucrt:output.obj
 0001:000227b4       ??$extract_argument_from_va_list@F_J@?$positional_parameter_base@_WV?$stream_output_adapter@_W@__crt_stdio_output@@@__crt_stdio_output@@IAE_NAA_J@Z 100237b4 f i libucrt:output.obj
 0001:00022852       ??$extract_argument_from_va_list@F_J@?$positional_parameter_base@_WV?$string_output_adapter@_W@__crt_stdio_output@@@__crt_stdio_output@@IAE_NAA_J@Z 10023852 f i libucrt:output.obj
 0001:000228f0       ??$extract_argument_from_va_list@F_J@?$standard_base@DV?$stream_output_adapter@D@__crt_stdio_output@@@__crt_stdio_output@@IAE_NAA_J@Z 100238f0 f i libucrt:output.obj
 0001:00022916       ??$extract_argument_from_va_list@F_J@?$standard_base@DV?$string_output_adapter@D@__crt_stdio_output@@@__crt_stdio_output@@IAE_NAA_J@Z 10023916 f i libucrt:output.obj
 0001:0002293c       ??$extract_argument_from_va_list@F_J@?$standard_base@_WV?$stream_output_adapter@_W@__crt_stdio_output@@@__crt_stdio_output@@IAE_NAA_J@Z 1002393c f i libucrt:output.obj
 0001:00022962       ??$extract_argument_from_va_list@F_J@?$standard_base@_WV?$string_output_adapter@_W@__crt_stdio_output@@@__crt_stdio_output@@IAE_NAA_J@Z 10023962 f i libucrt:output.obj
 0001:00022988       ??$extract_argument_from_va_list@GD@?$positional_parameter_base@DV?$stream_output_adapter@D@__crt_stdio_output@@@__crt_stdio_output@@IAE_NAAD@Z 10023988 f i libucrt:output.obj
 0001:00022a25       ??$extract_argument_from_va_list@GD@?$positional_parameter_base@DV?$string_output_adapter@D@__crt_stdio_output@@@__crt_stdio_output@@IAE_NAAD@Z 10023a25 f i libucrt:output.obj
 0001:00022ac2       ??$extract_argument_from_va_list@GD@?$standard_base@DV?$stream_output_adapter@D@__crt_stdio_output@@@__crt_stdio_output@@IAE_NAAD@Z 10023ac2 f i libucrt:output.obj
 0001:00022ae2       ??$extract_argument_from_va_list@GD@?$standard_base@DV?$string_output_adapter@D@__crt_stdio_output@@@__crt_stdio_output@@IAE_NAAD@Z 10023ae2 f i libucrt:output.obj
 0001:00022b02       ??$extract_argument_from_va_list@G_J@?$positional_parameter_base@DV?$stream_output_adapter@D@__crt_stdio_output@@@__crt_stdio_output@@IAE_NAA_J@Z 10023b02 f i libucrt:output.obj
 0001:00022ba0       ??$extract_argument_from_va_list@G_J@?$positional_parameter_base@DV?$string_output_adapter@D@__crt_stdio_output@@@__crt_stdio_output@@IAE_NAA_J@Z 10023ba0 f i libucrt:output.obj
 0001:00022c3e       ??$extract_argument_from_va_list@G_J@?$positional_parameter_base@_WV?$stream_output_adapter@_W@__crt_stdio_output@@@__crt_stdio_output@@IAE_NAA_J@Z 10023c3e f i libucrt:output.obj
 0001:00022cdc       ??$extract_argument_from_va_list@G_J@?$positional_parameter_base@_WV?$string_output_adapter@_W@__crt_stdio_output@@@__crt_stdio_output@@IAE_NAA_J@Z 10023cdc f i libucrt:output.obj
 0001:00022d7a       ??$extract_argument_from_va_list@G_J@?$standard_base@DV?$stream_output_adapter@D@__crt_stdio_output@@@__crt_stdio_output@@IAE_NAA_J@Z 10023d7a f i libucrt:output.obj
 0001:00022da0       ??$extract_argument_from_va_list@G_J@?$standard_base@DV?$string_output_adapter@D@__crt_stdio_output@@@__crt_stdio_output@@IAE_NAA_J@Z 10023da0 f i libucrt:output.obj
 0001:00022dc6       ??$extract_argument_from_va_list@G_J@?$standard_base@_WV?$stream_output_adapter@_W@__crt_stdio_output@@@__crt_stdio_output@@IAE_NAA_J@Z 10023dc6 f i libucrt:output.obj
 0001:00022dec       ??$extract_argument_from_va_list@G_J@?$standard_base@_WV?$string_output_adapter@_W@__crt_stdio_output@@@__crt_stdio_output@@IAE_NAA_J@Z 10023dec f i libucrt:output.obj
 0001:00022e12       ??$extract_argument_from_va_list@H_J@?$positional_parameter_base@DV?$stream_output_adapter@D@__crt_stdio_output@@@__crt_stdio_output@@IAE_NAA_J@Z 10023e12 f i libucrt:output.obj
 0001:00022eae       ??$extract_argument_from_va_list@H_J@?$positional_parameter_base@DV?$string_output_adapter@D@__crt_stdio_output@@@__crt_stdio_output@@IAE_NAA_J@Z 10023eae f i libucrt:output.obj
 0001:00022f4a       ??$extract_argument_from_va_list@H_J@?$positional_parameter_base@_WV?$stream_output_adapter@_W@__crt_stdio_output@@@__crt_stdio_output@@IAE_NAA_J@Z 10023f4a f i libucrt:output.obj
 0001:00022fe6       ??$extract_argument_from_va_list@H_J@?$positional_parameter_base@_WV?$string_output_adapter@_W@__crt_stdio_output@@@__crt_stdio_output@@IAE_NAA_J@Z 10023fe6 f i libucrt:output.obj
 0001:00023082       ??$extract_argument_from_va_list@H_J@?$standard_base@DV?$stream_output_adapter@D@__crt_stdio_output@@@__crt_stdio_output@@IAE_NAA_J@Z 10024082 f i libucrt:output.obj
 0001:000230a7       ??$extract_argument_from_va_list@H_J@?$standard_base@DV?$string_output_adapter@D@__crt_stdio_output@@@__crt_stdio_output@@IAE_NAA_J@Z 100240a7 f i libucrt:output.obj
 0001:000230cc       ??$extract_argument_from_va_list@H_J@?$standard_base@_WV?$stream_output_adapter@_W@__crt_stdio_output@@@__crt_stdio_output@@IAE_NAA_J@Z 100240cc f i libucrt:output.obj
 0001:000230f1       ??$extract_argument_from_va_list@H_J@?$standard_base@_WV?$string_output_adapter@_W@__crt_stdio_output@@@__crt_stdio_output@@IAE_NAA_J@Z 100240f1 f i libucrt:output.obj
 0001:00023116       ??$extract_argument_from_va_list@I_J@?$positional_parameter_base@DV?$stream_output_adapter@D@__crt_stdio_output@@@__crt_stdio_output@@IAE_NAA_J@Z 10024116 f i libucrt:output.obj
 0001:000231bd       ??$extract_argument_from_va_list@I_J@?$positional_parameter_base@DV?$string_output_adapter@D@__crt_stdio_output@@@__crt_stdio_output@@IAE_NAA_J@Z 100241bd f i libucrt:output.obj
 0001:00023264       ??$extract_argument_from_va_list@I_J@?$positional_parameter_base@_WV?$stream_output_adapter@_W@__crt_stdio_output@@@__crt_stdio_output@@IAE_NAA_J@Z 10024264 f i libucrt:output.obj
 0001:0002330b       ??$extract_argument_from_va_list@I_J@?$positional_parameter_base@_WV?$string_output_adapter@_W@__crt_stdio_output@@@__crt_stdio_output@@IAE_NAA_J@Z 1002430b f i libucrt:output.obj
 0001:000233b2       ??$extract_argument_from_va_list@I_J@?$standard_base@DV?$stream_output_adapter@D@__crt_stdio_output@@@__crt_stdio_output@@IAE_NAA_J@Z 100243b2 f i libucrt:output.obj
 0001:000233d7       ??$extract_argument_from_va_list@I_J@?$standard_base@DV?$string_output_adapter@D@__crt_stdio_output@@@__crt_stdio_output@@IAE_NAA_J@Z 100243d7 f i libucrt:output.obj
 0001:000233fc       ??$extract_argument_from_va_list@I_J@?$standard_base@_WV?$stream_output_adapter@_W@__crt_stdio_output@@@__crt_stdio_output@@IAE_NAA_J@Z 100243fc f i libucrt:output.obj
 0001:00023421       ??$extract_argument_from_va_list@I_J@?$standard_base@_WV?$string_output_adapter@_W@__crt_stdio_output@@@__crt_stdio_output@@IAE_NAA_J@Z 10024421 f i libucrt:output.obj
 0001:00023446       ??$extract_argument_from_va_list@PADPAD@?$positional_parameter_base@DV?$stream_output_adapter@D@__crt_stdio_output@@@__crt_stdio_output@@IAE_NAAPAD@Z 10024446 f i libucrt:output.obj
 0001:000234e3       ??$extract_argument_from_va_list@PADPAD@?$positional_parameter_base@DV?$string_output_adapter@D@__crt_stdio_output@@@__crt_stdio_output@@IAE_NAAPAD@Z 100244e3 f i libucrt:output.obj
 0001:00023580       ??$extract_argument_from_va_list@PADPAD@?$positional_parameter_base@_WV?$stream_output_adapter@_W@__crt_stdio_output@@@__crt_stdio_output@@IAE_NAAPAD@Z 10024580 f i libucrt:output.obj
 0001:0002361d       ??$extract_argument_from_va_list@PADPAD@?$positional_parameter_base@_WV?$string_output_adapter@_W@__crt_stdio_output@@@__crt_stdio_output@@IAE_NAAPAD@Z 1002461d f i libucrt:output.obj
 0001:000236ba       ??$extract_argument_from_va_list@PADPAD@?$standard_base@DV?$stream_output_adapter@D@__crt_stdio_output@@@__crt_stdio_output@@IAE_NAAPAD@Z 100246ba f i libucrt:output.obj
 0001:000236da       ??$extract_argument_from_va_list@PADPAD@?$standard_base@DV?$string_output_adapter@D@__crt_stdio_output@@@__crt_stdio_output@@IAE_NAAPAD@Z 100246da f i libucrt:output.obj
 0001:000236fa       ??$extract_argument_from_va_list@PADPAD@?$standard_base@_WV?$stream_output_adapter@_W@__crt_stdio_output@@@__crt_stdio_output@@IAE_NAAPAD@Z 100246fa f i libucrt:output.obj
 0001:0002371a       ??$extract_argument_from_va_list@PADPAD@?$standard_base@_WV?$string_output_adapter@_W@__crt_stdio_output@@@__crt_stdio_output@@IAE_NAAPAD@Z 1002471a f i libucrt:output.obj
 0001:0002373a       ??$extract_argument_from_va_list@PAUansi_string@?1??type_case_Z@?$output_processor@DV?$stream_output_adapter@D@__crt_stdio_output@@V?$format_validation_base@DV?$stream_output_adapter@D@__crt_stdio_output@@@2@@__crt_stdio_output@@AAE_NXZ@PAU1?1??234@AAE_NXZ@@?$standard_base@DV?$stream_output_adapter@D@__crt_stdio_output@@@__crt_stdio_output@@IAE_NAAPAUansi_string@?1??type_case_Z@?$output_processor@DV?$stream_output_adapter@D@__crt_stdio_output@@V?$format_validation_base@DV?$stream_output_adapter@D@__crt_stdio_output@@@2@@1@AAE_NXZ@@Z 1002473a f i libucrt:output.obj
 0001:0002375a       ??$extract_argument_from_va_list@PAUansi_string@?1??type_case_Z@?$output_processor@DV?$stream_output_adapter@D@__crt_stdio_output@@V?$positional_parameter_base@DV?$stream_output_adapter@D@__crt_stdio_output@@@2@@__crt_stdio_output@@AAE_NXZ@PAU1?1??234@AAE_NXZ@@?$positional_parameter_base@DV?$stream_output_adapter@D@__crt_stdio_output@@@__crt_stdio_output@@IAE_NAAPAUansi_string@?1??type_case_Z@?$output_processor@DV?$stream_output_adapter@D@__crt_stdio_output@@V?$positional_parameter_base@DV?$stream_output_adapter@D@__crt_stdio_output@@@2@@1@AAE_NXZ@@Z 1002475a f i libucrt:output.obj
 0001:000237f7       ??$extract_argument_from_va_list@PAUansi_string@?1??type_case_Z@?$output_processor@DV?$stream_output_adapter@D@__crt_stdio_output@@V?$positional_parameter_base@DV?$stream_output_adapter@D@__crt_stdio_output@@@2@@__crt_stdio_output@@AAE_NXZ@PAU1?1??234@AAE_NXZ@@?$standard_base@DV?$stream_output_adapter@D@__crt_stdio_output@@@__crt_stdio_output@@IAE_NAAPAUansi_string@?1??type_case_Z@?$output_processor@DV?$stream_output_adapter@D@__crt_stdio_output@@V?$positional_parameter_base@DV?$stream_output_adapter@D@__crt_stdio_output@@@2@@1@AAE_NXZ@@Z 100247f7 f i libucrt:output.obj
 0001:00023817       ??$extract_argument_from_va_list@PAUansi_string@?1??type_case_Z@?$output_processor@DV?$stream_output_adapter@D@__crt_stdio_output@@V?$standard_base@DV?$stream_output_adapter@D@__crt_stdio_output@@@2@@__crt_stdio_output@@AAE_NXZ@PAU1?1??234@AAE_NXZ@@?$standard_base@DV?$stream_output_adapter@D@__crt_stdio_output@@@__crt_stdio_output@@IAE_NAAPAUansi_string@?1??type_case_Z@?$output_processor@DV?$stream_output_adapter@D@__crt_stdio_output@@V?$standard_base@DV?$stream_output_adapter@D@__crt_stdio_output@@@2@@1@AAE_NXZ@@Z 10024817 f i libucrt:output.obj
 0001:00023837       ??$extract_argument_from_va_list@PAUansi_string@?1??type_case_Z@?$output_processor@DV?$string_output_adapter@D@__crt_stdio_output@@V?$format_validation_base@DV?$string_output_adapter@D@__crt_stdio_output@@@2@@__crt_stdio_output@@AAE_NXZ@PAU1?1??234@AAE_NXZ@@?$standard_base@DV?$string_output_adapter@D@__crt_stdio_output@@@__crt_stdio_output@@IAE_NAAPAUansi_string@?1??type_case_Z@?$output_processor@DV?$string_output_adapter@D@__crt_stdio_output@@V?$format_validation_base@DV?$string_output_adapter@D@__crt_stdio_output@@@2@@1@AAE_NXZ@@Z 10024837 f i libucrt:output.obj
 0001:00023857       ??$extract_argument_from_va_list@PAUansi_string@?1??type_case_Z@?$output_processor@DV?$string_output_adapter@D@__crt_stdio_output@@V?$positional_parameter_base@DV?$string_output_adapter@D@__crt_stdio_output@@@2@@__crt_stdio_output@@AAE_NXZ@PAU1?1??234@AAE_NXZ@@?$positional_parameter_base@DV?$string_output_adapter@D@__crt_stdio_output@@@__crt_stdio_output@@IAE_NAAPAUansi_string@?1??type_case_Z@?$output_processor@DV?$string_output_adapter@D@__crt_stdio_output@@V?$positional_parameter_base@DV?$string_output_adapter@D@__crt_stdio_output@@@2@@1@AAE_NXZ@@Z 10024857 f i libucrt:output.obj
 0001:000238f4       ??$extract_argument_from_va_list@PAUansi_string@?1??type_case_Z@?$output_processor@DV?$string_output_adapter@D@__crt_stdio_output@@V?$positional_parameter_base@DV?$string_output_adapter@D@__crt_stdio_output@@@2@@__crt_stdio_output@@AAE_NXZ@PAU1?1??234@AAE_NXZ@@?$standard_base@DV?$string_output_adapter@D@__crt_stdio_output@@@__crt_stdio_output@@IAE_NAAPAUansi_string@?1??type_case_Z@?$output_processor@DV?$string_output_adapter@D@__crt_stdio_output@@V?$positional_parameter_base@DV?$string_output_adapter@D@__crt_stdio_output@@@2@@1@AAE_NXZ@@Z 100248f4 f i libucrt:output.obj
 0001:00023914       ??$extract_argument_from_va_list@PAUansi_string@?1??type_case_Z@?$output_processor@DV?$string_output_adapter@D@__crt_stdio_output@@V?$standard_base@DV?$string_output_adapter@D@__crt_stdio_output@@@2@@__crt_stdio_output@@AAE_NXZ@PAU1?1??234@AAE_NXZ@@?$standard_base@DV?$string_output_adapter@D@__crt_stdio_output@@@__crt_stdio_output@@IAE_NAAPAUansi_string@?1??type_case_Z@?$output_processor@DV?$string_output_adapter@D@__crt_stdio_output@@V?$standard_base@DV?$string_output_adapter@D@__crt_stdio_output@@@2@@1@AAE_NXZ@@Z 10024914 f i libucrt:output.obj
 0001:00023934       ??$extract_argument_from_va_list@PAUansi_string@?1??type_case_Z@?$output_processor@_WV?$stream_output_adapter@_W@__crt_stdio_output@@V?$format_validation_base@_WV?$stream_output_adapter@_W@__crt_stdio_output@@@2@@__crt_stdio_output@@AAE_NXZ@PAU1?1??234@AAE_NXZ@@?$standard_base@_WV?$stream_output_adapter@_W@__crt_stdio_output@@@__crt_stdio_output@@IAE_NAAPAUansi_string@?1??type_case_Z@?$output_processor@_WV?$stream_output_adapter@_W@__crt_stdio_output@@V?$format_validation_base@_WV?$stream_output_adapter@_W@__crt_stdio_output@@@2@@1@AAE_NXZ@@Z 10024934 f i libucrt:output.obj
 0001:00023954       ??$extract_argument_from_va_list@PAUansi_string@?1??type_case_Z@?$output_processor@_WV?$stream_output_adapter@_W@__crt_stdio_output@@V?$positional_parameter_base@_WV?$stream_output_adapter@_W@__crt_stdio_output@@@2@@__crt_stdio_output@@AAE_NXZ@PAU1?1??234@AAE_NXZ@@?$positional_parameter_base@_WV?$stream_output_adapter@_W@__crt_stdio_output@@@__crt_stdio_output@@IAE_NAAPAUansi_string@?1??type_case_Z@?$output_processor@_WV?$stream_output_adapter@_W@__crt_stdio_output@@V?$positional_parameter_base@_WV?$stream_output_adapter@_W@__crt_stdio_output@@@2@@1@AAE_NXZ@@Z 10024954 f i libucrt:output.obj
 0001:000239f1       ??$extract_argument_from_va_list@PAUansi_string@?1??type_case_Z@?$output_processor@_WV?$stream_output_adapter@_W@__crt_stdio_output@@V?$positional_parameter_base@_WV?$stream_output_adapter@_W@__crt_stdio_output@@@2@@__crt_stdio_output@@AAE_NXZ@PAU1?1??234@AAE_NXZ@@?$standard_base@_WV?$stream_output_adapter@_W@__crt_stdio_output@@@__crt_stdio_output@@IAE_NAAPAUansi_string@?1??type_case_Z@?$output_processor@_WV?$stream_output_adapter@_W@__crt_stdio_output@@V?$positional_parameter_base@_WV?$stream_output_adapter@_W@__crt_stdio_output@@@2@@1@AAE_NXZ@@Z 100249f1 f i libucrt:output.obj
 0001:00023a11       ??$extract_argument_from_va_list@PAUansi_string@?1??type_case_Z@?$output_processor@_WV?$stream_output_adapter@_W@__crt_stdio_output@@V?$standard_base@_WV?$stream_output_adapter@_W@__crt_stdio_output@@@2@@__crt_stdio_output@@AAE_NXZ@PAU1?1??234@AAE_NXZ@@?$standard_base@_WV?$stream_output_adapter@_W@__crt_stdio_output@@@__crt_stdio_output@@IAE_NAAPAUansi_string@?1??type_case_Z@?$output_processor@_WV?$stream_output_adapter@_W@__crt_stdio_output@@V?$standard_base@_WV?$stream_output_adapter@_W@__crt_stdio_output@@@2@@1@AAE_NXZ@@Z 10024a11 f i libucrt:output.obj
 0001:00023a31       ??$extract_argument_from_va_list@PAUansi_string@?1??type_case_Z@?$output_processor@_WV?$string_output_adapter@_W@__crt_stdio_output@@V?$format_validation_base@_WV?$string_output_adapter@_W@__crt_stdio_output@@@2@@__crt_stdio_output@@AAE_NXZ@PAU1?1??234@AAE_NXZ@@?$standard_base@_WV?$string_output_adapter@_W@__crt_stdio_output@@@__crt_stdio_output@@IAE_NAAPAUansi_string@?1??type_case_Z@?$output_processor@_WV?$string_output_adapter@_W@__crt_stdio_output@@V?$format_validation_base@_WV?$string_output_adapter@_W@__crt_stdio_output@@@2@@1@AAE_NXZ@@Z 10024a31 f i libucrt:output.obj
 0001:00023a51       ??$extract_argument_from_va_list@PAUansi_string@?1??type_case_Z@?$output_processor@_WV?$string_output_adapter@_W@__crt_stdio_output@@V?$positional_parameter_base@_WV?$string_output_adapter@_W@__crt_stdio_output@@@2@@__crt_stdio_output@@AAE_NXZ@PAU1?1??234@AAE_NXZ@@?$positional_parameter_base@_WV?$string_output_adapter@_W@__crt_stdio_output@@@__crt_stdio_output@@IAE_NAAPAUansi_string@?1??type_case_Z@?$output_processor@_WV?$string_output_adapter@_W@__crt_stdio_output@@V?$positional_parameter_base@_WV?$string_output_adapter@_W@__crt_stdio_output@@@2@@1@AAE_NXZ@@Z 10024a51 f i libucrt:output.obj
 0001:00023aee       ??$extract_argument_from_va_list@PAUansi_string@?1??type_case_Z@?$output_processor@_WV?$string_output_adapter@_W@__crt_stdio_output@@V?$positional_parameter_base@_WV?$string_output_adapter@_W@__crt_stdio_output@@@2@@__crt_stdio_output@@AAE_NXZ@PAU1?1??234@AAE_NXZ@@?$standard_base@_WV?$string_output_adapter@_W@__crt_stdio_output@@@__crt_stdio_output@@IAE_NAAPAUansi_string@?1??type_case_Z@?$output_processor@_WV?$string_output_adapter@_W@__crt_stdio_output@@V?$positional_parameter_base@_WV?$string_output_adapter@_W@__crt_stdio_output@@@2@@1@AAE_NXZ@@Z 10024aee f i libucrt:output.obj
 0001:00023b0e       ??$extract_argument_from_va_list@PAUansi_string@?1??type_case_Z@?$output_processor@_WV?$string_output_adapter@_W@__crt_stdio_output@@V?$standard_base@_WV?$string_output_adapter@_W@__crt_stdio_output@@@2@@__crt_stdio_output@@AAE_NXZ@PAU1?1??234@AAE_NXZ@@?$standard_base@_WV?$string_output_adapter@_W@__crt_stdio_output@@@__crt_stdio_output@@IAE_NAAPAUansi_string@?1??type_case_Z@?$output_processor@_WV?$string_output_adapter@_W@__crt_stdio_output@@V?$standard_base@_WV?$string_output_adapter@_W@__crt_stdio_output@@@2@@1@AAE_NXZ@@Z 10024b0e f i libucrt:output.obj
 0001:00023b2e       ??$extract_argument_from_va_list@PAXPAX@?$positional_parameter_base@DV?$stream_output_adapter@D@__crt_stdio_output@@@__crt_stdio_output@@IAE_NAAPAX@Z 10024b2e f i libucrt:output.obj
 0001:00023bcb       ??$extract_argument_from_va_list@PAXPAX@?$positional_parameter_base@DV?$string_output_adapter@D@__crt_stdio_output@@@__crt_stdio_output@@IAE_NAAPAX@Z 10024bcb f i libucrt:output.obj
 0001:00023c68       ??$extract_argument_from_va_list@PAXPAX@?$positional_parameter_base@_WV?$stream_output_adapter@_W@__crt_stdio_output@@@__crt_stdio_output@@IAE_NAAPAX@Z 10024c68 f i libucrt:output.obj
 0001:00023d05       ??$extract_argument_from_va_list@PAXPAX@?$positional_parameter_base@_WV?$string_output_adapter@_W@__crt_stdio_output@@@__crt_stdio_output@@IAE_NAAPAX@Z 10024d05 f i libucrt:output.obj
 0001:00023da2       ??$extract_argument_from_va_list@PAXPAX@?$standard_base@DV?$stream_output_adapter@D@__crt_stdio_output@@@__crt_stdio_output@@IAE_NAAPAX@Z 10024da2 f i libucrt:output.obj
 0001:00023dc2       ??$extract_argument_from_va_list@PAXPAX@?$standard_base@DV?$string_output_adapter@D@__crt_stdio_output@@@__crt_stdio_output@@IAE_NAAPAX@Z 10024dc2 f i libucrt:output.obj
 0001:00023de2       ??$extract_argument_from_va_list@PAXPAX@?$standard_base@_WV?$stream_output_adapter@_W@__crt_stdio_output@@@__crt_stdio_output@@IAE_NAAPAX@Z 10024de2 f i libucrt:output.obj
 0001:00023e02       ??$extract_argument_from_va_list@PAXPAX@?$standard_base@_WV?$string_output_adapter@_W@__crt_stdio_output@@@__crt_stdio_output@@IAE_NAAPAX@Z 10024e02 f i libucrt:output.obj
 0001:00023e22       ??$extract_argument_from_va_list@U_CRT_DOUBLE@@U1@@?$positional_parameter_base@DV?$stream_output_adapter@D@__crt_stdio_output@@@__crt_stdio_output@@IAE_NAAU_CRT_DOUBLE@@@Z 10024e22 f i libucrt:output.obj
 0001:00023ed3       ??$extract_argument_from_va_list@U_CRT_DOUBLE@@U1@@?$positional_parameter_base@DV?$string_output_adapter@D@__crt_stdio_output@@@__crt_stdio_output@@IAE_NAAU_CRT_DOUBLE@@@Z 10024ed3 f i libucrt:output.obj
 0001:00023f84       ??$extract_argument_from_va_list@U_CRT_DOUBLE@@U1@@?$positional_parameter_base@_WV?$stream_output_adapter@_W@__crt_stdio_output@@@__crt_stdio_output@@IAE_NAAU_CRT_DOUBLE@@@Z 10024f84 f i libucrt:output.obj
 0001:00024035       ??$extract_argument_from_va_list@U_CRT_DOUBLE@@U1@@?$positional_parameter_base@_WV?$string_output_adapter@_W@__crt_stdio_output@@@__crt_stdio_output@@IAE_NAAU_CRT_DOUBLE@@@Z 10025035 f i libucrt:output.obj
 0001:000240e6       ??$extract_argument_from_va_list@U_CRT_DOUBLE@@U1@@?$standard_base@DV?$stream_output_adapter@D@__crt_stdio_output@@@__crt_stdio_output@@IAE_NAAU_CRT_DOUBLE@@@Z 100250e6 f i libucrt:output.obj
 0001:0002410e       ??$extract_argument_from_va_list@U_CRT_DOUBLE@@U1@@?$standard_base@DV?$string_output_adapter@D@__crt_stdio_output@@@__crt_stdio_output@@IAE_NAAU_CRT_DOUBLE@@@Z 1002510e f i libucrt:output.obj
 0001:00024136       ??$extract_argument_from_va_list@U_CRT_DOUBLE@@U1@@?$standard_base@_WV?$stream_output_adapter@_W@__crt_stdio_output@@@__crt_stdio_output@@IAE_NAAU_CRT_DOUBLE@@@Z 10025136 f i libucrt:output.obj
 0001:0002415e       ??$extract_argument_from_va_list@U_CRT_DOUBLE@@U1@@?$standard_base@_WV?$string_output_adapter@_W@__crt_stdio_output@@@__crt_stdio_output@@IAE_NAAU_CRT_DOUBLE@@@Z 1002515e f i libucrt:output.obj
 0001:00024186       ??$extract_argument_from_va_list@_J_J@?$positional_parameter_base@DV?$stream_output_adapter@D@__crt_stdio_output@@@__crt_stdio_output@@IAE_NAA_J@Z 10025186 f i libucrt:output.obj
 0001:00024237       ??$extract_argument_from_va_list@_J_J@?$positional_parameter_base@DV?$string_output_adapter@D@__crt_stdio_output@@@__crt_stdio_output@@IAE_NAA_J@Z 10025237 f i libucrt:output.obj
 0001:000242e8       ??$extract_argument_from_va_list@_J_J@?$positional_parameter_base@_WV?$stream_output_adapter@_W@__crt_stdio_output@@@__crt_stdio_output@@IAE_NAA_J@Z 100252e8 f i libucrt:output.obj
 0001:00024399       ??$extract_argument_from_va_list@_J_J@?$positional_parameter_base@_WV?$string_output_adapter@_W@__crt_stdio_output@@@__crt_stdio_output@@IAE_NAA_J@Z 10025399 f i libucrt:output.obj
 0001:0002444a       ??$extract_argument_from_va_list@_J_J@?$standard_base@DV?$stream_output_adapter@D@__crt_stdio_output@@@__crt_stdio_output@@IAE_NAA_J@Z 1002544a f i libucrt:output.obj
 0001:00024472       ??$extract_argument_from_va_list@_J_J@?$standard_base@DV?$string_output_adapter@D@__crt_stdio_output@@@__crt_stdio_output@@IAE_NAA_J@Z 10025472 f i libucrt:output.obj
 0001:0002449a       ??$extract_argument_from_va_list@_J_J@?$standard_base@_WV?$stream_output_adapter@_W@__crt_stdio_output@@@__crt_stdio_output@@IAE_NAA_J@Z 1002549a f i libucrt:output.obj
 0001:000244c2       ??$extract_argument_from_va_list@_J_J@?$standard_base@_WV?$string_output_adapter@_W@__crt_stdio_output@@@__crt_stdio_output@@IAE_NAA_J@Z 100254c2 f i libucrt:output.obj
 0001:000244ea       ??$extract_argument_from_va_list@_K_J@?$positional_parameter_base@DV?$stream_output_adapter@D@__crt_stdio_output@@@__crt_stdio_output@@IAE_NAA_J@Z 100254ea f i libucrt:output.obj
 0001:0002459b       ??$extract_argument_from_va_list@_K_J@?$positional_parameter_base@DV?$string_output_adapter@D@__crt_stdio_output@@@__crt_stdio_output@@IAE_NAA_J@Z 1002559b f i libucrt:output.obj
 0001:0002464c       ??$extract_argument_from_va_list@_K_J@?$positional_parameter_base@_WV?$stream_output_adapter@_W@__crt_stdio_output@@@__crt_stdio_output@@IAE_NAA_J@Z 1002564c f i libucrt:output.obj
 0001:000246fd       ??$extract_argument_from_va_list@_K_J@?$positional_parameter_base@_WV?$string_output_adapter@_W@__crt_stdio_output@@@__crt_stdio_output@@IAE_NAA_J@Z 100256fd f i libucrt:output.obj
 0001:000247ae       ??$extract_argument_from_va_list@_K_J@?$standard_base@DV?$stream_output_adapter@D@__crt_stdio_output@@@__crt_stdio_output@@IAE_NAA_J@Z 100257ae f i libucrt:output.obj
 0001:000247d6       ??$extract_argument_from_va_list@_K_J@?$standard_base@DV?$string_output_adapter@D@__crt_stdio_output@@@__crt_stdio_output@@IAE_NAA_J@Z 100257d6 f i libucrt:output.obj
 0001:000247fe       ??$extract_argument_from_va_list@_K_J@?$standard_base@_WV?$stream_output_adapter@_W@__crt_stdio_output@@@__crt_stdio_output@@IAE_NAA_J@Z 100257fe f i libucrt:output.obj
 0001:00024826       ??$extract_argument_from_va_list@_K_J@?$standard_base@_WV?$string_output_adapter@_W@__crt_stdio_output@@@__crt_stdio_output@@IAE_NAA_J@Z 10025826 f i libucrt:output.obj
 0001:0002484e       ??$extract_argument_from_va_list@_W_W@?$positional_parameter_base@DV?$stream_output_adapter@D@__crt_stdio_output@@@__crt_stdio_output@@IAE_NAA_W@Z 1002584e f i libucrt:output.obj
 0001:000248f0       ??$extract_argument_from_va_list@_W_W@?$positional_parameter_base@DV?$string_output_adapter@D@__crt_stdio_output@@@__crt_stdio_output@@IAE_NAA_W@Z 100258f0 f i libucrt:output.obj
 0001:00024992       ??$extract_argument_from_va_list@_W_W@?$positional_parameter_base@_WV?$stream_output_adapter@_W@__crt_stdio_output@@@__crt_stdio_output@@IAE_NAA_W@Z 10025992 f i libucrt:output.obj
 0001:00024a34       ??$extract_argument_from_va_list@_W_W@?$positional_parameter_base@_WV?$string_output_adapter@_W@__crt_stdio_output@@@__crt_stdio_output@@IAE_NAA_W@Z 10025a34 f i libucrt:output.obj
 0001:00024ad6       ??$extract_argument_from_va_list@_W_W@?$standard_base@DV?$stream_output_adapter@D@__crt_stdio_output@@@__crt_stdio_output@@IAE_NAA_W@Z 10025ad6 f i libucrt:output.obj
 0001:00024af9       ??$extract_argument_from_va_list@_W_W@?$standard_base@DV?$string_output_adapter@D@__crt_stdio_output@@@__crt_stdio_output@@IAE_NAA_W@Z 10025af9 f i libucrt:output.obj
 0001:00024b1c       ??$extract_argument_from_va_list@_W_W@?$standard_base@_WV?$stream_output_adapter@_W@__crt_stdio_output@@@__crt_stdio_output@@IAE_NAA_W@Z 10025b1c f i libucrt:output.obj
 0001:00024b3f       ??$extract_argument_from_va_list@_W_W@?$standard_base@_WV?$string_output_adapter@_W@__crt_stdio_output@@@__crt_stdio_output@@IAE_NAA_W@Z 10025b3f f i libucrt:output.obj
 0001:00024b62       ??$get_parameter_type@D@?$positional_parameter_base@DV?$stream_output_adapter@D@__crt_stdio_output@@@__crt_stdio_output@@CA?AW4parameter_type@01@PAD@Z 10025b62 f i libucrt:output.obj
 0001:00024b66       ??$get_parameter_type@D@?$positional_parameter_base@DV?$string_output_adapter@D@__crt_stdio_output@@@__crt_stdio_output@@CA?AW4parameter_type@01@PAD@Z 10025b66 f i libucrt:output.obj
 0001:00024b6a       ??$get_parameter_type@D@?$positional_parameter_base@_WV?$stream_output_adapter@_W@__crt_stdio_output@@@__crt_stdio_output@@CA?AW4parameter_type@01@PAD@Z 10025b6a f i libucrt:output.obj
 0001:00024b6e       ??$get_parameter_type@D@?$positional_parameter_base@_WV?$string_output_adapter@_W@__crt_stdio_output@@@__crt_stdio_output@@CA?AW4parameter_type@01@PAD@Z 10025b6e f i libucrt:output.obj
 0001:00024b72       ??$get_parameter_type@Uansi_string@?1??type_case_Z@?$output_processor@DV?$stream_output_adapter@D@__crt_stdio_output@@V?$positional_parameter_base@DV?$stream_output_adapter@D@__crt_stdio_output@@@2@@__crt_stdio_output@@AAE_NXZ@@?$positional_parameter_base@DV?$stream_output_adapter@D@__crt_stdio_output@@@__crt_stdio_output@@CA?AW4parameter_type@01@PAUansi_string@?1??type_case_Z@?$output_processor@DV?$stream_output_adapter@D@__crt_stdio_output@@V?$positional_parameter_base@DV?$stream_output_adapter@D@__crt_stdio_output@@@2@@1@AAE_NXZ@@Z 10025b72 f i libucrt:output.obj
 0001:00024b76       ??$get_parameter_type@Uansi_string@?1??type_case_Z@?$output_processor@DV?$string_output_adapter@D@__crt_stdio_output@@V?$positional_parameter_base@DV?$string_output_adapter@D@__crt_stdio_output@@@2@@__crt_stdio_output@@AAE_NXZ@@?$positional_parameter_base@DV?$string_output_adapter@D@__crt_stdio_output@@@__crt_stdio_output@@CA?AW4parameter_type@01@PAUansi_string@?1??type_case_Z@?$output_processor@DV?$string_output_adapter@D@__crt_stdio_output@@V?$positional_parameter_base@DV?$string_output_adapter@D@__crt_stdio_output@@@2@@1@AAE_NXZ@@Z 10025b76 f i libucrt:output.obj
 0001:00024b7a       ??$get_parameter_type@Uansi_string@?1??type_case_Z@?$output_processor@_WV?$stream_output_adapter@_W@__crt_stdio_output@@V?$positional_parameter_base@_WV?$stream_output_adapter@_W@__crt_stdio_output@@@2@@__crt_stdio_output@@AAE_NXZ@@?$positional_parameter_base@_WV?$stream_output_adapter@_W@__crt_stdio_output@@@__crt_stdio_output@@CA?AW4parameter_type@01@PAUansi_string@?1??type_case_Z@?$output_processor@_WV?$stream_output_adapter@_W@__crt_stdio_output@@V?$positional_parameter_base@_WV?$stream_output_adapter@_W@__crt_stdio_output@@@2@@1@AAE_NXZ@@Z 10025b7a f i libucrt:output.obj
 0001:00024b7e       ??$get_parameter_type@Uansi_string@?1??type_case_Z@?$output_processor@_WV?$string_output_adapter@_W@__crt_stdio_output@@V?$positional_parameter_base@_WV?$string_output_adapter@_W@__crt_stdio_output@@@2@@__crt_stdio_output@@AAE_NXZ@@?$positional_parameter_base@_WV?$string_output_adapter@_W@__crt_stdio_output@@@__crt_stdio_output@@CA?AW4parameter_type@01@PAUansi_string@?1??type_case_Z@?$output_processor@_WV?$string_output_adapter@_W@__crt_stdio_output@@V?$positional_parameter_base@_WV?$string_output_adapter@_W@__crt_stdio_output@@@2@@1@AAE_NXZ@@Z 10025b7e f i libucrt:output.obj
 0001:00024b82       ??$get_parameter_type@X@?$positional_parameter_base@DV?$stream_output_adapter@D@__crt_stdio_output@@@__crt_stdio_output@@CA?AW4parameter_type@01@PAX@Z 10025b82 f i libucrt:output.obj
 0001:00024b86       ??$get_parameter_type@X@?$positional_parameter_base@DV?$string_output_adapter@D@__crt_stdio_output@@@__crt_stdio_output@@CA?AW4parameter_type@01@PAX@Z 10025b86 f i libucrt:output.obj
 0001:00024b8a       ??$get_parameter_type@X@?$positional_parameter_base@_WV?$stream_output_adapter@_W@__crt_stdio_output@@@__crt_stdio_output@@CA?AW4parameter_type@01@PAX@Z 10025b8a f i libucrt:output.obj
 0001:00024b8e       ??$get_parameter_type@X@?$positional_parameter_base@_WV?$string_output_adapter@_W@__crt_stdio_output@@@__crt_stdio_output@@CA?AW4parameter_type@01@PAX@Z 10025b8e f i libucrt:output.obj
 0001:00024b92       ??$is_character_specifier@D@?$positional_parameter_base@DV?$stream_output_adapter@D@__crt_stdio_output@@@__crt_stdio_output@@CA_ND@Z 10025b92 f i libucrt:output.obj
 0001:00024bb1       ??$is_character_specifier@D@?$positional_parameter_base@DV?$string_output_adapter@D@__crt_stdio_output@@@__crt_stdio_output@@CA_ND@Z 10025bb1 f i libucrt:output.obj
 0001:00024bd0       ??$is_character_specifier@_W@?$positional_parameter_base@_WV?$stream_output_adapter@_W@__crt_stdio_output@@@__crt_stdio_output@@CA_N_W@Z 10025bd0 f i libucrt:output.obj
 0001:00024bf3       ??$is_character_specifier@_W@?$positional_parameter_base@_WV?$string_output_adapter@_W@__crt_stdio_output@@@__crt_stdio_output@@CA_N_W@Z 10025bf3 f i libucrt:output.obj
 0001:00024c16       ??$is_integral_specifier@D@?$positional_parameter_base@DV?$stream_output_adapter@D@__crt_stdio_output@@@__crt_stdio_output@@CA_ND@Z 10025c16 f i libucrt:output.obj
 0001:00024c4e       ??$is_integral_specifier@D@?$positional_parameter_base@DV?$string_output_adapter@D@__crt_stdio_output@@@__crt_stdio_output@@CA_ND@Z 10025c4e f i libucrt:output.obj
 0001:00024c86       ??$is_integral_specifier@_W@?$positional_parameter_base@_WV?$stream_output_adapter@_W@__crt_stdio_output@@@__crt_stdio_output@@CA_N_W@Z 10025c86 f i libucrt:output.obj
 0001:00024cd1       ??$is_integral_specifier@_W@?$positional_parameter_base@_WV?$string_output_adapter@_W@__crt_stdio_output@@@__crt_stdio_output@@CA_N_W@Z 10025cd1 f i libucrt:output.obj
 0001:00024d1c       ??$is_pointer_specifier@D@?$positional_parameter_base@DV?$stream_output_adapter@D@__crt_stdio_output@@@__crt_stdio_output@@CA_ND@Z 10025d1c f i libucrt:output.obj
 0001:00024d30       ??$is_pointer_specifier@D@?$positional_parameter_base@DV?$string_output_adapter@D@__crt_stdio_output@@@__crt_stdio_output@@CA_ND@Z 10025d30 f i libucrt:output.obj
 0001:00024d44       ??$is_pointer_specifier@_W@?$positional_parameter_base@_WV?$stream_output_adapter@_W@__crt_stdio_output@@@__crt_stdio_output@@CA_N_W@Z 10025d44 f i libucrt:output.obj
 0001:00024d59       ??$is_pointer_specifier@_W@?$positional_parameter_base@_WV?$string_output_adapter@_W@__crt_stdio_output@@@__crt_stdio_output@@CA_N_W@Z 10025d59 f i libucrt:output.obj
 0001:00024d6e       ??$is_string_specifier@D@?$positional_parameter_base@DV?$stream_output_adapter@D@__crt_stdio_output@@@__crt_stdio_output@@CA_ND@Z 10025d6e f i libucrt:output.obj
 0001:00024d8d       ??$is_string_specifier@D@?$positional_parameter_base@DV?$string_output_adapter@D@__crt_stdio_output@@@__crt_stdio_output@@CA_ND@Z 10025d8d f i libucrt:output.obj
 0001:00024dac       ??$is_string_specifier@_W@?$positional_parameter_base@_WV?$stream_output_adapter@_W@__crt_stdio_output@@@__crt_stdio_output@@CA_N_W@Z 10025dac f i libucrt:output.obj
 0001:00024dcf       ??$is_string_specifier@_W@?$positional_parameter_base@_WV?$string_output_adapter@_W@__crt_stdio_output@@@__crt_stdio_output@@CA_N_W@Z 10025dcf f i libucrt:output.obj
 0001:00024df2       ??$is_wide_character_specifier@D@__crt_stdio_output@@YA_N_KDW4length_modifier@0@@Z 10025df2 f i libucrt:output.obj
 0001:00024e42       ??$is_wide_character_specifier@_W@__crt_stdio_output@@YA_N_K_WW4length_modifier@0@@Z 10025e42 f i libucrt:output.obj
 0001:00024ea4       ??$peek_va_arg@C@__crt_stdio_output@@YACPAD@Z 10025ea4 f i libucrt:output.obj
 0001:00024eb3       ??$peek_va_arg@E@__crt_stdio_output@@YAEPAD@Z 10025eb3 f i libucrt:output.obj
 0001:00024ec2       ??$peek_va_arg@F@__crt_stdio_output@@YAFPAD@Z 10025ec2 f i libucrt:output.obj
 0001:00024ed2       ??$peek_va_arg@G@__crt_stdio_output@@YAGPAD@Z 10025ed2 f i libucrt:output.obj
 0001:00024ee2       ??$peek_va_arg@H@__crt_stdio_output@@YAHPAD@Z 10025ee2 f i libucrt:output.obj
 0001:00024ef1       ??$peek_va_arg@I@__crt_stdio_output@@YAIPAD@Z 10025ef1 f i libucrt:output.obj
 0001:00024f00       ??$peek_va_arg@PAD@__crt_stdio_output@@YAPADPAD@Z 10025f00 f i libucrt:output.obj
 0001:00024f0f       ??$peek_va_arg@PAUansi_string@?1??type_case_Z@?$output_processor@DV?$stream_output_adapter@D@__crt_stdio_output@@V?$positional_parameter_base@DV?$stream_output_adapter@D@__crt_stdio_output@@@2@@__crt_stdio_output@@AAE_NXZ@@__crt_stdio_output@@YAPAUansi_string@?1??type_case_Z@?$output_processor@DV?$stream_output_adapter@D@__crt_stdio_output@@V?$positional_parameter_base@DV?$stream_output_adapter@D@__crt_stdio_output@@@2@@0@AAE_NXZ@PAD@Z 10025f0f f i libucrt:output.obj
 0001:00024f1e       ??$peek_va_arg@PAUansi_string@?1??type_case_Z@?$output_processor@DV?$string_output_adapter@D@__crt_stdio_output@@V?$positional_parameter_base@DV?$string_output_adapter@D@__crt_stdio_output@@@2@@__crt_stdio_output@@AAE_NXZ@@__crt_stdio_output@@YAPAUansi_string@?1??type_case_Z@?$output_processor@DV?$string_output_adapter@D@__crt_stdio_output@@V?$positional_parameter_base@DV?$string_output_adapter@D@__crt_stdio_output@@@2@@0@AAE_NXZ@PAD@Z 10025f1e f i libucrt:output.obj
 0001:00024f2d       ??$peek_va_arg@PAUansi_string@?1??type_case_Z@?$output_processor@_WV?$stream_output_adapter@_W@__crt_stdio_output@@V?$positional_parameter_base@_WV?$stream_output_adapter@_W@__crt_stdio_output@@@2@@__crt_stdio_output@@AAE_NXZ@@__crt_stdio_output@@YAPAUansi_string@?1??type_case_Z@?$output_processor@_WV?$stream_output_adapter@_W@__crt_stdio_output@@V?$positional_parameter_base@_WV?$stream_output_adapter@_W@__crt_stdio_output@@@2@@0@AAE_NXZ@PAD@Z 10025f2d f i libucrt:output.obj
 0001:00024f3c       ??$peek_va_arg@PAUansi_string@?1??type_case_Z@?$output_processor@_WV?$string_output_adapter@_W@__crt_stdio_output@@V?$positional_parameter_base@_WV?$string_output_adapter@_W@__crt_stdio_output@@@2@@__crt_stdio_output@@AAE_NXZ@@__crt_stdio_output@@YAPAUansi_string@?1??type_case_Z@?$output_processor@_WV?$string_output_adapter@_W@__crt_stdio_output@@V?$positional_parameter_base@_WV?$string_output_adapter@_W@__crt_stdio_output@@@2@@0@AAE_NXZ@PAD@Z 10025f3c f i libucrt:output.obj
 0001:00024f4b       ??$peek_va_arg@PAX@__crt_stdio_output@@YAPAXPAD@Z 10025f4b f i libucrt:output.obj
 0001:00024f5a       ??$peek_va_arg@U_CRT_DOUBLE@@@__crt_stdio_output@@YA?AU_CRT_DOUBLE@@PAD@Z 10025f5a f i libucrt:output.obj
 0001:00024f6c       ??$peek_va_arg@_J@__crt_stdio_output@@YA_JPAD@Z 10025f6c f i libucrt:output.obj
 0001:00024f7e       ??$peek_va_arg@_K@__crt_stdio_output@@YA_KPAD@Z 10025f7e f i libucrt:output.obj
 0001:00024f90       ??$peek_va_arg@_W@__crt_stdio_output@@YA_WPAD@Z 10025f90 f i libucrt:output.obj
 0001:00024fa0       ??$puttc_nolock@ABDPAU_iobuf@@@?$__crt_char_traits@D@@SAHABD$$QAPAU_iobuf@@@Z 10025fa0 f i libucrt:output.obj
 0001:00024fc0       ??$puttc_nolock@AB_WPAU_iobuf@@@?$__crt_char_traits@_W@@SAGAB_W$$QAPAU_iobuf@@@Z 10025fc0 f i libucrt:output.obj
 0001:00024fe0       ??$read_va_arg@C@__crt_stdio_output@@YACAAPAD@Z 10025fe0 f i libucrt:output.obj
 0001:00024ff6       ??$read_va_arg@E@__crt_stdio_output@@YAEAAPAD@Z 10025ff6 f i libucrt:output.obj
 0001:0002500c       ??$read_va_arg@F@__crt_stdio_output@@YAFAAPAD@Z 1002600c f i libucrt:output.obj
 0001:00025023       ??$read_va_arg@G@__crt_stdio_output@@YAGAAPAD@Z 10026023 f i libucrt:output.obj
 0001:0002503a       ??$read_va_arg@H@__crt_stdio_output@@YAHAAPAD@Z 1002603a f i libucrt:output.obj
 0001:00025050       ??$read_va_arg@I@__crt_stdio_output@@YAIAAPAD@Z 10026050 f i libucrt:output.obj
 0001:00025066       ??$read_va_arg@PAD@__crt_stdio_output@@YAPADAAPAD@Z 10026066 f i libucrt:output.obj
 0001:0002507c       ??$read_va_arg@PAUansi_string@?1??type_case_Z@?$output_processor@DV?$stream_output_adapter@D@__crt_stdio_output@@V?$format_validation_base@DV?$stream_output_adapter@D@__crt_stdio_output@@@2@@__crt_stdio_output@@AAE_NXZ@@__crt_stdio_output@@YAPAUansi_string@?1??type_case_Z@?$output_processor@DV?$stream_output_adapter@D@__crt_stdio_output@@V?$format_validation_base@DV?$stream_output_adapter@D@__crt_stdio_output@@@2@@0@AAE_NXZ@AAPAD@Z 1002607c f i libucrt:output.obj
 0001:00025092       ??$read_va_arg@PAUansi_string@?1??type_case_Z@?$output_processor@DV?$stream_output_adapter@D@__crt_stdio_output@@V?$positional_parameter_base@DV?$stream_output_adapter@D@__crt_stdio_output@@@2@@__crt_stdio_output@@AAE_NXZ@@__crt_stdio_output@@YAPAUansi_string@?1??type_case_Z@?$output_processor@DV?$stream_output_adapter@D@__crt_stdio_output@@V?$positional_parameter_base@DV?$stream_output_adapter@D@__crt_stdio_output@@@2@@0@AAE_NXZ@AAPAD@Z 10026092 f i libucrt:output.obj
 0001:000250a8       ??$read_va_arg@PAUansi_string@?1??type_case_Z@?$output_processor@DV?$stream_output_adapter@D@__crt_stdio_output@@V?$standard_base@DV?$stream_output_adapter@D@__crt_stdio_output@@@2@@__crt_stdio_output@@AAE_NXZ@@__crt_stdio_output@@YAPAUansi_string@?1??type_case_Z@?$output_processor@DV?$stream_output_adapter@D@__crt_stdio_output@@V?$standard_base@DV?$stream_output_adapter@D@__crt_stdio_output@@@2@@0@AAE_NXZ@AAPAD@Z 100260a8 f i libucrt:output.obj
 0001:000250be       ??$read_va_arg@PAUansi_string@?1??type_case_Z@?$output_processor@DV?$string_output_adapter@D@__crt_stdio_output@@V?$format_validation_base@DV?$string_output_adapter@D@__crt_stdio_output@@@2@@__crt_stdio_output@@AAE_NXZ@@__crt_stdio_output@@YAPAUansi_string@?1??type_case_Z@?$output_processor@DV?$string_output_adapter@D@__crt_stdio_output@@V?$format_validation_base@DV?$string_output_adapter@D@__crt_stdio_output@@@2@@0@AAE_NXZ@AAPAD@Z 100260be f i libucrt:output.obj
 0001:000250d4       ??$read_va_arg@PAUansi_string@?1??type_case_Z@?$output_processor@DV?$string_output_adapter@D@__crt_stdio_output@@V?$positional_parameter_base@DV?$string_output_adapter@D@__crt_stdio_output@@@2@@__crt_stdio_output@@AAE_NXZ@@__crt_stdio_output@@YAPAUansi_string@?1??type_case_Z@?$output_processor@DV?$string_output_adapter@D@__crt_stdio_output@@V?$positional_parameter_base@DV?$string_output_adapter@D@__crt_stdio_output@@@2@@0@AAE_NXZ@AAPAD@Z 100260d4 f i libucrt:output.obj
 0001:000250ea       ??$read_va_arg@PAUansi_string@?1??type_case_Z@?$output_processor@DV?$string_output_adapter@D@__crt_stdio_output@@V?$standard_base@DV?$string_output_adapter@D@__crt_stdio_output@@@2@@__crt_stdio_output@@AAE_NXZ@@__crt_stdio_output@@YAPAUansi_string@?1??type_case_Z@?$output_processor@DV?$string_output_adapter@D@__crt_stdio_output@@V?$standard_base@DV?$string_output_adapter@D@__crt_stdio_output@@@2@@0@AAE_NXZ@AAPAD@Z 100260ea f i libucrt:output.obj
 0001:00025100       ??$read_va_arg@PAUansi_string@?1??type_case_Z@?$output_processor@_WV?$stream_output_adapter@_W@__crt_stdio_output@@V?$format_validation_base@_WV?$stream_output_adapter@_W@__crt_stdio_output@@@2@@__crt_stdio_output@@AAE_NXZ@@__crt_stdio_output@@YAPAUansi_string@?1??type_case_Z@?$output_processor@_WV?$stream_output_adapter@_W@__crt_stdio_output@@V?$format_validation_base@_WV?$stream_output_adapter@_W@__crt_stdio_output@@@2@@0@AAE_NXZ@AAPAD@Z 10026100 f i libucrt:output.obj
 0001:00025116       ??$read_va_arg@PAUansi_string@?1??type_case_Z@?$output_processor@_WV?$stream_output_adapter@_W@__crt_stdio_output@@V?$positional_parameter_base@_WV?$stream_output_adapter@_W@__crt_stdio_output@@@2@@__crt_stdio_output@@AAE_NXZ@@__crt_stdio_output@@YAPAUansi_string@?1??type_case_Z@?$output_processor@_WV?$stream_output_adapter@_W@__crt_stdio_output@@V?$positional_parameter_base@_WV?$stream_output_adapter@_W@__crt_stdio_output@@@2@@0@AAE_NXZ@AAPAD@Z 10026116 f i libucrt:output.obj
 0001:0002512c       ??$read_va_arg@PAUansi_string@?1??type_case_Z@?$output_processor@_WV?$stream_output_adapter@_W@__crt_stdio_output@@V?$standard_base@_WV?$stream_output_adapter@_W@__crt_stdio_output@@@2@@__crt_stdio_output@@AAE_NXZ@@__crt_stdio_output@@YAPAUansi_string@?1??type_case_Z@?$output_processor@_WV?$stream_output_adapter@_W@__crt_stdio_output@@V?$standard_base@_WV?$stream_output_adapter@_W@__crt_stdio_output@@@2@@0@AAE_NXZ@AAPAD@Z 1002612c f i libucrt:output.obj
 0001:00025142       ??$read_va_arg@PAUansi_string@?1??type_case_Z@?$output_processor@_WV?$string_output_adapter@_W@__crt_stdio_output@@V?$format_validation_base@_WV?$string_output_adapter@_W@__crt_stdio_output@@@2@@__crt_stdio_output@@AAE_NXZ@@__crt_stdio_output@@YAPAUansi_string@?1??type_case_Z@?$output_processor@_WV?$string_output_adapter@_W@__crt_stdio_output@@V?$format_validation_base@_WV?$string_output_adapter@_W@__crt_stdio_output@@@2@@0@AAE_NXZ@AAPAD@Z 10026142 f i libucrt:output.obj
 0001:00025158       ??$read_va_arg@PAUansi_string@?1??type_case_Z@?$output_processor@_WV?$string_output_adapter@_W@__crt_stdio_output@@V?$positional_parameter_base@_WV?$string_output_adapter@_W@__crt_stdio_output@@@2@@__crt_stdio_output@@AAE_NXZ@@__crt_stdio_output@@YAPAUansi_string@?1??type_case_Z@?$output_processor@_WV?$string_output_adapter@_W@__crt_stdio_output@@V?$positional_parameter_base@_WV?$string_output_adapter@_W@__crt_stdio_output@@@2@@0@AAE_NXZ@AAPAD@Z 10026158 f i libucrt:output.obj
 0001:0002516e       ??$read_va_arg@PAUansi_string@?1??type_case_Z@?$output_processor@_WV?$string_output_adapter@_W@__crt_stdio_output@@V?$standard_base@_WV?$string_output_adapter@_W@__crt_stdio_output@@@2@@__crt_stdio_output@@AAE_NXZ@@__crt_stdio_output@@YAPAUansi_string@?1??type_case_Z@?$output_processor@_WV?$string_output_adapter@_W@__crt_stdio_output@@V?$standard_base@_WV?$string_output_adapter@_W@__crt_stdio_output@@@2@@0@AAE_NXZ@AAPAD@Z 1002616e f i libucrt:output.obj
 0001:00025184       ??$read_va_arg@PAX@__crt_stdio_output@@YAPAXAAPAD@Z 10026184 f i libucrt:output.obj
 0001:0002519a       ??$read_va_arg@U_CRT_DOUBLE@@@__crt_stdio_output@@YA?AU_CRT_DOUBLE@@AAPAD@Z 1002619a f i libucrt:output.obj
 0001:000251b4       ??$read_va_arg@_J@__crt_stdio_output@@YA_JAAPAD@Z 100261b4 f i libucrt:output.obj
 0001:000251ce       ??$read_va_arg@_K@__crt_stdio_output@@YA_KAAPAD@Z 100261ce f i libucrt:output.obj
 0001:000251e8       ??$read_va_arg@_W@__crt_stdio_output@@YA_WAAPAD@Z 100261e8 f i libucrt:output.obj
 0001:000251ff       ??$scratch_count@D@formatting_buffer@__crt_stdio_output@@QBEIXZ 100261ff f i libucrt:output.obj
 0001:00025204       ??$scratch_data@D@formatting_buffer@__crt_stdio_output@@QAEPADXZ 10026204 f i libucrt:output.obj
 0001:00025229       ??$tcstol@AAPBDPAPADH@?$__crt_char_traits@D@@SAJAAPBD$$QAPAPAD$$QAH@Z 10026229 f i libucrt:output.obj
 0001:0002524e       ??$tcstol@AAPB_WPAPA_WH@?$__crt_char_traits@_W@@SAJAAPB_W$$QAPAPA_W$$QAH@Z 1002624e f i libucrt:output.obj
 0001:00025273       ??$tcstol@PBDPAPADH@?$__crt_char_traits@D@@SAJ$$QAPBD$$QAPAPAD$$QAH@Z 10026273 f i libucrt:output.obj
 0001:00025298       ??$tcstol@PB_WPAPA_WH@?$__crt_char_traits@_W@@SAJ$$QAPB_W$$QAPAPA_W$$QAH@Z 10026298 f i libucrt:output.obj
 0001:000252bd       ??$type_case_integer_parse_into_buffer@I@?$output_processor@DV?$stream_output_adapter@D@__crt_stdio_output@@V?$format_validation_base@DV?$stream_output_adapter@D@__crt_stdio_output@@@2@@__crt_stdio_output@@AAEXII_N@Z 100262bd f i libucrt:output.obj
 0001:0002534f       ??$type_case_integer_parse_into_buffer@I@?$output_processor@DV?$stream_output_adapter@D@__crt_stdio_output@@V?$positional_parameter_base@DV?$stream_output_adapter@D@__crt_stdio_output@@@2@@__crt_stdio_output@@AAEXII_N@Z 1002634f f i libucrt:output.obj
 0001:000253e1       ??$type_case_integer_parse_into_buffer@I@?$output_processor@DV?$stream_output_adapter@D@__crt_stdio_output@@V?$standard_base@DV?$stream_output_adapter@D@__crt_stdio_output@@@2@@__crt_stdio_output@@AAEXII_N@Z 100263e1 f i libucrt:output.obj
 0001:00025473       ??$type_case_integer_parse_into_buffer@I@?$output_processor@DV?$string_output_adapter@D@__crt_stdio_output@@V?$format_validation_base@DV?$string_output_adapter@D@__crt_stdio_output@@@2@@__crt_stdio_output@@AAEXII_N@Z 10026473 f i libucrt:output.obj
 0001:00025505       ??$type_case_integer_parse_into_buffer@I@?$output_processor@DV?$string_output_adapter@D@__crt_stdio_output@@V?$positional_parameter_base@DV?$string_output_adapter@D@__crt_stdio_output@@@2@@__crt_stdio_output@@AAEXII_N@Z 10026505 f i libucrt:output.obj
 0001:00025597       ??$type_case_integer_parse_into_buffer@I@?$output_processor@DV?$string_output_adapter@D@__crt_stdio_output@@V?$standard_base@DV?$string_output_adapter@D@__crt_stdio_output@@@2@@__crt_stdio_output@@AAEXII_N@Z 10026597 f i libucrt:output.obj
 0001:00025629       ??$type_case_integer_parse_into_buffer@I@?$output_processor@_WV?$stream_output_adapter@_W@__crt_stdio_output@@V?$format_validation_base@_WV?$stream_output_adapter@_W@__crt_stdio_output@@@2@@__crt_stdio_output@@AAEXII_N@Z 10026629 f i libucrt:output.obj
 0001:000256bb       ??$type_case_integer_parse_into_buffer@I@?$output_processor@_WV?$stream_output_adapter@_W@__crt_stdio_output@@V?$positional_parameter_base@_WV?$stream_output_adapter@_W@__crt_stdio_output@@@2@@__crt_stdio_output@@AAEXII_N@Z 100266bb f i libucrt:output.obj
 0001:0002574d       ??$type_case_integer_parse_into_buffer@I@?$output_processor@_WV?$stream_output_adapter@_W@__crt_stdio_output@@V?$standard_base@_WV?$stream_output_adapter@_W@__crt_stdio_output@@@2@@__crt_stdio_output@@AAEXII_N@Z 1002674d f i libucrt:output.obj
 0001:000257df       ??$type_case_integer_parse_into_buffer@I@?$output_processor@_WV?$string_output_adapter@_W@__crt_stdio_output@@V?$format_validation_base@_WV?$string_output_adapter@_W@__crt_stdio_output@@@2@@__crt_stdio_output@@AAEXII_N@Z 100267df f i libucrt:output.obj
 0001:00025871       ??$type_case_integer_parse_into_buffer@I@?$output_processor@_WV?$string_output_adapter@_W@__crt_stdio_output@@V?$positional_parameter_base@_WV?$string_output_adapter@_W@__crt_stdio_output@@@2@@__crt_stdio_output@@AAEXII_N@Z 10026871 f i libucrt:output.obj
 0001:00025903       ??$type_case_integer_parse_into_buffer@I@?$output_processor@_WV?$string_output_adapter@_W@__crt_stdio_output@@V?$standard_base@_WV?$string_output_adapter@_W@__crt_stdio_output@@@2@@__crt_stdio_output@@AAEXII_N@Z 10026903 f i libucrt:output.obj
 0001:00025995       ??$type_case_integer_parse_into_buffer@_K@?$output_processor@DV?$stream_output_adapter@D@__crt_stdio_output@@V?$format_validation_base@DV?$stream_output_adapter@D@__crt_stdio_output@@@2@@__crt_stdio_output@@AAEX_KI_N@Z 10026995 f i libucrt:output.obj
 0001:00025a3f       ??$type_case_integer_parse_into_buffer@_K@?$output_processor@DV?$stream_output_adapter@D@__crt_stdio_output@@V?$positional_parameter_base@DV?$stream_output_adapter@D@__crt_stdio_output@@@2@@__crt_stdio_output@@AAEX_KI_N@Z 10026a3f f i libucrt:output.obj
 0001:00025ae9       ??$type_case_integer_parse_into_buffer@_K@?$output_processor@DV?$stream_output_adapter@D@__crt_stdio_output@@V?$standard_base@DV?$stream_output_adapter@D@__crt_stdio_output@@@2@@__crt_stdio_output@@AAEX_KI_N@Z 10026ae9 f i libucrt:output.obj
 0001:00025b93       ??$type_case_integer_parse_into_buffer@_K@?$output_processor@DV?$string_output_adapter@D@__crt_stdio_output@@V?$format_validation_base@DV?$string_output_adapter@D@__crt_stdio_output@@@2@@__crt_stdio_output@@AAEX_KI_N@Z 10026b93 f i libucrt:output.obj
 0001:00025c3d       ??$type_case_integer_parse_into_buffer@_K@?$output_processor@DV?$string_output_adapter@D@__crt_stdio_output@@V?$positional_parameter_base@DV?$string_output_adapter@D@__crt_stdio_output@@@2@@__crt_stdio_output@@AAEX_KI_N@Z 10026c3d f i libucrt:output.obj
 0001:00025ce7       ??$type_case_integer_parse_into_buffer@_K@?$output_processor@DV?$string_output_adapter@D@__crt_stdio_output@@V?$standard_base@DV?$string_output_adapter@D@__crt_stdio_output@@@2@@__crt_stdio_output@@AAEX_KI_N@Z 10026ce7 f i libucrt:output.obj
 0001:00025d91       ??$type_case_integer_parse_into_buffer@_K@?$output_processor@_WV?$stream_output_adapter@_W@__crt_stdio_output@@V?$format_validation_base@_WV?$stream_output_adapter@_W@__crt_stdio_output@@@2@@__crt_stdio_output@@AAEX_KI_N@Z 10026d91 f i libucrt:output.obj
 0001:00025e3b       ??$type_case_integer_parse_into_buffer@_K@?$output_processor@_WV?$stream_output_adapter@_W@__crt_stdio_output@@V?$positional_parameter_base@_WV?$stream_output_adapter@_W@__crt_stdio_output@@@2@@__crt_stdio_output@@AAEX_KI_N@Z 10026e3b f i libucrt:output.obj
 0001:00025ee5       ??$type_case_integer_parse_into_buffer@_K@?$output_processor@_WV?$stream_output_adapter@_W@__crt_stdio_output@@V?$standard_base@_WV?$stream_output_adapter@_W@__crt_stdio_output@@@2@@__crt_stdio_output@@AAEX_KI_N@Z 10026ee5 f i libucrt:output.obj
 0001:00025f8f       ??$type_case_integer_parse_into_buffer@_K@?$output_processor@_WV?$string_output_adapter@_W@__crt_stdio_output@@V?$format_validation_base@_WV?$string_output_adapter@_W@__crt_stdio_output@@@2@@__crt_stdio_output@@AAEX_KI_N@Z 10026f8f f i libucrt:output.obj
 0001:00026039       ??$type_case_integer_parse_into_buffer@_K@?$output_processor@_WV?$string_output_adapter@_W@__crt_stdio_output@@V?$positional_parameter_base@_WV?$string_output_adapter@_W@__crt_stdio_output@@@2@@__crt_stdio_output@@AAEX_KI_N@Z 10027039 f i libucrt:output.obj
 0001:000260e3       ??$type_case_integer_parse_into_buffer@_K@?$output_processor@_WV?$string_output_adapter@_W@__crt_stdio_output@@V?$standard_base@_WV?$string_output_adapter@_W@__crt_stdio_output@@@2@@__crt_stdio_output@@AAEX_KI_N@Z 100270e3 f i libucrt:output.obj
 0001:0002618d       ??$write_multiple_characters@V?$stream_output_adapter@D@__crt_stdio_output@@D@__crt_stdio_output@@YAXABV?$stream_output_adapter@D@0@DHQAH@Z 1002718d f i libucrt:output.obj
 0001:000261c4       ??$write_multiple_characters@V?$stream_output_adapter@_W@__crt_stdio_output@@D@__crt_stdio_output@@YAXABV?$stream_output_adapter@_W@0@DHQAH@Z 100271c4 f i libucrt:output.obj
 0001:00026201       ??$write_multiple_characters@V?$string_output_adapter@D@__crt_stdio_output@@D@__crt_stdio_output@@YAXABV?$string_output_adapter@D@0@DHQAH@Z 10027201 f i libucrt:output.obj
 0001:00026238       ??$write_multiple_characters@V?$string_output_adapter@_W@__crt_stdio_output@@D@__crt_stdio_output@@YAXABV?$string_output_adapter@_W@0@DHQAH@Z 10027238 f i libucrt:output.obj
 0001:000264a9       ??0?$common_data@D@__crt_stdio_output@@IAE@XZ 100274a9 f i libucrt:output.obj
 0001:00026501       ??0?$common_data@_W@__crt_stdio_output@@IAE@XZ 10027501 f i libucrt:output.obj
 0001:00026560       ??0?$output_adapter_data@DV?$stream_output_adapter@D@__crt_stdio_output@@@__crt_stdio_output@@IAE@ABV?$stream_output_adapter@D@1@_KQBDQAU__crt_locale_pointers@@QAD@Z 10027560 f i libucrt:output.obj
 0001:000265ab       ??0?$output_adapter_data@DV?$string_output_adapter@D@__crt_stdio_output@@@__crt_stdio_output@@IAE@ABV?$string_output_adapter@D@1@_KQBDQAU__crt_locale_pointers@@QAD@Z 100275ab f i libucrt:output.obj
 0001:000265f6       ??0?$output_adapter_data@_WV?$stream_output_adapter@_W@__crt_stdio_output@@@__crt_stdio_output@@IAE@ABV?$stream_output_adapter@_W@1@_KQB_WQAU__crt_locale_pointers@@QAD@Z 100275f6 f i libucrt:output.obj
 0001:00026641       ??0?$output_adapter_data@_WV?$string_output_adapter@_W@__crt_stdio_output@@@__crt_stdio_output@@IAE@ABV?$string_output_adapter@_W@1@_KQB_WQAU__crt_locale_pointers@@QAD@Z 10027641 f i libucrt:output.obj
 0001:0002668c       ??0?$output_processor@DV?$stream_output_adapter@D@__crt_stdio_output@@V?$format_validation_base@DV?$stream_output_adapter@D@__crt_stdio_output@@@2@@__crt_stdio_output@@QAE@ABV?$stream_output_adapter@D@1@_KQBDQAU__crt_locale_pointers@@QAD@Z 1002768c f i libucrt:output.obj
 0001:000266ce       ??0?$output_processor@DV?$stream_output_adapter@D@__crt_stdio_output@@V?$positional_parameter_base@DV?$stream_output_adapter@D@__crt_stdio_output@@@2@@__crt_stdio_output@@QAE@ABV?$stream_output_adapter@D@1@_KQBDQAU__crt_locale_pointers@@QAD@Z 100276ce f i libucrt:output.obj
 0001:00026708       ??0?$output_processor@DV?$stream_output_adapter@D@__crt_stdio_output@@V?$standard_base@DV?$stream_output_adapter@D@__crt_stdio_output@@@2@@__crt_stdio_output@@QAE@ABV?$stream_output_adapter@D@1@_KQBDQAU__crt_locale_pointers@@QAD@Z 10027708 f i libucrt:output.obj
 0001:0002674a       ??0?$output_processor@DV?$string_output_adapter@D@__crt_stdio_output@@V?$format_validation_base@DV?$string_output_adapter@D@__crt_stdio_output@@@2@@__crt_stdio_output@@QAE@ABV?$string_output_adapter@D@1@_KQBDQAU__crt_locale_pointers@@QAD@Z 1002774a f i libucrt:output.obj
 0001:0002678c       ??0?$output_processor@DV?$string_output_adapter@D@__crt_stdio_output@@V?$positional_parameter_base@DV?$string_output_adapter@D@__crt_stdio_output@@@2@@__crt_stdio_output@@QAE@ABV?$string_output_adapter@D@1@_KQBDQAU__crt_locale_pointers@@QAD@Z 1002778c f i libucrt:output.obj
 0001:000267c6       ??0?$output_processor@DV?$string_output_adapter@D@__crt_stdio_output@@V?$standard_base@DV?$string_output_adapter@D@__crt_stdio_output@@@2@@__crt_stdio_output@@QAE@ABV?$string_output_adapter@D@1@_KQBDQAU__crt_locale_pointers@@QAD@Z 100277c6 f i libucrt:output.obj
 0001:00026808       ??0?$output_processor@_WV?$stream_output_adapter@_W@__crt_stdio_output@@V?$format_validation_base@_WV?$stream_output_adapter@_W@__crt_stdio_output@@@2@@__crt_stdio_output@@QAE@ABV?$stream_output_adapter@_W@1@_KQB_WQAU__crt_locale_pointers@@QAD@Z 10027808 f i libucrt:output.obj
 0001:0002684a       ??0?$output_processor@_WV?$stream_output_adapter@_W@__crt_stdio_output@@V?$positional_parameter_base@_WV?$stream_output_adapter@_W@__crt_stdio_output@@@2@@__crt_stdio_output@@QAE@ABV?$stream_output_adapter@_W@1@_KQB_WQAU__crt_locale_pointers@@QAD@Z 1002784a f i libucrt:output.obj
 0001:00026884       ??0?$output_processor@_WV?$stream_output_adapter@_W@__crt_stdio_output@@V?$standard_base@_WV?$stream_output_adapter@_W@__crt_stdio_output@@@2@@__crt_stdio_output@@QAE@ABV?$stream_output_adapter@_W@1@_KQB_WQAU__crt_locale_pointers@@QAD@Z 10027884 f i libucrt:output.obj
 0001:000268c6       ??0?$output_processor@_WV?$string_output_adapter@_W@__crt_stdio_output@@V?$format_validation_base@_WV?$string_output_adapter@_W@__crt_stdio_output@@@2@@__crt_stdio_output@@QAE@ABV?$string_output_adapter@_W@1@_KQB_WQAU__crt_locale_pointers@@QAD@Z 100278c6 f i libucrt:output.obj
 0001:00026908       ??0?$output_processor@_WV?$string_output_adapter@_W@__crt_stdio_output@@V?$positional_parameter_base@_WV?$string_output_adapter@_W@__crt_stdio_output@@@2@@__crt_stdio_output@@QAE@ABV?$string_output_adapter@_W@1@_KQB_WQAU__crt_locale_pointers@@QAD@Z 10027908 f i libucrt:output.obj
 0001:00026942       ??0?$output_processor@_WV?$string_output_adapter@_W@__crt_stdio_output@@V?$standard_base@_WV?$string_output_adapter@_W@__crt_stdio_output@@@2@@__crt_stdio_output@@QAE@ABV?$string_output_adapter@_W@1@_KQB_WQAU__crt_locale_pointers@@QAD@Z 10027942 f i libucrt:output.obj
 0001:00026984       ??0?$stream_output_adapter@D@__crt_stdio_output@@QAE@QAU_iobuf@@@Z 10027984 f i libucrt:output.obj
 0001:00026998       ??0?$stream_output_adapter@_W@__crt_stdio_output@@QAE@QAU_iobuf@@@Z 10027998 f i libucrt:output.obj
 0001:000269ac       ??0?$string_output_adapter@D@__crt_stdio_output@@QAE@QAU?$string_output_adapter_context@D@1@@Z 100279ac f i libucrt:output.obj
 0001:000269c0       ??0?$string_output_adapter@_W@__crt_stdio_output@@QAE@QAU?$string_output_adapter_context@_W@1@@Z 100279c0 f i libucrt:output.obj
 0001:000269d4       ??0_LocaleUpdate@@QAE@QAU__crt_locale_pointers@@@Z 100279d4 f i libucrt:output.obj
 0001:00026a77       ??0__acrt_stdio_temporary_buffering_guard@@QAE@QAU_iobuf@@@Z 10027a77 f i libucrt:output.obj
 0001:00026a9c       ??0__crt_errno_guard@@QAE@QAH@Z 10027a9c f i libucrt:output.obj
 0001:00026aba       ??0formatting_buffer@__crt_stdio_output@@QAE@XZ 10027aba f i libucrt:output.obj
 0001:00026acf       ??1?$common_data@D@__crt_stdio_output@@QAE@XZ 10027acf f i libucrt:output.obj
 0001:00026ad9       ??1?$common_data@_W@__crt_stdio_output@@QAE@XZ 10027ad9 f i libucrt:output.obj
 0001:00026ae3       ??1?$format_validation_base@DV?$stream_output_adapter@D@__crt_stdio_output@@@__crt_stdio_output@@QAE@XZ 10027ae3 f i libucrt:output.obj
 0001:00026aed       ??1?$format_validation_base@DV?$string_output_adapter@D@__crt_stdio_output@@@__crt_stdio_output@@QAE@XZ 10027aed f i libucrt:output.obj
 0001:00026af7       ??1?$format_validation_base@_WV?$stream_output_adapter@_W@__crt_stdio_output@@@__crt_stdio_output@@QAE@XZ 10027af7 f i libucrt:output.obj
 0001:00026b01       ??1?$format_validation_base@_WV?$string_output_adapter@_W@__crt_stdio_output@@@__crt_stdio_output@@QAE@XZ 10027b01 f i libucrt:output.obj
 0001:00026b0b       ??1?$output_adapter_data@DV?$stream_output_adapter@D@__crt_stdio_output@@@__crt_stdio_output@@QAE@XZ 10027b0b f i libucrt:output.obj
 0001:00026b15       ??1?$output_adapter_data@DV?$string_output_adapter@D@__crt_stdio_output@@@__crt_stdio_output@@QAE@XZ 10027b15 f i libucrt:output.obj
 0001:00026b1f       ??1?$output_adapter_data@_WV?$stream_output_adapter@_W@__crt_stdio_output@@@__crt_stdio_output@@QAE@XZ 10027b1f f i libucrt:output.obj
 0001:00026b29       ??1?$output_adapter_data@_WV?$string_output_adapter@_W@__crt_stdio_output@@@__crt_stdio_output@@QAE@XZ 10027b29 f i libucrt:output.obj
 0001:00026b33       ??1?$output_processor@DV?$stream_output_adapter@D@__crt_stdio_output@@V?$format_validation_base@DV?$stream_output_adapter@D@__crt_stdio_output@@@2@@__crt_stdio_output@@QAE@XZ 10027b33 f i libucrt:output.obj
 0001:00026b3d       ??1?$output_processor@DV?$stream_output_adapter@D@__crt_stdio_output@@V?$positional_parameter_base@DV?$stream_output_adapter@D@__crt_stdio_output@@@2@@__crt_stdio_output@@QAE@XZ 10027b3d f i libucrt:output.obj
 0001:00026b47       ??1?$output_processor@DV?$stream_output_adapter@D@__crt_stdio_output@@V?$standard_base@DV?$stream_output_adapter@D@__crt_stdio_output@@@2@@__crt_stdio_output@@QAE@XZ 10027b47 f i libucrt:output.obj
 0001:00026b51       ??1?$output_processor@DV?$string_output_adapter@D@__crt_stdio_output@@V?$format_validation_base@DV?$string_output_adapter@D@__crt_stdio_output@@@2@@__crt_stdio_output@@QAE@XZ 10027b51 f i libucrt:output.obj
 0001:00026b5b       ??1?$output_processor@DV?$string_output_adapter@D@__crt_stdio_output@@V?$positional_parameter_base@DV?$string_output_adapter@D@__crt_stdio_output@@@2@@__crt_stdio_output@@QAE@XZ 10027b5b f i libucrt:output.obj
 0001:00026b65       ??1?$output_processor@DV?$string_output_adapter@D@__crt_stdio_output@@V?$standard_base@DV?$string_output_adapter@D@__crt_stdio_output@@@2@@__crt_stdio_output@@QAE@XZ 10027b65 f i libucrt:output.obj
 0001:00026b6f       ??1?$output_processor@_WV?$stream_output_adapter@_W@__crt_stdio_output@@V?$format_validation_base@_WV?$stream_output_adapter@_W@__crt_stdio_output@@@2@@__crt_stdio_output@@QAE@XZ 10027b6f f i libucrt:output.obj
 0001:00026b79       ??1?$output_processor@_WV?$stream_output_adapter@_W@__crt_stdio_output@@V?$positional_parameter_base@_WV?$stream_output_adapter@_W@__crt_stdio_output@@@2@@__crt_stdio_output@@QAE@XZ 10027b79 f i libucrt:output.obj
 0001:00026b83       ??1?$output_processor@_WV?$stream_output_adapter@_W@__crt_stdio_output@@V?$standard_base@_WV?$stream_output_adapter@_W@__crt_stdio_output@@@2@@__crt_stdio_output@@QAE@XZ 10027b83 f i libucrt:output.obj
 0001:00026b8d       ??1?$output_processor@_WV?$string_output_adapter@_W@__crt_stdio_output@@V?$format_validation_base@_WV?$string_output_adapter@_W@__crt_stdio_output@@@2@@__crt_stdio_output@@QAE@XZ 10027b8d f i libucrt:output.obj
 0001:00026b97       ??1?$output_processor@_WV?$string_output_adapter@_W@__crt_stdio_output@@V?$positional_parameter_base@_WV?$string_output_adapter@_W@__crt_stdio_output@@@2@@__crt_stdio_output@@QAE@XZ 10027b97 f i libucrt:output.obj
 0001:00026ba1       ??1?$output_processor@_WV?$string_output_adapter@_W@__crt_stdio_output@@V?$standard_base@_WV?$string_output_adapter@_W@__crt_stdio_output@@@2@@__crt_stdio_output@@QAE@XZ 10027ba1 f i libucrt:output.obj
 0001:00026bab       ??1?$positional_parameter_base@DV?$stream_output_adapter@D@__crt_stdio_output@@@__crt_stdio_output@@QAE@XZ 10027bab f i libucrt:output.obj
 0001:00026bb5       ??1?$positional_parameter_base@DV?$string_output_adapter@D@__crt_stdio_output@@@__crt_stdio_output@@QAE@XZ 10027bb5 f i libucrt:output.obj
 0001:00026bbf       ??1?$positional_parameter_base@_WV?$stream_output_adapter@_W@__crt_stdio_output@@@__crt_stdio_output@@QAE@XZ 10027bbf f i libucrt:output.obj
 0001:00026bc9       ??1?$positional_parameter_base@_WV?$string_output_adapter@_W@__crt_stdio_output@@@__crt_stdio_output@@QAE@XZ 10027bc9 f i libucrt:output.obj
 0001:00026bd3       ??1?$standard_base@DV?$stream_output_adapter@D@__crt_stdio_output@@@__crt_stdio_output@@QAE@XZ 10027bd3 f i libucrt:output.obj
 0001:00026bdd       ??1?$standard_base@DV?$string_output_adapter@D@__crt_stdio_output@@@__crt_stdio_output@@QAE@XZ 10027bdd f i libucrt:output.obj
 0001:00026be7       ??1?$standard_base@_WV?$stream_output_adapter@_W@__crt_stdio_output@@@__crt_stdio_output@@QAE@XZ 10027be7 f i libucrt:output.obj
 0001:00026bf1       ??1?$standard_base@_WV?$string_output_adapter@_W@__crt_stdio_output@@@__crt_stdio_output@@QAE@XZ 10027bf1 f i libucrt:output.obj
 0001:00026bfb       ??1_LocaleUpdate@@QAE@XZ   10027bfb f i libucrt:output.obj
 0001:00026c0f       ??1__acrt_stdio_temporary_buffering_guard@@QAE@XZ 10027c0f f i libucrt:output.obj
 0001:00026c21       ??1__crt_errno_guard@@QAE@XZ 10027c21 f i libucrt:output.obj
 0001:00026c36       ??1formatting_buffer@__crt_stdio_output@@QAE@XZ 10027c36 f i libucrt:output.obj
 0001:00026c56       ??4?$__crt_unique_heap_ptr@DU__crt_internal_free_policy@@@@QAEAAV0@$$QAV0@@Z 10027c56 f i libucrt:output.obj
 0001:00027339       ?GetLocaleT@_LocaleUpdate@@QAEPAU__crt_locale_pointers@@XZ 10028339 f i libucrt:output.obj
 0001:0002733d       ?__crt_interlocked_read_32@@YAHPDH@Z 1002833d f i libucrt:output.obj
 0001:0002734c       ?adjust_hexit@?$output_processor@DV?$stream_output_adapter@D@__crt_stdio_output@@V?$format_validation_base@DV?$stream_output_adapter@D@__crt_stdio_output@@@2@@__crt_stdio_output@@CADH_N@Z 1002834c f i libucrt:output.obj
 0001:00027371       ?adjust_hexit@?$output_processor@DV?$stream_output_adapter@D@__crt_stdio_output@@V?$positional_parameter_base@DV?$stream_output_adapter@D@__crt_stdio_output@@@2@@__crt_stdio_output@@CADH_N@Z 10028371 f i libucrt:output.obj
 0001:00027396       ?adjust_hexit@?$output_processor@DV?$stream_output_adapter@D@__crt_stdio_output@@V?$standard_base@DV?$stream_output_adapter@D@__crt_stdio_output@@@2@@__crt_stdio_output@@CADH_N@Z 10028396 f i libucrt:output.obj
 0001:000273bb       ?adjust_hexit@?$output_processor@DV?$string_output_adapter@D@__crt_stdio_output@@V?$format_validation_base@DV?$string_output_adapter@D@__crt_stdio_output@@@2@@__crt_stdio_output@@CADH_N@Z 100283bb f i libucrt:output.obj
 0001:000273e0       ?adjust_hexit@?$output_processor@DV?$string_output_adapter@D@__crt_stdio_output@@V?$positional_parameter_base@DV?$string_output_adapter@D@__crt_stdio_output@@@2@@__crt_stdio_output@@CADH_N@Z 100283e0 f i libucrt:output.obj
 0001:00027405       ?adjust_hexit@?$output_processor@DV?$string_output_adapter@D@__crt_stdio_output@@V?$standard_base@DV?$string_output_adapter@D@__crt_stdio_output@@@2@@__crt_stdio_output@@CADH_N@Z 10028405 f i libucrt:output.obj
 0001:0002742a       ?adjust_hexit@?$output_processor@_WV?$stream_output_adapter@_W@__crt_stdio_output@@V?$format_validation_base@_WV?$stream_output_adapter@_W@__crt_stdio_output@@@2@@__crt_stdio_output@@CADH_N@Z 1002842a f i libucrt:output.obj
 0001:0002744f       ?adjust_hexit@?$output_processor@_WV?$stream_output_adapter@_W@__crt_stdio_output@@V?$positional_parameter_base@_WV?$stream_output_adapter@_W@__crt_stdio_output@@@2@@__crt_stdio_output@@CADH_N@Z 1002844f f i libucrt:output.obj
 0001:00027474       ?adjust_hexit@?$output_processor@_WV?$stream_output_adapter@_W@__crt_stdio_output@@V?$standard_base@_WV?$stream_output_adapter@_W@__crt_stdio_output@@@2@@__crt_stdio_output@@CADH_N@Z 10028474 f i libucrt:output.obj
 0001:00027499       ?adjust_hexit@?$output_processor@_WV?$string_output_adapter@_W@__crt_stdio_output@@V?$format_validation_base@_WV?$string_output_adapter@_W@__crt_stdio_output@@@2@@__crt_stdio_output@@CADH_N@Z 10028499 f i libucrt:output.obj
 0001:000274be       ?adjust_hexit@?$output_processor@_WV?$string_output_adapter@_W@__crt_stdio_output@@V?$positional_parameter_base@_WV?$string_output_adapter@_W@__crt_stdio_output@@@2@@__crt_stdio_output@@CADH_N@Z 100284be f i libucrt:output.obj
 0001:000274e3       ?adjust_hexit@?$output_processor@_WV?$string_output_adapter@_W@__crt_stdio_output@@V?$standard_base@_WV?$string_output_adapter@_W@__crt_stdio_output@@@2@@__crt_stdio_output@@CADH_N@Z 100284e3 f i libucrt:output.obj
 0001:00027508       ?advance_to_next_pass@?$positional_parameter_base@DV?$stream_output_adapter@D@__crt_stdio_output@@@__crt_stdio_output@@IAE_NXZ 10028508 f i libucrt:output.obj
 0001:00027567       ?advance_to_next_pass@?$positional_parameter_base@DV?$string_output_adapter@D@__crt_stdio_output@@@__crt_stdio_output@@IAE_NXZ 10028567 f i libucrt:output.obj
 0001:000275c6       ?advance_to_next_pass@?$positional_parameter_base@_WV?$stream_output_adapter@_W@__crt_stdio_output@@@__crt_stdio_output@@IAE_NXZ 100285c6 f i libucrt:output.obj
 0001:00027625       ?advance_to_next_pass@?$positional_parameter_base@_WV?$string_output_adapter@_W@__crt_stdio_output@@@__crt_stdio_output@@IAE_NXZ 10028625 f i libucrt:output.obj
 0001:00027684       ?advance_to_next_pass@?$standard_base@DV?$stream_output_adapter@D@__crt_stdio_output@@@__crt_stdio_output@@IAE_NXZ 10028684 f i libucrt:output.obj
 0001:0002769b       ?advance_to_next_pass@?$standard_base@DV?$string_output_adapter@D@__crt_stdio_output@@@__crt_stdio_output@@IAE_NXZ 1002869b f i libucrt:output.obj
 0001:000276b2       ?advance_to_next_pass@?$standard_base@_WV?$stream_output_adapter@_W@__crt_stdio_output@@@__crt_stdio_output@@IAE_NXZ 100286b2 f i libucrt:output.obj
 0001:000276c9       ?advance_to_next_pass@?$standard_base@_WV?$string_output_adapter@_W@__crt_stdio_output@@@__crt_stdio_output@@IAE_NXZ 100286c9 f i libucrt:output.obj
 0001:000276e0       ?crop_zeroes@__crt_stdio_output@@YAXPADQAU__crt_locale_pointers@@@Z 100286e0 f i libucrt:output.obj
 0001:0002774c       ?find_next_state@?$output_processor@DV?$stream_output_adapter@D@__crt_stdio_output@@V?$format_validation_base@DV?$stream_output_adapter@D@__crt_stdio_output@@@2@@__crt_stdio_output@@ABE?AW4state@2@DW432@@Z 1002874c f i libucrt:output.obj
 0001:0002778e       ?find_next_state@?$output_processor@DV?$stream_output_adapter@D@__crt_stdio_output@@V?$positional_parameter_base@DV?$stream_output_adapter@D@__crt_stdio_output@@@2@@__crt_stdio_output@@ABE?AW4state@2@DW432@@Z 1002878e f i libucrt:output.obj
 0001:000277d0       ?find_next_state@?$output_processor@DV?$stream_output_adapter@D@__crt_stdio_output@@V?$standard_base@DV?$stream_output_adapter@D@__crt_stdio_output@@@2@@__crt_stdio_output@@ABE?AW4state@2@DW432@@Z 100287d0 f i libucrt:output.obj
 0001:0002780e       ?find_next_state@?$output_processor@DV?$string_output_adapter@D@__crt_stdio_output@@V?$format_validation_base@DV?$string_output_adapter@D@__crt_stdio_output@@@2@@__crt_stdio_output@@ABE?AW4state@2@DW432@@Z 1002880e f i libucrt:output.obj
 0001:00027850       ?find_next_state@?$output_processor@DV?$string_output_adapter@D@__crt_stdio_output@@V?$positional_parameter_base@DV?$string_output_adapter@D@__crt_stdio_output@@@2@@__crt_stdio_output@@ABE?AW4state@2@DW432@@Z 10028850 f i libucrt:output.obj
 0001:00027892       ?find_next_state@?$output_processor@DV?$string_output_adapter@D@__crt_stdio_output@@V?$standard_base@DV?$string_output_adapter@D@__crt_stdio_output@@@2@@__crt_stdio_output@@ABE?AW4state@2@DW432@@Z 10028892 f i libucrt:output.obj
 0001:000278d0       ?find_next_state@?$output_processor@_WV?$stream_output_adapter@_W@__crt_stdio_output@@V?$format_validation_base@_WV?$stream_output_adapter@_W@__crt_stdio_output@@@2@@__crt_stdio_output@@ABE?AW4state@2@_WW432@@Z 100288d0 f i libucrt:output.obj
 0001:00027914       ?find_next_state@?$output_processor@_WV?$stream_output_adapter@_W@__crt_stdio_output@@V?$positional_parameter_base@_WV?$stream_output_adapter@_W@__crt_stdio_output@@@2@@__crt_stdio_output@@ABE?AW4state@2@_WW432@@Z 10028914 f i libucrt:output.obj
 0001:00027958       ?find_next_state@?$output_processor@_WV?$stream_output_adapter@_W@__crt_stdio_output@@V?$standard_base@_WV?$stream_output_adapter@_W@__crt_stdio_output@@@2@@__crt_stdio_output@@ABE?AW4state@2@_WW432@@Z 10028958 f i libucrt:output.obj
 0001:00027999       ?find_next_state@?$output_processor@_WV?$string_output_adapter@_W@__crt_stdio_output@@V?$format_validation_base@_WV?$string_output_adapter@_W@__crt_stdio_output@@@2@@__crt_stdio_output@@ABE?AW4state@2@_WW432@@Z 10028999 f i libucrt:output.obj
 0001:000279dd       ?find_next_state@?$output_processor@_WV?$string_output_adapter@_W@__crt_stdio_output@@V?$positional_parameter_base@_WV?$string_output_adapter@_W@__crt_stdio_output@@@2@@__crt_stdio_output@@ABE?AW4state@2@_WW432@@Z 100289dd f i libucrt:output.obj
 0001:00027a21       ?find_next_state@?$output_processor@_WV?$string_output_adapter@_W@__crt_stdio_output@@V?$standard_base@_WV?$string_output_adapter@_W@__crt_stdio_output@@@2@@__crt_stdio_output@@ABE?AW4state@2@_WW432@@Z 10028a21 f i libucrt:output.obj
 0001:00027a62       ?force_decimal_point@__crt_stdio_output@@YAXPADQAU__crt_locale_pointers@@@Z 10028a62 f i libucrt:output.obj
 0001:00027ad5       ?get_flags@__crt_stdio_stream@@QBEJXZ 10028ad5 f i libucrt:output.obj
 0001:00027adb       ?get_parameter_type@?$positional_parameter_base@DV?$stream_output_adapter@D@__crt_stdio_output@@@__crt_stdio_output@@CA?AW4parameter_type@12@F@Z 10028adb f i libucrt:output.obj
 0001:00027adf       ?get_parameter_type@?$positional_parameter_base@DV?$stream_output_adapter@D@__crt_stdio_output@@@__crt_stdio_output@@CA?AW4parameter_type@12@G@Z 10028adf f i libucrt:output.obj
 0001:00027ae3       ?get_parameter_type@?$positional_parameter_base@DV?$stream_output_adapter@D@__crt_stdio_output@@@__crt_stdio_output@@CA?AW4parameter_type@12@H@Z 10028ae3 f i libucrt:output.obj
 0001:00027ae7       ?get_parameter_type@?$positional_parameter_base@DV?$stream_output_adapter@D@__crt_stdio_output@@@__crt_stdio_output@@CA?AW4parameter_type@12@I@Z 10028ae7 f i libucrt:output.obj
 0001:00027aeb       ?get_parameter_type@?$positional_parameter_base@DV?$stream_output_adapter@D@__crt_stdio_output@@@__crt_stdio_output@@CA?AW4parameter_type@12@U_CRT_DOUBLE@@@Z 10028aeb f i libucrt:output.obj
 0001:00027aef       ?get_parameter_type@?$positional_parameter_base@DV?$stream_output_adapter@D@__crt_stdio_output@@@__crt_stdio_output@@CA?AW4parameter_type@12@_J@Z 10028aef f i libucrt:output.obj
 0001:00027af3       ?get_parameter_type@?$positional_parameter_base@DV?$stream_output_adapter@D@__crt_stdio_output@@@__crt_stdio_output@@CA?AW4parameter_type@12@_K@Z 10028af3 f i libucrt:output.obj
 0001:00027af7       ?get_parameter_type@?$positional_parameter_base@DV?$stream_output_adapter@D@__crt_stdio_output@@@__crt_stdio_output@@CA?AW4parameter_type@12@_W@Z 10028af7 f i libucrt:output.obj
 0001:00027afb       ?get_parameter_type@?$positional_parameter_base@DV?$string_output_adapter@D@__crt_stdio_output@@@__crt_stdio_output@@CA?AW4parameter_type@12@F@Z 10028afb f i libucrt:output.obj
 0001:00027aff       ?get_parameter_type@?$positional_parameter_base@DV?$string_output_adapter@D@__crt_stdio_output@@@__crt_stdio_output@@CA?AW4parameter_type@12@G@Z 10028aff f i libucrt:output.obj
 0001:00027b03       ?get_parameter_type@?$positional_parameter_base@DV?$string_output_adapter@D@__crt_stdio_output@@@__crt_stdio_output@@CA?AW4parameter_type@12@H@Z 10028b03 f i libucrt:output.obj
 0001:00027b07       ?get_parameter_type@?$positional_parameter_base@DV?$string_output_adapter@D@__crt_stdio_output@@@__crt_stdio_output@@CA?AW4parameter_type@12@I@Z 10028b07 f i libucrt:output.obj
 0001:00027b0b       ?get_parameter_type@?$positional_parameter_base@DV?$string_output_adapter@D@__crt_stdio_output@@@__crt_stdio_output@@CA?AW4parameter_type@12@U_CRT_DOUBLE@@@Z 10028b0b f i libucrt:output.obj
 0001:00027b0f       ?get_parameter_type@?$positional_parameter_base@DV?$string_output_adapter@D@__crt_stdio_output@@@__crt_stdio_output@@CA?AW4parameter_type@12@_J@Z 10028b0f f i libucrt:output.obj
 0001:00027b13       ?get_parameter_type@?$positional_parameter_base@DV?$string_output_adapter@D@__crt_stdio_output@@@__crt_stdio_output@@CA?AW4parameter_type@12@_K@Z 10028b13 f i libucrt:output.obj
 0001:00027b17       ?get_parameter_type@?$positional_parameter_base@DV?$string_output_adapter@D@__crt_stdio_output@@@__crt_stdio_output@@CA?AW4parameter_type@12@_W@Z 10028b17 f i libucrt:output.obj
 0001:00027b1b       ?get_parameter_type@?$positional_parameter_base@_WV?$stream_output_adapter@_W@__crt_stdio_output@@@__crt_stdio_output@@CA?AW4parameter_type@12@F@Z 10028b1b f i libucrt:output.obj
 0001:00027b1f       ?get_parameter_type@?$positional_parameter_base@_WV?$stream_output_adapter@_W@__crt_stdio_output@@@__crt_stdio_output@@CA?AW4parameter_type@12@G@Z 10028b1f f i libucrt:output.obj
 0001:00027b23       ?get_parameter_type@?$positional_parameter_base@_WV?$stream_output_adapter@_W@__crt_stdio_output@@@__crt_stdio_output@@CA?AW4parameter_type@12@H@Z 10028b23 f i libucrt:output.obj
 0001:00027b27       ?get_parameter_type@?$positional_parameter_base@_WV?$stream_output_adapter@_W@__crt_stdio_output@@@__crt_stdio_output@@CA?AW4parameter_type@12@I@Z 10028b27 f i libucrt:output.obj
 0001:00027b2b       ?get_parameter_type@?$positional_parameter_base@_WV?$stream_output_adapter@_W@__crt_stdio_output@@@__crt_stdio_output@@CA?AW4parameter_type@12@U_CRT_DOUBLE@@@Z 10028b2b f i libucrt:output.obj
 0001:00027b2f       ?get_parameter_type@?$positional_parameter_base@_WV?$stream_output_adapter@_W@__crt_stdio_output@@@__crt_stdio_output@@CA?AW4parameter_type@12@_J@Z 10028b2f f i libucrt:output.obj
 0001:00027b33       ?get_parameter_type@?$positional_parameter_base@_WV?$stream_output_adapter@_W@__crt_stdio_output@@@__crt_stdio_output@@CA?AW4parameter_type@12@_K@Z 10028b33 f i libucrt:output.obj
 0001:00027b37       ?get_parameter_type@?$positional_parameter_base@_WV?$stream_output_adapter@_W@__crt_stdio_output@@@__crt_stdio_output@@CA?AW4parameter_type@12@_W@Z 10028b37 f i libucrt:output.obj
 0001:00027b3b       ?get_parameter_type@?$positional_parameter_base@_WV?$string_output_adapter@_W@__crt_stdio_output@@@__crt_stdio_output@@CA?AW4parameter_type@12@F@Z 10028b3b f i libucrt:output.obj
 0001:00027b3f       ?get_parameter_type@?$positional_parameter_base@_WV?$string_output_adapter@_W@__crt_stdio_output@@@__crt_stdio_output@@CA?AW4parameter_type@12@G@Z 10028b3f f i libucrt:output.obj
 0001:00027b43       ?get_parameter_type@?$positional_parameter_base@_WV?$string_output_adapter@_W@__crt_stdio_output@@@__crt_stdio_output@@CA?AW4parameter_type@12@H@Z 10028b43 f i libucrt:output.obj
 0001:00027b47       ?get_parameter_type@?$positional_parameter_base@_WV?$string_output_adapter@_W@__crt_stdio_output@@@__crt_stdio_output@@CA?AW4parameter_type@12@I@Z 10028b47 f i libucrt:output.obj
 0001:00027b4b       ?get_parameter_type@?$positional_parameter_base@_WV?$string_output_adapter@_W@__crt_stdio_output@@@__crt_stdio_output@@CA?AW4parameter_type@12@U_CRT_DOUBLE@@@Z 10028b4b f i libucrt:output.obj
 0001:00027b4f       ?get_parameter_type@?$positional_parameter_base@_WV?$string_output_adapter@_W@__crt_stdio_output@@@__crt_stdio_output@@CA?AW4parameter_type@12@_J@Z 10028b4f f i libucrt:output.obj
 0001:00027b53       ?get_parameter_type@?$positional_parameter_base@_WV?$string_output_adapter@_W@__crt_stdio_output@@@__crt_stdio_output@@CA?AW4parameter_type@12@_K@Z 10028b53 f i libucrt:output.obj
 0001:00027b57       ?get_parameter_type@?$positional_parameter_base@_WV?$string_output_adapter@_W@__crt_stdio_output@@@__crt_stdio_output@@CA?AW4parameter_type@12@_W@Z 10028b57 f i libucrt:output.obj
 0001:00027b5b       ?has_flag@?$output_processor@DV?$stream_output_adapter@D@__crt_stdio_output@@V?$format_validation_base@DV?$stream_output_adapter@D@__crt_stdio_output@@@2@@__crt_stdio_output@@ABE_NI@Z 10028b5b f i libucrt:output.obj
 0001:00027b75       ?has_flag@?$output_processor@DV?$stream_output_adapter@D@__crt_stdio_output@@V?$positional_parameter_base@DV?$stream_output_adapter@D@__crt_stdio_output@@@2@@__crt_stdio_output@@ABE_NI@Z 10028b75 f i libucrt:output.obj
 0001:00027b8f       ?has_flag@?$output_processor@DV?$stream_output_adapter@D@__crt_stdio_output@@V?$standard_base@DV?$stream_output_adapter@D@__crt_stdio_output@@@2@@__crt_stdio_output@@ABE_NI@Z 10028b8f f i libucrt:output.obj
 0001:00027ba9       ?has_flag@?$output_processor@DV?$string_output_adapter@D@__crt_stdio_output@@V?$format_validation_base@DV?$string_output_adapter@D@__crt_stdio_output@@@2@@__crt_stdio_output@@ABE_NI@Z 10028ba9 f i libucrt:output.obj
 0001:00027bc3       ?has_flag@?$output_processor@DV?$string_output_adapter@D@__crt_stdio_output@@V?$positional_parameter_base@DV?$string_output_adapter@D@__crt_stdio_output@@@2@@__crt_stdio_output@@ABE_NI@Z 10028bc3 f i libucrt:output.obj
 0001:00027bdd       ?has_flag@?$output_processor@DV?$string_output_adapter@D@__crt_stdio_output@@V?$standard_base@DV?$string_output_adapter@D@__crt_stdio_output@@@2@@__crt_stdio_output@@ABE_NI@Z 10028bdd f i libucrt:output.obj
 0001:00027bf7       ?has_flag@?$output_processor@_WV?$stream_output_adapter@_W@__crt_stdio_output@@V?$format_validation_base@_WV?$stream_output_adapter@_W@__crt_stdio_output@@@2@@__crt_stdio_output@@ABE_NI@Z 10028bf7 f i libucrt:output.obj
 0001:00027c11       ?has_flag@?$output_processor@_WV?$stream_output_adapter@_W@__crt_stdio_output@@V?$positional_parameter_base@_WV?$stream_output_adapter@_W@__crt_stdio_output@@@2@@__crt_stdio_output@@ABE_NI@Z 10028c11 f i libucrt:output.obj
 0001:00027c2b       ?has_flag@?$output_processor@_WV?$stream_output_adapter@_W@__crt_stdio_output@@V?$standard_base@_WV?$stream_output_adapter@_W@__crt_stdio_output@@@2@@__crt_stdio_output@@ABE_NI@Z 10028c2b f i libucrt:output.obj
 0001:00027c45       ?has_flag@?$output_processor@_WV?$string_output_adapter@_W@__crt_stdio_output@@V?$format_validation_base@_WV?$string_output_adapter@_W@__crt_stdio_output@@@2@@__crt_stdio_output@@ABE_NI@Z 10028c45 f i libucrt:output.obj
 0001:00027c5f       ?has_flag@?$output_processor@_WV?$string_output_adapter@_W@__crt_stdio_output@@V?$positional_parameter_base@_WV?$string_output_adapter@_W@__crt_stdio_output@@@2@@__crt_stdio_output@@ABE_NI@Z 10028c5f f i libucrt:output.obj
 0001:00027c79       ?has_flag@?$output_processor@_WV?$string_output_adapter@_W@__crt_stdio_output@@V?$standard_base@_WV?$string_output_adapter@_W@__crt_stdio_output@@@2@@__crt_stdio_output@@ABE_NI@Z 10028c79 f i libucrt:output.obj
 0001:00027c93       ?is_positional_parameter_reappearance_consistent@?$positional_parameter_base@DV?$stream_output_adapter@D@__crt_stdio_output@@@__crt_stdio_output@@AAE_NABUparameter_data@12@W4parameter_type@12@DW4length_modifier@2@@Z 10028c93 f i libucrt:output.obj
 0001:00027e0c       ?is_positional_parameter_reappearance_consistent@?$positional_parameter_base@DV?$string_output_adapter@D@__crt_stdio_output@@@__crt_stdio_output@@AAE_NABUparameter_data@12@W4parameter_type@12@DW4length_modifier@2@@Z 10028e0c f i libucrt:output.obj
 0001:00027f85       ?is_positional_parameter_reappearance_consistent@?$positional_parameter_base@_WV?$stream_output_adapter@_W@__crt_stdio_output@@@__crt_stdio_output@@AAE_NABUparameter_data@12@W4parameter_type@12@_WW4length_modifier@2@@Z 10028f85 f i libucrt:output.obj
 0001:000280f0       ?is_positional_parameter_reappearance_consistent@?$positional_parameter_base@_WV?$string_output_adapter@_W@__crt_stdio_output@@@__crt_stdio_output@@AAE_NABUparameter_data@12@W4parameter_type@12@_WW4length_modifier@2@@Z 100290f0 f i libucrt:output.obj
 0001:0002825b       ?is_string_backed@__crt_stdio_stream@@QBE_NXZ 1002925b f i libucrt:output.obj
 0001:0002826a       ?narrow_null_string@?$output_processor@DV?$stream_output_adapter@D@__crt_stdio_output@@V?$format_validation_base@DV?$stream_output_adapter@D@__crt_stdio_output@@@2@@__crt_stdio_output@@CAPADXZ 1002926a f i libucrt:output.obj
 0001:00028270       ?narrow_null_string@?$output_processor@DV?$stream_output_adapter@D@__crt_stdio_output@@V?$positional_parameter_base@DV?$stream_output_adapter@D@__crt_stdio_output@@@2@@__crt_stdio_output@@CAPADXZ 10029270 f i libucrt:output.obj
 0001:00028276       ?narrow_null_string@?$output_processor@DV?$stream_output_adapter@D@__crt_stdio_output@@V?$standard_base@DV?$stream_output_adapter@D@__crt_stdio_output@@@2@@__crt_stdio_output@@CAPADXZ 10029276 f i libucrt:output.obj
 0001:0002827c       ?narrow_null_string@?$output_processor@DV?$string_output_adapter@D@__crt_stdio_output@@V?$format_validation_base@DV?$string_output_adapter@D@__crt_stdio_output@@@2@@__crt_stdio_output@@CAPADXZ 1002927c f i libucrt:output.obj
 0001:00028282       ?narrow_null_string@?$output_processor@DV?$string_output_adapter@D@__crt_stdio_output@@V?$positional_parameter_base@DV?$string_output_adapter@D@__crt_stdio_output@@@2@@__crt_stdio_output@@CAPADXZ 10029282 f i libucrt:output.obj
 0001:00028288       ?narrow_null_string@?$output_processor@DV?$string_output_adapter@D@__crt_stdio_output@@V?$standard_base@DV?$string_output_adapter@D@__crt_stdio_output@@@2@@__crt_stdio_output@@CAPADXZ 10029288 f i libucrt:output.obj
 0001:0002828e       ?narrow_null_string@?$output_processor@_WV?$stream_output_adapter@_W@__crt_stdio_output@@V?$format_validation_base@_WV?$stream_output_adapter@_W@__crt_stdio_output@@@2@@__crt_stdio_output@@CAPADXZ 1002928e f i libucrt:output.obj
 0001:00028294       ?narrow_null_string@?$output_processor@_WV?$stream_output_adapter@_W@__crt_stdio_output@@V?$positional_parameter_base@_WV?$stream_output_adapter@_W@__crt_stdio_output@@@2@@__crt_stdio_output@@CAPADXZ 10029294 f i libucrt:output.obj
 0001:0002829a       ?narrow_null_string@?$output_processor@_WV?$stream_output_adapter@_W@__crt_stdio_output@@V?$standard_base@_WV?$stream_output_adapter@_W@__crt_stdio_output@@@2@@__crt_stdio_output@@CAPADXZ 1002929a f i libucrt:output.obj
 0001:000282a0       ?narrow_null_string@?$output_processor@_WV?$string_output_adapter@_W@__crt_stdio_output@@V?$format_validation_base@_WV?$string_output_adapter@_W@__crt_stdio_output@@@2@@__crt_stdio_output@@CAPADXZ 100292a0 f i libucrt:output.obj
 0001:000282a6       ?narrow_null_string@?$output_processor@_WV?$string_output_adapter@_W@__crt_stdio_output@@V?$positional_parameter_base@_WV?$string_output_adapter@_W@__crt_stdio_output@@@2@@__crt_stdio_output@@CAPADXZ 100292a6 f i libucrt:output.obj
 0001:000282ac       ?narrow_null_string@?$output_processor@_WV?$string_output_adapter@_W@__crt_stdio_output@@V?$standard_base@_WV?$string_output_adapter@_W@__crt_stdio_output@@@2@@__crt_stdio_output@@CAPADXZ 100292ac f i libucrt:output.obj
 0001:000282b2       ?parse_int_from_format_string@?$output_processor@DV?$stream_output_adapter@D@__crt_stdio_output@@V?$format_validation_base@DV?$stream_output_adapter@D@__crt_stdio_output@@@2@@__crt_stdio_output@@AAE_NQAH@Z 100292b2 f i libucrt:output.obj
 0001:00028325       ?parse_int_from_format_string@?$output_processor@DV?$stream_output_adapter@D@__crt_stdio_output@@V?$positional_parameter_base@DV?$stream_output_adapter@D@__crt_stdio_output@@@2@@__crt_stdio_output@@AAE_NQAH@Z 10029325 f i libucrt:output.obj
 0001:00028398       ?parse_int_from_format_string@?$output_processor@DV?$stream_output_adapter@D@__crt_stdio_output@@V?$standard_base@DV?$stream_output_adapter@D@__crt_stdio_output@@@2@@__crt_stdio_output@@AAE_NQAH@Z 10029398 f i libucrt:output.obj
 0001:0002840b       ?parse_int_from_format_string@?$output_processor@DV?$string_output_adapter@D@__crt_stdio_output@@V?$format_validation_base@DV?$string_output_adapter@D@__crt_stdio_output@@@2@@__crt_stdio_output@@AAE_NQAH@Z 1002940b f i libucrt:output.obj
 0001:0002847e       ?parse_int_from_format_string@?$output_processor@DV?$string_output_adapter@D@__crt_stdio_output@@V?$positional_parameter_base@DV?$string_output_adapter@D@__crt_stdio_output@@@2@@__crt_stdio_output@@AAE_NQAH@Z 1002947e f i libucrt:output.obj
 0001:000284f1       ?parse_int_from_format_string@?$output_processor@DV?$string_output_adapter@D@__crt_stdio_output@@V?$standard_base@DV?$string_output_adapter@D@__crt_stdio_output@@@2@@__crt_stdio_output@@AAE_NQAH@Z 100294f1 f i libucrt:output.obj
 0001:00028564       ?parse_int_from_format_string@?$output_processor@_WV?$stream_output_adapter@_W@__crt_stdio_output@@V?$format_validation_base@_WV?$stream_output_adapter@_W@__crt_stdio_output@@@2@@__crt_stdio_output@@AAE_NQAH@Z 10029564 f i libucrt:output.obj
 0001:000285d9       ?parse_int_from_format_string@?$output_processor@_WV?$stream_output_adapter@_W@__crt_stdio_output@@V?$positional_parameter_base@_WV?$stream_output_adapter@_W@__crt_stdio_output@@@2@@__crt_stdio_output@@AAE_NQAH@Z 100295d9 f i libucrt:output.obj
 0001:0002864e       ?parse_int_from_format_string@?$output_processor@_WV?$stream_output_adapter@_W@__crt_stdio_output@@V?$standard_base@_WV?$stream_output_adapter@_W@__crt_stdio_output@@@2@@__crt_stdio_output@@AAE_NQAH@Z 1002964e f i libucrt:output.obj
 0001:000286c3       ?parse_int_from_format_string@?$output_processor@_WV?$string_output_adapter@_W@__crt_stdio_output@@V?$format_validation_base@_WV?$string_output_adapter@_W@__crt_stdio_output@@@2@@__crt_stdio_output@@AAE_NQAH@Z 100296c3 f i libucrt:output.obj
 0001:00028738       ?parse_int_from_format_string@?$output_processor@_WV?$string_output_adapter@_W@__crt_stdio_output@@V?$positional_parameter_base@_WV?$string_output_adapter@_W@__crt_stdio_output@@@2@@__crt_stdio_output@@AAE_NQAH@Z 10029738 f i libucrt:output.obj
 0001:000287ad       ?parse_int_from_format_string@?$output_processor@_WV?$string_output_adapter@_W@__crt_stdio_output@@V?$standard_base@_WV?$string_output_adapter@_W@__crt_stdio_output@@@2@@__crt_stdio_output@@AAE_NQAH@Z 100297ad f i libucrt:output.obj
 0001:00028822       ?process@?$output_processor@DV?$stream_output_adapter@D@__crt_stdio_output@@V?$format_validation_base@DV?$stream_output_adapter@D@__crt_stdio_output@@@2@@__crt_stdio_output@@QAEHXZ 10029822 f i libucrt:output.obj
 0001:00028994       ?process@?$output_processor@DV?$stream_output_adapter@D@__crt_stdio_output@@V?$positional_parameter_base@DV?$stream_output_adapter@D@__crt_stdio_output@@@2@@__crt_stdio_output@@QAEHXZ 10029994 f i libucrt:output.obj
 0001:00028b47       ?process@?$output_processor@DV?$stream_output_adapter@D@__crt_stdio_output@@V?$standard_base@DV?$stream_output_adapter@D@__crt_stdio_output@@@2@@__crt_stdio_output@@QAEHXZ 10029b47 f i libucrt:output.obj
 0001:00028caa       ?process@?$output_processor@DV?$string_output_adapter@D@__crt_stdio_output@@V?$format_validation_base@DV?$string_output_adapter@D@__crt_stdio_output@@@2@@__crt_stdio_output@@QAEHXZ 10029caa f i libucrt:output.obj
 0001:00028e1c       ?process@?$output_processor@DV?$string_output_adapter@D@__crt_stdio_output@@V?$positional_parameter_base@DV?$string_output_adapter@D@__crt_stdio_output@@@2@@__crt_stdio_output@@QAEHXZ 10029e1c f i libucrt:output.obj
 0001:00028fcf       ?process@?$output_processor@DV?$string_output_adapter@D@__crt_stdio_output@@V?$standard_base@DV?$string_output_adapter@D@__crt_stdio_output@@@2@@__crt_stdio_output@@QAEHXZ 10029fcf f i libucrt:output.obj
 0001:00029132       ?process@?$output_processor@_WV?$stream_output_adapter@_W@__crt_stdio_output@@V?$format_validation_base@_WV?$stream_output_adapter@_W@__crt_stdio_output@@@2@@__crt_stdio_output@@QAEHXZ 1002a132 f i libucrt:output.obj
 0001:000292ae       ?process@?$output_processor@_WV?$stream_output_adapter@_W@__crt_stdio_output@@V?$positional_parameter_base@_WV?$stream_output_adapter@_W@__crt_stdio_output@@@2@@__crt_stdio_output@@QAEHXZ 1002a2ae f i libucrt:output.obj
 0001:00029466       ?process@?$output_processor@_WV?$stream_output_adapter@_W@__crt_stdio_output@@V?$standard_base@_WV?$stream_output_adapter@_W@__crt_stdio_output@@@2@@__crt_stdio_output@@QAEHXZ 1002a466 f i libucrt:output.obj
 0001:000295ce       ?process@?$output_processor@_WV?$string_output_adapter@_W@__crt_stdio_output@@V?$format_validation_base@_WV?$string_output_adapter@_W@__crt_stdio_output@@@2@@__crt_stdio_output@@QAEHXZ 1002a5ce f i libucrt:output.obj
 0001:0002974a       ?process@?$output_processor@_WV?$string_output_adapter@_W@__crt_stdio_output@@V?$positional_parameter_base@_WV?$string_output_adapter@_W@__crt_stdio_output@@@2@@__crt_stdio_output@@QAEHXZ 1002a74a f i libucrt:output.obj
 0001:00029902       ?process@?$output_processor@_WV?$string_output_adapter@_W@__crt_stdio_output@@V?$standard_base@_WV?$string_output_adapter@_W@__crt_stdio_output@@@2@@__crt_stdio_output@@QAEHXZ 1002a902 f i libucrt:output.obj
 0001:00029a6a       ?public_stream@__crt_stdio_stream@@QBEPAU_iobuf@@XZ 1002aa6a f i libucrt:output.obj
 0001:00029a6d       ?set_flag@?$output_processor@DV?$stream_output_adapter@D@__crt_stdio_output@@V?$format_validation_base@DV?$stream_output_adapter@D@__crt_stdio_output@@@2@@__crt_stdio_output@@AAEXI@Z 1002aa6d f i libucrt:output.obj
 0001:00029a7f       ?set_flag@?$output_processor@DV?$stream_output_adapter@D@__crt_stdio_output@@V?$positional_parameter_base@DV?$stream_output_adapter@D@__crt_stdio_output@@@2@@__crt_stdio_output@@AAEXI@Z 1002aa7f f i libucrt:output.obj
 0001:00029a91       ?set_flag@?$output_processor@DV?$stream_output_adapter@D@__crt_stdio_output@@V?$standard_base@DV?$stream_output_adapter@D@__crt_stdio_output@@@2@@__crt_stdio_output@@AAEXI@Z 1002aa91 f i libucrt:output.obj
 0001:00029aa3       ?set_flag@?$output_processor@DV?$string_output_adapter@D@__crt_stdio_output@@V?$format_validation_base@DV?$string_output_adapter@D@__crt_stdio_output@@@2@@__crt_stdio_output@@AAEXI@Z 1002aaa3 f i libucrt:output.obj
 0001:00029ab5       ?set_flag@?$output_processor@DV?$string_output_adapter@D@__crt_stdio_output@@V?$positional_parameter_base@DV?$string_output_adapter@D@__crt_stdio_output@@@2@@__crt_stdio_output@@AAEXI@Z 1002aab5 f i libucrt:output.obj
 0001:00029ac7       ?set_flag@?$output_processor@DV?$string_output_adapter@D@__crt_stdio_output@@V?$standard_base@DV?$string_output_adapter@D@__crt_stdio_output@@@2@@__crt_stdio_output@@AAEXI@Z 1002aac7 f i libucrt:output.obj
 0001:00029ad9       ?set_flag@?$output_processor@_WV?$stream_output_adapter@_W@__crt_stdio_output@@V?$format_validation_base@_WV?$stream_output_adapter@_W@__crt_stdio_output@@@2@@__crt_stdio_output@@AAEXI@Z 1002aad9 f i libucrt:output.obj
 0001:00029aeb       ?set_flag@?$output_processor@_WV?$stream_output_adapter@_W@__crt_stdio_output@@V?$positional_parameter_base@_WV?$stream_output_adapter@_W@__crt_stdio_output@@@2@@__crt_stdio_output@@AAEXI@Z 1002aaeb f i libucrt:output.obj
 0001:00029afd       ?set_flag@?$output_processor@_WV?$stream_output_adapter@_W@__crt_stdio_output@@V?$standard_base@_WV?$stream_output_adapter@_W@__crt_stdio_output@@@2@@__crt_stdio_output@@AAEXI@Z 1002aafd f i libucrt:output.obj
 0001:00029b0f       ?set_flag@?$output_processor@_WV?$string_output_adapter@_W@__crt_stdio_output@@V?$format_validation_base@_WV?$string_output_adapter@_W@__crt_stdio_output@@@2@@__crt_stdio_output@@AAEXI@Z 1002ab0f f i libucrt:output.obj
 0001:00029b21       ?set_flag@?$output_processor@_WV?$string_output_adapter@_W@__crt_stdio_output@@V?$positional_parameter_base@_WV?$string_output_adapter@_W@__crt_stdio_output@@@2@@__crt_stdio_output@@AAEXI@Z 1002ab21 f i libucrt:output.obj
 0001:00029b33       ?set_flag@?$output_processor@_WV?$string_output_adapter@_W@__crt_stdio_output@@V?$standard_base@_WV?$string_output_adapter@_W@__crt_stdio_output@@@2@@__crt_stdio_output@@AAEXI@Z 1002ab33 f i libucrt:output.obj
 0001:00029b45       ?should_format@?$positional_parameter_base@DV?$stream_output_adapter@D@__crt_stdio_output@@@__crt_stdio_output@@IAE_NXZ 1002ab45 f i libucrt:output.obj
 0001:00029b60       ?should_format@?$positional_parameter_base@DV?$string_output_adapter@D@__crt_stdio_output@@@__crt_stdio_output@@IAE_NXZ 1002ab60 f i libucrt:output.obj
 0001:00029b7b       ?should_format@?$positional_parameter_base@_WV?$stream_output_adapter@_W@__crt_stdio_output@@@__crt_stdio_output@@IAE_NXZ 1002ab7b f i libucrt:output.obj
 0001:00029b96       ?should_format@?$positional_parameter_base@_WV?$string_output_adapter@_W@__crt_stdio_output@@@__crt_stdio_output@@IAE_NXZ 1002ab96 f i libucrt:output.obj
 0001:00029bb1       ?should_format@?$standard_base@DV?$stream_output_adapter@D@__crt_stdio_output@@@__crt_stdio_output@@IAE_NXZ 1002abb1 f i libucrt:output.obj
 0001:00029bb4       ?should_format@?$standard_base@DV?$string_output_adapter@D@__crt_stdio_output@@@__crt_stdio_output@@IAE_NXZ 1002abb4 f i libucrt:output.obj
 0001:00029bb7       ?should_format@?$standard_base@_WV?$stream_output_adapter@_W@__crt_stdio_output@@@__crt_stdio_output@@IAE_NXZ 1002abb7 f i libucrt:output.obj
 0001:00029bba       ?should_format@?$standard_base@_WV?$string_output_adapter@_W@__crt_stdio_output@@@__crt_stdio_output@@IAE_NXZ 1002abba f i libucrt:output.obj
 0001:00029bbd       ?should_skip_normal_state_processing@?$positional_parameter_base@DV?$stream_output_adapter@D@__crt_stdio_output@@@__crt_stdio_output@@IAE_NXZ 1002abbd f i libucrt:output.obj
 0001:00029bef       ?should_skip_normal_state_processing@?$positional_parameter_base@DV?$string_output_adapter@D@__crt_stdio_output@@@__crt_stdio_output@@IAE_NXZ 1002abef f i libucrt:output.obj
 0001:00029c21       ?should_skip_normal_state_processing@?$positional_parameter_base@_WV?$stream_output_adapter@_W@__crt_stdio_output@@@__crt_stdio_output@@IAE_NXZ 1002ac21 f i libucrt:output.obj
 0001:00029c53       ?should_skip_normal_state_processing@?$positional_parameter_base@_WV?$string_output_adapter@_W@__crt_stdio_output@@@__crt_stdio_output@@IAE_NXZ 1002ac53 f i libucrt:output.obj
 0001:00029c85       ?should_skip_normal_state_processing@?$standard_base@DV?$stream_output_adapter@D@__crt_stdio_output@@@__crt_stdio_output@@IAE_NXZ 1002ac85 f i libucrt:output.obj
 0001:00029c88       ?should_skip_normal_state_processing@?$standard_base@DV?$string_output_adapter@D@__crt_stdio_output@@@__crt_stdio_output@@IAE_NXZ 1002ac88 f i libucrt:output.obj
 0001:00029c8b       ?should_skip_normal_state_processing@?$standard_base@_WV?$stream_output_adapter@_W@__crt_stdio_output@@@__crt_stdio_output@@IAE_NXZ 1002ac8b f i libucrt:output.obj
 0001:00029c8e       ?should_skip_normal_state_processing@?$standard_base@_WV?$string_output_adapter@_W@__crt_stdio_output@@@__crt_stdio_output@@IAE_NXZ 1002ac8e f i libucrt:output.obj
 0001:00029c91       ?should_skip_type_state_output@?$positional_parameter_base@DV?$stream_output_adapter@D@__crt_stdio_output@@@__crt_stdio_output@@IBE_NXZ 1002ac91 f i libucrt:output.obj
 0001:00029cad       ?should_skip_type_state_output@?$positional_parameter_base@DV?$string_output_adapter@D@__crt_stdio_output@@@__crt_stdio_output@@IBE_NXZ 1002acad f i libucrt:output.obj
 0001:00029cc9       ?should_skip_type_state_output@?$positional_parameter_base@_WV?$stream_output_adapter@_W@__crt_stdio_output@@@__crt_stdio_output@@IBE_NXZ 1002acc9 f i libucrt:output.obj
 0001:00029ce5       ?should_skip_type_state_output@?$positional_parameter_base@_WV?$string_output_adapter@_W@__crt_stdio_output@@@__crt_stdio_output@@IBE_NXZ 1002ace5 f i libucrt:output.obj
 0001:00029d01       ?should_skip_type_state_output@?$standard_base@DV?$stream_output_adapter@D@__crt_stdio_output@@@__crt_stdio_output@@IBE_NXZ 1002ad01 f i libucrt:output.obj
 0001:00029d04       ?should_skip_type_state_output@?$standard_base@DV?$string_output_adapter@D@__crt_stdio_output@@@__crt_stdio_output@@IBE_NXZ 1002ad04 f i libucrt:output.obj
 0001:00029d07       ?should_skip_type_state_output@?$standard_base@_WV?$stream_output_adapter@_W@__crt_stdio_output@@@__crt_stdio_output@@IBE_NXZ 1002ad07 f i libucrt:output.obj
 0001:00029d0a       ?should_skip_type_state_output@?$standard_base@_WV?$string_output_adapter@_W@__crt_stdio_output@@@__crt_stdio_output@@IBE_NXZ 1002ad0a f i libucrt:output.obj
 0001:00029d0d       ?state_case_dot@?$output_processor@DV?$stream_output_adapter@D@__crt_stdio_output@@V?$format_validation_base@DV?$stream_output_adapter@D@__crt_stdio_output@@@2@@__crt_stdio_output@@AAE_NXZ 1002ad0d f i libucrt:output.obj
 0001:00029d14       ?state_case_dot@?$output_processor@DV?$stream_output_adapter@D@__crt_stdio_output@@V?$positional_parameter_base@DV?$stream_output_adapter@D@__crt_stdio_output@@@2@@__crt_stdio_output@@AAE_NXZ 1002ad14 f i libucrt:output.obj
 0001:00029d1b       ?state_case_dot@?$output_processor@DV?$stream_output_adapter@D@__crt_stdio_output@@V?$standard_base@DV?$stream_output_adapter@D@__crt_stdio_output@@@2@@__crt_stdio_output@@AAE_NXZ 1002ad1b f i libucrt:output.obj
 0001:00029d22       ?state_case_dot@?$output_processor@DV?$string_output_adapter@D@__crt_stdio_output@@V?$format_validation_base@DV?$string_output_adapter@D@__crt_stdio_output@@@2@@__crt_stdio_output@@AAE_NXZ 1002ad22 f i libucrt:output.obj
 0001:00029d29       ?state_case_dot@?$output_processor@DV?$string_output_adapter@D@__crt_stdio_output@@V?$positional_parameter_base@DV?$string_output_adapter@D@__crt_stdio_output@@@2@@__crt_stdio_output@@AAE_NXZ 1002ad29 f i libucrt:output.obj
 0001:00029d30       ?state_case_dot@?$output_processor@DV?$string_output_adapter@D@__crt_stdio_output@@V?$standard_base@DV?$string_output_adapter@D@__crt_stdio_output@@@2@@__crt_stdio_output@@AAE_NXZ 1002ad30 f i libucrt:output.obj
 0001:00029d37       ?state_case_dot@?$output_processor@_WV?$stream_output_adapter@_W@__crt_stdio_output@@V?$format_validation_base@_WV?$stream_output_adapter@_W@__crt_stdio_output@@@2@@__crt_stdio_output@@AAE_NXZ 1002ad37 f i libucrt:output.obj
 0001:00029d3e       ?state_case_dot@?$output_processor@_WV?$stream_output_adapter@_W@__crt_stdio_output@@V?$positional_parameter_base@_WV?$stream_output_adapter@_W@__crt_stdio_output@@@2@@__crt_stdio_output@@AAE_NXZ 1002ad3e f i libucrt:output.obj
 0001:00029d45       ?state_case_dot@?$output_processor@_WV?$stream_output_adapter@_W@__crt_stdio_output@@V?$standard_base@_WV?$stream_output_adapter@_W@__crt_stdio_output@@@2@@__crt_stdio_output@@AAE_NXZ 1002ad45 f i libucrt:output.obj
 0001:00029d4c       ?state_case_dot@?$output_processor@_WV?$string_output_adapter@_W@__crt_stdio_output@@V?$format_validation_base@_WV?$string_output_adapter@_W@__crt_stdio_output@@@2@@__crt_stdio_output@@AAE_NXZ 1002ad4c f i libucrt:output.obj
 0001:00029d53       ?state_case_dot@?$output_processor@_WV?$string_output_adapter@_W@__crt_stdio_output@@V?$positional_parameter_base@_WV?$string_output_adapter@_W@__crt_stdio_output@@@2@@__crt_stdio_output@@AAE_NXZ 1002ad53 f i libucrt:output.obj
 0001:00029d5a       ?state_case_dot@?$output_processor@_WV?$string_output_adapter@_W@__crt_stdio_output@@V?$standard_base@_WV?$string_output_adapter@_W@__crt_stdio_output@@@2@@__crt_stdio_output@@AAE_NXZ 1002ad5a f i libucrt:output.obj
 0001:00029d61       ?state_case_flag@?$output_processor@DV?$stream_output_adapter@D@__crt_stdio_output@@V?$format_validation_base@DV?$stream_output_adapter@D@__crt_stdio_output@@@2@@__crt_stdio_output@@AAE_NXZ 1002ad61 f i libucrt:output.obj
 0001:00029dad       ?state_case_flag@?$output_processor@DV?$stream_output_adapter@D@__crt_stdio_output@@V?$positional_parameter_base@DV?$stream_output_adapter@D@__crt_stdio_output@@@2@@__crt_stdio_output@@AAE_NXZ 1002adad f i libucrt:output.obj
 0001:00029df9       ?state_case_flag@?$output_processor@DV?$stream_output_adapter@D@__crt_stdio_output@@V?$standard_base@DV?$stream_output_adapter@D@__crt_stdio_output@@@2@@__crt_stdio_output@@AAE_NXZ 1002adf9 f i libucrt:output.obj
 0001:00029e45       ?state_case_flag@?$output_processor@DV?$string_output_adapter@D@__crt_stdio_output@@V?$format_validation_base@DV?$string_output_adapter@D@__crt_stdio_output@@@2@@__crt_stdio_output@@AAE_NXZ 1002ae45 f i libucrt:output.obj
 0001:00029e91       ?state_case_flag@?$output_processor@DV?$string_output_adapter@D@__crt_stdio_output@@V?$positional_parameter_base@DV?$string_output_adapter@D@__crt_stdio_output@@@2@@__crt_stdio_output@@AAE_NXZ 1002ae91 f i libucrt:output.obj
 0001:00029edd       ?state_case_flag@?$output_processor@DV?$string_output_adapter@D@__crt_stdio_output@@V?$standard_base@DV?$string_output_adapter@D@__crt_stdio_output@@@2@@__crt_stdio_output@@AAE_NXZ 1002aedd f i libucrt:output.obj
 0001:00029f29       ?state_case_flag@?$output_processor@_WV?$stream_output_adapter@_W@__crt_stdio_output@@V?$format_validation_base@_WV?$stream_output_adapter@_W@__crt_stdio_output@@@2@@__crt_stdio_output@@AAE_NXZ 1002af29 f i libucrt:output.obj
 0001:00029f75       ?state_case_flag@?$output_processor@_WV?$stream_output_adapter@_W@__crt_stdio_output@@V?$positional_parameter_base@_WV?$stream_output_adapter@_W@__crt_stdio_output@@@2@@__crt_stdio_output@@AAE_NXZ 1002af75 f i libucrt:output.obj
 0001:00029fc1       ?state_case_flag@?$output_processor@_WV?$stream_output_adapter@_W@__crt_stdio_output@@V?$standard_base@_WV?$stream_output_adapter@_W@__crt_stdio_output@@@2@@__crt_stdio_output@@AAE_NXZ 1002afc1 f i libucrt:output.obj
 0001:0002a00d       ?state_case_flag@?$output_processor@_WV?$string_output_adapter@_W@__crt_stdio_output@@V?$format_validation_base@_WV?$string_output_adapter@_W@__crt_stdio_output@@@2@@__crt_stdio_output@@AAE_NXZ 1002b00d f i libucrt:output.obj
 0001:0002a059       ?state_case_flag@?$output_processor@_WV?$string_output_adapter@_W@__crt_stdio_output@@V?$positional_parameter_base@_WV?$string_output_adapter@_W@__crt_stdio_output@@@2@@__crt_stdio_output@@AAE_NXZ 1002b059 f i libucrt:output.obj
 0001:0002a0a5       ?state_case_flag@?$output_processor@_WV?$string_output_adapter@_W@__crt_stdio_output@@V?$standard_base@_WV?$string_output_adapter@_W@__crt_stdio_output@@@2@@__crt_stdio_output@@AAE_NXZ 1002b0a5 f i libucrt:output.obj
 0001:0002a0f1       ?state_case_normal@?$output_processor@DV?$stream_output_adapter@D@__crt_stdio_output@@V?$format_validation_base@DV?$stream_output_adapter@D@__crt_stdio_output@@@2@@__crt_stdio_output@@AAE_NXZ 1002b0f1 f i libucrt:output.obj
 0001:0002a117       ?state_case_normal@?$output_processor@DV?$stream_output_adapter@D@__crt_stdio_output@@V?$positional_parameter_base@DV?$stream_output_adapter@D@__crt_stdio_output@@@2@@__crt_stdio_output@@AAE_NXZ 1002b117 f i libucrt:output.obj
 0001:0002a154       ?state_case_normal@?$output_processor@DV?$stream_output_adapter@D@__crt_stdio_output@@V?$standard_base@DV?$stream_output_adapter@D@__crt_stdio_output@@@2@@__crt_stdio_output@@AAE_NXZ 1002b154 f i libucrt:output.obj
 0001:0002a17a       ?state_case_normal@?$output_processor@DV?$string_output_adapter@D@__crt_stdio_output@@V?$format_validation_base@DV?$string_output_adapter@D@__crt_stdio_output@@@2@@__crt_stdio_output@@AAE_NXZ 1002b17a f i libucrt:output.obj
 0001:0002a1a0       ?state_case_normal@?$output_processor@DV?$string_output_adapter@D@__crt_stdio_output@@V?$positional_parameter_base@DV?$string_output_adapter@D@__crt_stdio_output@@@2@@__crt_stdio_output@@AAE_NXZ 1002b1a0 f i libucrt:output.obj
 0001:0002a1dd       ?state_case_normal@?$output_processor@DV?$string_output_adapter@D@__crt_stdio_output@@V?$standard_base@DV?$string_output_adapter@D@__crt_stdio_output@@@2@@__crt_stdio_output@@AAE_NXZ 1002b1dd f i libucrt:output.obj
 0001:0002a203       ?state_case_normal@?$output_processor@_WV?$stream_output_adapter@_W@__crt_stdio_output@@V?$format_validation_base@_WV?$stream_output_adapter@_W@__crt_stdio_output@@@2@@__crt_stdio_output@@AAE_NXZ 1002b203 f i libucrt:output.obj
 0001:0002a229       ?state_case_normal@?$output_processor@_WV?$stream_output_adapter@_W@__crt_stdio_output@@V?$positional_parameter_base@_WV?$stream_output_adapter@_W@__crt_stdio_output@@@2@@__crt_stdio_output@@AAE_NXZ 1002b229 f i libucrt:output.obj
 0001:0002a266       ?state_case_normal@?$output_processor@_WV?$stream_output_adapter@_W@__crt_stdio_output@@V?$standard_base@_WV?$stream_output_adapter@_W@__crt_stdio_output@@@2@@__crt_stdio_output@@AAE_NXZ 1002b266 f i libucrt:output.obj
 0001:0002a28c       ?state_case_normal@?$output_processor@_WV?$string_output_adapter@_W@__crt_stdio_output@@V?$format_validation_base@_WV?$string_output_adapter@_W@__crt_stdio_output@@@2@@__crt_stdio_output@@AAE_NXZ 1002b28c f i libucrt:output.obj
 0001:0002a2b2       ?state_case_normal@?$output_processor@_WV?$string_output_adapter@_W@__crt_stdio_output@@V?$positional_parameter_base@_WV?$string_output_adapter@_W@__crt_stdio_output@@@2@@__crt_stdio_output@@AAE_NXZ 1002b2b2 f i libucrt:output.obj
 0001:0002a2ef       ?state_case_normal@?$output_processor@_WV?$string_output_adapter@_W@__crt_stdio_output@@V?$standard_base@_WV?$string_output_adapter@_W@__crt_stdio_output@@@2@@__crt_stdio_output@@AAE_NXZ 1002b2ef f i libucrt:output.obj
 0001:0002a315       ?state_case_normal_common@?$output_processor@DV?$stream_output_adapter@D@__crt_stdio_output@@V?$format_validation_base@DV?$stream_output_adapter@D@__crt_stdio_output@@@2@@__crt_stdio_output@@AAE_NXZ 1002b315 f i libucrt:output.obj
 0001:0002a349       ?state_case_normal_common@?$output_processor@DV?$stream_output_adapter@D@__crt_stdio_output@@V?$positional_parameter_base@DV?$stream_output_adapter@D@__crt_stdio_output@@@2@@__crt_stdio_output@@AAE_NXZ 1002b349 f i libucrt:output.obj
 0001:0002a37d       ?state_case_normal_common@?$output_processor@DV?$stream_output_adapter@D@__crt_stdio_output@@V?$standard_base@DV?$stream_output_adapter@D@__crt_stdio_output@@@2@@__crt_stdio_output@@AAE_NXZ 1002b37d f i libucrt:output.obj
 0001:0002a3b1       ?state_case_normal_common@?$output_processor@DV?$string_output_adapter@D@__crt_stdio_output@@V?$format_validation_base@DV?$string_output_adapter@D@__crt_stdio_output@@@2@@__crt_stdio_output@@AAE_NXZ 1002b3b1 f i libucrt:output.obj
 0001:0002a3e5       ?state_case_normal_common@?$output_processor@DV?$string_output_adapter@D@__crt_stdio_output@@V?$positional_parameter_base@DV?$string_output_adapter@D@__crt_stdio_output@@@2@@__crt_stdio_output@@AAE_NXZ 1002b3e5 f i libucrt:output.obj
 0001:0002a419       ?state_case_normal_common@?$output_processor@DV?$string_output_adapter@D@__crt_stdio_output@@V?$standard_base@DV?$string_output_adapter@D@__crt_stdio_output@@@2@@__crt_stdio_output@@AAE_NXZ 1002b419 f i libucrt:output.obj
 0001:0002a44d       ?state_case_normal_common@?$output_processor@_WV?$stream_output_adapter@_W@__crt_stdio_output@@V?$format_validation_base@_WV?$stream_output_adapter@_W@__crt_stdio_output@@@2@@__crt_stdio_output@@AAE_NXZ 1002b44d f i libucrt:output.obj
 0001:0002a46e       ?state_case_normal_common@?$output_processor@_WV?$stream_output_adapter@_W@__crt_stdio_output@@V?$positional_parameter_base@_WV?$stream_output_adapter@_W@__crt_stdio_output@@@2@@__crt_stdio_output@@AAE_NXZ 1002b46e f i libucrt:output.obj
 0001:0002a48f       ?state_case_normal_common@?$output_processor@_WV?$stream_output_adapter@_W@__crt_stdio_output@@V?$standard_base@_WV?$stream_output_adapter@_W@__crt_stdio_output@@@2@@__crt_stdio_output@@AAE_NXZ 1002b48f f i libucrt:output.obj
 0001:0002a4b0       ?state_case_normal_common@?$output_processor@_WV?$string_output_adapter@_W@__crt_stdio_output@@V?$format_validation_base@_WV?$string_output_adapter@_W@__crt_stdio_output@@@2@@__crt_stdio_output@@AAE_NXZ 1002b4b0 f i libucrt:output.obj
 0001:0002a4d1       ?state_case_normal_common@?$output_processor@_WV?$string_output_adapter@_W@__crt_stdio_output@@V?$positional_parameter_base@_WV?$string_output_adapter@_W@__crt_stdio_output@@@2@@__crt_stdio_output@@AAE_NXZ 1002b4d1 f i libucrt:output.obj
 0001:0002a4f2       ?state_case_normal_common@?$output_processor@_WV?$string_output_adapter@_W@__crt_stdio_output@@V?$standard_base@_WV?$string_output_adapter@_W@__crt_stdio_output@@@2@@__crt_stdio_output@@AAE_NXZ 1002b4f2 f i libucrt:output.obj
 0001:0002a513       ?state_case_normal_tchar@?$output_processor@DV?$stream_output_adapter@D@__crt_stdio_output@@V?$format_validation_base@DV?$stream_output_adapter@D@__crt_stdio_output@@@2@@__crt_stdio_output@@AAE_ND@Z 1002b513 f i libucrt:output.obj
 0001:0002a58c       ?state_case_normal_tchar@?$output_processor@DV?$stream_output_adapter@D@__crt_stdio_output@@V?$positional_parameter_base@DV?$stream_output_adapter@D@__crt_stdio_output@@@2@@__crt_stdio_output@@AAE_ND@Z 1002b58c f i libucrt:output.obj
 0001:0002a605       ?state_case_normal_tchar@?$output_processor@DV?$stream_output_adapter@D@__crt_stdio_output@@V?$standard_base@DV?$stream_output_adapter@D@__crt_stdio_output@@@2@@__crt_stdio_output@@AAE_ND@Z 1002b605 f i libucrt:output.obj
 0001:0002a67e       ?state_case_normal_tchar@?$output_processor@DV?$string_output_adapter@D@__crt_stdio_output@@V?$format_validation_base@DV?$string_output_adapter@D@__crt_stdio_output@@@2@@__crt_stdio_output@@AAE_ND@Z 1002b67e f i libucrt:output.obj
 0001:0002a6f7       ?state_case_normal_tchar@?$output_processor@DV?$string_output_adapter@D@__crt_stdio_output@@V?$positional_parameter_base@DV?$string_output_adapter@D@__crt_stdio_output@@@2@@__crt_stdio_output@@AAE_ND@Z 1002b6f7 f i libucrt:output.obj
 0001:0002a770       ?state_case_normal_tchar@?$output_processor@DV?$string_output_adapter@D@__crt_stdio_output@@V?$standard_base@DV?$string_output_adapter@D@__crt_stdio_output@@@2@@__crt_stdio_output@@AAE_ND@Z 1002b770 f i libucrt:output.obj
 0001:0002a7e9       ?state_case_normal_tchar@?$output_processor@_WV?$stream_output_adapter@_W@__crt_stdio_output@@V?$format_validation_base@_WV?$stream_output_adapter@_W@__crt_stdio_output@@@2@@__crt_stdio_output@@AAE_N_W@Z 1002b7e9 f i libucrt:output.obj
 0001:0002a7f4       ?state_case_normal_tchar@?$output_processor@_WV?$stream_output_adapter@_W@__crt_stdio_output@@V?$positional_parameter_base@_WV?$stream_output_adapter@_W@__crt_stdio_output@@@2@@__crt_stdio_output@@AAE_N_W@Z 1002b7f4 f i libucrt:output.obj
 0001:0002a7ff       ?state_case_normal_tchar@?$output_processor@_WV?$stream_output_adapter@_W@__crt_stdio_output@@V?$standard_base@_WV?$stream_output_adapter@_W@__crt_stdio_output@@@2@@__crt_stdio_output@@AAE_N_W@Z 1002b7ff f i libucrt:output.obj
 0001:0002a80a       ?state_case_normal_tchar@?$output_processor@_WV?$string_output_adapter@_W@__crt_stdio_output@@V?$format_validation_base@_WV?$string_output_adapter@_W@__crt_stdio_output@@@2@@__crt_stdio_output@@AAE_N_W@Z 1002b80a f i libucrt:output.obj
 0001:0002a815       ?state_case_normal_tchar@?$output_processor@_WV?$string_output_adapter@_W@__crt_stdio_output@@V?$positional_parameter_base@_WV?$string_output_adapter@_W@__crt_stdio_output@@@2@@__crt_stdio_output@@AAE_N_W@Z 1002b815 f i libucrt:output.obj
 0001:0002a820       ?state_case_normal_tchar@?$output_processor@_WV?$string_output_adapter@_W@__crt_stdio_output@@V?$standard_base@_WV?$string_output_adapter@_W@__crt_stdio_output@@@2@@__crt_stdio_output@@AAE_N_W@Z 1002b820 f i libucrt:output.obj
 0001:0002a82b       ?state_case_percent@?$output_processor@DV?$stream_output_adapter@D@__crt_stdio_output@@V?$format_validation_base@DV?$stream_output_adapter@D@__crt_stdio_output@@@2@@__crt_stdio_output@@AAE_NXZ 1002b82b f i libucrt:output.obj
 0001:0002a849       ?state_case_percent@?$output_processor@DV?$stream_output_adapter@D@__crt_stdio_output@@V?$positional_parameter_base@DV?$stream_output_adapter@D@__crt_stdio_output@@@2@@__crt_stdio_output@@AAE_NXZ 1002b849 f i libucrt:output.obj
 0001:0002a867       ?state_case_percent@?$output_processor@DV?$stream_output_adapter@D@__crt_stdio_output@@V?$standard_base@DV?$stream_output_adapter@D@__crt_stdio_output@@@2@@__crt_stdio_output@@AAE_NXZ 1002b867 f i libucrt:output.obj
 0001:0002a885       ?state_case_percent@?$output_processor@DV?$string_output_adapter@D@__crt_stdio_output@@V?$format_validation_base@DV?$string_output_adapter@D@__crt_stdio_output@@@2@@__crt_stdio_output@@AAE_NXZ 1002b885 f i libucrt:output.obj
 0001:0002a8a3       ?state_case_percent@?$output_processor@DV?$string_output_adapter@D@__crt_stdio_output@@V?$positional_parameter_base@DV?$string_output_adapter@D@__crt_stdio_output@@@2@@__crt_stdio_output@@AAE_NXZ 1002b8a3 f i libucrt:output.obj
 0001:0002a8c1       ?state_case_percent@?$output_processor@DV?$string_output_adapter@D@__crt_stdio_output@@V?$standard_base@DV?$string_output_adapter@D@__crt_stdio_output@@@2@@__crt_stdio_output@@AAE_NXZ 1002b8c1 f i libucrt:output.obj
 0001:0002a8df       ?state_case_percent@?$output_processor@_WV?$stream_output_adapter@_W@__crt_stdio_output@@V?$format_validation_base@_WV?$stream_output_adapter@_W@__crt_stdio_output@@@2@@__crt_stdio_output@@AAE_NXZ 1002b8df f i libucrt:output.obj
 0001:0002a8fd       ?state_case_percent@?$output_processor@_WV?$stream_output_adapter@_W@__crt_stdio_output@@V?$positional_parameter_base@_WV?$stream_output_adapter@_W@__crt_stdio_output@@@2@@__crt_stdio_output@@AAE_NXZ 1002b8fd f i libucrt:output.obj
 0001:0002a91b       ?state_case_percent@?$output_processor@_WV?$stream_output_adapter@_W@__crt_stdio_output@@V?$standard_base@_WV?$stream_output_adapter@_W@__crt_stdio_output@@@2@@__crt_stdio_output@@AAE_NXZ 1002b91b f i libucrt:output.obj
 0001:0002a939       ?state_case_percent@?$output_processor@_WV?$string_output_adapter@_W@__crt_stdio_output@@V?$format_validation_base@_WV?$string_output_adapter@_W@__crt_stdio_output@@@2@@__crt_stdio_output@@AAE_NXZ 1002b939 f i libucrt:output.obj
 0001:0002a957       ?state_case_percent@?$output_processor@_WV?$string_output_adapter@_W@__crt_stdio_output@@V?$positional_parameter_base@_WV?$string_output_adapter@_W@__crt_stdio_output@@@2@@__crt_stdio_output@@AAE_NXZ 1002b957 f i libucrt:output.obj
 0001:0002a975       ?state_case_percent@?$output_processor@_WV?$string_output_adapter@_W@__crt_stdio_output@@V?$standard_base@_WV?$string_output_adapter@_W@__crt_stdio_output@@@2@@__crt_stdio_output@@AAE_NXZ 1002b975 f i libucrt:output.obj
 0001:0002a993       ?state_case_precision@?$output_processor@DV?$stream_output_adapter@D@__crt_stdio_output@@V?$format_validation_base@DV?$stream_output_adapter@D@__crt_stdio_output@@@2@@__crt_stdio_output@@AAE_NXZ 1002b993 f i libucrt:output.obj
 0001:0002a9c5       ?state_case_precision@?$output_processor@DV?$stream_output_adapter@D@__crt_stdio_output@@V?$positional_parameter_base@DV?$stream_output_adapter@D@__crt_stdio_output@@@2@@__crt_stdio_output@@AAE_NXZ 1002b9c5 f i libucrt:output.obj
 0001:0002aa0d       ?state_case_precision@?$output_processor@DV?$stream_output_adapter@D@__crt_stdio_output@@V?$standard_base@DV?$stream_output_adapter@D@__crt_stdio_output@@@2@@__crt_stdio_output@@AAE_NXZ 1002ba0d f i libucrt:output.obj
 0001:0002aa3f       ?state_case_precision@?$output_processor@DV?$string_output_adapter@D@__crt_stdio_output@@V?$format_validation_base@DV?$string_output_adapter@D@__crt_stdio_output@@@2@@__crt_stdio_output@@AAE_NXZ 1002ba3f f i libucrt:output.obj
 0001:0002aa71       ?state_case_precision@?$output_processor@DV?$string_output_adapter@D@__crt_stdio_output@@V?$positional_parameter_base@DV?$string_output_adapter@D@__crt_stdio_output@@@2@@__crt_stdio_output@@AAE_NXZ 1002ba71 f i libucrt:output.obj
 0001:0002aab9       ?state_case_precision@?$output_processor@DV?$string_output_adapter@D@__crt_stdio_output@@V?$standard_base@DV?$string_output_adapter@D@__crt_stdio_output@@@2@@__crt_stdio_output@@AAE_NXZ 1002bab9 f i libucrt:output.obj
 0001:0002aaeb       ?state_case_precision@?$output_processor@_WV?$stream_output_adapter@_W@__crt_stdio_output@@V?$format_validation_base@_WV?$stream_output_adapter@_W@__crt_stdio_output@@@2@@__crt_stdio_output@@AAE_NXZ 1002baeb f i libucrt:output.obj
 0001:0002ab1e       ?state_case_precision@?$output_processor@_WV?$stream_output_adapter@_W@__crt_stdio_output@@V?$positional_parameter_base@_WV?$stream_output_adapter@_W@__crt_stdio_output@@@2@@__crt_stdio_output@@AAE_NXZ 1002bb1e f i libucrt:output.obj
 0001:0002ab67       ?state_case_precision@?$output_processor@_WV?$stream_output_adapter@_W@__crt_stdio_output@@V?$standard_base@_WV?$stream_output_adapter@_W@__crt_stdio_output@@@2@@__crt_stdio_output@@AAE_NXZ 1002bb67 f i libucrt:output.obj
 0001:0002ab9a       ?state_case_precision@?$output_processor@_WV?$string_output_adapter@_W@__crt_stdio_output@@V?$format_validation_base@_WV?$string_output_adapter@_W@__crt_stdio_output@@@2@@__crt_stdio_output@@AAE_NXZ 1002bb9a f i libucrt:output.obj
 0001:0002abcd       ?state_case_precision@?$output_processor@_WV?$string_output_adapter@_W@__crt_stdio_output@@V?$positional_parameter_base@_WV?$string_output_adapter@_W@__crt_stdio_output@@@2@@__crt_stdio_output@@AAE_NXZ 1002bbcd f i libucrt:output.obj
 0001:0002ac16       ?state_case_precision@?$output_processor@_WV?$string_output_adapter@_W@__crt_stdio_output@@V?$standard_base@_WV?$string_output_adapter@_W@__crt_stdio_output@@@2@@__crt_stdio_output@@AAE_NXZ 1002bc16 f i libucrt:output.obj
 0001:0002ac49       ?state_case_size@?$output_processor@DV?$stream_output_adapter@D@__crt_stdio_output@@V?$format_validation_base@DV?$stream_output_adapter@D@__crt_stdio_output@@@2@@__crt_stdio_output@@AAE_NXZ 1002bc49 f i libucrt:output.obj
 0001:0002ae0c       ?state_case_size@?$output_processor@DV?$stream_output_adapter@D@__crt_stdio_output@@V?$positional_parameter_base@DV?$stream_output_adapter@D@__crt_stdio_output@@@2@@__crt_stdio_output@@AAE_NXZ 1002be0c f i libucrt:output.obj
 0001:0002afcf       ?state_case_size@?$output_processor@DV?$stream_output_adapter@D@__crt_stdio_output@@V?$standard_base@DV?$stream_output_adapter@D@__crt_stdio_output@@@2@@__crt_stdio_output@@AAE_NXZ 1002bfcf f i libucrt:output.obj
 0001:0002b192       ?state_case_size@?$output_processor@DV?$string_output_adapter@D@__crt_stdio_output@@V?$format_validation_base@DV?$string_output_adapter@D@__crt_stdio_output@@@2@@__crt_stdio_output@@AAE_NXZ 1002c192 f i libucrt:output.obj
 0001:0002b355       ?state_case_size@?$output_processor@DV?$string_output_adapter@D@__crt_stdio_output@@V?$positional_parameter_base@DV?$string_output_adapter@D@__crt_stdio_output@@@2@@__crt_stdio_output@@AAE_NXZ 1002c355 f i libucrt:output.obj
 0001:0002b518       ?state_case_size@?$output_processor@DV?$string_output_adapter@D@__crt_stdio_output@@V?$standard_base@DV?$string_output_adapter@D@__crt_stdio_output@@@2@@__crt_stdio_output@@AAE_NXZ 1002c518 f i libucrt:output.obj
 0001:0002b6db       ?state_case_size@?$output_processor@_WV?$stream_output_adapter@_W@__crt_stdio_output@@V?$format_validation_base@_WV?$stream_output_adapter@_W@__crt_stdio_output@@@2@@__crt_stdio_output@@AAE_NXZ 1002c6db f i libucrt:output.obj
 0001:0002b8b6       ?state_case_size@?$output_processor@_WV?$stream_output_adapter@_W@__crt_stdio_output@@V?$positional_parameter_base@_WV?$stream_output_adapter@_W@__crt_stdio_output@@@2@@__crt_stdio_output@@AAE_NXZ 1002c8b6 f i libucrt:output.obj
 0001:0002ba91       ?state_case_size@?$output_processor@_WV?$stream_output_adapter@_W@__crt_stdio_output@@V?$standard_base@_WV?$stream_output_adapter@_W@__crt_stdio_output@@@2@@__crt_stdio_output@@AAE_NXZ 1002ca91 f i libucrt:output.obj
 0001:0002bc6c       ?state_case_size@?$output_processor@_WV?$string_output_adapter@_W@__crt_stdio_output@@V?$format_validation_base@_WV?$string_output_adapter@_W@__crt_stdio_output@@@2@@__crt_stdio_output@@AAE_NXZ 1002cc6c f i libucrt:output.obj
 0001:0002be47       ?state_case_size@?$output_processor@_WV?$string_output_adapter@_W@__crt_stdio_output@@V?$positional_parameter_base@_WV?$string_output_adapter@_W@__crt_stdio_output@@@2@@__crt_stdio_output@@AAE_NXZ 1002ce47 f i libucrt:output.obj
 0001:0002c022       ?state_case_size@?$output_processor@_WV?$string_output_adapter@_W@__crt_stdio_output@@V?$standard_base@_WV?$string_output_adapter@_W@__crt_stdio_output@@@2@@__crt_stdio_output@@AAE_NXZ 1002d022 f i libucrt:output.obj
 0001:0002c1fd       ?state_case_type@?$output_processor@DV?$stream_output_adapter@D@__crt_stdio_output@@V?$format_validation_base@DV?$stream_output_adapter@D@__crt_stdio_output@@@2@@__crt_stdio_output@@AAE_NXZ 1002d1fd f i libucrt:output.obj
 0001:0002c4b7       ?state_case_type@?$output_processor@DV?$stream_output_adapter@D@__crt_stdio_output@@V?$positional_parameter_base@DV?$stream_output_adapter@D@__crt_stdio_output@@@2@@__crt_stdio_output@@AAE_NXZ 1002d4b7 f i libucrt:output.obj
 0001:0002c77f       ?state_case_type@?$output_processor@DV?$stream_output_adapter@D@__crt_stdio_output@@V?$standard_base@DV?$stream_output_adapter@D@__crt_stdio_output@@@2@@__crt_stdio_output@@AAE_NXZ 1002d77f f i libucrt:output.obj
 0001:0002ca39       ?state_case_type@?$output_processor@DV?$string_output_adapter@D@__crt_stdio_output@@V?$format_validation_base@DV?$string_output_adapter@D@__crt_stdio_output@@@2@@__crt_stdio_output@@AAE_NXZ 1002da39 f i libucrt:output.obj
 0001:0002ccf3       ?state_case_type@?$output_processor@DV?$string_output_adapter@D@__crt_stdio_output@@V?$positional_parameter_base@DV?$string_output_adapter@D@__crt_stdio_output@@@2@@__crt_stdio_output@@AAE_NXZ 1002dcf3 f i libucrt:output.obj
 0001:0002cfbb       ?state_case_type@?$output_processor@DV?$string_output_adapter@D@__crt_stdio_output@@V?$standard_base@DV?$string_output_adapter@D@__crt_stdio_output@@@2@@__crt_stdio_output@@AAE_NXZ 1002dfbb f i libucrt:output.obj
 0001:0002d275       ?state_case_type@?$output_processor@_WV?$stream_output_adapter@_W@__crt_stdio_output@@V?$format_validation_base@_WV?$stream_output_adapter@_W@__crt_stdio_output@@@2@@__crt_stdio_output@@AAE_NXZ 1002e275 f i libucrt:output.obj
 0001:0002d569       ?state_case_type@?$output_processor@_WV?$stream_output_adapter@_W@__crt_stdio_output@@V?$positional_parameter_base@_WV?$stream_output_adapter@_W@__crt_stdio_output@@@2@@__crt_stdio_output@@AAE_NXZ 1002e569 f i libucrt:output.obj
 0001:0002d870       ?state_case_type@?$output_processor@_WV?$stream_output_adapter@_W@__crt_stdio_output@@V?$standard_base@_WV?$stream_output_adapter@_W@__crt_stdio_output@@@2@@__crt_stdio_output@@AAE_NXZ 1002e870 f i libucrt:output.obj
 0001:0002db64       ?state_case_type@?$output_processor@_WV?$string_output_adapter@_W@__crt_stdio_output@@V?$format_validation_base@_WV?$string_output_adapter@_W@__crt_stdio_output@@@2@@__crt_stdio_output@@AAE_NXZ 1002eb64 f i libucrt:output.obj
 0001:0002de58       ?state_case_type@?$output_processor@_WV?$string_output_adapter@_W@__crt_stdio_output@@V?$positional_parameter_base@_WV?$string_output_adapter@_W@__crt_stdio_output@@@2@@__crt_stdio_output@@AAE_NXZ 1002ee58 f i libucrt:output.obj
 0001:0002e15f       ?state_case_type@?$output_processor@_WV?$string_output_adapter@_W@__crt_stdio_output@@V?$standard_base@_WV?$string_output_adapter@_W@__crt_stdio_output@@@2@@__crt_stdio_output@@AAE_NXZ 1002f15f f i libucrt:output.obj
 0001:0002e453       ?state_case_width@?$output_processor@DV?$stream_output_adapter@D@__crt_stdio_output@@V?$format_validation_base@DV?$stream_output_adapter@D@__crt_stdio_output@@@2@@__crt_stdio_output@@AAE_NXZ 1002f453 f i libucrt:output.obj
 0001:0002e488       ?state_case_width@?$output_processor@DV?$stream_output_adapter@D@__crt_stdio_output@@V?$positional_parameter_base@DV?$stream_output_adapter@D@__crt_stdio_output@@@2@@__crt_stdio_output@@AAE_NXZ 1002f488 f i libucrt:output.obj
 0001:0002e4d8       ?state_case_width@?$output_processor@DV?$stream_output_adapter@D@__crt_stdio_output@@V?$standard_base@DV?$stream_output_adapter@D@__crt_stdio_output@@@2@@__crt_stdio_output@@AAE_NXZ 1002f4d8 f i libucrt:output.obj
 0001:0002e50d       ?state_case_width@?$output_processor@DV?$string_output_adapter@D@__crt_stdio_output@@V?$format_validation_base@DV?$string_output_adapter@D@__crt_stdio_output@@@2@@__crt_stdio_output@@AAE_NXZ 1002f50d f i libucrt:output.obj
 0001:0002e542       ?state_case_width@?$output_processor@DV?$string_output_adapter@D@__crt_stdio_output@@V?$positional_parameter_base@DV?$string_output_adapter@D@__crt_stdio_output@@@2@@__crt_stdio_output@@AAE_NXZ 1002f542 f i libucrt:output.obj
 0001:0002e592       ?state_case_width@?$output_processor@DV?$string_output_adapter@D@__crt_stdio_output@@V?$standard_base@DV?$string_output_adapter@D@__crt_stdio_output@@@2@@__crt_stdio_output@@AAE_NXZ 1002f592 f i libucrt:output.obj
 0001:0002e5c7       ?state_case_width@?$output_processor@_WV?$stream_output_adapter@_W@__crt_stdio_output@@V?$format_validation_base@_WV?$stream_output_adapter@_W@__crt_stdio_output@@@2@@__crt_stdio_output@@AAE_NXZ 1002f5c7 f i libucrt:output.obj
 0001:0002e5fe       ?state_case_width@?$output_processor@_WV?$stream_output_adapter@_W@__crt_stdio_output@@V?$positional_parameter_base@_WV?$stream_output_adapter@_W@__crt_stdio_output@@@2@@__crt_stdio_output@@AAE_NXZ 1002f5fe f i libucrt:output.obj
 0001:0002e64f       ?state_case_width@?$output_processor@_WV?$stream_output_adapter@_W@__crt_stdio_output@@V?$standard_base@_WV?$stream_output_adapter@_W@__crt_stdio_output@@@2@@__crt_stdio_output@@AAE_NXZ 1002f64f f i libucrt:output.obj
 0001:0002e686       ?state_case_width@?$output_processor@_WV?$string_output_adapter@_W@__crt_stdio_output@@V?$format_validation_base@_WV?$string_output_adapter@_W@__crt_stdio_output@@@2@@__crt_stdio_output@@AAE_NXZ 1002f686 f i libucrt:output.obj
 0001:0002e6bd       ?state_case_width@?$output_processor@_WV?$string_output_adapter@_W@__crt_stdio_output@@V?$positional_parameter_base@_WV?$string_output_adapter@_W@__crt_stdio_output@@@2@@__crt_stdio_output@@AAE_NXZ 1002f6bd f i libucrt:output.obj
 0001:0002e70e       ?state_case_width@?$output_processor@_WV?$string_output_adapter@_W@__crt_stdio_output@@V?$standard_base@_WV?$string_output_adapter@_W@__crt_stdio_output@@@2@@__crt_stdio_output@@AAE_NXZ 1002f70e f i libucrt:output.obj
 0001:0002e745       ?state_count@?$format_validation_base@DV?$stream_output_adapter@D@__crt_stdio_output@@@__crt_stdio_output@@KAIXZ 1002f745 f i libucrt:output.obj
 0001:0002e749       ?state_count@?$format_validation_base@DV?$string_output_adapter@D@__crt_stdio_output@@@__crt_stdio_output@@KAIXZ 1002f749 f i libucrt:output.obj
 0001:0002e74d       ?state_count@?$format_validation_base@_WV?$stream_output_adapter@_W@__crt_stdio_output@@@__crt_stdio_output@@KAIXZ 1002f74d f i libucrt:output.obj
 0001:0002e751       ?state_count@?$format_validation_base@_WV?$string_output_adapter@_W@__crt_stdio_output@@@__crt_stdio_output@@KAIXZ 1002f751 f i libucrt:output.obj
 0001:0002e755       ?state_count@?$standard_base@DV?$stream_output_adapter@D@__crt_stdio_output@@@__crt_stdio_output@@KAIXZ 1002f755 f i libucrt:output.obj
 0001:0002e759       ?state_count@?$standard_base@DV?$string_output_adapter@D@__crt_stdio_output@@@__crt_stdio_output@@KAIXZ 1002f759 f i libucrt:output.obj
 0001:0002e75d       ?state_count@?$standard_base@_WV?$stream_output_adapter@_W@__crt_stdio_output@@@__crt_stdio_output@@KAIXZ 1002f75d f i libucrt:output.obj
 0001:0002e761       ?state_count@?$standard_base@_WV?$string_output_adapter@_W@__crt_stdio_output@@@__crt_stdio_output@@KAIXZ 1002f761 f i libucrt:output.obj
 0001:0002e765       ?state_transition_table@?$format_validation_base@DV?$stream_output_adapter@D@__crt_stdio_output@@@__crt_stdio_output@@KAPBEXZ 1002f765 f i libucrt:output.obj
 0001:0002e76b       ?state_transition_table@?$format_validation_base@DV?$string_output_adapter@D@__crt_stdio_output@@@__crt_stdio_output@@KAPBEXZ 1002f76b f i libucrt:output.obj
 0001:0002e771       ?state_transition_table@?$format_validation_base@_WV?$stream_output_adapter@_W@__crt_stdio_output@@@__crt_stdio_output@@KAPBEXZ 1002f771 f i libucrt:output.obj
 0001:0002e777       ?state_transition_table@?$format_validation_base@_WV?$string_output_adapter@_W@__crt_stdio_output@@@__crt_stdio_output@@KAPBEXZ 1002f777 f i libucrt:output.obj
 0001:0002e77d       ?state_transition_table@?$standard_base@DV?$stream_output_adapter@D@__crt_stdio_output@@@__crt_stdio_output@@KAPBEXZ 1002f77d f i libucrt:output.obj
 0001:0002e783       ?state_transition_table@?$standard_base@DV?$string_output_adapter@D@__crt_stdio_output@@@__crt_stdio_output@@KAPBEXZ 1002f783 f i libucrt:output.obj
 0001:0002e789       ?state_transition_table@?$standard_base@_WV?$stream_output_adapter@_W@__crt_stdio_output@@@__crt_stdio_output@@KAPBEXZ 1002f789 f i libucrt:output.obj
 0001:0002e78f       ?state_transition_table@?$standard_base@_WV?$string_output_adapter@_W@__crt_stdio_output@@@__crt_stdio_output@@KAPBEXZ 1002f78f f i libucrt:output.obj
 0001:0002e795       ?to_integer_size@__crt_stdio_output@@YAIW4length_modifier@1@@Z 1002f795 f i libucrt:output.obj
 0001:0002e808       ?type_case_X@?$output_processor@DV?$stream_output_adapter@D@__crt_stdio_output@@V?$format_validation_base@DV?$stream_output_adapter@D@__crt_stdio_output@@@2@@__crt_stdio_output@@AAE_NXZ 1002f808 f i libucrt:output.obj
 0001:0002e814       ?type_case_X@?$output_processor@DV?$stream_output_adapter@D@__crt_stdio_output@@V?$positional_parameter_base@DV?$stream_output_adapter@D@__crt_stdio_output@@@2@@__crt_stdio_output@@AAE_NXZ 1002f814 f i libucrt:output.obj
 0001:0002e820       ?type_case_X@?$output_processor@DV?$stream_output_adapter@D@__crt_stdio_output@@V?$standard_base@DV?$stream_output_adapter@D@__crt_stdio_output@@@2@@__crt_stdio_output@@AAE_NXZ 1002f820 f i libucrt:output.obj
 0001:0002e82c       ?type_case_X@?$output_processor@DV?$string_output_adapter@D@__crt_stdio_output@@V?$format_validation_base@DV?$string_output_adapter@D@__crt_stdio_output@@@2@@__crt_stdio_output@@AAE_NXZ 1002f82c f i libucrt:output.obj
 0001:0002e838       ?type_case_X@?$output_processor@DV?$string_output_adapter@D@__crt_stdio_output@@V?$positional_parameter_base@DV?$string_output_adapter@D@__crt_stdio_output@@@2@@__crt_stdio_output@@AAE_NXZ 1002f838 f i libucrt:output.obj
 0001:0002e844       ?type_case_X@?$output_processor@DV?$string_output_adapter@D@__crt_stdio_output@@V?$standard_base@DV?$string_output_adapter@D@__crt_stdio_output@@@2@@__crt_stdio_output@@AAE_NXZ 1002f844 f i libucrt:output.obj
 0001:0002e850       ?type_case_X@?$output_processor@_WV?$stream_output_adapter@_W@__crt_stdio_output@@V?$format_validation_base@_WV?$stream_output_adapter@_W@__crt_stdio_output@@@2@@__crt_stdio_output@@AAE_NXZ 1002f850 f i libucrt:output.obj
 0001:0002e85c       ?type_case_X@?$output_processor@_WV?$stream_output_adapter@_W@__crt_stdio_output@@V?$positional_parameter_base@_WV?$stream_output_adapter@_W@__crt_stdio_output@@@2@@__crt_stdio_output@@AAE_NXZ 1002f85c f i libucrt:output.obj
 0001:0002e868       ?type_case_X@?$output_processor@_WV?$stream_output_adapter@_W@__crt_stdio_output@@V?$standard_base@_WV?$stream_output_adapter@_W@__crt_stdio_output@@@2@@__crt_stdio_output@@AAE_NXZ 1002f868 f i libucrt:output.obj
 0001:0002e874       ?type_case_X@?$output_processor@_WV?$string_output_adapter@_W@__crt_stdio_output@@V?$format_validation_base@_WV?$string_output_adapter@_W@__crt_stdio_output@@@2@@__crt_stdio_output@@AAE_NXZ 1002f874 f i libucrt:output.obj
 0001:0002e880       ?type_case_X@?$output_processor@_WV?$string_output_adapter@_W@__crt_stdio_output@@V?$positional_parameter_base@_WV?$string_output_adapter@_W@__crt_stdio_output@@@2@@__crt_stdio_output@@AAE_NXZ 1002f880 f i libucrt:output.obj
 0001:0002e88c       ?type_case_X@?$output_processor@_WV?$string_output_adapter@_W@__crt_stdio_output@@V?$standard_base@_WV?$string_output_adapter@_W@__crt_stdio_output@@@2@@__crt_stdio_output@@AAE_NXZ 1002f88c f i libucrt:output.obj
 0001:0002e898       ?type_case_Z@?$output_processor@DV?$stream_output_adapter@D@__crt_stdio_output@@V?$format_validation_base@DV?$stream_output_adapter@D@__crt_stdio_output@@@2@@__crt_stdio_output@@AAE_NXZ 1002f898 f i libucrt:output.obj
 0001:0002e913       ?type_case_Z@?$output_processor@DV?$stream_output_adapter@D@__crt_stdio_output@@V?$positional_parameter_base@DV?$stream_output_adapter@D@__crt_stdio_output@@@2@@__crt_stdio_output@@AAE_NXZ 1002f913 f i libucrt:output.obj
 0001:0002e9b1       ?type_case_Z@?$output_processor@DV?$stream_output_adapter@D@__crt_stdio_output@@V?$standard_base@DV?$stream_output_adapter@D@__crt_stdio_output@@@2@@__crt_stdio_output@@AAE_NXZ 1002f9b1 f i libucrt:output.obj
 0001:0002ea2c       ?type_case_Z@?$output_processor@DV?$string_output_adapter@D@__crt_stdio_output@@V?$format_validation_base@DV?$string_output_adapter@D@__crt_stdio_output@@@2@@__crt_stdio_output@@AAE_NXZ 1002fa2c f i libucrt:output.obj
 0001:0002eaa7       ?type_case_Z@?$output_processor@DV?$string_output_adapter@D@__crt_stdio_output@@V?$positional_parameter_base@DV?$string_output_adapter@D@__crt_stdio_output@@@2@@__crt_stdio_output@@AAE_NXZ 1002faa7 f i libucrt:output.obj
 0001:0002eb45       ?type_case_Z@?$output_processor@DV?$string_output_adapter@D@__crt_stdio_output@@V?$standard_base@DV?$string_output_adapter@D@__crt_stdio_output@@@2@@__crt_stdio_output@@AAE_NXZ 1002fb45 f i libucrt:output.obj
 0001:0002ebc0       ?type_case_Z@?$output_processor@_WV?$stream_output_adapter@_W@__crt_stdio_output@@V?$format_validation_base@_WV?$stream_output_adapter@_W@__crt_stdio_output@@@2@@__crt_stdio_output@@AAE_NXZ 1002fbc0 f i libucrt:output.obj
 0001:0002ec3b       ?type_case_Z@?$output_processor@_WV?$stream_output_adapter@_W@__crt_stdio_output@@V?$positional_parameter_base@_WV?$stream_output_adapter@_W@__crt_stdio_output@@@2@@__crt_stdio_output@@AAE_NXZ 1002fc3b f i libucrt:output.obj
 0001:0002ecd9       ?type_case_Z@?$output_processor@_WV?$stream_output_adapter@_W@__crt_stdio_output@@V?$standard_base@_WV?$stream_output_adapter@_W@__crt_stdio_output@@@2@@__crt_stdio_output@@AAE_NXZ 1002fcd9 f i libucrt:output.obj
 0001:0002ed54       ?type_case_Z@?$output_processor@_WV?$string_output_adapter@_W@__crt_stdio_output@@V?$format_validation_base@_WV?$string_output_adapter@_W@__crt_stdio_output@@@2@@__crt_stdio_output@@AAE_NXZ 1002fd54 f i libucrt:output.obj
 0001:0002edcf       ?type_case_Z@?$output_processor@_WV?$string_output_adapter@_W@__crt_stdio_output@@V?$positional_parameter_base@_WV?$string_output_adapter@_W@__crt_stdio_output@@@2@@__crt_stdio_output@@AAE_NXZ 1002fdcf f i libucrt:output.obj
 0001:0002ee6d       ?type_case_Z@?$output_processor@_WV?$string_output_adapter@_W@__crt_stdio_output@@V?$standard_base@_WV?$string_output_adapter@_W@__crt_stdio_output@@@2@@__crt_stdio_output@@AAE_NXZ 1002fe6d f i libucrt:output.obj
 0001:0002eee8       ?type_case_a@?$output_processor@DV?$stream_output_adapter@D@__crt_stdio_output@@V?$format_validation_base@DV?$stream_output_adapter@D@__crt_stdio_output@@@2@@__crt_stdio_output@@AAE_NXZ 1002fee8 f i libucrt:output.obj
 0001:0002f098       ?type_case_a@?$output_processor@DV?$stream_output_adapter@D@__crt_stdio_output@@V?$positional_parameter_base@DV?$stream_output_adapter@D@__crt_stdio_output@@@2@@__crt_stdio_output@@AAE_NXZ 10030098 f i libucrt:output.obj
 0001:0002f26f       ?type_case_a@?$output_processor@DV?$stream_output_adapter@D@__crt_stdio_output@@V?$standard_base@DV?$stream_output_adapter@D@__crt_stdio_output@@@2@@__crt_stdio_output@@AAE_NXZ 1003026f f i libucrt:output.obj
 0001:0002f41f       ?type_case_a@?$output_processor@DV?$string_output_adapter@D@__crt_stdio_output@@V?$format_validation_base@DV?$string_output_adapter@D@__crt_stdio_output@@@2@@__crt_stdio_output@@AAE_NXZ 1003041f f i libucrt:output.obj
 0001:0002f5cf       ?type_case_a@?$output_processor@DV?$string_output_adapter@D@__crt_stdio_output@@V?$positional_parameter_base@DV?$string_output_adapter@D@__crt_stdio_output@@@2@@__crt_stdio_output@@AAE_NXZ 100305cf f i libucrt:output.obj
 0001:0002f7a6       ?type_case_a@?$output_processor@DV?$string_output_adapter@D@__crt_stdio_output@@V?$standard_base@DV?$string_output_adapter@D@__crt_stdio_output@@@2@@__crt_stdio_output@@AAE_NXZ 100307a6 f i libucrt:output.obj
 0001:0002f956       ?type_case_a@?$output_processor@_WV?$stream_output_adapter@_W@__crt_stdio_output@@V?$format_validation_base@_WV?$stream_output_adapter@_W@__crt_stdio_output@@@2@@__crt_stdio_output@@AAE_NXZ 10030956 f i libucrt:output.obj
 0001:0002fb24       ?type_case_a@?$output_processor@_WV?$stream_output_adapter@_W@__crt_stdio_output@@V?$positional_parameter_base@_WV?$stream_output_adapter@_W@__crt_stdio_output@@@2@@__crt_stdio_output@@AAE_NXZ 10030b24 f i libucrt:output.obj
 0001:0002fd19       ?type_case_a@?$output_processor@_WV?$stream_output_adapter@_W@__crt_stdio_output@@V?$standard_base@_WV?$stream_output_adapter@_W@__crt_stdio_output@@@2@@__crt_stdio_output@@AAE_NXZ 10030d19 f i libucrt:output.obj
 0001:0002fee7       ?type_case_a@?$output_processor@_WV?$string_output_adapter@_W@__crt_stdio_output@@V?$format_validation_base@_WV?$string_output_adapter@_W@__crt_stdio_output@@@2@@__crt_stdio_output@@AAE_NXZ 10030ee7 f i libucrt:output.obj
 0001:000300b5       ?type_case_a@?$output_processor@_WV?$string_output_adapter@_W@__crt_stdio_output@@V?$positional_parameter_base@_WV?$string_output_adapter@_W@__crt_stdio_output@@@2@@__crt_stdio_output@@AAE_NXZ 100310b5 f i libucrt:output.obj
 0001:000302aa       ?type_case_a@?$output_processor@_WV?$string_output_adapter@_W@__crt_stdio_output@@V?$standard_base@_WV?$string_output_adapter@_W@__crt_stdio_output@@@2@@__crt_stdio_output@@AAE_NXZ 100312aa f i libucrt:output.obj
 0001:00030478       ?type_case_c@?$output_processor@DV?$stream_output_adapter@D@__crt_stdio_output@@V?$format_validation_base@DV?$stream_output_adapter@D@__crt_stdio_output@@@2@@__crt_stdio_output@@AAE_NXZ 10031478 f i libucrt:output.obj
 0001:00030482       ?type_case_c@?$output_processor@DV?$stream_output_adapter@D@__crt_stdio_output@@V?$positional_parameter_base@DV?$stream_output_adapter@D@__crt_stdio_output@@@2@@__crt_stdio_output@@AAE_NXZ 10031482 f i libucrt:output.obj
 0001:0003048c       ?type_case_c@?$output_processor@DV?$stream_output_adapter@D@__crt_stdio_output@@V?$standard_base@DV?$stream_output_adapter@D@__crt_stdio_output@@@2@@__crt_stdio_output@@AAE_NXZ 1003148c f i libucrt:output.obj
 0001:00030496       ?type_case_c@?$output_processor@DV?$string_output_adapter@D@__crt_stdio_output@@V?$format_validation_base@DV?$string_output_adapter@D@__crt_stdio_output@@@2@@__crt_stdio_output@@AAE_NXZ 10031496 f i libucrt:output.obj
 0001:000304a0       ?type_case_c@?$output_processor@DV?$string_output_adapter@D@__crt_stdio_output@@V?$positional_parameter_base@DV?$string_output_adapter@D@__crt_stdio_output@@@2@@__crt_stdio_output@@AAE_NXZ 100314a0 f i libucrt:output.obj
 0001:000304aa       ?type_case_c@?$output_processor@DV?$string_output_adapter@D@__crt_stdio_output@@V?$standard_base@DV?$string_output_adapter@D@__crt_stdio_output@@@2@@__crt_stdio_output@@AAE_NXZ 100314aa f i libucrt:output.obj
 0001:000304b4       ?type_case_c@?$output_processor@_WV?$stream_output_adapter@_W@__crt_stdio_output@@V?$format_validation_base@_WV?$stream_output_adapter@_W@__crt_stdio_output@@@2@@__crt_stdio_output@@AAE_NXZ 100314b4 f i libucrt:output.obj
 0001:000304be       ?type_case_c@?$output_processor@_WV?$stream_output_adapter@_W@__crt_stdio_output@@V?$positional_parameter_base@_WV?$stream_output_adapter@_W@__crt_stdio_output@@@2@@__crt_stdio_output@@AAE_NXZ 100314be f i libucrt:output.obj
 0001:000304c8       ?type_case_c@?$output_processor@_WV?$stream_output_adapter@_W@__crt_stdio_output@@V?$standard_base@_WV?$stream_output_adapter@_W@__crt_stdio_output@@@2@@__crt_stdio_output@@AAE_NXZ 100314c8 f i libucrt:output.obj
 0001:000304d2       ?type_case_c@?$output_processor@_WV?$string_output_adapter@_W@__crt_stdio_output@@V?$format_validation_base@_WV?$string_output_adapter@_W@__crt_stdio_output@@@2@@__crt_stdio_output@@AAE_NXZ 100314d2 f i libucrt:output.obj
 0001:000304dc       ?type_case_c@?$output_processor@_WV?$string_output_adapter@_W@__crt_stdio_output@@V?$positional_parameter_base@_WV?$string_output_adapter@_W@__crt_stdio_output@@@2@@__crt_stdio_output@@AAE_NXZ 100314dc f i libucrt:output.obj
 0001:000304e6       ?type_case_c@?$output_processor@_WV?$string_output_adapter@_W@__crt_stdio_output@@V?$standard_base@_WV?$string_output_adapter@_W@__crt_stdio_output@@@2@@__crt_stdio_output@@AAE_NXZ 100314e6 f i libucrt:output.obj
 0001:000304f0       ?type_case_c_tchar@?$output_processor@DV?$stream_output_adapter@D@__crt_stdio_output@@V?$format_validation_base@DV?$stream_output_adapter@D@__crt_stdio_output@@@2@@__crt_stdio_output@@AAE_ND@Z 100314f0 f i libucrt:output.obj
 0001:000305a4       ?type_case_c_tchar@?$output_processor@DV?$stream_output_adapter@D@__crt_stdio_output@@V?$positional_parameter_base@DV?$stream_output_adapter@D@__crt_stdio_output@@@2@@__crt_stdio_output@@AAE_ND@Z 100315a4 f i libucrt:output.obj
 0001:00030694       ?type_case_c_tchar@?$output_processor@DV?$stream_output_adapter@D@__crt_stdio_output@@V?$standard_base@DV?$stream_output_adapter@D@__crt_stdio_output@@@2@@__crt_stdio_output@@AAE_ND@Z 10031694 f i libucrt:output.obj
 0001:00030748       ?type_case_c_tchar@?$output_processor@DV?$string_output_adapter@D@__crt_stdio_output@@V?$format_validation_base@DV?$string_output_adapter@D@__crt_stdio_output@@@2@@__crt_stdio_output@@AAE_ND@Z 10031748 f i libucrt:output.obj
 0001:000307fc       ?type_case_c_tchar@?$output_processor@DV?$string_output_adapter@D@__crt_stdio_output@@V?$positional_parameter_base@DV?$string_output_adapter@D@__crt_stdio_output@@@2@@__crt_stdio_output@@AAE_ND@Z 100317fc f i libucrt:output.obj
 0001:000308ec       ?type_case_c_tchar@?$output_processor@DV?$string_output_adapter@D@__crt_stdio_output@@V?$standard_base@DV?$string_output_adapter@D@__crt_stdio_output@@@2@@__crt_stdio_output@@AAE_ND@Z 100318ec f i libucrt:output.obj
 0001:000309a0       ?type_case_c_tchar@?$output_processor@_WV?$stream_output_adapter@_W@__crt_stdio_output@@V?$format_validation_base@_WV?$stream_output_adapter@_W@__crt_stdio_output@@@2@@__crt_stdio_output@@AAE_N_W@Z 100319a0 f i libucrt:output.obj
 0001:00030a5e       ?type_case_c_tchar@?$output_processor@_WV?$stream_output_adapter@_W@__crt_stdio_output@@V?$positional_parameter_base@_WV?$stream_output_adapter@_W@__crt_stdio_output@@@2@@__crt_stdio_output@@AAE_N_W@Z 10031a5e f i libucrt:output.obj
 0001:00030b38       ?type_case_c_tchar@?$output_processor@_WV?$stream_output_adapter@_W@__crt_stdio_output@@V?$standard_base@_WV?$stream_output_adapter@_W@__crt_stdio_output@@@2@@__crt_stdio_output@@AAE_N_W@Z 10031b38 f i libucrt:output.obj
 0001:00030bf6       ?type_case_c_tchar@?$output_processor@_WV?$string_output_adapter@_W@__crt_stdio_output@@V?$format_validation_base@_WV?$string_output_adapter@_W@__crt_stdio_output@@@2@@__crt_stdio_output@@AAE_N_W@Z 10031bf6 f i libucrt:output.obj
 0001:00030cb4       ?type_case_c_tchar@?$output_processor@_WV?$string_output_adapter@_W@__crt_stdio_output@@V?$positional_parameter_base@_WV?$string_output_adapter@_W@__crt_stdio_output@@@2@@__crt_stdio_output@@AAE_N_W@Z 10031cb4 f i libucrt:output.obj
 0001:00030d8e       ?type_case_c_tchar@?$output_processor@_WV?$string_output_adapter@_W@__crt_stdio_output@@V?$standard_base@_WV?$string_output_adapter@_W@__crt_stdio_output@@@2@@__crt_stdio_output@@AAE_N_W@Z 10031d8e f i libucrt:output.obj
 0001:00030e4c       ?type_case_d@?$output_processor@DV?$stream_output_adapter@D@__crt_stdio_output@@V?$format_validation_base@DV?$stream_output_adapter@D@__crt_stdio_output@@@2@@__crt_stdio_output@@AAE_NXZ 10031e4c f i libucrt:output.obj
 0001:00030e5d       ?type_case_d@?$output_processor@DV?$stream_output_adapter@D@__crt_stdio_output@@V?$positional_parameter_base@DV?$stream_output_adapter@D@__crt_stdio_output@@@2@@__crt_stdio_output@@AAE_NXZ 10031e5d f i libucrt:output.obj
 0001:00030e6e       ?type_case_d@?$output_processor@DV?$stream_output_adapter@D@__crt_stdio_output@@V?$standard_base@DV?$stream_output_adapter@D@__crt_stdio_output@@@2@@__crt_stdio_output@@AAE_NXZ 10031e6e f i libucrt:output.obj
 0001:00030e7f       ?type_case_d@?$output_processor@DV?$string_output_adapter@D@__crt_stdio_output@@V?$format_validation_base@DV?$string_output_adapter@D@__crt_stdio_output@@@2@@__crt_stdio_output@@AAE_NXZ 10031e7f f i libucrt:output.obj
 0001:00030e90       ?type_case_d@?$output_processor@DV?$string_output_adapter@D@__crt_stdio_output@@V?$positional_parameter_base@DV?$string_output_adapter@D@__crt_stdio_output@@@2@@__crt_stdio_output@@AAE_NXZ 10031e90 f i libucrt:output.obj
 0001:00030ea1       ?type_case_d@?$output_processor@DV?$string_output_adapter@D@__crt_stdio_output@@V?$standard_base@DV?$string_output_adapter@D@__crt_stdio_output@@@2@@__crt_stdio_output@@AAE_NXZ 10031ea1 f i libucrt:output.obj
 0001:00030eb2       ?type_case_d@?$output_processor@_WV?$stream_output_adapter@_W@__crt_stdio_output@@V?$format_validation_base@_WV?$stream_output_adapter@_W@__crt_stdio_output@@@2@@__crt_stdio_output@@AAE_NXZ 10031eb2 f i libucrt:output.obj
 0001:00030ec3       ?type_case_d@?$output_processor@_WV?$stream_output_adapter@_W@__crt_stdio_output@@V?$positional_parameter_base@_WV?$stream_output_adapter@_W@__crt_stdio_output@@@2@@__crt_stdio_output@@AAE_NXZ 10031ec3 f i libucrt:output.obj
 0001:00030ed4       ?type_case_d@?$output_processor@_WV?$stream_output_adapter@_W@__crt_stdio_output@@V?$standard_base@_WV?$stream_output_adapter@_W@__crt_stdio_output@@@2@@__crt_stdio_output@@AAE_NXZ 10031ed4 f i libucrt:output.obj
 0001:00030ee5       ?type_case_d@?$output_processor@_WV?$string_output_adapter@_W@__crt_stdio_output@@V?$format_validation_base@_WV?$string_output_adapter@_W@__crt_stdio_output@@@2@@__crt_stdio_output@@AAE_NXZ 10031ee5 f i libucrt:output.obj
 0001:00030ef6       ?type_case_d@?$output_processor@_WV?$string_output_adapter@_W@__crt_stdio_output@@V?$positional_parameter_base@_WV?$string_output_adapter@_W@__crt_stdio_output@@@2@@__crt_stdio_output@@AAE_NXZ 10031ef6 f i libucrt:output.obj
 0001:00030f07       ?type_case_d@?$output_processor@_WV?$string_output_adapter@_W@__crt_stdio_output@@V?$standard_base@_WV?$string_output_adapter@_W@__crt_stdio_output@@@2@@__crt_stdio_output@@AAE_NXZ 10031f07 f i libucrt:output.obj
 0001:00030f18       ?type_case_integer@?$output_processor@DV?$stream_output_adapter@D@__crt_stdio_output@@V?$format_validation_base@DV?$stream_output_adapter@D@__crt_stdio_output@@@2@@__crt_stdio_output@@AAE_NI_N@Z 10031f18 f i libucrt:output.obj
 0001:000310b4       ?type_case_integer@?$output_processor@DV?$stream_output_adapter@D@__crt_stdio_output@@V?$positional_parameter_base@DV?$stream_output_adapter@D@__crt_stdio_output@@@2@@__crt_stdio_output@@AAE_NI_N@Z 100320b4 f i libucrt:output.obj
 0001:00031291       ?type_case_integer@?$output_processor@DV?$stream_output_adapter@D@__crt_stdio_output@@V?$standard_base@DV?$stream_output_adapter@D@__crt_stdio_output@@@2@@__crt_stdio_output@@AAE_NI_N@Z 10032291 f i libucrt:output.obj
 0001:0003142d       ?type_case_integer@?$output_processor@DV?$string_output_adapter@D@__crt_stdio_output@@V?$format_validation_base@DV?$string_output_adapter@D@__crt_stdio_output@@@2@@__crt_stdio_output@@AAE_NI_N@Z 1003242d f i libucrt:output.obj
 0001:000315c9       ?type_case_integer@?$output_processor@DV?$string_output_adapter@D@__crt_stdio_output@@V?$positional_parameter_base@DV?$string_output_adapter@D@__crt_stdio_output@@@2@@__crt_stdio_output@@AAE_NI_N@Z 100325c9 f i libucrt:output.obj
 0001:000317a6       ?type_case_integer@?$output_processor@DV?$string_output_adapter@D@__crt_stdio_output@@V?$standard_base@DV?$string_output_adapter@D@__crt_stdio_output@@@2@@__crt_stdio_output@@AAE_NI_N@Z 100327a6 f i libucrt:output.obj
 0001:00031942       ?type_case_integer@?$output_processor@_WV?$stream_output_adapter@_W@__crt_stdio_output@@V?$format_validation_base@_WV?$stream_output_adapter@_W@__crt_stdio_output@@@2@@__crt_stdio_output@@AAE_NI_N@Z 10032942 f i libucrt:output.obj
 0001:00031ade       ?type_case_integer@?$output_processor@_WV?$stream_output_adapter@_W@__crt_stdio_output@@V?$positional_parameter_base@_WV?$stream_output_adapter@_W@__crt_stdio_output@@@2@@__crt_stdio_output@@AAE_NI_N@Z 10032ade f i libucrt:output.obj
 0001:00031cbb       ?type_case_integer@?$output_processor@_WV?$stream_output_adapter@_W@__crt_stdio_output@@V?$standard_base@_WV?$stream_output_adapter@_W@__crt_stdio_output@@@2@@__crt_stdio_output@@AAE_NI_N@Z 10032cbb f i libucrt:output.obj
 0001:00031e57       ?type_case_integer@?$output_processor@_WV?$string_output_adapter@_W@__crt_stdio_output@@V?$format_validation_base@_WV?$string_output_adapter@_W@__crt_stdio_output@@@2@@__crt_stdio_output@@AAE_NI_N@Z 10032e57 f i libucrt:output.obj
 0001:00031ff3       ?type_case_integer@?$output_processor@_WV?$string_output_adapter@_W@__crt_stdio_output@@V?$positional_parameter_base@_WV?$string_output_adapter@_W@__crt_stdio_output@@@2@@__crt_stdio_output@@AAE_NI_N@Z 10032ff3 f i libucrt:output.obj
 0001:000321d0       ?type_case_integer@?$output_processor@_WV?$string_output_adapter@_W@__crt_stdio_output@@V?$standard_base@_WV?$string_output_adapter@_W@__crt_stdio_output@@@2@@__crt_stdio_output@@AAE_NI_N@Z 100331d0 f i libucrt:output.obj
 0001:0003236c       ?type_case_n@?$output_processor@DV?$stream_output_adapter@D@__crt_stdio_output@@V?$format_validation_base@DV?$stream_output_adapter@D@__crt_stdio_output@@@2@@__crt_stdio_output@@AAE_NXZ 1003336c f i libucrt:output.obj
 0001:000323fd       ?type_case_n@?$output_processor@DV?$stream_output_adapter@D@__crt_stdio_output@@V?$positional_parameter_base@DV?$stream_output_adapter@D@__crt_stdio_output@@@2@@__crt_stdio_output@@AAE_NXZ 100333fd f i libucrt:output.obj
 0001:000324bc       ?type_case_n@?$output_processor@DV?$stream_output_adapter@D@__crt_stdio_output@@V?$standard_base@DV?$stream_output_adapter@D@__crt_stdio_output@@@2@@__crt_stdio_output@@AAE_NXZ 100334bc f i libucrt:output.obj
 0001:0003254d       ?type_case_n@?$output_processor@DV?$string_output_adapter@D@__crt_stdio_output@@V?$format_validation_base@DV?$string_output_adapter@D@__crt_stdio_output@@@2@@__crt_stdio_output@@AAE_NXZ 1003354d f i libucrt:output.obj
 0001:000325de       ?type_case_n@?$output_processor@DV?$string_output_adapter@D@__crt_stdio_output@@V?$positional_parameter_base@DV?$string_output_adapter@D@__crt_stdio_output@@@2@@__crt_stdio_output@@AAE_NXZ 100335de f i libucrt:output.obj
 0001:0003269d       ?type_case_n@?$output_processor@DV?$string_output_adapter@D@__crt_stdio_output@@V?$standard_base@DV?$string_output_adapter@D@__crt_stdio_output@@@2@@__crt_stdio_output@@AAE_NXZ 1003369d f i libucrt:output.obj
 0001:0003272e       ?type_case_n@?$output_processor@_WV?$stream_output_adapter@_W@__crt_stdio_output@@V?$format_validation_base@_WV?$stream_output_adapter@_W@__crt_stdio_output@@@2@@__crt_stdio_output@@AAE_NXZ 1003372e f i libucrt:output.obj
 0001:000327bf       ?type_case_n@?$output_processor@_WV?$stream_output_adapter@_W@__crt_stdio_output@@V?$positional_parameter_base@_WV?$stream_output_adapter@_W@__crt_stdio_output@@@2@@__crt_stdio_output@@AAE_NXZ 100337bf f i libucrt:output.obj
 0001:0003287e       ?type_case_n@?$output_processor@_WV?$stream_output_adapter@_W@__crt_stdio_output@@V?$standard_base@_WV?$stream_output_adapter@_W@__crt_stdio_output@@@2@@__crt_stdio_output@@AAE_NXZ 1003387e f i libucrt:output.obj
 0001:0003290f       ?type_case_n@?$output_processor@_WV?$string_output_adapter@_W@__crt_stdio_output@@V?$format_validation_base@_WV?$string_output_adapter@_W@__crt_stdio_output@@@2@@__crt_stdio_output@@AAE_NXZ 1003390f f i libucrt:output.obj
 0001:000329a0       ?type_case_n@?$output_processor@_WV?$string_output_adapter@_W@__crt_stdio_output@@V?$positional_parameter_base@_WV?$string_output_adapter@_W@__crt_stdio_output@@@2@@__crt_stdio_output@@AAE_NXZ 100339a0 f i libucrt:output.obj
 0001:00032a5f       ?type_case_n@?$output_processor@_WV?$string_output_adapter@_W@__crt_stdio_output@@V?$standard_base@_WV?$string_output_adapter@_W@__crt_stdio_output@@@2@@__crt_stdio_output@@AAE_NXZ 10033a5f f i libucrt:output.obj
 0001:00032af0       ?type_case_o@?$output_processor@DV?$stream_output_adapter@D@__crt_stdio_output@@V?$format_validation_base@DV?$stream_output_adapter@D@__crt_stdio_output@@@2@@__crt_stdio_output@@AAE_NXZ 10033af0 f i libucrt:output.obj
 0001:00032b16       ?type_case_o@?$output_processor@DV?$stream_output_adapter@D@__crt_stdio_output@@V?$positional_parameter_base@DV?$stream_output_adapter@D@__crt_stdio_output@@@2@@__crt_stdio_output@@AAE_NXZ 10033b16 f i libucrt:output.obj
 0001:00032b3c       ?type_case_o@?$output_processor@DV?$stream_output_adapter@D@__crt_stdio_output@@V?$standard_base@DV?$stream_output_adapter@D@__crt_stdio_output@@@2@@__crt_stdio_output@@AAE_NXZ 10033b3c f i libucrt:output.obj
 0001:00032b62       ?type_case_o@?$output_processor@DV?$string_output_adapter@D@__crt_stdio_output@@V?$format_validation_base@DV?$string_output_adapter@D@__crt_stdio_output@@@2@@__crt_stdio_output@@AAE_NXZ 10033b62 f i libucrt:output.obj
 0001:00032b88       ?type_case_o@?$output_processor@DV?$string_output_adapter@D@__crt_stdio_output@@V?$positional_parameter_base@DV?$string_output_adapter@D@__crt_stdio_output@@@2@@__crt_stdio_output@@AAE_NXZ 10033b88 f i libucrt:output.obj
 0001:00032bae       ?type_case_o@?$output_processor@DV?$string_output_adapter@D@__crt_stdio_output@@V?$standard_base@DV?$string_output_adapter@D@__crt_stdio_output@@@2@@__crt_stdio_output@@AAE_NXZ 10033bae f i libucrt:output.obj
 0001:00032bd4       ?type_case_o@?$output_processor@_WV?$stream_output_adapter@_W@__crt_stdio_output@@V?$format_validation_base@_WV?$stream_output_adapter@_W@__crt_stdio_output@@@2@@__crt_stdio_output@@AAE_NXZ 10033bd4 f i libucrt:output.obj
 0001:00032bfa       ?type_case_o@?$output_processor@_WV?$stream_output_adapter@_W@__crt_stdio_output@@V?$positional_parameter_base@_WV?$stream_output_adapter@_W@__crt_stdio_output@@@2@@__crt_stdio_output@@AAE_NXZ 10033bfa f i libucrt:output.obj
 0001:00032c20       ?type_case_o@?$output_processor@_WV?$stream_output_adapter@_W@__crt_stdio_output@@V?$standard_base@_WV?$stream_output_adapter@_W@__crt_stdio_output@@@2@@__crt_stdio_output@@AAE_NXZ 10033c20 f i libucrt:output.obj
 0001:00032c46       ?type_case_o@?$output_processor@_WV?$string_output_adapter@_W@__crt_stdio_output@@V?$format_validation_base@_WV?$string_output_adapter@_W@__crt_stdio_output@@@2@@__crt_stdio_output@@AAE_NXZ 10033c46 f i libucrt:output.obj
 0001:00032c6c       ?type_case_o@?$output_processor@_WV?$string_output_adapter@_W@__crt_stdio_output@@V?$positional_parameter_base@_WV?$string_output_adapter@_W@__crt_stdio_output@@@2@@__crt_stdio_output@@AAE_NXZ 10033c6c f i libucrt:output.obj
 0001:00032c92       ?type_case_o@?$output_processor@_WV?$string_output_adapter@_W@__crt_stdio_output@@V?$standard_base@_WV?$string_output_adapter@_W@__crt_stdio_output@@@2@@__crt_stdio_output@@AAE_NXZ 10033c92 f i libucrt:output.obj
 0001:00032cb8       ?type_case_p@?$output_processor@DV?$stream_output_adapter@D@__crt_stdio_output@@V?$format_validation_base@DV?$stream_output_adapter@D@__crt_stdio_output@@@2@@__crt_stdio_output@@AAE_NXZ 10033cb8 f i libucrt:output.obj
 0001:00032cd6       ?type_case_p@?$output_processor@DV?$stream_output_adapter@D@__crt_stdio_output@@V?$positional_parameter_base@DV?$stream_output_adapter@D@__crt_stdio_output@@@2@@__crt_stdio_output@@AAE_NXZ 10033cd6 f i libucrt:output.obj
 0001:00032cf4       ?type_case_p@?$output_processor@DV?$stream_output_adapter@D@__crt_stdio_output@@V?$standard_base@DV?$stream_output_adapter@D@__crt_stdio_output@@@2@@__crt_stdio_output@@AAE_NXZ 10033cf4 f i libucrt:output.obj
 0001:00032d12       ?type_case_p@?$output_processor@DV?$string_output_adapter@D@__crt_stdio_output@@V?$format_validation_base@DV?$string_output_adapter@D@__crt_stdio_output@@@2@@__crt_stdio_output@@AAE_NXZ 10033d12 f i libucrt:output.obj
 0001:00032d30       ?type_case_p@?$output_processor@DV?$string_output_adapter@D@__crt_stdio_output@@V?$positional_parameter_base@DV?$string_output_adapter@D@__crt_stdio_output@@@2@@__crt_stdio_output@@AAE_NXZ 10033d30 f i libucrt:output.obj
 0001:00032d4e       ?type_case_p@?$output_processor@DV?$string_output_adapter@D@__crt_stdio_output@@V?$standard_base@DV?$string_output_adapter@D@__crt_stdio_output@@@2@@__crt_stdio_output@@AAE_NXZ 10033d4e f i libucrt:output.obj
 0001:00032d6c       ?type_case_p@?$output_processor@_WV?$stream_output_adapter@_W@__crt_stdio_output@@V?$format_validation_base@_WV?$stream_output_adapter@_W@__crt_stdio_output@@@2@@__crt_stdio_output@@AAE_NXZ 10033d6c f i libucrt:output.obj
 0001:00032d8a       ?type_case_p@?$output_processor@_WV?$stream_output_adapter@_W@__crt_stdio_output@@V?$positional_parameter_base@_WV?$stream_output_adapter@_W@__crt_stdio_output@@@2@@__crt_stdio_output@@AAE_NXZ 10033d8a f i libucrt:output.obj
 0001:00032da8       ?type_case_p@?$output_processor@_WV?$stream_output_adapter@_W@__crt_stdio_output@@V?$standard_base@_WV?$stream_output_adapter@_W@__crt_stdio_output@@@2@@__crt_stdio_output@@AAE_NXZ 10033da8 f i libucrt:output.obj
 0001:00032dc6       ?type_case_p@?$output_processor@_WV?$string_output_adapter@_W@__crt_stdio_output@@V?$format_validation_base@_WV?$string_output_adapter@_W@__crt_stdio_output@@@2@@__crt_stdio_output@@AAE_NXZ 10033dc6 f i libucrt:output.obj
 0001:00032de4       ?type_case_p@?$output_processor@_WV?$string_output_adapter@_W@__crt_stdio_output@@V?$positional_parameter_base@_WV?$string_output_adapter@_W@__crt_stdio_output@@@2@@__crt_stdio_output@@AAE_NXZ 10033de4 f i libucrt:output.obj
 0001:00032e02       ?type_case_p@?$output_processor@_WV?$string_output_adapter@_W@__crt_stdio_output@@V?$standard_base@_WV?$string_output_adapter@_W@__crt_stdio_output@@@2@@__crt_stdio_output@@AAE_NXZ 10033e02 f i libucrt:output.obj
 0001:00032e20       ?type_case_s@?$output_processor@DV?$stream_output_adapter@D@__crt_stdio_output@@V?$format_validation_base@DV?$stream_output_adapter@D@__crt_stdio_output@@@2@@__crt_stdio_output@@AAE_NXZ 10033e20 f i libucrt:output.obj
 0001:00032eaf       ?type_case_s@?$output_processor@DV?$stream_output_adapter@D@__crt_stdio_output@@V?$positional_parameter_base@DV?$stream_output_adapter@D@__crt_stdio_output@@@2@@__crt_stdio_output@@AAE_NXZ 10033eaf f i libucrt:output.obj
 0001:00032f4a       ?type_case_s@?$output_processor@DV?$stream_output_adapter@D@__crt_stdio_output@@V?$standard_base@DV?$stream_output_adapter@D@__crt_stdio_output@@@2@@__crt_stdio_output@@AAE_NXZ 10033f4a f i libucrt:output.obj
 0001:00032fd9       ?type_case_s@?$output_processor@DV?$string_output_adapter@D@__crt_stdio_output@@V?$format_validation_base@DV?$string_output_adapter@D@__crt_stdio_output@@@2@@__crt_stdio_output@@AAE_NXZ 10033fd9 f i libucrt:output.obj
 0001:00033068       ?type_case_s@?$output_processor@DV?$string_output_adapter@D@__crt_stdio_output@@V?$positional_parameter_base@DV?$string_output_adapter@D@__crt_stdio_output@@@2@@__crt_stdio_output@@AAE_NXZ 10034068 f i libucrt:output.obj
 0001:00033103       ?type_case_s@?$output_processor@DV?$string_output_adapter@D@__crt_stdio_output@@V?$standard_base@DV?$string_output_adapter@D@__crt_stdio_output@@@2@@__crt_stdio_output@@AAE_NXZ 10034103 f i libucrt:output.obj
 0001:00033192       ?type_case_s@?$output_processor@_WV?$stream_output_adapter@_W@__crt_stdio_output@@V?$format_validation_base@_WV?$stream_output_adapter@_W@__crt_stdio_output@@@2@@__crt_stdio_output@@AAE_NXZ 10034192 f i libucrt:output.obj
 0001:00033223       ?type_case_s@?$output_processor@_WV?$stream_output_adapter@_W@__crt_stdio_output@@V?$positional_parameter_base@_WV?$stream_output_adapter@_W@__crt_stdio_output@@@2@@__crt_stdio_output@@AAE_NXZ 10034223 f i libucrt:output.obj
 0001:000332c0       ?type_case_s@?$output_processor@_WV?$stream_output_adapter@_W@__crt_stdio_output@@V?$standard_base@_WV?$stream_output_adapter@_W@__crt_stdio_output@@@2@@__crt_stdio_output@@AAE_NXZ 100342c0 f i libucrt:output.obj
 0001:00033351       ?type_case_s@?$output_processor@_WV?$string_output_adapter@_W@__crt_stdio_output@@V?$format_validation_base@_WV?$string_output_adapter@_W@__crt_stdio_output@@@2@@__crt_stdio_output@@AAE_NXZ 10034351 f i libucrt:output.obj
 0001:000333e2       ?type_case_s@?$output_processor@_WV?$string_output_adapter@_W@__crt_stdio_output@@V?$positional_parameter_base@_WV?$string_output_adapter@_W@__crt_stdio_output@@@2@@__crt_stdio_output@@AAE_NXZ 100343e2 f i libucrt:output.obj
 0001:0003347f       ?type_case_s@?$output_processor@_WV?$string_output_adapter@_W@__crt_stdio_output@@V?$standard_base@_WV?$string_output_adapter@_W@__crt_stdio_output@@@2@@__crt_stdio_output@@AAE_NXZ 1003447f f i libucrt:output.obj
 0001:00033510       ?type_case_s_compute_narrow_string_length@?$output_processor@DV?$stream_output_adapter@D@__crt_stdio_output@@V?$format_validation_base@DV?$stream_output_adapter@D@__crt_stdio_output@@@2@@__crt_stdio_output@@ABEHHD@Z 10034510 f i libucrt:output.obj
 0001:0003352b       ?type_case_s_compute_narrow_string_length@?$output_processor@DV?$stream_output_adapter@D@__crt_stdio_output@@V?$positional_parameter_base@DV?$stream_output_adapter@D@__crt_stdio_output@@@2@@__crt_stdio_output@@ABEHHD@Z 1003452b f i libucrt:output.obj
 0001:00033546       ?type_case_s_compute_narrow_string_length@?$output_processor@DV?$stream_output_adapter@D@__crt_stdio_output@@V?$standard_base@DV?$stream_output_adapter@D@__crt_stdio_output@@@2@@__crt_stdio_output@@ABEHHD@Z 10034546 f i libucrt:output.obj
 0001:00033561       ?type_case_s_compute_narrow_string_length@?$output_processor@DV?$string_output_adapter@D@__crt_stdio_output@@V?$format_validation_base@DV?$string_output_adapter@D@__crt_stdio_output@@@2@@__crt_stdio_output@@ABEHHD@Z 10034561 f i libucrt:output.obj
 0001:0003357c       ?type_case_s_compute_narrow_string_length@?$output_processor@DV?$string_output_adapter@D@__crt_stdio_output@@V?$positional_parameter_base@DV?$string_output_adapter@D@__crt_stdio_output@@@2@@__crt_stdio_output@@ABEHHD@Z 1003457c f i libucrt:output.obj
 0001:00033597       ?type_case_s_compute_narrow_string_length@?$output_processor@DV?$string_output_adapter@D@__crt_stdio_output@@V?$standard_base@DV?$string_output_adapter@D@__crt_stdio_output@@@2@@__crt_stdio_output@@ABEHHD@Z 10034597 f i libucrt:output.obj
 0001:000335b2       ?type_case_s_compute_narrow_string_length@?$output_processor@_WV?$stream_output_adapter@_W@__crt_stdio_output@@V?$format_validation_base@_WV?$stream_output_adapter@_W@__crt_stdio_output@@@2@@__crt_stdio_output@@ABEHH_W@Z 100345b2 f i libucrt:output.obj
 0001:00033602       ?type_case_s_compute_narrow_string_length@?$output_processor@_WV?$stream_output_adapter@_W@__crt_stdio_output@@V?$positional_parameter_base@_WV?$stream_output_adapter@_W@__crt_stdio_output@@@2@@__crt_stdio_output@@ABEHH_W@Z 10034602 f i libucrt:output.obj
 0001:00033652       ?type_case_s_compute_narrow_string_length@?$output_processor@_WV?$stream_output_adapter@_W@__crt_stdio_output@@V?$standard_base@_WV?$stream_output_adapter@_W@__crt_stdio_output@@@2@@__crt_stdio_output@@ABEHH_W@Z 10034652 f i libucrt:output.obj
 0001:000336a2       ?type_case_s_compute_narrow_string_length@?$output_processor@_WV?$string_output_adapter@_W@__crt_stdio_output@@V?$format_validation_base@_WV?$string_output_adapter@_W@__crt_stdio_output@@@2@@__crt_stdio_output@@ABEHH_W@Z 100346a2 f i libucrt:output.obj
 0001:000336f2       ?type_case_s_compute_narrow_string_length@?$output_processor@_WV?$string_output_adapter@_W@__crt_stdio_output@@V?$positional_parameter_base@_WV?$string_output_adapter@_W@__crt_stdio_output@@@2@@__crt_stdio_output@@ABEHH_W@Z 100346f2 f i libucrt:output.obj
 0001:00033742       ?type_case_s_compute_narrow_string_length@?$output_processor@_WV?$string_output_adapter@_W@__crt_stdio_output@@V?$standard_base@_WV?$string_output_adapter@_W@__crt_stdio_output@@@2@@__crt_stdio_output@@ABEHH_W@Z 10034742 f i libucrt:output.obj
 0001:00033792       ?type_case_u@?$output_processor@DV?$stream_output_adapter@D@__crt_stdio_output@@V?$format_validation_base@DV?$stream_output_adapter@D@__crt_stdio_output@@@2@@__crt_stdio_output@@AAE_NXZ 10034792 f i libucrt:output.obj
 0001:0003379e       ?type_case_u@?$output_processor@DV?$stream_output_adapter@D@__crt_stdio_output@@V?$positional_parameter_base@DV?$stream_output_adapter@D@__crt_stdio_output@@@2@@__crt_stdio_output@@AAE_NXZ 1003479e f i libucrt:output.obj
 0001:000337aa       ?type_case_u@?$output_processor@DV?$stream_output_adapter@D@__crt_stdio_output@@V?$standard_base@DV?$stream_output_adapter@D@__crt_stdio_output@@@2@@__crt_stdio_output@@AAE_NXZ 100347aa f i libucrt:output.obj
 0001:000337b6       ?type_case_u@?$output_processor@DV?$string_output_adapter@D@__crt_stdio_output@@V?$format_validation_base@DV?$string_output_adapter@D@__crt_stdio_output@@@2@@__crt_stdio_output@@AAE_NXZ 100347b6 f i libucrt:output.obj
 0001:000337c2       ?type_case_u@?$output_processor@DV?$string_output_adapter@D@__crt_stdio_output@@V?$positional_parameter_base@DV?$string_output_adapter@D@__crt_stdio_output@@@2@@__crt_stdio_output@@AAE_NXZ 100347c2 f i libucrt:output.obj
 0001:000337ce       ?type_case_u@?$output_processor@DV?$string_output_adapter@D@__crt_stdio_output@@V?$standard_base@DV?$string_output_adapter@D@__crt_stdio_output@@@2@@__crt_stdio_output@@AAE_NXZ 100347ce f i libucrt:output.obj
 0001:000337da       ?type_case_u@?$output_processor@_WV?$stream_output_adapter@_W@__crt_stdio_output@@V?$format_validation_base@_WV?$stream_output_adapter@_W@__crt_stdio_output@@@2@@__crt_stdio_output@@AAE_NXZ 100347da f i libucrt:output.obj
 0001:000337e6       ?type_case_u@?$output_processor@_WV?$stream_output_adapter@_W@__crt_stdio_output@@V?$positional_parameter_base@_WV?$stream_output_adapter@_W@__crt_stdio_output@@@2@@__crt_stdio_output@@AAE_NXZ 100347e6 f i libucrt:output.obj
 0001:000337f2       ?type_case_u@?$output_processor@_WV?$stream_output_adapter@_W@__crt_stdio_output@@V?$standard_base@_WV?$stream_output_adapter@_W@__crt_stdio_output@@@2@@__crt_stdio_output@@AAE_NXZ 100347f2 f i libucrt:output.obj
 0001:000337fe       ?type_case_u@?$output_processor@_WV?$string_output_adapter@_W@__crt_stdio_output@@V?$format_validation_base@_WV?$string_output_adapter@_W@__crt_stdio_output@@@2@@__crt_stdio_output@@AAE_NXZ 100347fe f i libucrt:output.obj
 0001:0003380a       ?type_case_u@?$output_processor@_WV?$string_output_adapter@_W@__crt_stdio_output@@V?$positional_parameter_base@_WV?$string_output_adapter@_W@__crt_stdio_output@@@2@@__crt_stdio_output@@AAE_NXZ 1003480a f i libucrt:output.obj
 0001:00033816       ?type_case_u@?$output_processor@_WV?$string_output_adapter@_W@__crt_stdio_output@@V?$standard_base@_WV?$string_output_adapter@_W@__crt_stdio_output@@@2@@__crt_stdio_output@@AAE_NXZ 10034816 f i libucrt:output.obj
 0001:00033822       ?type_case_x@?$output_processor@DV?$stream_output_adapter@D@__crt_stdio_output@@V?$format_validation_base@DV?$stream_output_adapter@D@__crt_stdio_output@@@2@@__crt_stdio_output@@AAE_NXZ 10034822 f i libucrt:output.obj
 0001:0003382e       ?type_case_x@?$output_processor@DV?$stream_output_adapter@D@__crt_stdio_output@@V?$positional_parameter_base@DV?$stream_output_adapter@D@__crt_stdio_output@@@2@@__crt_stdio_output@@AAE_NXZ 1003482e f i libucrt:output.obj
 0001:0003383a       ?type_case_x@?$output_processor@DV?$stream_output_adapter@D@__crt_stdio_output@@V?$standard_base@DV?$stream_output_adapter@D@__crt_stdio_output@@@2@@__crt_stdio_output@@AAE_NXZ 1003483a f i libucrt:output.obj
 0001:00033846       ?type_case_x@?$output_processor@DV?$string_output_adapter@D@__crt_stdio_output@@V?$format_validation_base@DV?$string_output_adapter@D@__crt_stdio_output@@@2@@__crt_stdio_output@@AAE_NXZ 10034846 f i libucrt:output.obj
 0001:00033852       ?type_case_x@?$output_processor@DV?$string_output_adapter@D@__crt_stdio_output@@V?$positional_parameter_base@DV?$string_output_adapter@D@__crt_stdio_output@@@2@@__crt_stdio_output@@AAE_NXZ 10034852 f i libucrt:output.obj
 0001:0003385e       ?type_case_x@?$output_processor@DV?$string_output_adapter@D@__crt_stdio_output@@V?$standard_base@DV?$string_output_adapter@D@__crt_stdio_output@@@2@@__crt_stdio_output@@AAE_NXZ 1003485e f i libucrt:output.obj
 0001:0003386a       ?type_case_x@?$output_processor@_WV?$stream_output_adapter@_W@__crt_stdio_output@@V?$format_validation_base@_WV?$stream_output_adapter@_W@__crt_stdio_output@@@2@@__crt_stdio_output@@AAE_NXZ 1003486a f i libucrt:output.obj
 0001:00033876       ?type_case_x@?$output_processor@_WV?$stream_output_adapter@_W@__crt_stdio_output@@V?$positional_parameter_base@_WV?$stream_output_adapter@_W@__crt_stdio_output@@@2@@__crt_stdio_output@@AAE_NXZ 10034876 f i libucrt:output.obj
 0001:00033882       ?type_case_x@?$output_processor@_WV?$stream_output_adapter@_W@__crt_stdio_output@@V?$standard_base@_WV?$stream_output_adapter@_W@__crt_stdio_output@@@2@@__crt_stdio_output@@AAE_NXZ 10034882 f i libucrt:output.obj
 0001:0003388e       ?type_case_x@?$output_processor@_WV?$string_output_adapter@_W@__crt_stdio_output@@V?$format_validation_base@_WV?$string_output_adapter@_W@__crt_stdio_output@@@2@@__crt_stdio_output@@AAE_NXZ 1003488e f i libucrt:output.obj
 0001:0003389a       ?type_case_x@?$output_processor@_WV?$string_output_adapter@_W@__crt_stdio_output@@V?$positional_parameter_base@_WV?$string_output_adapter@_W@__crt_stdio_output@@@2@@__crt_stdio_output@@AAE_NXZ 1003489a f i libucrt:output.obj
 0001:000338a6       ?type_case_x@?$output_processor@_WV?$string_output_adapter@_W@__crt_stdio_output@@V?$standard_base@_WV?$string_output_adapter@_W@__crt_stdio_output@@@2@@__crt_stdio_output@@AAE_NXZ 100348a6 f i libucrt:output.obj
 0001:000338b2       ?unset_flag@?$output_processor@DV?$stream_output_adapter@D@__crt_stdio_output@@V?$format_validation_base@DV?$stream_output_adapter@D@__crt_stdio_output@@@2@@__crt_stdio_output@@AAEXI@Z 100348b2 f i libucrt:output.obj
 0001:000338c7       ?unset_flag@?$output_processor@DV?$stream_output_adapter@D@__crt_stdio_output@@V?$positional_parameter_base@DV?$stream_output_adapter@D@__crt_stdio_output@@@2@@__crt_stdio_output@@AAEXI@Z 100348c7 f i libucrt:output.obj
 0001:000338dc       ?unset_flag@?$output_processor@DV?$stream_output_adapter@D@__crt_stdio_output@@V?$standard_base@DV?$stream_output_adapter@D@__crt_stdio_output@@@2@@__crt_stdio_output@@AAEXI@Z 100348dc f i libucrt:output.obj
 0001:000338f1       ?unset_flag@?$output_processor@DV?$string_output_adapter@D@__crt_stdio_output@@V?$format_validation_base@DV?$string_output_adapter@D@__crt_stdio_output@@@2@@__crt_stdio_output@@AAEXI@Z 100348f1 f i libucrt:output.obj
 0001:00033906       ?unset_flag@?$output_processor@DV?$string_output_adapter@D@__crt_stdio_output@@V?$positional_parameter_base@DV?$string_output_adapter@D@__crt_stdio_output@@@2@@__crt_stdio_output@@AAEXI@Z 10034906 f i libucrt:output.obj
 0001:0003391b       ?unset_flag@?$output_processor@DV?$string_output_adapter@D@__crt_stdio_output@@V?$standard_base@DV?$string_output_adapter@D@__crt_stdio_output@@@2@@__crt_stdio_output@@AAEXI@Z 1003491b f i libucrt:output.obj
 0001:00033930       ?unset_flag@?$output_processor@_WV?$stream_output_adapter@_W@__crt_stdio_output@@V?$format_validation_base@_WV?$stream_output_adapter@_W@__crt_stdio_output@@@2@@__crt_stdio_output@@AAEXI@Z 10034930 f i libucrt:output.obj
 0001:00033945       ?unset_flag@?$output_processor@_WV?$stream_output_adapter@_W@__crt_stdio_output@@V?$positional_parameter_base@_WV?$stream_output_adapter@_W@__crt_stdio_output@@@2@@__crt_stdio_output@@AAEXI@Z 10034945 f i libucrt:output.obj
 0001:0003395a       ?unset_flag@?$output_processor@_WV?$stream_output_adapter@_W@__crt_stdio_output@@V?$standard_base@_WV?$stream_output_adapter@_W@__crt_stdio_output@@@2@@__crt_stdio_output@@AAEXI@Z 1003495a f i libucrt:output.obj
 0001:0003396f       ?unset_flag@?$output_processor@_WV?$string_output_adapter@_W@__crt_stdio_output@@V?$format_validation_base@_WV?$string_output_adapter@_W@__crt_stdio_output@@@2@@__crt_stdio_output@@AAEXI@Z 1003496f f i libucrt:output.obj
 0001:00033984       ?unset_flag@?$output_processor@_WV?$string_output_adapter@_W@__crt_stdio_output@@V?$positional_parameter_base@_WV?$string_output_adapter@_W@__crt_stdio_output@@@2@@__crt_stdio_output@@AAEXI@Z 10034984 f i libucrt:output.obj
 0001:00033999       ?unset_flag@?$output_processor@_WV?$string_output_adapter@_W@__crt_stdio_output@@V?$standard_base@_WV?$string_output_adapter@_W@__crt_stdio_output@@@2@@__crt_stdio_output@@AAEXI@Z 10034999 f i libucrt:output.obj
 0001:000339ae       ?update_field_width@?$positional_parameter_base@DV?$stream_output_adapter@D@__crt_stdio_output@@@__crt_stdio_output@@IAE_NXZ 100349ae f i libucrt:output.obj
 0001:00033a91       ?update_field_width@?$positional_parameter_base@DV?$string_output_adapter@D@__crt_stdio_output@@@__crt_stdio_output@@IAE_NXZ 10034a91 f i libucrt:output.obj
 0001:00033b74       ?update_field_width@?$positional_parameter_base@_WV?$stream_output_adapter@_W@__crt_stdio_output@@@__crt_stdio_output@@IAE_NXZ 10034b74 f i libucrt:output.obj
 0001:00033c58       ?update_field_width@?$positional_parameter_base@_WV?$string_output_adapter@_W@__crt_stdio_output@@@__crt_stdio_output@@IAE_NXZ 10034c58 f i libucrt:output.obj
 0001:00033d3c       ?update_field_width@?$standard_base@DV?$stream_output_adapter@D@__crt_stdio_output@@@__crt_stdio_output@@IAE_NXZ 10034d3c f i libucrt:output.obj
 0001:00033d50       ?update_field_width@?$standard_base@DV?$string_output_adapter@D@__crt_stdio_output@@@__crt_stdio_output@@IAE_NXZ 10034d50 f i libucrt:output.obj
 0001:00033d64       ?update_field_width@?$standard_base@_WV?$stream_output_adapter@_W@__crt_stdio_output@@@__crt_stdio_output@@IAE_NXZ 10034d64 f i libucrt:output.obj
 0001:00033d78       ?update_field_width@?$standard_base@_WV?$string_output_adapter@_W@__crt_stdio_output@@@__crt_stdio_output@@IAE_NXZ 10034d78 f i libucrt:output.obj
 0001:00033d8c       ?update_precision@?$positional_parameter_base@DV?$stream_output_adapter@D@__crt_stdio_output@@@__crt_stdio_output@@IAE_NXZ 10034d8c f i libucrt:output.obj
 0001:00033e6f       ?update_precision@?$positional_parameter_base@DV?$string_output_adapter@D@__crt_stdio_output@@@__crt_stdio_output@@IAE_NXZ 10034e6f f i libucrt:output.obj
 0001:00033f52       ?update_precision@?$positional_parameter_base@_WV?$stream_output_adapter@_W@__crt_stdio_output@@@__crt_stdio_output@@IAE_NXZ 10034f52 f i libucrt:output.obj
 0001:00034036       ?update_precision@?$positional_parameter_base@_WV?$string_output_adapter@_W@__crt_stdio_output@@@__crt_stdio_output@@IAE_NXZ 10035036 f i libucrt:output.obj
 0001:0003411a       ?update_precision@?$standard_base@DV?$stream_output_adapter@D@__crt_stdio_output@@@__crt_stdio_output@@IAE_NXZ 1003511a f i libucrt:output.obj
 0001:0003412e       ?update_precision@?$standard_base@DV?$string_output_adapter@D@__crt_stdio_output@@@__crt_stdio_output@@IAE_NXZ 1003512e f i libucrt:output.obj
 0001:00034142       ?update_precision@?$standard_base@_WV?$stream_output_adapter@_W@__crt_stdio_output@@@__crt_stdio_output@@IAE_NXZ 10035142 f i libucrt:output.obj
 0001:00034156       ?update_precision@?$standard_base@_WV?$string_output_adapter@_W@__crt_stdio_output@@@__crt_stdio_output@@IAE_NXZ 10035156 f i libucrt:output.obj
 0001:0003416a       ?valid@__crt_stdio_stream@@QBE_NXZ 1003516a f i libucrt:output.obj
 0001:00034174       ?validate@?$stream_output_adapter@D@__crt_stdio_output@@QBE_NXZ 10035174 f i libucrt:output.obj
 0001:0003419d       ?validate@?$stream_output_adapter@_W@__crt_stdio_output@@QBE_NXZ 1003519d f i libucrt:output.obj
 0001:000341be       ?validate@?$string_output_adapter@D@__crt_stdio_output@@QBE_NXZ 100351be f i libucrt:output.obj
 0001:000341df       ?validate@?$string_output_adapter@_W@__crt_stdio_output@@QBE_NXZ 100351df f i libucrt:output.obj
 0001:00034200       ?validate_and_store_parameter_data@?$positional_parameter_base@DV?$stream_output_adapter@D@__crt_stdio_output@@@__crt_stdio_output@@AAE_NAAUparameter_data@12@W4parameter_type@12@DW4length_modifier@2@@Z 10035200 f i libucrt:output.obj
 0001:0003425d       ?validate_and_store_parameter_data@?$positional_parameter_base@DV?$string_output_adapter@D@__crt_stdio_output@@@__crt_stdio_output@@AAE_NAAUparameter_data@12@W4parameter_type@12@DW4length_modifier@2@@Z 1003525d f i libucrt:output.obj
 0001:000342ba       ?validate_and_store_parameter_data@?$positional_parameter_base@_WV?$stream_output_adapter@_W@__crt_stdio_output@@@__crt_stdio_output@@AAE_NAAUparameter_data@12@W4parameter_type@12@_WW4length_modifier@2@@Z 100352ba f i libucrt:output.obj
 0001:0003431a       ?validate_and_store_parameter_data@?$positional_parameter_base@_WV?$string_output_adapter@_W@__crt_stdio_output@@@__crt_stdio_output@@AAE_NAAUparameter_data@12@W4parameter_type@12@_WW4length_modifier@2@@Z 1003531a f i libucrt:output.obj
 0001:0003437a       ?validate_and_update_state_at_beginning_of_format_character@?$positional_parameter_base@DV?$stream_output_adapter@D@__crt_stdio_output@@@__crt_stdio_output@@IAE_NXZ 1003537a f i libucrt:output.obj
 0001:000344b0       ?validate_and_update_state_at_beginning_of_format_character@?$positional_parameter_base@DV?$string_output_adapter@D@__crt_stdio_output@@@__crt_stdio_output@@IAE_NXZ 100354b0 f i libucrt:output.obj
 0001:000345e6       ?validate_and_update_state_at_beginning_of_format_character@?$positional_parameter_base@_WV?$stream_output_adapter@_W@__crt_stdio_output@@@__crt_stdio_output@@IAE_NXZ 100355e6 f i libucrt:output.obj
 0001:00034728       ?validate_and_update_state_at_beginning_of_format_character@?$positional_parameter_base@_WV?$string_output_adapter@_W@__crt_stdio_output@@@__crt_stdio_output@@IAE_NXZ 10035728 f i libucrt:output.obj
 0001:0003486a       ?validate_and_update_state_at_beginning_of_format_character@?$standard_base@DV?$stream_output_adapter@D@__crt_stdio_output@@@__crt_stdio_output@@IAE_NXZ 1003586a f i libucrt:output.obj
 0001:0003486d       ?validate_and_update_state_at_beginning_of_format_character@?$standard_base@DV?$string_output_adapter@D@__crt_stdio_output@@@__crt_stdio_output@@IAE_NXZ 1003586d f i libucrt:output.obj
 0001:00034870       ?validate_and_update_state_at_beginning_of_format_character@?$standard_base@_WV?$stream_output_adapter@_W@__crt_stdio_output@@@__crt_stdio_output@@IAE_NXZ 10035870 f i libucrt:output.obj
 0001:00034873       ?validate_and_update_state_at_beginning_of_format_character@?$standard_base@_WV?$string_output_adapter@_W@__crt_stdio_output@@@__crt_stdio_output@@IAE_NXZ 10035873 f i libucrt:output.obj
 0001:00034876       ?validate_and_update_state_at_end_of_format_string@?$format_validation_base@DV?$stream_output_adapter@D@__crt_stdio_output@@@__crt_stdio_output@@IBE_NXZ 10035876 f i libucrt:output.obj
 0001:000348a0       ?validate_and_update_state_at_end_of_format_string@?$format_validation_base@DV?$string_output_adapter@D@__crt_stdio_output@@@__crt_stdio_output@@IBE_NXZ 100358a0 f i libucrt:output.obj
 0001:000348ca       ?validate_and_update_state_at_end_of_format_string@?$format_validation_base@_WV?$stream_output_adapter@_W@__crt_stdio_output@@@__crt_stdio_output@@IBE_NXZ 100358ca f i libucrt:output.obj
 0001:000348f4       ?validate_and_update_state_at_end_of_format_string@?$format_validation_base@_WV?$string_output_adapter@_W@__crt_stdio_output@@@__crt_stdio_output@@IBE_NXZ 100358f4 f i libucrt:output.obj
 0001:0003491e       ?validate_and_update_state_at_end_of_format_string@?$positional_parameter_base@DV?$stream_output_adapter@D@__crt_stdio_output@@@__crt_stdio_output@@IAE_NXZ 1003591e f i libucrt:output.obj
 0001:000349be       ?validate_and_update_state_at_end_of_format_string@?$positional_parameter_base@DV?$string_output_adapter@D@__crt_stdio_output@@@__crt_stdio_output@@IAE_NXZ 100359be f i libucrt:output.obj
 0001:00034a5e       ?validate_and_update_state_at_end_of_format_string@?$positional_parameter_base@_WV?$stream_output_adapter@_W@__crt_stdio_output@@@__crt_stdio_output@@IAE_NXZ 10035a5e f i libucrt:output.obj
 0001:00034afe       ?validate_and_update_state_at_end_of_format_string@?$positional_parameter_base@_WV?$string_output_adapter@_W@__crt_stdio_output@@@__crt_stdio_output@@IAE_NXZ 10035afe f i libucrt:output.obj
 0001:00034b9e       ?validate_and_update_state_at_end_of_format_string@?$standard_base@DV?$stream_output_adapter@D@__crt_stdio_output@@@__crt_stdio_output@@IBE_NXZ 10035b9e f i libucrt:output.obj
 0001:00034ba1       ?validate_and_update_state_at_end_of_format_string@?$standard_base@DV?$string_output_adapter@D@__crt_stdio_output@@@__crt_stdio_output@@IBE_NXZ 10035ba1 f i libucrt:output.obj
 0001:00034ba4       ?validate_and_update_state_at_end_of_format_string@?$standard_base@_WV?$stream_output_adapter@_W@__crt_stdio_output@@@__crt_stdio_output@@IBE_NXZ 10035ba4 f i libucrt:output.obj
 0001:00034ba7       ?validate_and_update_state_at_end_of_format_string@?$standard_base@_WV?$string_output_adapter@_W@__crt_stdio_output@@@__crt_stdio_output@@IBE_NXZ 10035ba7 f i libucrt:output.obj
 0001:00034baa       ?validate_state_for_type_case_a@?$positional_parameter_base@DV?$stream_output_adapter@D@__crt_stdio_output@@@__crt_stdio_output@@IAE_NXZ 10035baa f i libucrt:output.obj
 0001:00034c11       ?validate_state_for_type_case_a@?$positional_parameter_base@DV?$string_output_adapter@D@__crt_stdio_output@@@__crt_stdio_output@@IAE_NXZ 10035c11 f i libucrt:output.obj
 0001:00034c78       ?validate_state_for_type_case_a@?$positional_parameter_base@_WV?$stream_output_adapter@_W@__crt_stdio_output@@@__crt_stdio_output@@IAE_NXZ 10035c78 f i libucrt:output.obj
 0001:00034cdf       ?validate_state_for_type_case_a@?$positional_parameter_base@_WV?$string_output_adapter@_W@__crt_stdio_output@@@__crt_stdio_output@@IAE_NXZ 10035cdf f i libucrt:output.obj
 0001:00034d46       ?validate_state_for_type_case_a@?$standard_base@DV?$stream_output_adapter@D@__crt_stdio_output@@@__crt_stdio_output@@IBE_NXZ 10035d46 f i libucrt:output.obj
 0001:00034d49       ?validate_state_for_type_case_a@?$standard_base@DV?$string_output_adapter@D@__crt_stdio_output@@@__crt_stdio_output@@IBE_NXZ 10035d49 f i libucrt:output.obj
 0001:00034d4c       ?validate_state_for_type_case_a@?$standard_base@_WV?$stream_output_adapter@_W@__crt_stdio_output@@@__crt_stdio_output@@IBE_NXZ 10035d4c f i libucrt:output.obj
 0001:00034d4f       ?validate_state_for_type_case_a@?$standard_base@_WV?$string_output_adapter@_W@__crt_stdio_output@@@__crt_stdio_output@@IBE_NXZ 10035d4f f i libucrt:output.obj
 0001:00034d52       ?validate_stream_is_ansi_if_required@?$__acrt_stdio_char_traits@D@@SA_NQAU_iobuf@@@Z 10035d52 f i libucrt:output.obj
 0001:00034df4       ?validate_stream_is_ansi_if_required@?$__acrt_stdio_char_traits@_W@@SA_NQAU_iobuf@@@Z 10035df4 f i libucrt:output.obj
 0001:00034df7       ?wide_null_string@?$output_processor@DV?$stream_output_adapter@D@__crt_stdio_output@@V?$format_validation_base@DV?$stream_output_adapter@D@__crt_stdio_output@@@2@@__crt_stdio_output@@CAPA_WXZ 10035df7 f i libucrt:output.obj
 0001:00034dfd       ?wide_null_string@?$output_processor@DV?$stream_output_adapter@D@__crt_stdio_output@@V?$positional_parameter_base@DV?$stream_output_adapter@D@__crt_stdio_output@@@2@@__crt_stdio_output@@CAPA_WXZ 10035dfd f i libucrt:output.obj
 0001:00034e03       ?wide_null_string@?$output_processor@DV?$stream_output_adapter@D@__crt_stdio_output@@V?$standard_base@DV?$stream_output_adapter@D@__crt_stdio_output@@@2@@__crt_stdio_output@@CAPA_WXZ 10035e03 f i libucrt:output.obj
 0001:00034e09       ?wide_null_string@?$output_processor@DV?$string_output_adapter@D@__crt_stdio_output@@V?$format_validation_base@DV?$string_output_adapter@D@__crt_stdio_output@@@2@@__crt_stdio_output@@CAPA_WXZ 10035e09 f i libucrt:output.obj
 0001:00034e0f       ?wide_null_string@?$output_processor@DV?$string_output_adapter@D@__crt_stdio_output@@V?$positional_parameter_base@DV?$string_output_adapter@D@__crt_stdio_output@@@2@@__crt_stdio_output@@CAPA_WXZ 10035e0f f i libucrt:output.obj
 0001:00034e15       ?wide_null_string@?$output_processor@DV?$string_output_adapter@D@__crt_stdio_output@@V?$standard_base@DV?$string_output_adapter@D@__crt_stdio_output@@@2@@__crt_stdio_output@@CAPA_WXZ 10035e15 f i libucrt:output.obj
 0001:00034e1b       ?wide_null_string@?$output_processor@_WV?$stream_output_adapter@_W@__crt_stdio_output@@V?$format_validation_base@_WV?$stream_output_adapter@_W@__crt_stdio_output@@@2@@__crt_stdio_output@@CAPA_WXZ 10035e1b f i libucrt:output.obj
 0001:00034e21       ?wide_null_string@?$output_processor@_WV?$stream_output_adapter@_W@__crt_stdio_output@@V?$positional_parameter_base@_WV?$stream_output_adapter@_W@__crt_stdio_output@@@2@@__crt_stdio_output@@CAPA_WXZ 10035e21 f i libucrt:output.obj
 0001:00034e27       ?wide_null_string@?$output_processor@_WV?$stream_output_adapter@_W@__crt_stdio_output@@V?$standard_base@_WV?$stream_output_adapter@_W@__crt_stdio_output@@@2@@__crt_stdio_output@@CAPA_WXZ 10035e27 f i libucrt:output.obj
 0001:00034e2d       ?wide_null_string@?$output_processor@_WV?$string_output_adapter@_W@__crt_stdio_output@@V?$format_validation_base@_WV?$string_output_adapter@_W@__crt_stdio_output@@@2@@__crt_stdio_output@@CAPA_WXZ 10035e2d f i libucrt:output.obj
 0001:00034e33       ?wide_null_string@?$output_processor@_WV?$string_output_adapter@_W@__crt_stdio_output@@V?$positional_parameter_base@_WV?$string_output_adapter@_W@__crt_stdio_output@@@2@@__crt_stdio_output@@CAPA_WXZ 10035e33 f i libucrt:output.obj
 0001:00034e39       ?wide_null_string@?$output_processor@_WV?$string_output_adapter@_W@__crt_stdio_output@@V?$standard_base@_WV?$string_output_adapter@_W@__crt_stdio_output@@@2@@__crt_stdio_output@@CAPA_WXZ 10035e39 f i libucrt:output.obj
 0001:00034e3f       ?write_character@?$stream_output_adapter@D@__crt_stdio_output@@QBEXDQAH@Z 10035e3f f i libucrt:output.obj
 0001:00034e8b       ?write_character@?$stream_output_adapter@_W@__crt_stdio_output@@QBEX_WQAH@Z 10035e8b f i libucrt:output.obj
 0001:00034edb       ?write_character@?$string_output_adapter@D@__crt_stdio_output@@QBE_NDQAH@Z 10035edb f i libucrt:output.obj
 0001:00034f2d       ?write_character@?$string_output_adapter@_W@__crt_stdio_output@@QBE_N_WQAH@Z 10035f2d f i libucrt:output.obj
 0001:00034f83       ?write_stored_string_tchar@?$output_processor@DV?$stream_output_adapter@D@__crt_stdio_output@@V?$format_validation_base@DV?$stream_output_adapter@D@__crt_stdio_output@@@2@@__crt_stdio_output@@AAE_ND@Z 10035f83 f i libucrt:output.obj
 0001:00035053       ?write_stored_string_tchar@?$output_processor@DV?$stream_output_adapter@D@__crt_stdio_output@@V?$positional_parameter_base@DV?$stream_output_adapter@D@__crt_stdio_output@@@2@@__crt_stdio_output@@AAE_ND@Z 10036053 f i libucrt:output.obj
 0001:00035123       ?write_stored_string_tchar@?$output_processor@DV?$stream_output_adapter@D@__crt_stdio_output@@V?$standard_base@DV?$stream_output_adapter@D@__crt_stdio_output@@@2@@__crt_stdio_output@@AAE_ND@Z 10036123 f i libucrt:output.obj
 0001:000351f3       ?write_stored_string_tchar@?$output_processor@DV?$string_output_adapter@D@__crt_stdio_output@@V?$format_validation_base@DV?$string_output_adapter@D@__crt_stdio_output@@@2@@__crt_stdio_output@@AAE_ND@Z 100361f3 f i libucrt:output.obj
 0001:000352c3       ?write_stored_string_tchar@?$output_processor@DV?$string_output_adapter@D@__crt_stdio_output@@V?$positional_parameter_base@DV?$string_output_adapter@D@__crt_stdio_output@@@2@@__crt_stdio_output@@AAE_ND@Z 100362c3 f i libucrt:output.obj
 0001:00035393       ?write_stored_string_tchar@?$output_processor@DV?$string_output_adapter@D@__crt_stdio_output@@V?$standard_base@DV?$string_output_adapter@D@__crt_stdio_output@@@2@@__crt_stdio_output@@AAE_ND@Z 10036393 f i libucrt:output.obj
 0001:00035463       ?write_stored_string_tchar@?$output_processor@_WV?$stream_output_adapter@_W@__crt_stdio_output@@V?$format_validation_base@_WV?$stream_output_adapter@_W@__crt_stdio_output@@@2@@__crt_stdio_output@@AAE_N_W@Z 10036463 f i libucrt:output.obj
 0001:00035510       ?write_stored_string_tchar@?$output_processor@_WV?$stream_output_adapter@_W@__crt_stdio_output@@V?$positional_parameter_base@_WV?$stream_output_adapter@_W@__crt_stdio_output@@@2@@__crt_stdio_output@@AAE_N_W@Z 10036510 f i libucrt:output.obj
 0001:000355bd       ?write_stored_string_tchar@?$output_processor@_WV?$stream_output_adapter@_W@__crt_stdio_output@@V?$standard_base@_WV?$stream_output_adapter@_W@__crt_stdio_output@@@2@@__crt_stdio_output@@AAE_N_W@Z 100365bd f i libucrt:output.obj
 0001:0003566a       ?write_stored_string_tchar@?$output_processor@_WV?$string_output_adapter@_W@__crt_stdio_output@@V?$format_validation_base@_WV?$string_output_adapter@_W@__crt_stdio_output@@@2@@__crt_stdio_output@@AAE_N_W@Z 1003666a f i libucrt:output.obj
 0001:00035717       ?write_stored_string_tchar@?$output_processor@_WV?$string_output_adapter@_W@__crt_stdio_output@@V?$positional_parameter_base@_WV?$string_output_adapter@_W@__crt_stdio_output@@@2@@__crt_stdio_output@@AAE_N_W@Z 10036717 f i libucrt:output.obj
 0001:000357c4       ?write_stored_string_tchar@?$output_processor@_WV?$string_output_adapter@_W@__crt_stdio_output@@V?$standard_base@_WV?$string_output_adapter@_W@__crt_stdio_output@@@2@@__crt_stdio_output@@AAE_N_W@Z 100367c4 f i libucrt:output.obj
 0001:00035871       ?write_string@?$stream_output_adapter@D@__crt_stdio_output@@QBEXQBDHQAH1@Z 10036871 f i libucrt:output.obj
 0001:0003591d       ?write_string@?$stream_output_adapter@_W@__crt_stdio_output@@QBEXQB_WHQAH1@Z 1003691d f i libucrt:output.obj
 0001:000359cd       ?write_string@?$string_output_adapter@D@__crt_stdio_output@@QBEXQBDHQAH1@Z 100369cd f i libucrt:output.obj
 0001:00035a84       ?write_string@?$string_output_adapter@_W@__crt_stdio_output@@QBEXQB_WHQAH1@Z 10036a84 f i libucrt:output.obj
 0001:00035b44       ___acrt_isleadbyte_l_noupdate 10036b44 f i libucrt:output.obj
 0001:00035b65       ___acrt_locale_changed     10036b65 f i libucrt:output.obj
 0001:00035b76       ___stdio_common_vfprintf   10036b76 f   libucrt:output.obj
 0001:00035c0a       ___stdio_common_vfprintf_p 10036c0a f   libucrt:output.obj
 0001:00035c9e       ___stdio_common_vfprintf_s 10036c9e f   libucrt:output.obj
 0001:00035d32       ___stdio_common_vfwprintf  10036d32 f   libucrt:output.obj
 0001:00035dc6       ___stdio_common_vfwprintf_p 10036dc6 f   libucrt:output.obj
 0001:00035e5a       ___stdio_common_vfwprintf_s 10036e5a f   libucrt:output.obj
 0001:00035eee       ___stdio_common_vsnprintf_s 10036eee f   libucrt:output.obj
 0001:00035f1e       ___stdio_common_vsnwprintf_s 10036f1e f   libucrt:output.obj
 0001:00035f4e       ___stdio_common_vsprintf   10036f4e f   libucrt:output.obj
 0001:00035f7b       ___stdio_common_vsprintf_p 10036f7b f   libucrt:output.obj
 0001:00035fa8       ___stdio_common_vsprintf_s 10036fa8 f   libucrt:output.obj
 0001:00035fd5       ___stdio_common_vswprintf  10036fd5 f   libucrt:output.obj
 0001:00036002       ___stdio_common_vswprintf_p 10037002 f   libucrt:output.obj
 0001:0003602f       ___stdio_common_vswprintf_s 1003702f f   libucrt:output.obj
 0001:0003605c       ___libm_sse2_sin           1003705c f   libucrt:sin_sse2.obj
 0001:00036275       _calloc                    10037275 f   libucrt:calloc.obj
 0001:00036282       _free                      10037282 f   libucrt:free.obj
 0001:00036287       ??$__vcrt_va_start_verify_argument_type@QB_W@@YAXXZ 10037287 f i libucrt:assert.obj
 0001:00037224       ??$ftprintf@PAU_iobuf@@PBDABQBDABQBDABI@?$__crt_char_traits@D@@SAH$$QAPAU_iobuf@@$$QAPBDABQBD2ABI@Z 10038224 f i libucrt:assert.obj
 0001:00037256       ??$ftprintf@PAU_iobuf@@PB_WABQB_WABQB_WABI@?$__crt_char_traits@_W@@SAH$$QAPAU_iobuf@@$$QAPB_WABQB_W2ABI@Z 10038256 f i libucrt:assert.obj
 0001:00037288       ??$get_module_file_name@AAPAUHINSTANCE__@@AAY0BAF@DK@?$__crt_char_traits@D@@SAKAAPAUHINSTANCE__@@AAY0BAF@D$$QAK@Z 10038288 f i libucrt:assert.obj
 0001:000372a8       ??$get_module_file_name@AAPAUHINSTANCE__@@AAY0BAF@_WK@?$__crt_char_traits@_W@@SAKAAPAUHINSTANCE__@@AAY0BAF@_W$$QAK@Z 100382a8 f i libucrt:assert.obj
 0001:000372c8       ??$itot_s@ABIQAD$$CBIH@?$__crt_char_traits@D@@SAHABI$$QBQAD$$QBI$$QAH@Z 100382c8 f i libucrt:assert.obj
 0001:000372f3       ??$itot_s@ABIQA_W$$CBIH@?$__crt_char_traits@_W@@SAHABI$$QBQA_W$$QBI$$QAH@Z 100382f3 f i libucrt:assert.obj
 0001:0003731e       ??$show_message_box@AAY0CEA@DPBDJ@?$__crt_char_traits@D@@SAHAAY0CEA@D$$QAPBD$$QAJ@Z 1003831e f i libucrt:assert.obj
 0001:00037341       ??$show_message_box@AAY0CEA@_WPB_WJ@?$__crt_char_traits@_W@@SAHAAY0CEA@_W$$QAPB_W$$QAJ@Z 10038341 f i libucrt:assert.obj
 0001:00037364       ??$tcscat_s@ABQADABIAAPAD@?$__crt_char_traits@D@@SAHABQADABIAAPAD@Z 10038364 f i libucrt:assert.obj
 0001:00037389       ??$tcscat_s@ABQADABIABQBD@?$__crt_char_traits@D@@SAHABQADABIABQBD@Z 10038389 f i libucrt:assert.obj
 0001:000373ae       ??$tcscat_s@ABQADABIPBD@?$__crt_char_traits@D@@SAHABQADABI$$QAPBD@Z 100383ae f i libucrt:assert.obj
 0001:000373d3       ??$tcscat_s@ABQA_WABIAAPA_W@?$__crt_char_traits@_W@@SAHABQA_WABIAAPA_W@Z 100383d3 f i libucrt:assert.obj
 0001:000373f8       ??$tcscat_s@ABQA_WABIABQB_W@?$__crt_char_traits@_W@@SAHABQA_WABIABQB_W@Z 100383f8 f i libucrt:assert.obj
 0001:0003741d       ??$tcscat_s@ABQA_WABIPB_W@?$__crt_char_traits@_W@@SAHABQA_WABI$$QAPB_W@Z 1003841d f i libucrt:assert.obj
 0001:00037442       ??$tcscpy_s@AAY0BAF@DIPBD@?$__crt_char_traits@D@@SAHAAY0BAF@D$$QAI$$QAPBD@Z 10038442 f i libucrt:assert.obj
 0001:00037465       ??$tcscpy_s@AAY0BAF@_WIPB_W@?$__crt_char_traits@_W@@SAHAAY0BAF@_W$$QAI$$QAPB_W@Z 10038465 f i libucrt:assert.obj
 0001:00037488       ??$tcscpy_s@ABQADABIPBD@?$__crt_char_traits@D@@SAHABQADABI$$QAPBD@Z 10038488 f i libucrt:assert.obj
 0001:000374ad       ??$tcscpy_s@ABQA_WABIPB_W@?$__crt_char_traits@_W@@SAHABQA_WABI$$QAPB_W@Z 100384ad f i libucrt:assert.obj
 0001:000374d2       ??$tcslen@AAY0BAF@D@?$__crt_char_traits@D@@SAIAAY0BAF@D@Z 100384d2 f i libucrt:assert.obj
 0001:000374ed       ??$tcslen@AAY0BAF@_W@?$__crt_char_traits@_W@@SAIAAY0BAF@_W@Z 100384ed f i libucrt:assert.obj
 0001:00037510       ??$tcslen@ABQAD@?$__crt_char_traits@D@@SAIABQAD@Z 10038510 f i libucrt:assert.obj
 0001:0003752e       ??$tcslen@ABQA_W@?$__crt_char_traits@_W@@SAIABQA_W@Z 1003852e f i libucrt:assert.obj
 0001:00037553       ??$tcslen@ABQBD@?$__crt_char_traits@D@@SAIABQBD@Z 10038553 f i libucrt:assert.obj
 0001:00037571       ??$tcslen@ABQB_W@?$__crt_char_traits@_W@@SAIABQB_W@Z 10038571 f i libucrt:assert.obj
 0001:00037596       ??$tcsncat_s@ABQADABIAAPBD$$CBI@?$__crt_char_traits@D@@SAHABQADABIAAPBD$$QBI@Z 10038596 f i libucrt:assert.obj
 0001:000375c1       ??$tcsncat_s@ABQADABIABQBDABI@?$__crt_char_traits@D@@SAHABQADABIABQBD1@Z 100385c1 f i libucrt:assert.obj
 0001:000375ec       ??$tcsncat_s@ABQADABIPBD$$CBI@?$__crt_char_traits@D@@SAHABQADABI$$QAPBD$$QBI@Z 100385ec f i libucrt:assert.obj
 0001:00037617       ??$tcsncat_s@ABQA_WABIAAPB_W$$CBI@?$__crt_char_traits@_W@@SAHABQA_WABIAAPB_W$$QBI@Z 10038617 f i libucrt:assert.obj
 0001:00037642       ??$tcsncat_s@ABQA_WABIABQB_WABI@?$__crt_char_traits@_W@@SAHABQA_WABIABQB_W1@Z 10038642 f i libucrt:assert.obj
 0001:0003766d       ??$tcsncat_s@ABQA_WABIPB_W$$CBI@?$__crt_char_traits@_W@@SAHABQA_WABI$$QAPB_W$$QBI@Z 1003866d f i libucrt:assert.obj
 0001:00037812       ?has_any_buffer@__crt_stdio_stream@@QBE_NXZ 10038812 f i libucrt:assert.obj
 0001:00037827       ?has_any_of@__crt_stdio_stream@@QBE_NJ@Z 10038827 f i libucrt:assert.obj
 0001:00037843       __assert                   10038843 f   libucrt:assert.obj
 0001:0003789d       __invoke_watson_if_error   1003889d f i libucrt:assert.obj
 0001:000378c7       __vfwprintf_l              100388c7 f i libucrt:assert.obj
 0001:000378f5       __vswprintf_c_l            100388f5 f i libucrt:assert.obj
 0001:0003792f       __wassert                  1003892f f   libucrt:assert.obj
 0001:00037989       _fwprintf                  10038989 f i libucrt:assert.obj
 0001:00037a4b       _swprintf                  10038a4b f i libucrt:assert.obj
 0001:00037a70       _realloc                   10038a70 f   libucrt:realloc.obj
 0001:00037a7d       ??$?B$$A6GXPAXK0@Z@__crt_fast_encoded_nullptr_t@@QBEP6GXPAXK0@ZXZ 10038a7d f i libucrt:exit.obj
 0001:00037a9b       ??$__crt_fast_decode_pointer@P6GXPAXK0@Z@@YAP6GXPAXK0@ZQ6GX0K0@Z@Z 10038a9b f i libucrt:exit.obj
 0001:00037ab6       ??$__crt_fast_encode_pointer@P6GXPAXK0@Z@@YAP6GXPAXK0@ZQ6GX0K0@Z@Z 10038ab6 f i libucrt:exit.obj
 0001:00037adc       ??$__crt_get_proc_address@P6GXI@Z@@YAP6GXI@ZQAUHINSTANCE__@@QBD@Z 10038adc f i libucrt:exit.obj
 0001:00037af3       ??0?$__crt_unique_handle_t@U__crt_hmodule_traits@@@@QAE@QAUHINSTANCE__@@@Z 10038af3 f i libucrt:exit.obj
 0001:00037b07       ??1?$__crt_unique_handle_t@U__crt_hmodule_traits@@@@QAE@XZ 10038b07 f i libucrt:exit.obj
 0001:00037b3a       ?close@?$__crt_unique_handle_t@U__crt_hmodule_traits@@@@QAEXXZ 10038b3a f i libucrt:exit.obj
 0001:00037b56       ?close@__crt_hmodule_traits@@SA_NPAUHINSTANCE__@@@Z 10038b56 f i libucrt:exit.obj
 0001:00037d21       ?get@?$__crt_unique_handle_t@U__crt_hmodule_traits@@@@QBEPAUHINSTANCE__@@XZ 10038d21 f i libucrt:exit.obj
 0001:00037d24       ?get_address_of@?$__crt_unique_handle_t@U__crt_hmodule_traits@@@@QAEPAPAUHINSTANCE__@@XZ 10038d24 f i libucrt:exit.obj
 0001:00037d27       ?get_invalid_value@__crt_hmodule_traits@@SAPAUHINSTANCE__@@XZ 10038d27 f i libucrt:exit.obj
 0001:00037e24       __Exit                     10038e24 f   libucrt:exit.obj
 0001:00037e3f       ___acrt_initialize_thread_local_exit_callback 10038e3f f   libucrt:exit.obj
 0001:00037e51       __c_exit                   10038e51 f   libucrt:exit.obj
 0001:00037e63       __cexit                    10038e63 f   libucrt:exit.obj
 0001:00037e75       __exit                     10038e75 f   libucrt:exit.obj
 0001:00037e90       __is_c_termination_complete 10038e90 f   libucrt:exit.obj
 0001:00037e96       __register_thread_local_exe_atexit_callback 10038e96 f   libucrt:exit.obj
 0001:00037edc       _exit                      10038edc f   libucrt:exit.obj
 0001:00037ef7       _quick_exit                10038ef7 f   libucrt:exit.obj
 0001:00037f20       _strncat                   10038f20 f   libucrt:strncat.obj
 0001:000380b0       _strncpy                   100390b0 f   libucrt:strncpy.obj
 0001:0003821d       ?is_in_use@__crt_stdio_stream@@QBE_NXZ 1003921d f i libucrt:fclose.obj
 0001:0003822c       __fclose_nolock            1003922c f   libucrt:fclose.obj
 0001:000382bf       _fclose                    100392bf f   libucrt:fclose.obj
 0001:000385f1       ??$open_file@ABQBDABQBDABHPAU_iobuf@@@?$__crt_char_traits@D@@SAPAU_iobuf@@ABQBD0ABH$$QAPAU1@@Z 100395f1 f i libucrt:fopen.obj
 0001:0003861c       ??$open_file@ABQB_WABQB_WABHPAU_iobuf@@@?$__crt_char_traits@_W@@SAPAU_iobuf@@ABQB_W0ABH$$QAPAU1@@Z 1003961c f i libucrt:fopen.obj
 0001:00038647       ?unlock@__crt_stdio_stream@@QBEXXZ 10039647 f i libucrt:fopen.obj
 0001:00038652       __fsopen                   10039652 f   libucrt:fopen.obj
 0001:0003865f       __wfopen                   1003965f f   libucrt:fopen.obj
 0001:0003867b       __wfopen_s                 1003967b f   libucrt:fopen.obj
 0001:000386d3       __wfsopen                  100396d3 f   libucrt:fopen.obj
 0001:000386e0       _fopen                     100396e0 f   libucrt:fopen.obj
 0001:000386fc       _fopen_s                   100396fc f   libucrt:fopen.obj
 0001:00038754       ?set_flags@__crt_stdio_stream@@QBE_NJ@Z 10039754 f i libucrt:fread.obj
 0001:00038784       __fread_nolock             10039784 f   libucrt:fread.obj
 0001:000387a8       __fread_nolock_s           100397a8 f   libucrt:fread.obj
 0001:000389e7       _fread                     100399e7 f   libucrt:fread.obj
 0001:00038a0b       _fread_s                   10039a0b f   libucrt:fread.obj
 0001:00038b63       ??$?RV<lambda_11b4f7b0d3157825a5656a18eba1ae27>@@AAV<lambda_b51c0495177f500e782686251704ae76>@@V<lambda_cf89b47920b5017557bfe891e78aca36>@@@?$__crt_seh_guarded_call@I@@QAEI$$QAV<lambda_11b4f7b0d3157825a5656a18eba1ae27>@@AAV<lambda_b51c0495177f500e782686251704ae76>@@$$QAV<lambda_cf89b47920b5017557bfe891e78aca36>@@@Z 10039b63 f i libucrt:fwrite.obj
 0001:00038bc8       ??$__acrt_lock_stream_and_call@V<lambda_b51c0495177f500e782686251704ae76>@@@@YAIQAU_iobuf@@$$QAV<lambda_b51c0495177f500e782686251704ae76>@@@Z 10039bc8 f i libucrt:fwrite.obj
 0001:00038cbd       ?has_big_buffer@__crt_stdio_stream@@QBE_NXZ 10039cbd f i libucrt:fwrite.obj
 0001:00038cce       __fwrite_nolock            10039cce f   libucrt:fwrite.obj
 0001:00038ea5       _fwrite                    10039ea5 f   libucrt:fwrite.obj
 0001:00038f13       ??$?R_W@__crt_internal_free_policy@@QBEXQB_W@Z 10039f13 f i libucrt:unlink.obj
 0001:00038f29       ??0?$__crt_unique_heap_ptr@_WU__crt_internal_free_policy@@@@QAE@QA_W@Z 10039f29 f i libucrt:unlink.obj
 0001:00038f3d       ??1?$__crt_unique_heap_ptr@_WU__crt_internal_free_policy@@@@QAE@XZ 10039f3d f i libucrt:unlink.obj
 0001:00038f53       ?get@?$__crt_unique_heap_ptr@_WU__crt_internal_free_policy@@@@QBEPA_WXZ 10039f53 f i libucrt:unlink.obj
 0001:00038f56       ?get_address_of@?$__crt_unique_heap_ptr@_WU__crt_internal_free_policy@@@@QAEPAPA_WXZ 10039f56 f i libucrt:unlink.obj
 0001:00038f59       ?release@?$__crt_unique_heap_ptr@_WU__crt_internal_free_policy@@@@QAEXXZ 10039f59 f i libucrt:unlink.obj
 0001:00038f6f       __unlink                   10039f6f f   libucrt:unlink.obj
 0001:00038f7c       _remove                    10039f7c f   libucrt:unlink.obj
 0001:00038fdc       ?__acrt_stdio_reset_buffer@@YAXV__crt_stdio_stream@@@Z 10039fdc f i libucrt:rewind.obj
 0001:00038ff7       ?has_all_of@__crt_stdio_stream@@QBE_NJ@Z 10039ff7 f i libucrt:rewind.obj
 0001:00039016       ?unset_flags@__crt_stdio_stream@@QBE_NJ@Z 1003a016 f i libucrt:rewind.obj
 0001:0003904a       _rewind                    1003a04a f   libucrt:rewind.obj
 0001:0003914b       _ldexp                     1003a14b f   libucrt:ldexp.obj
 0001:000393ab       __errcode                  1003a3ab f   libucrt:fpexcept.obj
 0001:000393ec       __except1                  1003a3ec f   libucrt:fpexcept.obj
 0001:000394ed       __except2                  1003a4ed f   libucrt:fpexcept.obj
 0001:00039636       __handle_exc               1003a636 f   libucrt:fpexcept.obj
 0001:0003988e       __handle_qnan2             1003a88e f   libucrt:fpexcept.obj
 0001:0003989e       __raise_exc                1003a89e f   libucrt:fpexcept.obj
 0001:000398c9       __raise_exc_ex             1003a8c9 f   libucrt:fpexcept.obj
 0001:00039c76       __raise_excf               1003ac76 f   libucrt:fpexcept.obj
 0001:00039ca1       __set_errno_from_matherr   1003aca1 f   libucrt:fpexcept.obj
 0001:00039cdb       __umatherr                 1003acdb f   libucrt:fpexcept.obj
 0001:00039da5       __initterm                 1003ada5 f   libucrt:initterm.obj
 0001:00039e18       __initterm_e               1003ae18 f   libucrt:initterm.obj
 0001:00039e9b       __seh_filter_dll           1003ae9b f   libucrt:exception_filter.obj
 0001:00039ec3       __seh_filter_exe           1003aec3 f   libucrt:exception_filter.obj
 0001:0003a092       ??$?RE@__crt_internal_free_policy@@QBEXQBE@Z 1003b092 f i libucrt:argv_parsing.obj
 0001:0003a0a8       ??$?RPAD@__crt_internal_free_policy@@QBEXQBQAD@Z 1003b0a8 f i libucrt:argv_parsing.obj
 0001:0003a0be       ??$?RPA_W@__crt_internal_free_policy@@QBEXQBQA_W@Z 1003b0be f i libucrt:argv_parsing.obj
 0001:0003a3a7       ??$get_module_file_name@$$TAAY0BAF@DH@?$__crt_char_traits@D@@SAK$$QA$$TAAY0BAF@D$$QAH@Z 1003b3a7 f i libucrt:argv_parsing.obj
 0001:0003a3c7       ??$get_module_file_name@$$TAAY0BAF@_WH@?$__crt_char_traits@_W@@SAK$$QA$$TAAY0BAF@_W$$QAH@Z 1003b3c7 f i libucrt:argv_parsing.obj
 0001:0003a7a0       ??$set_program_name@PAD@?$__crt_char_traits@D@@SAX$$QAPAD@Z 1003b7a0 f i libucrt:argv_parsing.obj
 0001:0003a7b5       ??$set_program_name@PA_W@?$__crt_char_traits@_W@@SAX$$QAPA_W@Z 1003b7b5 f i libucrt:argv_parsing.obj
 0001:0003a7f2       ??0?$__crt_unique_heap_ptr@EU__crt_internal_free_policy@@@@QAE@QAE@Z 1003b7f2 f i libucrt:argv_parsing.obj
 0001:0003a806       ??0?$__crt_unique_heap_ptr@PADU__crt_internal_free_policy@@@@QAE@QAPAD@Z 1003b806 f i libucrt:argv_parsing.obj
 0001:0003a81a       ??0?$__crt_unique_heap_ptr@PA_WU__crt_internal_free_policy@@@@QAE@QAPA_W@Z 1003b81a f i libucrt:argv_parsing.obj
 0001:0003a82e       ??1?$__crt_unique_heap_ptr@EU__crt_internal_free_policy@@@@QAE@XZ 1003b82e f i libucrt:argv_parsing.obj
 0001:0003a844       ??1?$__crt_unique_heap_ptr@PADU__crt_internal_free_policy@@@@QAE@XZ 1003b844 f i libucrt:argv_parsing.obj
 0001:0003a85a       ??1?$__crt_unique_heap_ptr@PA_WU__crt_internal_free_policy@@@@QAE@XZ 1003b85a f i libucrt:argv_parsing.obj
 0001:0003a870       ??B?$__crt_unique_heap_ptr@EU__crt_internal_free_policy@@@@QBE_NXZ 1003b870 f i libucrt:argv_parsing.obj
 0001:0003a8b0       ?detach@?$__crt_unique_heap_ptr@EU__crt_internal_free_policy@@@@QAEPAEXZ 1003b8b0 f i libucrt:argv_parsing.obj
 0001:0003a8b6       ?detach@?$__crt_unique_heap_ptr@PADU__crt_internal_free_policy@@@@QAEPAPADXZ 1003b8b6 f i libucrt:argv_parsing.obj
 0001:0003a8bc       ?detach@?$__crt_unique_heap_ptr@PA_WU__crt_internal_free_policy@@@@QAEPAPA_WXZ 1003b8bc f i libucrt:argv_parsing.obj
 0001:0003a8e2       ?get@?$__crt_unique_heap_ptr@EU__crt_internal_free_policy@@@@QBEPAEXZ 1003b8e2 f i libucrt:argv_parsing.obj
 0001:0003a8e5       ?get@?$__crt_unique_heap_ptr@PADU__crt_internal_free_policy@@@@QBEPAPADXZ 1003b8e5 f i libucrt:argv_parsing.obj
 0001:0003a8e8       ?get@?$__crt_unique_heap_ptr@PA_WU__crt_internal_free_policy@@@@QBEPAPA_WXZ 1003b8e8 f i libucrt:argv_parsing.obj
 0001:0003a8eb       ?get_address_of@?$__crt_unique_heap_ptr@PADU__crt_internal_free_policy@@@@QAEPAPAPADXZ 1003b8eb f i libucrt:argv_parsing.obj
 0001:0003a8ee       ?get_address_of@?$__crt_unique_heap_ptr@PA_WU__crt_internal_free_policy@@@@QAEPAPAPA_WXZ 1003b8ee f i libucrt:argv_parsing.obj
 0001:0003a909       ?is_valid@?$__crt_unique_heap_ptr@EU__crt_internal_free_policy@@@@QBE_NXZ 1003b909 f i libucrt:argv_parsing.obj
 0001:0003a913       ?release@?$__crt_unique_heap_ptr@EU__crt_internal_free_policy@@@@QAEXXZ 1003b913 f i libucrt:argv_parsing.obj
 0001:0003a929       ?release@?$__crt_unique_heap_ptr@PADU__crt_internal_free_policy@@@@QAEXXZ 1003b929 f i libucrt:argv_parsing.obj
 0001:0003a93f       ?release@?$__crt_unique_heap_ptr@PA_WU__crt_internal_free_policy@@@@QAEXXZ 1003b93f f i libucrt:argv_parsing.obj
 0001:0003a976       ___acrt_allocate_buffer_for_argv 1003b976 f   libucrt:argv_parsing.obj
 0001:0003a9e0       __configure_narrow_argv    1003b9e0 f   libucrt:argv_parsing.obj
 0001:0003a9ed       __configure_wide_argv      1003b9ed f   libucrt:argv_parsing.obj
 0001:0003a9fa       __set_pgmptr               1003b9fa f i libucrt:argv_parsing.obj
 0001:0003aa0c       __set_wpgmptr              1003ba0c f i libucrt:argv_parsing.obj
 0001:0003aee6       ??$get_environment_from_os@$$$V@?$__crt_char_traits@D@@SAPADXZ 1003bee6 f i libucrt:environment_initialization.obj
 0001:0003aeeb       ??$get_environment_from_os@$$$V@?$__crt_char_traits@_W@@SAPA_WXZ 1003beeb f i libucrt:environment_initialization.obj
 0001:0003b025       ??$set_variable_in_environment_nolock@PADH@?$__crt_char_traits@D@@SAH$$QAPAD$$QAH@Z 1003c025 f i libucrt:environment_initialization.obj
 0001:0003b043       ??$set_variable_in_environment_nolock@PA_WH@?$__crt_char_traits@_W@@SAH$$QAPA_W$$QAH@Z 1003c043 f i libucrt:environment_initialization.obj
 0001:0003b061       ??$tcscpy_s@PADABIAAPAD@?$__crt_char_traits@D@@SAH$$QAPADABIAAPAD@Z 1003c061 f i libucrt:environment_initialization.obj
 0001:0003b086       ??$tcscpy_s@PA_WABIAAPA_W@?$__crt_char_traits@_W@@SAH$$QAPA_WABIAAPA_W@Z 1003c086 f i libucrt:environment_initialization.obj
 0001:0003b0ab       ??$tcslen@AAPAD@?$__crt_char_traits@D@@SAIAAPAD@Z 1003c0ab f i libucrt:environment_initialization.obj
 0001:0003b0c9       ??$tcslen@AAPA_W@?$__crt_char_traits@_W@@SAIAAPA_W@Z 1003c0c9 f i libucrt:environment_initialization.obj
 0001:0003b0ee       ??$uninitialize@A6AXAAPAPAD@Z@?$dual_state_global@PAPAD@__crt_state_management@@QAEXA6AXAAPAPAD@Z@Z 1003c0ee f i libucrt:environment_initialization.obj
 0001:0003b13e       ??$uninitialize@A6AXAAPAPA_W@Z@?$dual_state_global@PAPA_W@__crt_state_management@@QAEXA6AXAAPAPA_W@Z@Z 1003c13e f i libucrt:environment_initialization.obj
 0001:0003b1d0       ??B?$__crt_unique_heap_ptr@PADU__crt_internal_free_policy@@@@QBE_NXZ 1003c1d0 f i libucrt:environment_initialization.obj
 0001:0003b1da       ??B?$__crt_unique_heap_ptr@PA_WU__crt_internal_free_policy@@@@QBE_NXZ 1003c1da f i libucrt:environment_initialization.obj
 0001:0003b1e4       ??B?$__crt_unique_heap_ptr@_WU__crt_internal_free_policy@@@@QBE_NXZ 1003c1e4 f i libucrt:environment_initialization.obj
 0001:0003b1ee       ?__crt_compute_required_transform_buffer_count@@YAIIQBD@Z 1003c1ee f i libucrt:environment_initialization.obj
 0001:0003b20e       ?__crt_compute_required_transform_buffer_count@@YAIIQB_W@Z 1003c20e f i libucrt:environment_initialization.obj
 0001:0003b231       ?__crt_transform_string@@YAIIQBDQA_WI@Z 1003c231 f i libucrt:environment_initialization.obj
 0001:0003b255       ?__crt_transform_string@@YAIIQB_WQADI@Z 1003c255 f i libucrt:environment_initialization.obj
 0001:0003b27d       ?detach@?$__crt_unique_heap_ptr@DU__crt_internal_free_policy@@@@QAEPADXZ 1003c27d f i libucrt:environment_initialization.obj
 0001:0003b283       ?detach@?$__crt_unique_heap_ptr@_WU__crt_internal_free_policy@@@@QAEPA_WXZ 1003c283 f i libucrt:environment_initialization.obj
 0001:0003b289       ?get_current_state_index@__crt_state_management@@YAIXZ 1003c289 f i libucrt:environment_initialization.obj
 0001:0003b2b0       ?initialize@?$dual_state_global@PAPAD@__crt_state_management@@QAEXQAPAD@Z 1003c2b0 f i libucrt:environment_initialization.obj
 0001:0003b2ed       ?initialize@?$dual_state_global@PAPA_W@__crt_state_management@@QAEXQAPA_W@Z 1003c2ed f i libucrt:environment_initialization.obj
 0001:0003b32a       ?is_valid@?$__crt_unique_heap_ptr@PADU__crt_internal_free_policy@@@@QBE_NXZ 1003c32a f i libucrt:environment_initialization.obj
 0001:0003b334       ?is_valid@?$__crt_unique_heap_ptr@PA_WU__crt_internal_free_policy@@@@QBE_NXZ 1003c334 f i libucrt:environment_initialization.obj
 0001:0003b33e       ?is_valid@?$__crt_unique_heap_ptr@_WU__crt_internal_free_policy@@@@QBE_NXZ 1003c33e f i libucrt:environment_initialization.obj
 0001:0003b34e       ?value@?$dual_state_global@PAPAD@__crt_state_management@@QAEAAPAPADXZ 1003c34e f i libucrt:environment_initialization.obj
 0001:0003b351       ?value@?$dual_state_global@PAPA_W@__crt_state_management@@QAEAAPAPA_WXZ 1003c351 f i libucrt:environment_initialization.obj
 0001:0003b354       ___dcrt_get_or_create_narrow_environment_nolock 1003c354 f   libucrt:environment_initialization.obj
 0001:0003b359       ___dcrt_get_or_create_wide_environment_nolock 1003c359 f   libucrt:environment_initialization.obj
 0001:0003b35e       ___dcrt_uninitialize_environments_nolock 1003c35e f   libucrt:environment_initialization.obj
 0001:0003b3a2       ___p__environ              1003c3a2 f   libucrt:environment_initialization.obj
 0001:0003b3a8       ___p__wenviron             1003c3a8 f   libucrt:environment_initialization.obj
 0001:0003b3ae       __get_initial_narrow_environment 1003c3ae f   libucrt:environment_initialization.obj
 0001:0003b3c7       __get_initial_wide_environment 1003c3c7 f   libucrt:environment_initialization.obj
 0001:0003b3e0       __initialize_narrow_environment 1003c3e0 f   libucrt:environment_initialization.obj
 0001:0003b3e5       __initialize_wide_environment 1003c3e5 f   libucrt:environment_initialization.obj
 0001:0003b3ea       ??$?BP6AXXZ@__crt_fast_encoded_nullptr_t@@QBEPAP6AXXZXZ 1003c3ea f i libucrt:onexit.obj
 0001:0003b408       ??$?RP6AXXZ@__crt_internal_free_policy@@QBEXQBQ6AXXZ@Z 1003c408 f i libucrt:onexit.obj
 0001:0003b41e       ??$?RV<lambda_800076c951b434888f4765a74a194fcc>@@AAV<lambda_4e60a939b0d047cfe11ddc22648dfba9>@@V<lambda_6dbb1268764f43b569ce7b67e331d33a>@@@?$__crt_seh_guarded_call@H@@QAEH$$QAV<lambda_800076c951b434888f4765a74a194fcc>@@AAV<lambda_4e60a939b0d047cfe11ddc22648dfba9>@@$$QAV<lambda_6dbb1268764f43b569ce7b67e331d33a>@@@Z 1003c41e f i libucrt:onexit.obj
 0001:0003b483       ??$?RV<lambda_995298e7d72eb4c2aab26c0585b3abe5>@@AAV<lambda_275893d493268fdec8709772e3fcec0e>@@V<lambda_293819299cbf9a7022e18b56a874bb5c>@@@?$__crt_seh_guarded_call@H@@QAEH$$QAV<lambda_995298e7d72eb4c2aab26c0585b3abe5>@@AAV<lambda_275893d493268fdec8709772e3fcec0e>@@$$QAV<lambda_293819299cbf9a7022e18b56a874bb5c>@@@Z 1003c483 f i libucrt:onexit.obj
 0001:0003b4e8       ??$__acrt_lock_and_call@V<lambda_275893d493268fdec8709772e3fcec0e>@@@@YAHW4__acrt_lock_id@@$$QAV<lambda_275893d493268fdec8709772e3fcec0e>@@@Z 1003c4e8 f i libucrt:onexit.obj
 0001:0003b51a       ??$__acrt_lock_and_call@V<lambda_4e60a939b0d047cfe11ddc22648dfba9>@@@@YAHW4__acrt_lock_id@@$$QAV<lambda_4e60a939b0d047cfe11ddc22648dfba9>@@@Z 1003c51a f i libucrt:onexit.obj
 0001:0003b54c       ??$__crt_fast_encode_pointer@P6AHXZ@@YAP6AHXZQ6AHXZ@Z 1003c54c f i libucrt:onexit.obj
 0001:0003b5f9       ??0?$__crt_unique_heap_ptr@P6AXXZU__crt_internal_free_policy@@@@QAE@QAP6AXXZ@Z 1003c5f9 f i libucrt:onexit.obj
 0001:0003b60d       ??1?$__crt_unique_heap_ptr@P6AXXZU__crt_internal_free_policy@@@@QAE@XZ 1003c60d f i libucrt:onexit.obj
 0001:0003b948       ?detach@?$__crt_unique_heap_ptr@P6AXXZU__crt_internal_free_policy@@@@QAEPAP6AXXZXZ 1003c948 f i libucrt:onexit.obj
 0001:0003b94e       ?release@?$__crt_unique_heap_ptr@P6AXXZU__crt_internal_free_policy@@@@QAEXXZ 1003c94e f i libucrt:onexit.obj
 0001:0003b964       __crt_at_quick_exit        1003c964 f   libucrt:onexit.obj
 0001:0003b97f       __crt_atexit               1003c97f f   libucrt:onexit.obj
 0001:0003b99a       __execute_onexit_table     1003c99a f   libucrt:onexit.obj
 0001:0003b9be       __initialize_onexit_table  1003c9be f   libucrt:onexit.obj
 0001:0003ba0a       __register_onexit_function 1003ca0a f   libucrt:onexit.obj
 0001:0003bb71       ?initialize@?$dual_state_global@PAU__crt_locale_data@@@__crt_state_management@@QAEXQAU__crt_locale_data@@@Z 1003cb71 f i libucrt:initialization.obj
 0001:0003bbae       ___acrt_initialize         1003cbae f   libucrt:initialization.obj
 0001:0003bbc4       ___acrt_thread_attach      1003cbc4 f   libucrt:initialization.obj
 0001:0003bbd1       ___acrt_thread_detach      1003cbd1 f   libucrt:initialization.obj
 0001:0003bbdb       ___acrt_uninitialize       1003cbdb f   libucrt:initialization.obj
 0001:0003bbf1       ___acrt_uninitialize_critical 1003cbf1 f   libucrt:initialization.obj
 0001:0003bc22       __get_terminate            1003cc22 f   libucrt:terminate.obj
 0001:0003bc38       _set_terminate             1003cc38 f   libucrt:terminate.obj
 0001:0003bc60       _terminate                 1003cc60 f   libucrt:terminate.obj
 0001:0003bcab       ??$__crt_interlocked_exchange_pointer@X$$T@@YAPAXPDSAX$$T@Z 1003ccab f i libucrt:free_base.obj
 0001:0003bcc3       ___acrt_get_msvcrt_heap_handle 1003ccc3 f   libucrt:free_base.obj
 0001:0003bd54       __free_base                1003cd54 f   libucrt:free_base.obj
 0001:0003bd9c       __malloc_base              1003cd9c f   libucrt:malloc_base.obj
 0001:0003be6d       _strcpy_s                  1003ce6d f   libucrt:strcpy_s.obj
 0001:0003bedd       __set_abort_behavior       1003cedd f   libucrt:abort.obj
 0001:0003bf06       _abort                     1003cf06 f   libucrt:abort.obj
 0001:0003bf59       __calloc_base              1003cf59 f   libucrt:calloc_base.obj
 0001:0003bfcd       ??$is_overflow_condition@K@__crt_strtox@@YA_NIK@Z 1003cfcd f i libucrt:atox.obj
 0001:0003c00c       ??$is_overflow_condition@_K@__crt_strtox@@YA_NI_K@Z 1003d00c f i libucrt:atox.obj
 0001:0003c05f       ??$make_c_string_character_source@D$$T@__crt_strtox@@YA?AV?$c_string_character_source@D@0@QBD$$T@Z 1003d05f f i libucrt:atox.obj
 0001:0003c080       ??$make_c_string_character_source@_W$$T@__crt_strtox@@YA?AV?$c_string_character_source@_W@0@QB_W$$T@Z 1003d080 f i libucrt:atox.obj
 0001:0003c0a1       ??$parse_integer@KV?$c_string_character_source@D@__crt_strtox@@@__crt_strtox@@YAKQAU__crt_locale_pointers@@V?$c_string_character_source@D@0@H_N@Z 1003d0a1 f i libucrt:atox.obj
 0001:0003c353       ??$parse_integer@KV?$c_string_character_source@_W@__crt_strtox@@@__crt_strtox@@YAKQAU__crt_locale_pointers@@V?$c_string_character_source@_W@0@H_N@Z 1003d353 f i libucrt:atox.obj
 0001:0003cbf1       ??$parse_integer@_KV?$c_string_character_source@D@__crt_strtox@@@__crt_strtox@@YA_KQAU__crt_locale_pointers@@V?$c_string_character_source@D@0@H_N@Z 1003dbf1 f i libucrt:atox.obj
 0001:0003cf40       ??$parse_integer@_KV?$c_string_character_source@_W@__crt_strtox@@@__crt_strtox@@YA_KQAU__crt_locale_pointers@@V?$c_string_character_source@_W@0@H_N@Z 1003df40 f i libucrt:atox.obj
 0001:0003d6b2       ??$parse_integer_from_string@JD$$T@__crt_strtox@@YAJQBD$$THQAU__crt_locale_pointers@@@Z 1003e6b2 f i libucrt:atox.obj
 0001:0003d6ea       ??$parse_integer_from_string@J_W$$T@__crt_strtox@@YAJQB_W$$THQAU__crt_locale_pointers@@@Z 1003e6ea f i libucrt:atox.obj
 0001:0003d722       ??$parse_integer_from_string@_JD$$T@__crt_strtox@@YA_JQBD$$THQAU__crt_locale_pointers@@@Z 1003e722 f i libucrt:atox.obj
 0001:0003d75a       ??$parse_integer_from_string@_J_W$$T@__crt_strtox@@YA_JQB_W$$THQAU__crt_locale_pointers@@@Z 1003e75a f i libucrt:atox.obj
 0001:0003d792       ??0?$c_string_character_source@D@__crt_strtox@@QAE@QBDQAPBD@Z 1003e792 f i libucrt:atox.obj
 0001:0003d7b5       ??0?$c_string_character_source@_W@__crt_strtox@@QAE@QB_WQAPB_W@Z 1003e7b5 f i libucrt:atox.obj
 0001:0003d7d8       ??1?$c_string_character_source@D@__crt_strtox@@QAE@XZ 1003e7d8 f i libucrt:atox.obj
 0001:0003d7e7       ??1?$c_string_character_source@_W@__crt_strtox@@QAE@XZ 1003e7e7 f i libucrt:atox.obj
 0001:0003d7f6       ?get@?$c_string_character_source@D@__crt_strtox@@QAEDXZ 1003e7f6 f i libucrt:atox.obj
 0001:0003d800       ?get@?$c_string_character_source@_W@__crt_strtox@@QAE_WXZ 1003e800 f i libucrt:atox.obj
 0001:0003d80d       ?is_space@__crt_strtox@@YA_NDQAU__crt_locale_pointers@@@Z 1003e80d f i libucrt:atox.obj
 0001:0003d833       ?is_space@__crt_strtox@@YA_N_WPAU__crt_locale_pointers@@@Z 1003e833 f i libucrt:atox.obj
 0001:0003d852       ?maximum_signed_value@__crt_strtox@@YAJK@Z 1003e852 f i libucrt:atox.obj
 0001:0003d858       ?maximum_signed_value@__crt_strtox@@YA_J_K@Z 1003e858 f i libucrt:atox.obj
 0001:0003d863       ?minimum_signed_value@__crt_strtox@@YAJK@Z 1003e863 f i libucrt:atox.obj
 0001:0003d869       ?minimum_signed_value@__crt_strtox@@YA_J_K@Z 1003e869 f i libucrt:atox.obj
 0001:0003d873       ?parse_digit@__crt_strtox@@YAID@Z 1003e873 f i libucrt:atox.obj
 0001:0003d8bb       ?parse_digit@__crt_strtox@@YAI_W@Z 1003e8bb f i libucrt:atox.obj
 0001:0003db18       ?restore_state@?$c_string_character_source@D@__crt_strtox@@QAE_NQBD@Z 1003eb18 f i libucrt:atox.obj
 0001:0003db2c       ?restore_state@?$c_string_character_source@_W@__crt_strtox@@QAE_NQB_W@Z 1003eb2c f i libucrt:atox.obj
 0001:0003db40       ?save_state@?$c_string_character_source@D@__crt_strtox@@QBEPBDXZ 1003eb40 f i libucrt:atox.obj
 0001:0003db43       ?save_state@?$c_string_character_source@_W@__crt_strtox@@QBEPB_WXZ 1003eb43 f i libucrt:atox.obj
 0001:0003db46       ?unget@?$c_string_character_source@D@__crt_strtox@@QAEXD@Z 1003eb46 f i libucrt:atox.obj
 0001:0003db78       ?unget@?$c_string_character_source@_W@__crt_strtox@@QAEX_W@Z 1003eb78 f i libucrt:atox.obj
 0001:0003dbaf       ?validate@?$c_string_character_source@D@__crt_strtox@@QBE_NXZ 1003ebaf f i libucrt:atox.obj
 0001:0003dbd0       ?validate@?$c_string_character_source@_W@__crt_strtox@@QBE_NXZ 1003ebd0 f i libucrt:atox.obj
 0001:0003dbf1       ?wide_character_to_digit@__crt_strtox@@YAH_W@Z 1003ebf1 f i libucrt:atox.obj
 0001:0003ddfa       ___acrt_get_locale_data_prefix 1003edfa f i libucrt:atox.obj
 0001:0003de09       __atoi64                   1003ee09 f   libucrt:atox.obj
 0001:0003de3d       __atoi64_l                 1003ee3d f   libucrt:atox.obj
 0001:0003de72       __atoi_l                   1003ee72 f   libucrt:atox.obj
 0001:0003dea7       __atol_l                   1003eea7 f   libucrt:atox.obj
 0001:0003dedc       __atoll_l                  1003eedc f   libucrt:atox.obj
 0001:0003df11       __chvalidchk_l             1003ef11 f i libucrt:atox.obj
 0001:0003df45       __ischartype_l             1003ef45 f i libucrt:atox.obj
 0001:0003df84       __wtoi                     1003ef84 f   libucrt:atox.obj
 0001:0003dfb8       __wtoi64                   1003efb8 f   libucrt:atox.obj
 0001:0003dfec       __wtoi64_l                 1003efec f   libucrt:atox.obj
 0001:0003e021       __wtoi_l                   1003f021 f   libucrt:atox.obj
 0001:0003e056       __wtol                     1003f056 f   libucrt:atox.obj
 0001:0003e08a       __wtol_l                   1003f08a f   libucrt:atox.obj
 0001:0003e0bf       __wtoll                    1003f0bf f   libucrt:atox.obj
 0001:0003e0f3       __wtoll_l                  1003f0f3 f   libucrt:atox.obj
 0001:0003e128       _atoi                      1003f128 f   libucrt:atox.obj
 0001:0003e15c       _atol                      1003f15c f   libucrt:atox.obj
 0001:0003e190       _atoll                     1003f190 f   libucrt:atox.obj
 0001:0003e1c4       ??$__crt_fast_decode_pointer@P6AXPB_W00II@Z@@YAP6AXPB_W00II@ZQ6AX000II@Z@Z 1003f1c4 f i libucrt:invalid_parameter.obj
 0001:0003e1df       ??$__crt_fast_encode_pointer@P6AXPB_W00II@Z@@YAP6AXPB_W00II@ZQ6AX000II@Z@Z 1003f1df f i libucrt:invalid_parameter.obj
 0001:0003e205       ?initialize@?$dual_state_global@P6AXPB_W00II@Z@__crt_state_management@@QAEXQ6AXPB_W00II@Z@Z 1003f205 f i libucrt:invalid_parameter.obj
 0001:0003e242       ?value@?$dual_state_global@P6AXPB_W00II@Z@__crt_state_management@@QAEAAP6AXPB_W00II@ZXZ 1003f242 f i libucrt:invalid_parameter.obj
 0001:0003e245       ___acrt_call_reportfault   1003f245 f   libucrt:invalid_parameter.obj
 0001:0003e3ce       ___acrt_initialize_invalid_parameter_handler 1003f3ce f   libucrt:invalid_parameter.obj
 0001:0003e3e7       __get_invalid_parameter_handler 1003f3e7 f   libucrt:invalid_parameter.obj
 0001:0003e3fe       __get_thread_local_invalid_parameter_handler 1003f3fe f   libucrt:invalid_parameter.obj
 0001:0003e413       __invalid_parameter        1003f413 f   libucrt:invalid_parameter.obj
 0001:0003e4ac       __invalid_parameter_noinfo 1003f4ac f   libucrt:invalid_parameter.obj
 0001:0003e4c0       __invalid_parameter_noinfo_noreturn 1003f4c0 f   libucrt:invalid_parameter.obj
 0001:0003e4e4       __invoke_watson            1003f4e4 f   libucrt:invalid_parameter.obj
 0001:0003e523       __set_invalid_parameter_handler 1003f523 f   libucrt:invalid_parameter.obj
 0001:0003e55f       __set_thread_local_invalid_parameter_handler 1003f55f f   libucrt:invalid_parameter.obj
 0001:0003e583       ___acrt_errno_from_os_error 1003f583 f   libucrt:errno.obj
 0001:0003e5d6       ___acrt_errno_map_os_error 1003f5d6 f   libucrt:errno.obj
 0001:0003e601       ___doserrno                1003f601 f   libucrt:errno.obj
 0001:0003e618       __errno                    1003f618 f   libucrt:errno.obj
 0001:0003e62f       __get_doserrno             1003f62f f   libucrt:errno.obj
 0001:0003e65d       __get_errno                1003f65d f   libucrt:errno.obj
 0001:0003e68b       __set_doserrno             1003f68b f   libucrt:errno.obj
 0001:0003e6b4       __set_errno                1003f6b4 f   libucrt:errno.obj
 0001:0003e734       ??$?B$$A6GHPA_WKJ@Z@__crt_fast_encoded_nullptr_t@@QBEP6GHPA_WKJ@ZXZ 1003f734 f i libucrt:winapi_thunks.obj
 0001:0003e752       ??$?RV<lambda_9227be29367c048ad7fd93a717dcb1a1>@@AAV<lambda_a463b7b0560cfcaf9b17f27c6ef46564>@@V<lambda_ccea11b5727ccf69be64f5f5d9a08d9f>@@@?$__crt_seh_guarded_call@H@@QAEH$$QAV<lambda_9227be29367c048ad7fd93a717dcb1a1>@@AAV<lambda_a463b7b0560cfcaf9b17f27c6ef46564>@@$$QAV<lambda_ccea11b5727ccf69be64f5f5d9a08d9f>@@@Z 1003f752 f i libucrt:winapi_thunks.obj
 0001:0003e7f7       ??$__acrt_lock_and_call@V<lambda_a463b7b0560cfcaf9b17f27c6ef46564>@@@@YAHW4__acrt_lock_id@@$$QAV<lambda_a463b7b0560cfcaf9b17f27c6ef46564>@@@Z 1003f7f7 f i libucrt:winapi_thunks.obj
 0001:0003e829       ??$__crt_fast_decode_pointer@P6GHPA_WKJ@Z@@YAP6GHPA_WKJ@ZQ6GH0KJ@Z@Z 1003f829 f i libucrt:winapi_thunks.obj
 0001:0003e844       ??$__crt_fast_encode_pointer@P6GHPA_WKJ@Z@@YAP6GHPA_WKJ@ZQ6GH0KJ@Z@Z 1003f844 f i libucrt:winapi_thunks.obj
 0001:0003ef71       ___acrt_AreFileApisANSI@0  1003ff71 f   libucrt:winapi_thunks.obj
 0001:0003efd2       ___acrt_CompareStringEx@36 1003ffd2 f   libucrt:winapi_thunks.obj
 0001:0003f063       ___acrt_EnumSystemLocalesEx@16 10040063 f   libucrt:winapi_thunks.obj
 0001:0003f0eb       ___acrt_FlsAlloc@4         100400eb f   libucrt:winapi_thunks.obj
 0001:0003f156       ___acrt_FlsFree@4          10040156 f   libucrt:winapi_thunks.obj
 0001:0003f1c1       ___acrt_FlsGetValue@4      100401c1 f   libucrt:winapi_thunks.obj
 0001:0003f22c       ___acrt_FlsSetValue@8      1004022c f   libucrt:winapi_thunks.obj
 0001:0003f29b       ___acrt_GetDateFormatEx@28 1004029b f   libucrt:winapi_thunks.obj
 0001:0003f33d       ___acrt_GetEnabledXStateFeatures@0 1004033d f   libucrt:winapi_thunks.obj
 0001:0003f39f       ___acrt_GetFileInformationByHandleEx@16 1004039f f   libucrt:winapi_thunks.obj
 0001:0003f41a       ___acrt_GetLocaleInfoEx@16 1004041a f   libucrt:winapi_thunks.obj
 0001:0003f49e       ___acrt_GetSystemTimePreciseAsFileTime@4 1004049e f   libucrt:winapi_thunks.obj
 0001:0003f509       ___acrt_GetTimeFormatEx@24 10040509 f   libucrt:winapi_thunks.obj
 0001:0003f595       ___acrt_GetUserDefaultLocaleName@8 10040595 f   libucrt:winapi_thunks.obj
 0001:0003f615       ___acrt_GetXStateFeaturesMask@8 10040615 f   libucrt:winapi_thunks.obj
 0001:0003f681       ___acrt_InitializeCriticalSectionEx@12 10040681 f   libucrt:winapi_thunks.obj
 0001:0003f6fb       ___acrt_IsValidLocaleName@4 100406fb f   libucrt:winapi_thunks.obj
 0001:0003f776       ___acrt_LCIDToLocaleName@16 10040776 f   libucrt:winapi_thunks.obj
 0001:0003f7fa       ___acrt_LCMapStringEx@36   100407fa f   libucrt:winapi_thunks.obj
 0001:0003f8a4       ___acrt_LocaleNameToLCID@8 100408a4 f   libucrt:winapi_thunks.obj
 0001:0003f917       ___acrt_LocateXStateFeature@12 10040917 f   libucrt:winapi_thunks.obj
 0001:0003f96e       ___acrt_MessageBoxA@16     1004096e f   libucrt:winapi_thunks.obj
 0001:0003f9c9       ___acrt_MessageBoxW@16     100409c9 f   libucrt:winapi_thunks.obj
 0001:0003fa24       ___acrt_RoInitialize@4     10040a24 f   libucrt:winapi_thunks.obj
 0001:0003fa8a       ___acrt_RoUninitialize@0   10040a8a f   libucrt:winapi_thunks.obj
 0001:0003fae5       ___acrt_RtlGenRandom@8     10040ae5 f   libucrt:winapi_thunks.obj
 0001:0003fb51       ___acrt_SetThreadStackGuarantee@4 10040b51 f   libucrt:winapi_thunks.obj
 0001:0003fbb7       ___acrt_can_show_message_box 10040bb7 f   libucrt:winapi_thunks.obj
 0001:0003fbd6       ___acrt_can_use_vista_locale_apis 10040bd6 f   libucrt:winapi_thunks.obj
 0001:0003fbe5       ___acrt_can_use_xstate_apis 10040be5 f   libucrt:winapi_thunks.obj
 0001:0003fbf4       ___acrt_get_parent_window  10040bf4 f   libucrt:winapi_thunks.obj
 0001:0003fc92       ___acrt_initialize_winapi_thunks 10040c92 f   libucrt:winapi_thunks.obj
 0001:0003fcc1       ___acrt_is_interactive     10040cc1 f   libucrt:winapi_thunks.obj
 0001:0003fd90       ___acrt_is_packaged_app    10040d90 f   libucrt:winapi_thunks.obj
 0001:0003fe38       ___acrt_uninitialize_winapi_thunks 10040e38 f   libucrt:winapi_thunks.obj
 0001:0003fe7b       ??0__crt_stdio_stream@@QAE@QAU__crt_stdio_stream_data@@@Z 10040e7b f i libucrt:closeall.obj
 0001:0003fe8f       __fcloseall                10040e8f f   libucrt:closeall.obj
 0001:0003ff57       ___acrt_stdio_flush_nolock 10040f57 f   libucrt:fflush.obj
 0001:0003ffd6       __fflush_nolock            10040fd6 f   libucrt:fflush.obj
 0001:0004002e       __flushall                 1004102e f   libucrt:fflush.obj
 0001:00040147       _fflush                    10041147 f   libucrt:fflush.obj
 0001:000401b6       ?has_crt_buffer@__crt_stdio_stream@@QBE_NXZ 100411b6 f i libucrt:_freebuf.obj
 0001:000401c5       ___acrt_stdio_free_buffer_nolock 100411c5 f   libucrt:_freebuf.obj
 0001:00040402       ___acrt_initialize_lowio   10041402 f   libucrt:ioinit.obj
 0001:0004046d       ___acrt_uninitialize_lowio 1004146d f   libucrt:ioinit.obj
 0001:000404bf       ___isascii                 100414bf f i libucrt:_ctype.obj
 0001:000404d5       ___iscsym                  100414d5 f i libucrt:_ctype.obj
 0001:000404ff       ___iscsymf                 100414ff f i libucrt:_ctype.obj
 0001:00040525       ___toascii                 10041525 f i libucrt:_ctype.obj
 0001:00040535       __isalnum_l                10041535 f i libucrt:_ctype.obj
 0001:0004057e       __isalpha_l                1004157e f i libucrt:_ctype.obj
 0001:000405c7       __isblank_l                100415c7 f i libucrt:_ctype.obj
 0001:0004061a       __iscntrl_l                1004161a f i libucrt:_ctype.obj
 0001:00040660       __iscsym_l                 10041660 f i libucrt:_ctype.obj
 0001:0004068b       __iscsymf_l                1004168b f i libucrt:_ctype.obj
 0001:000406b6       __isdigit_l                100416b6 f i libucrt:_ctype.obj
 0001:000406fc       __isgraph_l                100416fc f i libucrt:_ctype.obj
 0001:00040745       __islower_l                10041745 f i libucrt:_ctype.obj
 0001:0004078b       __isprint_l                1004178b f i libucrt:_ctype.obj
 0001:000407d4       __ispunct_l                100417d4 f i libucrt:_ctype.obj
 0001:0004081a       __isspace_l                1004181a f i libucrt:_ctype.obj
 0001:00040860       __isupper_l                10041860 f i libucrt:_ctype.obj
 0001:000408a6       __isxdigit_l               100418a6 f i libucrt:_ctype.obj
 0001:000408ef       _isalnum                   100418ef f i libucrt:_ctype.obj
 0001:00040929       _isalpha                   10041929 f i libucrt:_ctype.obj
 0001:00040963       _isblank                   10041963 f i libucrt:_ctype.obj
 0001:000409a7       _iscntrl                   100419a7 f i libucrt:_ctype.obj
 0001:000409df       _isdigit                   100419df f i libucrt:_ctype.obj
 0001:00040a17       _isgraph                   10041a17 f i libucrt:_ctype.obj
 0001:00040a51       _islower                   10041a51 f i libucrt:_ctype.obj
 0001:00040a89       _isprint                   10041a89 f i libucrt:_ctype.obj
 0001:00040ac3       _ispunct                   10041ac3 f i libucrt:_ctype.obj
 0001:00040afb       _isspace                   10041afb f i libucrt:_ctype.obj
 0001:00040b33       _isupper                   10041b33 f i libucrt:_ctype.obj
 0001:00040b6b       _isxdigit                  10041b6b f i libucrt:_ctype.obj
 0001:00040f63       __tolower                  10041f63 f   libucrt:tolower_toupper.obj
 0001:00040f73       __tolower_l                10041f73 f   libucrt:tolower_toupper.obj
 0001:00040f93       __toupper                  10041f93 f   libucrt:tolower_toupper.obj
 0001:00040fa3       __toupper_l                10041fa3 f   libucrt:tolower_toupper.obj
 0001:00040fc3       _tolower                   10041fc3 f   libucrt:tolower_toupper.obj
 0001:00040fff       _toupper                   10041fff f   libucrt:tolower_toupper.obj
 0001:0004103b       ??$make_c_string_character_source@DPAPAD@__crt_strtox@@YA?AV?$c_string_character_source@D@0@QBDQAPAD@Z 1004203b f i libucrt:strtox.obj
 0001:0004105c       ??$make_c_string_character_source@_WPAPA_W@__crt_strtox@@YA?AV?$c_string_character_source@_W@0@QB_WQAPA_W@Z 1004205c f i libucrt:strtox.obj
 0001:0004107d       ??$parse_integer_from_string@JDPAPAD@__crt_strtox@@YAJQBDQAPADHQAU__crt_locale_pointers@@@Z 1004207d f i libucrt:strtox.obj
 0001:000410b5       ??$parse_integer_from_string@J_WPAPA_W@__crt_strtox@@YAJQB_WQAPA_WHQAU__crt_locale_pointers@@@Z 100420b5 f i libucrt:strtox.obj
 0001:000410ed       ??$parse_integer_from_string@KDPAPAD@__crt_strtox@@YAKQBDQAPADHQAU__crt_locale_pointers@@@Z 100420ed f i libucrt:strtox.obj
 0001:00041125       ??$parse_integer_from_string@K_WPAPA_W@__crt_strtox@@YAKQB_WQAPA_WHQAU__crt_locale_pointers@@@Z 10042125 f i libucrt:strtox.obj
 0001:0004115d       ??$parse_integer_from_string@_JDPAPAD@__crt_strtox@@YA_JQBDQAPADHQAU__crt_locale_pointers@@@Z 1004215d f i libucrt:strtox.obj
 0001:00041195       ??$parse_integer_from_string@_J_WPAPA_W@__crt_strtox@@YA_JQB_WQAPA_WHQAU__crt_locale_pointers@@@Z 10042195 f i libucrt:strtox.obj
 0001:000411cd       ??$parse_integer_from_string@_KDPAPAD@__crt_strtox@@YA_KQBDQAPADHQAU__crt_locale_pointers@@@Z 100421cd f i libucrt:strtox.obj
 0001:00041205       ??$parse_integer_from_string@_K_WPAPA_W@__crt_strtox@@YA_KQB_WQAPA_WHQAU__crt_locale_pointers@@@Z 10042205 f i libucrt:strtox.obj
 0001:0004123d       __strtoi64                 1004223d f   libucrt:strtox.obj
 0001:00041274       __strtoi64_l               10042274 f   libucrt:strtox.obj
 0001:000412ac       __strtoimax_l              100422ac f   libucrt:strtox.obj
 0001:000412e4       __strtol_l                 100422e4 f   libucrt:strtox.obj
 0001:0004131c       __strtoll_l                1004231c f   libucrt:strtox.obj
 0001:00041354       __strtoui64                10042354 f   libucrt:strtox.obj
 0001:0004138b       __strtoui64_l              1004238b f   libucrt:strtox.obj
 0001:000413c3       __strtoul_l                100423c3 f   libucrt:strtox.obj
 0001:000413fb       __strtoull_l               100423fb f   libucrt:strtox.obj
 0001:00041433       __strtoumax_l              10042433 f   libucrt:strtox.obj
 0001:0004146b       __wcstoi64                 1004246b f   libucrt:strtox.obj
 0001:000414a2       __wcstoi64_l               100424a2 f   libucrt:strtox.obj
 0001:000414da       __wcstoimax_l              100424da f   libucrt:strtox.obj
 0001:00041512       __wcstol_l                 10042512 f   libucrt:strtox.obj
 0001:0004154a       __wcstoll_l                1004254a f   libucrt:strtox.obj
 0001:00041582       __wcstoui64                10042582 f   libucrt:strtox.obj
 0001:000415b9       __wcstoui64_l              100425b9 f   libucrt:strtox.obj
 0001:000415f1       __wcstoul_l                100425f1 f   libucrt:strtox.obj
 0001:00041629       __wcstoull_l               10042629 f   libucrt:strtox.obj
 0001:00041661       __wcstoumax_l              10042661 f   libucrt:strtox.obj
 0001:00041699       _strtoimax                 10042699 f   libucrt:strtox.obj
 0001:000416d0       _strtol                    100426d0 f   libucrt:strtox.obj
 0001:00041707       _strtoll                   10042707 f   libucrt:strtox.obj
 0001:0004173e       _strtoul                   1004273e f   libucrt:strtox.obj
 0001:00041775       _strtoull                  10042775 f   libucrt:strtox.obj
 0001:000417ac       _strtoumax                 100427ac f   libucrt:strtox.obj
 0001:000417e3       _wcstoimax                 100427e3 f   libucrt:strtox.obj
 0001:0004181a       _wcstol                    1004281a f   libucrt:strtox.obj
 0001:00041851       _wcstoll                   10042851 f   libucrt:strtox.obj
 0001:00041888       _wcstoul                   10042888 f   libucrt:strtox.obj
 0001:000418bf       _wcstoull                  100428bf f   libucrt:strtox.obj
 0001:000418f6       _wcstoumax                 100428f6 f   libucrt:strtox.obj
 0001:0004192d       __mbtowc_l                 1004292d f   libucrt:mbtowc.obj
 0001:00041a65       _mbtowc                    10042a65 f   libucrt:mbtowc.obj
 0001:00041a85       __wctomb_l                 10042a85 f   libucrt:wctomb.obj
 0001:00041aec       __wctomb_s_l               10042aec f   libucrt:wctomb.obj
 0001:00041c55       _wctomb                    10042c55 f   libucrt:wctomb.obj
 0001:00041c96       _wctomb_s                  10042c96 f   libucrt:wctomb.obj
 0001:000423ae       ??1?$__crt_simd_cleanup_guard@$00@@QAE@XZ 100433ae f i libucrt:strnlen.obj
 0001:000423b2       ??1?$__crt_simd_cleanup_guard@$0A@@@QAE@XZ 100433b2 f i libucrt:strnlen.obj
 0001:000423b3       ?compare_equals@?$__crt_simd_traits@$00E@@SA?AT__m256i@@T2@0@Z 100433b3 f i libucrt:strnlen.obj
 0001:000423b8       ?compare_equals@?$__crt_simd_traits@$00G@@SA?AT__m256i@@T2@0@Z 100433b8 f i libucrt:strnlen.obj
 0001:000423bd       ?compare_equals@?$__crt_simd_traits@$0A@E@@SA?AT__m128i@@T2@0@Z 100433bd f i libucrt:strnlen.obj
 0001:000423c2       ?compare_equals@?$__crt_simd_traits@$0A@G@@SA?AT__m128i@@T2@0@Z 100433c2 f i libucrt:strnlen.obj
 0001:000423c7       ?compute_byte_mask@?$__crt_simd_pack_traits@$00@@SAHT__m256i@@@Z 100433c7 f i libucrt:strnlen.obj
 0001:000423cc       ?compute_byte_mask@?$__crt_simd_pack_traits@$0A@@@SAHT__m128i@@@Z 100433cc f i libucrt:strnlen.obj
 0001:000423d1       ?get_zero_pack@?$__crt_simd_pack_traits@$00@@SA?AT__m256i@@XZ 100433d1 f i libucrt:strnlen.obj
 0001:000423d6       ?get_zero_pack@?$__crt_simd_pack_traits@$0A@@@SA?AT__m128i@@XZ 100433d6 f i libucrt:strnlen.obj
 0001:000423db       _strnlen                   100433db f   libucrt:strnlen.obj
 0001:0004254b       _wcsnlen                   1004354b f   libucrt:strnlen.obj
 0001:0004276f       ??$?RU__acrt_ptd@@@__crt_internal_free_policy@@QBEXQBU__acrt_ptd@@@Z 1004376f f i libucrt:per_thread_data.obj
 0001:00042785       ??$?RV<lambda_3518db117f0e7cdb002338c5d3c47b6c>@@AAV<lambda_b2ea41f6bbb362cd97d94c6828d90b61>@@V<lambda_abdedf541bb04549bc734292b4a045d4>@@@?$__crt_seh_guarded_call@X@@QAEX$$QAV<lambda_3518db117f0e7cdb002338c5d3c47b6c>@@AAV<lambda_b2ea41f6bbb362cd97d94c6828d90b61>@@$$QAV<lambda_abdedf541bb04549bc734292b4a045d4>@@@Z 10043785 f i libucrt:per_thread_data.obj
 0001:000427e9       ??$?RV<lambda_51b6e8b1eb166f2a3faf91f424b38130>@@AAV<lambda_6250bd4b2a391816dd638c3bf72b0bcb>@@V<lambda_0b5a4a3e68152e1d9b943535f5f47bed>@@@?$__crt_seh_guarded_call@X@@QAEX$$QAV<lambda_51b6e8b1eb166f2a3faf91f424b38130>@@AAV<lambda_6250bd4b2a391816dd638c3bf72b0bcb>@@$$QAV<lambda_0b5a4a3e68152e1d9b943535f5f47bed>@@@Z 100437e9 f i libucrt:per_thread_data.obj
 0001:00042862       ??$?RV<lambda_5b71d36f03204c0beab531769a5b5694>@@AAV<lambda_be2b3da3f62db62e9dad5dc70221a656>@@V<lambda_8f9ce462984622f9bf76b59e2aaaf805>@@@?$__crt_seh_guarded_call@X@@QAEX$$QAV<lambda_5b71d36f03204c0beab531769a5b5694>@@AAV<lambda_be2b3da3f62db62e9dad5dc70221a656>@@$$QAV<lambda_8f9ce462984622f9bf76b59e2aaaf805>@@@Z 10043862 f i libucrt:per_thread_data.obj
 0001:000428bf       ??$?RV<lambda_9df27f884b057bc3edfc946cb5b7cf47>@@AAV<lambda_e69574bed617af4e071282c136b37893>@@V<lambda_cc0d902bcbbeb830f749456577db4721>@@@?$__crt_seh_guarded_call@X@@QAEX$$QAV<lambda_9df27f884b057bc3edfc946cb5b7cf47>@@AAV<lambda_e69574bed617af4e071282c136b37893>@@$$QAV<lambda_cc0d902bcbbeb830f749456577db4721>@@@Z 100438bf f i libucrt:per_thread_data.obj
 0001:00042919       ??$__acrt_lock_and_call@V<lambda_6250bd4b2a391816dd638c3bf72b0bcb>@@@@YAXW4__acrt_lock_id@@$$QAV<lambda_6250bd4b2a391816dd638c3bf72b0bcb>@@@Z 10043919 f i libucrt:per_thread_data.obj
 0001:0004294b       ??$__acrt_lock_and_call@V<lambda_b2ea41f6bbb362cd97d94c6828d90b61>@@@@YAXW4__acrt_lock_id@@$$QAV<lambda_b2ea41f6bbb362cd97d94c6828d90b61>@@@Z 1004394b f i libucrt:per_thread_data.obj
 0001:0004297d       ??$__acrt_lock_and_call@V<lambda_be2b3da3f62db62e9dad5dc70221a656>@@@@YAXW4__acrt_lock_id@@$$QAV<lambda_be2b3da3f62db62e9dad5dc70221a656>@@@Z 1004397d f i libucrt:per_thread_data.obj
 0001:000429af       ??$__acrt_lock_and_call@V<lambda_e69574bed617af4e071282c136b37893>@@@@YAXW4__acrt_lock_id@@$$QAV<lambda_e69574bed617af4e071282c136b37893>@@@Z 100439af f i libucrt:per_thread_data.obj
 0001:00042ae8       ??0?$__crt_unique_heap_ptr@U__acrt_ptd@@U__crt_internal_free_policy@@@@QAE@QAU__acrt_ptd@@@Z 10043ae8 f i libucrt:per_thread_data.obj
 0001:00042afc       ??0__crt_scoped_get_last_error_reset@@QAE@XZ 10043afc f i libucrt:per_thread_data.obj
 0001:00042b11       ??1?$__crt_unique_heap_ptr@U__acrt_ptd@@U__crt_internal_free_policy@@@@QAE@XZ 10043b11 f i libucrt:per_thread_data.obj
 0001:00042b27       ??1__crt_scoped_get_last_error_reset@@QAE@XZ 10043b27 f i libucrt:per_thread_data.obj
 0001:00042b32       ??B?$__crt_unique_heap_ptr@U__acrt_ptd@@U__crt_internal_free_policy@@@@QBE_NXZ 10043b32 f i libucrt:per_thread_data.obj
 0001:00042ca8       ?dangerous_get_state_array@?$dual_state_global@PAU__crt_locale_data@@@__crt_state_management@@QAEPAPAU__crt_locale_data@@XZ 10043ca8 f i libucrt:per_thread_data.obj
 0001:00042dac       ?detach@?$__crt_unique_heap_ptr@U__acrt_ptd@@U__crt_internal_free_policy@@@@QAEPAU__acrt_ptd@@XZ 10043dac f i libucrt:per_thread_data.obj
 0001:00042db2       ?get@?$__crt_unique_heap_ptr@U__acrt_ptd@@U__crt_internal_free_policy@@@@QBEPAU__acrt_ptd@@XZ 10043db2 f i libucrt:per_thread_data.obj
 0001:00042ec1       ?is_valid@?$__crt_unique_heap_ptr@U__acrt_ptd@@U__crt_internal_free_policy@@@@QBE_NXZ 10043ec1 f i libucrt:per_thread_data.obj
 0001:00042ecb       ?release@?$__crt_unique_heap_ptr@U__acrt_ptd@@U__crt_internal_free_policy@@@@QAEXXZ 10043ecb f i libucrt:per_thread_data.obj
 0001:00042f57       ?value@?$dual_state_global@PAU__crt_locale_data@@@__crt_state_management@@QAEAAPAU__crt_locale_data@@XZ 10043f57 f i libucrt:per_thread_data.obj
 0001:00042f5a       ___acrt_freeptd            10043f5a f   libucrt:per_thread_data.obj
 0001:00042f91       ___acrt_getptd             10043f91 f   libucrt:per_thread_data.obj
 0001:00043036       ___acrt_getptd_noexit      10044036 f   libucrt:per_thread_data.obj
 0001:000430dc       ___acrt_initialize_ptd     100440dc f   libucrt:per_thread_data.obj
 0001:00043113       ___acrt_uninitialize_ptd   10044113 f   libucrt:per_thread_data.obj
 0001:00043133       ___threadhandle            10044133 f   libucrt:per_thread_data.obj
 0001:00043139       ___threadid                10044139 f   libucrt:per_thread_data.obj
 0001:0004313f       ___acrt_update_locale_info 1004413f f   libucrt:locale_update.obj
 0001:00043177       ___acrt_update_multibyte_info 10044177 f   libucrt:locale_update.obj
 0001:000431af       ?__acrt_fp_classify@@YA?AW4__acrt_fp_class@@ABN@Z 100441af f i libucrt:cvt.obj
 0001:00043236       ?__acrt_fp_is_negative@@YA_NABN@Z 10044236 f i libucrt:cvt.obj
 0001:00043ca9       ?strrchr@@YAPADQADH@Z      10044ca9 f i libucrt:cvt.obj
 0001:00043cb6       ___acrt_fp_format          10044cb6 f   libucrt:cvt.obj
 0001:00043e90       __fputwc_nolock            10044e90 f   libucrt:fputwc.obj
 0001:00043fff       __fputwchar                10044fff f   libucrt:fputwc.obj
 0001:0004401f       __putwc_nolock             1004501f f   libucrt:fputwc.obj
 0001:0004402c       _fputwc                    1004502c f   libucrt:fputwc.obj
 0001:000440c5       _putwc                     100450c5 f   libucrt:fputwc.obj
 0001:000440d2       _putwchar                  100450d2 f   libucrt:fputwc.obj
 0001:000440df       ?lowio_handle@__crt_stdio_stream@@QBEHXZ 100450df f i libucrt:fileno.obj
 0001:000440e5       __fileno                   100450e5 f   libucrt:fileno.obj
 0001:00044114       __fputc_nolock             10045114 f   libucrt:fputc.obj
 0001:00044147       __fputchar                 10045147 f   libucrt:fputc.obj
 0001:00044167       __putc_nolock              10045167 f   libucrt:fputc.obj
 0001:00044174       _fputc                     10045174 f   libucrt:fputc.obj
 0001:000442b9       _putc                      100452b9 f   libucrt:fputc.obj
 0001:000442c6       _putchar                   100452c6 f   libucrt:fputc.obj
 0001:000442d3       __get_printf_count_output  100452d3 f   libucrt:printf_count_output.obj
 0001:000442ed       __set_printf_count_output  100452ed f   libucrt:printf_count_output.obj
 0001:00044321       ?has_temporary_buffer@__crt_stdio_stream@@QBE_NXZ 10045321 f i libucrt:_sftbuf.obj
 0001:00044330       ___acrt_stdio_begin_temporary_buffering_nolock 10045330 f   libucrt:_sftbuf.obj
 0001:00044412       ___acrt_stdio_end_temporary_buffering_nolock 10045412 f   libucrt:_sftbuf.obj
 0001:0004445c       ??$?RU__crt_locale_data@@@__crt_internal_free_policy@@QBEXQBU__crt_locale_data@@@Z 1004545c f i libucrt:wsetlocale.obj
 0001:00044472       ??$?RU__crt_locale_pointers@@@__crt_internal_free_policy@@QBEXQBU__crt_locale_pointers@@@Z 10045472 f i libucrt:wsetlocale.obj
 0001:00044488       ??$?RU__crt_multibyte_data@@@__crt_internal_free_policy@@QBEXQBU__crt_multibyte_data@@@Z 10045488 f i libucrt:wsetlocale.obj
 0001:0004449e       ??$?RV<lambda_70818de7b02deff9841e8b0962a60ed9>@@AAV<lambda_2af78c5f5901b1372d98f9ab3177dfa6>@@AAV<lambda_f51fe5fd7c79a33db34fc9310f277369>@@@?$__crt_seh_guarded_call@X@@QAEX$$QAV<lambda_70818de7b02deff9841e8b0962a60ed9>@@AAV<lambda_2af78c5f5901b1372d98f9ab3177dfa6>@@AAV<lambda_f51fe5fd7c79a33db34fc9310f277369>@@@Z 1004549e f i libucrt:wsetlocale.obj
 0001:000444e7       ??$?RV<lambda_76aaead6e312921abc834cb00a638bdd>@@AAV<lambda_176e34f99554166dd2fac165c457248c>@@V<lambda_998ee1c9f4290b119b936bcd6215875a>@@@?$__crt_seh_guarded_call@X@@QAEX$$QAV<lambda_76aaead6e312921abc834cb00a638bdd>@@AAV<lambda_176e34f99554166dd2fac165c457248c>@@$$QAV<lambda_998ee1c9f4290b119b936bcd6215875a>@@@Z 100454e7 f i libucrt:wsetlocale.obj
 0001:00044543       ??$?RV<lambda_c76fdea48760d5f9368b465f31df4405>@@AAV<lambda_e378711a6f6581bf7f0efd7cdf97f5d9>@@V<lambda_e927a58b2a85c081d733e8c6192ae2d2>@@@?$__crt_seh_guarded_call@X@@QAEX$$QAV<lambda_c76fdea48760d5f9368b465f31df4405>@@AAV<lambda_e378711a6f6581bf7f0efd7cdf97f5d9>@@$$QAV<lambda_e927a58b2a85c081d733e8c6192ae2d2>@@@Z 10045543 f i libucrt:wsetlocale.obj
 0001:00044596       ??$?RV<lambda_c9469061b39d205f0f236529d4a41659>@@AAV<lambda_b7fb1a997d3ebc0cc0186c5835178808>@@V<lambda_14b92c79d699846b5cc916cd4cf280e4>@@@?$__crt_seh_guarded_call@X@@QAEX$$QAV<lambda_c9469061b39d205f0f236529d4a41659>@@AAV<lambda_b7fb1a997d3ebc0cc0186c5835178808>@@$$QAV<lambda_14b92c79d699846b5cc916cd4cf280e4>@@@Z 10045596 f i libucrt:wsetlocale.obj
 0001:000445f0       ??$__acrt_lock_and_call@V<lambda_176e34f99554166dd2fac165c457248c>@@@@YAXW4__acrt_lock_id@@$$QAV<lambda_176e34f99554166dd2fac165c457248c>@@@Z 100455f0 f i libucrt:wsetlocale.obj
 0001:00044622       ??$__acrt_lock_and_call@V<lambda_b7fb1a997d3ebc0cc0186c5835178808>@@@@YAXW4__acrt_lock_id@@$$QAV<lambda_b7fb1a997d3ebc0cc0186c5835178808>@@@Z 10045622 f i libucrt:wsetlocale.obj
 0001:00044654       ??$__acrt_lock_and_call@V<lambda_e378711a6f6581bf7f0efd7cdf97f5d9>@@@@YAXW4__acrt_lock_id@@$$QAV<lambda_e378711a6f6581bf7f0efd7cdf97f5d9>@@@Z 10045654 f i libucrt:wsetlocale.obj
 0001:00044686       ??$__crt_call_and_cleanup@V<lambda_2af78c5f5901b1372d98f9ab3177dfa6>@@V<lambda_f51fe5fd7c79a33db34fc9310f277369>@@@@YAX$$QAV<lambda_2af78c5f5901b1372d98f9ab3177dfa6>@@$$QAV<lambda_f51fe5fd7c79a33db34fc9310f277369>@@@Z 10045686 f i libucrt:wsetlocale.obj
 0001:000446a9       ??$__vcrt_va_start_verify_argument_type@H@@YAXXZ 100456a9 f i libucrt:wsetlocale.obj
 0001:000447ce       ??0?$__crt_unique_heap_ptr@U__crt_locale_data@@U__crt_internal_free_policy@@@@QAE@QAU__crt_locale_data@@@Z 100457ce f i libucrt:wsetlocale.obj
 0001:000447e2       ??0?$__crt_unique_heap_ptr@U__crt_locale_pointers@@U__crt_internal_free_policy@@@@QAE@QAU__crt_locale_pointers@@@Z 100457e2 f i libucrt:wsetlocale.obj
 0001:000447f6       ??0?$__crt_unique_heap_ptr@U__crt_multibyte_data@@U__crt_internal_free_policy@@@@QAE@QAU__crt_multibyte_data@@@Z 100457f6 f i libucrt:wsetlocale.obj
 0001:0004480a       ??1?$__crt_unique_heap_ptr@U__crt_locale_data@@U__crt_internal_free_policy@@@@QAE@XZ 1004580a f i libucrt:wsetlocale.obj
 0001:00044820       ??1?$__crt_unique_heap_ptr@U__crt_locale_pointers@@U__crt_internal_free_policy@@@@QAE@XZ 10045820 f i libucrt:wsetlocale.obj
 0001:00044836       ??1?$__crt_unique_heap_ptr@U__crt_multibyte_data@@U__crt_internal_free_policy@@@@QAE@XZ 10045836 f i libucrt:wsetlocale.obj
 0001:0004484c       ??B?$__crt_unique_heap_ptr@U__crt_locale_data@@U__crt_internal_free_policy@@@@QBE_NXZ 1004584c f i libucrt:wsetlocale.obj
 0001:00044856       ??B?$__crt_unique_heap_ptr@U__crt_locale_pointers@@U__crt_internal_free_policy@@@@QBE_NXZ 10045856 f i libucrt:wsetlocale.obj
 0001:00044860       ??B?$__crt_unique_heap_ptr@U__crt_multibyte_data@@U__crt_internal_free_policy@@@@QBE_NXZ 10045860 f i libucrt:wsetlocale.obj
 0001:00044a89       ?detach@?$__crt_unique_heap_ptr@U__crt_locale_data@@U__crt_internal_free_policy@@@@QAEPAU__crt_locale_data@@XZ 10045a89 f i libucrt:wsetlocale.obj
 0001:00044a8f       ?detach@?$__crt_unique_heap_ptr@U__crt_locale_pointers@@U__crt_internal_free_policy@@@@QAEPAU__crt_locale_pointers@@XZ 10045a8f f i libucrt:wsetlocale.obj
 0001:00044a95       ?detach@?$__crt_unique_heap_ptr@U__crt_multibyte_data@@U__crt_internal_free_policy@@@@QAEPAU__crt_multibyte_data@@XZ 10045a95 f i libucrt:wsetlocale.obj
 0001:00044a9b       ?get@?$__crt_unique_heap_ptr@U__crt_locale_data@@U__crt_internal_free_policy@@@@QBEPAU__crt_locale_data@@XZ 10045a9b f i libucrt:wsetlocale.obj
 0001:00044a9e       ?get@?$__crt_unique_heap_ptr@U__crt_locale_pointers@@U__crt_internal_free_policy@@@@QBEPAU__crt_locale_pointers@@XZ 10045a9e f i libucrt:wsetlocale.obj
 0001:00044aa1       ?get@?$__crt_unique_heap_ptr@U__crt_multibyte_data@@U__crt_internal_free_policy@@@@QBEPAU__crt_multibyte_data@@XZ 10045aa1 f i libucrt:wsetlocale.obj
 0001:00044aa4       ?is_valid@?$__crt_unique_heap_ptr@U__crt_locale_data@@U__crt_internal_free_policy@@@@QBE_NXZ 10045aa4 f i libucrt:wsetlocale.obj
 0001:00044aae       ?is_valid@?$__crt_unique_heap_ptr@U__crt_locale_pointers@@U__crt_internal_free_policy@@@@QBE_NXZ 10045aae f i libucrt:wsetlocale.obj
 0001:00044ab8       ?is_valid@?$__crt_unique_heap_ptr@U__crt_multibyte_data@@U__crt_internal_free_policy@@@@QBE_NXZ 10045ab8 f i libucrt:wsetlocale.obj
 0001:00044ac2       ?release@?$__crt_unique_heap_ptr@U__crt_locale_data@@U__crt_internal_free_policy@@@@QAEXXZ 10045ac2 f i libucrt:wsetlocale.obj
 0001:00044ad8       ?release@?$__crt_unique_heap_ptr@U__crt_locale_pointers@@U__crt_internal_free_policy@@@@QAEXXZ 10045ad8 f i libucrt:wsetlocale.obj
 0001:00044aee       ?release@?$__crt_unique_heap_ptr@U__crt_multibyte_data@@U__crt_internal_free_policy@@@@QAEXXZ 10045aee f i libucrt:wsetlocale.obj
 0001:00044b04       ___acrt_copy_locale_name   10045b04 f   libucrt:wsetlocale.obj
 0001:00044b83       ___acrt_set_locale_changed 10045b83 f   libucrt:wsetlocale.obj
 0001:00044b90       ___acrt_uninitialize_locale 10045b90 f   libucrt:wsetlocale.obj
 0001:00044bf6       ___lc_lctowcs              10045bf6 f   libucrt:wsetlocale.obj
 0001:00044c82       ___lc_wcstolc              10045c82 f   libucrt:wsetlocale.obj
 0001:00044dfc       __configthreadlocale       10045dfc f   libucrt:wsetlocale.obj
 0001:00044eb0       __create_locale            10045eb0 f   libucrt:wsetlocale.obj
 0001:00044f2d       __expandlocale             10045f2d f   libucrt:wsetlocale.obj
 0001:00045381       __free_locale              10046381 f   libucrt:wsetlocale.obj
 0001:00045467       __get_current_locale       10046467 f   libucrt:wsetlocale.obj
 0001:00045500       __wcreate_locale           10046500 f   libucrt:wsetlocale.obj
 0001:0004564b       __wcscats                  1004664b f   libucrt:wsetlocale.obj
 0001:0004569c       __wsetlocale               1004669c f   libucrt:wsetlocale.obj
 0001:000461c2       ___p___mb_cur_max          100471c2 f   libucrt:nlsdata.obj
 0001:00046200       _sin                       10047200 f   libucrt:sin.obj
 0001:00046240       __CIsin                    10047240 f   libucrt:sin.obj
 0001:0004627b       __CIsin_default            1004727b f   libucrt:sin.obj
 0001:0004628f       __sin_default              1004728f     libucrt:sin.obj
 0001:00046431       ___acrt_report_runtime_error 10047431 f   libucrt:report_runtime_error.obj
 0001:00046597       __query_app_type           10047597 f   libucrt:report_runtime_error.obj
 0001:0004659d       __set_app_type             1004759d f   libucrt:report_runtime_error.obj
 0001:00046a89       __i64toa                   10047a89 f   libucrt:xtoa.obj
 0001:00046adc       __i64toa_s                 10047adc f   libucrt:xtoa.obj
 0001:00046b2d       __i64tow                   10047b2d f   libucrt:xtoa.obj
 0001:00046b80       __i64tow_s                 10047b80 f   libucrt:xtoa.obj
 0001:00046bd1       __itoa                     10047bd1 f   libucrt:xtoa.obj
 0001:00046c15       __itoa_s                   10047c15 f   libucrt:xtoa.obj
 0001:00046c57       __itow                     10047c57 f   libucrt:xtoa.obj
 0001:00046c9b       __itow_s                   10047c9b f   libucrt:xtoa.obj
 0001:00046cdd       __ltoa                     10047cdd f   libucrt:xtoa.obj
 0001:00046d21       __ltoa_s                   10047d21 f   libucrt:xtoa.obj
 0001:00046d63       __ltow                     10047d63 f   libucrt:xtoa.obj
 0001:00046da7       __ltow_s                   10047da7 f   libucrt:xtoa.obj
 0001:00046de9       __ui64toa                  10047de9 f   libucrt:xtoa.obj
 0001:00046e13       __ui64toa_s                10047e13 f   libucrt:xtoa.obj
 0001:00046e3b       __ui64tow                  10047e3b f   libucrt:xtoa.obj
 0001:00046e65       __ui64tow_s                10047e65 f   libucrt:xtoa.obj
 0001:00046e8d       __ultoa                    10047e8d f   libucrt:xtoa.obj
 0001:00046eb3       __ultoa_s                  10047eb3 f   libucrt:xtoa.obj
 0001:00046ed7       __ultow                    10047ed7 f   libucrt:xtoa.obj
 0001:00046efd       __ultow_s                  10047efd f   libucrt:xtoa.obj
 0001:00046f21       __set_error_mode           10047f21 f   libucrt:set_error_mode.obj
 0001:00046ffd       _wcscat_s                  10047ffd f   libucrt:wcscat_s.obj
 0001:00047107       _wcscpy_s                  10048107 f   libucrt:wcscpy_s.obj
 0001:000472a7       _wcsncat_s                 100482a7 f   libucrt:wcsncat_s.obj
 0001:00047337       _strcat_s                  10048337 f   libucrt:strcat_s.obj
 0001:000474be       _strncat_s                 100484be f   libucrt:strncat_s.obj
 0001:000476e9       ??$message_box@$$TAAPBDAAPBDAAI@?$__crt_char_traits@D@@SAH$$QA$$TAAPBD1AAI@Z 100486e9 f i libucrt:crtmbox.obj
 0001:00047711       ??$message_box@$$TAAPB_WAAPB_WAAI@?$__crt_char_traits@_W@@SAH$$QA$$TAAPB_W1AAI@Z 10048711 f i libucrt:crtmbox.obj
 0001:00047739       ??$message_box@$$TABQBDABQBDK@?$__crt_char_traits@D@@SAH$$QA$$TABQBD1$$QAK@Z 10048739 f i libucrt:crtmbox.obj
 0001:00047761       ??$message_box@$$TABQB_WABQB_WK@?$__crt_char_traits@_W@@SAH$$QA$$TABQB_W1$$QAK@Z 10048761 f i libucrt:crtmbox.obj
 0001:00047789       ??$message_box@PAUHWND__@@ABQBDABQBDABI@?$__crt_char_traits@D@@SAH$$QAPAUHWND__@@ABQBD1ABI@Z 10048789 f i libucrt:crtmbox.obj
 0001:000477b1       ??$message_box@PAUHWND__@@ABQB_WABQB_WABI@?$__crt_char_traits@_W@@SAH$$QAPAUHWND__@@ABQB_W1ABI@Z 100487b1 f i libucrt:crtmbox.obj
 0001:0004782d       ??$output_debug_string@ABQBD@?$__crt_char_traits@D@@SAXABQBD@Z 1004882d f i libucrt:crtmbox.obj
 0001:00047843       ??$output_debug_string@ABQB_W@?$__crt_char_traits@_W@@SAXABQB_W@Z 10048843 f i libucrt:crtmbox.obj
 0001:00047859       ??0?$__crt_unique_handle_t@U__crt_handle_traits@@@@QAE@QAX@Z 10048859 f i libucrt:crtmbox.obj
 0001:0004786d       ??1?$__crt_unique_handle_t@U__crt_handle_traits@@@@QAE@XZ 1004886d f i libucrt:crtmbox.obj
 0001:00047889       ??B?$__crt_unique_handle_t@U__crt_handle_traits@@@@QBE_NXZ 10048889 f i libucrt:crtmbox.obj
 0001:00047894       ?close@?$__crt_unique_handle_t@U__crt_handle_traits@@@@QAEXXZ 10048894 f i libucrt:crtmbox.obj
 0001:000478b0       ?close@__crt_handle_traits@@SA_NPAX@Z 100488b0 f i libucrt:crtmbox.obj
 0001:000478cb       ?get@?$__crt_unique_handle_t@U__crt_handle_traits@@@@QBEPAXXZ 100488cb f i libucrt:crtmbox.obj
 0001:000478ce       ?get_invalid_value@__crt_handle_traits@@SAPAXXZ 100488ce f i libucrt:crtmbox.obj
 0001:000478d2       ?is_valid@?$__crt_unique_handle_t@U__crt_handle_traits@@@@QBE_NXZ 100488d2 f i libucrt:crtmbox.obj
 0001:000478dd       ___acrt_show_narrow_message_box 100488dd f   libucrt:crtmbox.obj
 0001:000478ea       ___acrt_show_wide_message_box 100488ea f   libucrt:crtmbox.obj
 0001:000478f7       ??$?RV<lambda_d92cfe8357b99225085016881b624cb0>@@AAV<lambda_b721fa326cdb32351d23dfa67958c160>@@V<lambda_42d75b0848218ec137fa420c8ba9fdf9>@@@?$__crt_seh_guarded_call@H@@QAEH$$QAV<lambda_d92cfe8357b99225085016881b624cb0>@@AAV<lambda_b721fa326cdb32351d23dfa67958c160>@@$$QAV<lambda_42d75b0848218ec137fa420c8ba9fdf9>@@@Z 100488f7 f i libucrt:setvbuf.obj
 0001:0004795c       ??$__acrt_lock_stream_and_call@V<lambda_b721fa326cdb32351d23dfa67958c160>@@@@YAHQAU_iobuf@@$$QAV<lambda_b721fa326cdb32351d23dfa67958c160>@@@Z 1004895c f i libucrt:setvbuf.obj
 0001:00047af9       _setvbuf                   10048af9 f   libucrt:setvbuf.obj
 0001:00047b8c       ??$?B$$A6AXH@Z@__crt_fast_encoded_nullptr_t@@QBEP6AXH@ZXZ 10048b8c f i libucrt:signal.obj
 0001:00047baa       ??$?RV<lambda_a048d3beccc847880fc8490e18b82769>@@AAV<lambda_ec61778202f4f5fc7e7711acc23c3bca>@@V<lambda_f7496a158712204296dd6628a163878e>@@@?$__crt_seh_guarded_call@P6AXH@Z@@QAEP6AXH@Z$$QAV<lambda_a048d3beccc847880fc8490e18b82769>@@AAV<lambda_ec61778202f4f5fc7e7711acc23c3bca>@@$$QAV<lambda_f7496a158712204296dd6628a163878e>@@@Z 10048baa f i libucrt:signal.obj
 0001:00047c1a       ??$__acrt_lock_and_call@V<lambda_ec61778202f4f5fc7e7711acc23c3bca>@@@@YAP6AXH@ZW4__acrt_lock_id@@$$QAV<lambda_ec61778202f4f5fc7e7711acc23c3bca>@@@Z 10048c1a f i libucrt:signal.obj
 0001:00047c4c       ??$__crt_fast_decode_pointer@P6AXH@Z@@YAP6AXH@ZQ6AXH@Z@Z 10048c4c f i libucrt:signal.obj
 0001:00047c67       ??$__crt_fast_encode_pointer@P6AXH@Z@@YAP6AXH@ZQ6AXH@Z@Z 10048c67 f i libucrt:signal.obj
 0001:00047e11       ?initialize@?$dual_state_global@P6AXH@Z@__crt_state_management@@QAEXQ6AXH@Z@Z 10048e11 f i libucrt:signal.obj
 0001:00047ebd       ?value@?$dual_state_global@P6AXH@Z@__crt_state_management@@QAEAAP6AXH@ZXZ 10048ebd f i libucrt:signal.obj
 0001:00047ec0       ___acrt_get_sigabrt_handler 10048ec0 f   libucrt:signal.obj
 0001:00047edc       ___acrt_initialize_signal_handlers 10048edc f   libucrt:signal.obj
 0001:00047f25       ___fpecode                 10048f25 f   libucrt:signal.obj
 0001:00047f30       ___pxcptinfoptrs           10048f30 f   libucrt:signal.obj
 0001:00047f3b       _raise                     10048f3b f   libucrt:signal.obj
 0001:000481c5       _signal                    100491c5 f   libucrt:signal.obj
 0001:000483e3       __realloc_base             100493e3 f   libucrt:realloc_base.obj
 0001:00048466       ___acrt_initialize_locks   10049466 f   libucrt:locks.obj
 0001:000484b7       ___acrt_lock               100494b7 f   libucrt:locks.obj
 0001:000484d3       ___acrt_uninitialize_locks 100494d3 f   libucrt:locks.obj
 0001:00048510       ___acrt_unlock             10049510 f   libucrt:locks.obj
 0001:0004852c       __lock_locales             1004952c f   libucrt:locks.obj
 0001:00048537       __unlock_locales           10049537 f   libucrt:locks.obj
 0001:00048542       ??$?RV<lambda_123407a5e2ac06da108355a851863b7a>@@AAV<lambda_2fe9b910cf3cbf4a0ab98a02ba45b3ec>@@V<lambda_ae55bdf541ad94d75914d381c370e64d>@@@?$__crt_seh_guarded_call@H@@QAEH$$QAV<lambda_123407a5e2ac06da108355a851863b7a>@@AAV<lambda_2fe9b910cf3cbf4a0ab98a02ba45b3ec>@@$$QAV<lambda_ae55bdf541ad94d75914d381c370e64d>@@@Z 10049542 f i libucrt:close.obj
 0001:000485e4       ??$__acrt_lowio_lock_fh_and_call@V<lambda_2fe9b910cf3cbf4a0ab98a02ba45b3ec>@@@@YAHH$$QAV<lambda_2fe9b910cf3cbf4a0ab98a02ba45b3ec>@@@Z 100495e4 f i libucrt:close.obj
 0001:00048737       __close                    10049737 f   libucrt:close.obj
 0001:000487d5       __close_nolock             100497d5 f   libucrt:close.obj
 0001:00048898       ??$?RU__crt_stdio_stream_data@@@__crt_internal_free_policy@@QBEXQBU__crt_stdio_stream_data@@@Z 10049898 f i libucrt:stream.obj
 0001:000488ae       ??0?$__crt_unique_heap_ptr@U__crt_stdio_stream_data@@U__crt_internal_free_policy@@@@QAE@QAU__crt_stdio_stream_data@@@Z 100498ae f i libucrt:stream.obj
 0001:000488c2       ??0__crt_stdio_stream@@QAE@XZ 100498c2 f i libucrt:stream.obj
 0001:000488c8       ??1?$__crt_unique_heap_ptr@U__crt_stdio_stream_data@@U__crt_internal_free_policy@@@@QAE@XZ 100498c8 f i libucrt:stream.obj
 0001:000488de       ?__acrt_stdio_allocate_stream@@YA?AV__crt_stdio_stream@@XZ 100498de f   libucrt:stream.obj
 0001:00048954       ?__acrt_stdio_free_stream@@YAXV__crt_stdio_stream@@@Z 10049954 f   libucrt:stream.obj
 0001:0004899d       ?deallocate@__crt_stdio_stream@@QAEXXZ 1004999d f i libucrt:stream.obj
 0001:000489a9       ?detach@?$__crt_unique_heap_ptr@U__crt_stdio_stream_data@@U__crt_internal_free_policy@@@@QAEPAU__crt_stdio_stream_data@@XZ 100499a9 f i libucrt:stream.obj
 0001:00048aa2       ?lock@__crt_stdio_stream@@QBEXXZ 10049aa2 f i libucrt:stream.obj
 0001:00048aad       ?release@?$__crt_unique_heap_ptr@U__crt_stdio_stream_data@@U__crt_internal_free_policy@@@@QAEXXZ 10049aad f i libucrt:stream.obj
 0001:00048ac3       ?try_allocate@__crt_stdio_stream@@QAE_NXZ 10049ac3 f i libucrt:stream.obj
 0001:00048aec       ??$__acrt_stdio_parse_mode@D@@YA?AU__acrt_stdio_stream_mode@@QBD@Z 10049aec f i libucrt:openfile.obj
 0001:00048daa       ??$__acrt_stdio_parse_mode@_W@@YA?AU__acrt_stdio_stream_mode@@QB_W@Z 10049daa f i libucrt:openfile.obj
 0001:000491cb       ??$tcsncmp@AAPBDAAY02$$CBDI@?$__crt_char_traits@D@@SAHAAPBDAAY02$$CBD$$QAI@Z 1004a1cb f i libucrt:openfile.obj
 0001:000491ee       ??$tcsncmp@AAPB_WAAY02$$CB_WI@?$__crt_char_traits@_W@@SAHAAPB_WAAY02$$CB_W$$QAI@Z 1004a1ee f i libucrt:openfile.obj
 0001:00049211       ??$tcsnicmp@AAPBDAAY04$$CBDI@?$__crt_char_traits@D@@SAHAAPBDAAY04$$CBD$$QAI@Z 1004a211 f i libucrt:openfile.obj
 0001:00049234       ??$tcsnicmp@AAPBDAAY06$$CBDI@?$__crt_char_traits@D@@SAHAAPBDAAY06$$CBD$$QAI@Z 1004a234 f i libucrt:openfile.obj
 0001:00049257       ??$tcsnicmp@AAPBDAAY07$$CBDI@?$__crt_char_traits@D@@SAHAAPBDAAY07$$CBD$$QAI@Z 1004a257 f i libucrt:openfile.obj
 0001:0004927a       ??$tcsnicmp@AAPB_WAAY04$$CB_WI@?$__crt_char_traits@_W@@SAHAAPB_WAAY04$$CB_W$$QAI@Z 1004a27a f i libucrt:openfile.obj
 0001:0004929d       ??$tcsnicmp@AAPB_WAAY06$$CB_WI@?$__crt_char_traits@_W@@SAHAAPB_WAAY06$$CB_W$$QAI@Z 1004a29d f i libucrt:openfile.obj
 0001:000492c0       ??$tcsnicmp@AAPB_WAAY07$$CB_WI@?$__crt_char_traits@_W@@SAHAAPB_WAAY07$$CB_W$$QAI@Z 1004a2c0 f i libucrt:openfile.obj
 0001:000492e3       ??$tsopen_s@PAHABQBDABHABHH@?$__crt_char_traits@D@@SAH$$QAPAHABQBDABH2$$QAH@Z 1004a2e3 f i libucrt:openfile.obj
 0001:00049315       ??$tsopen_s@PAHABQB_WABHABHH@?$__crt_char_traits@_W@@SAH$$QAPAHABQB_WABH2$$QAH@Z 1004a315 f i libucrt:openfile.obj
 0001:00049347       ?__acrt_stdio_parse_mode_D@@YA_NAAU__acrt_stdio_stream_mode@@@Z 1004a347 f i libucrt:openfile.obj
 0001:00049368       ?__acrt_stdio_parse_mode_N@@YA_NAAU__acrt_stdio_stream_mode@@@Z 1004a368 f i libucrt:openfile.obj
 0001:0004937e       ?__acrt_stdio_parse_mode_R@@YA_NAAU__acrt_stdio_stream_mode@@AA_N@Z 1004a37e f i libucrt:openfile.obj
 0001:000493a3       ?__acrt_stdio_parse_mode_S@@YA_NAAU__acrt_stdio_stream_mode@@AA_N@Z 1004a3a3 f i libucrt:openfile.obj
 0001:000493c8       ?__acrt_stdio_parse_mode_T@@YA_NAAU__acrt_stdio_stream_mode@@@Z 1004a3c8 f i libucrt:openfile.obj
 0001:000493ee       ?__acrt_stdio_parse_mode_b@@YA_NAAU__acrt_stdio_stream_mode@@@Z 1004a3ee f i libucrt:openfile.obj
 0001:00049416       ?__acrt_stdio_parse_mode_c@@YA_NAAU__acrt_stdio_stream_mode@@AA_N@Z 1004a416 f i libucrt:openfile.obj
 0001:00049440       ?__acrt_stdio_parse_mode_n@@YA_NAAU__acrt_stdio_stream_mode@@AA_N@Z 1004a440 f i libucrt:openfile.obj
 0001:0004946a       ?__acrt_stdio_parse_mode_plus@@YA_NAAU__acrt_stdio_stream_mode@@AA_N@Z 1004a46a f i libucrt:openfile.obj
 0001:000494ac       ?__acrt_stdio_parse_mode_t@@YA_NAAU__acrt_stdio_stream_mode@@@Z 1004a4ac f i libucrt:openfile.obj
 0001:000494d4       __openfile                 1004a4d4 f   libucrt:openfile.obj
 0001:000494e1       __wopenfile                1004a4e1 f   libucrt:openfile.obj
 0001:00049b86       __read                     1004ab86 f   libucrt:read.obj
 0001:00049cdd       __read_nolock              1004acdd f   libucrt:read.obj
 0001:0004a675       ___acrt_stdio_refill_and_read_narrow_nolock 1004b675 f   libucrt:_filbuf.obj
 0001:0004a682       ___acrt_stdio_refill_and_read_wide_nolock 1004b682 f   libucrt:_filbuf.obj
 0001:0004ade1       __write                    1004bde1 f   libucrt:write.obj
 0001:0004af06       __write_nolock             1004bf06 f   libucrt:write.obj
 0001:0004b64c       ___acrt_stdio_flush_and_write_narrow_nolock 1004c64c f   libucrt:_flsbuf.obj
 0001:0004b659       ___acrt_stdio_flush_and_write_wide_nolock 1004c659 f   libucrt:_flsbuf.obj
 0001:0004b666       ___acrt_copy_path_to_wide_string 1004c666 f   libucrt:string_utilities.obj
 0001:0004b75e       ___acrt_copy_to_char       1004c75e f   libucrt:string_utilities.obj
 0001:0004b849       __wremove                  1004c849 f   libucrt:wunlink.obj
 0001:0004b87b       __wunlink                  1004c87b f   libucrt:wunlink.obj
 0001:0004bcef       __lseek                    1004ccef f   libucrt:lseek.obj
 0001:0004bcfc       __lseek_nolock             1004ccfc f   libucrt:lseek.obj
 0001:0004bd09       __lseeki64                 1004cd09 f   libucrt:lseek.obj
 0001:0004bd2a       __lseeki64_nolock          1004cd2a f   libucrt:lseek.obj
 0001:0004bd4b       __chgsign                  1004cd4b f   libucrt:ieeemisc.obj
 0001:0004bd85       __chgsignf                 1004cd85 f   libucrt:ieeemisc.obj
 0001:0004bdb0       __copysign                 1004cdb0 f   libucrt:ieeemisc.obj
 0001:0004bde4       __copysignf                1004cde4 f   libucrt:ieeemisc.obj
 0001:0004be09       __finite                   1004ce09 f   libucrt:ieeemisc.obj
 0001:0004be29       __fpclass                  1004ce29 f   libucrt:ieeemisc.obj
 0001:0004bef6       __isnan                    1004cef6 f   libucrt:ieeemisc.obj
 0001:0004bf39       __logb                     1004cf39 f   libucrt:ieeemisc.obj
 0001:0004c03e       __nextafter                1004d03e f   libucrt:ieeemisc.obj
 0001:0004c064       __scalb                    1004d064 f   libucrt:ieeemisc.obj
 0001:0004c084       __add_exp                  1004d084 f   libucrt:util.obj
 0001:0004c0be       __decomp                   1004d0be f   libucrt:util.obj
 0001:0004c1c7       __get_exp                  1004d1c7 f   libucrt:util.obj
 0001:0004c1e6       __set_bexp                 1004d1e6 f   libucrt:util.obj
 0001:0004c219       __set_exp                  1004d219 f   libucrt:util.obj
 0001:0004c253       __sptype                   1004d253 f   libucrt:util.obj
 0001:0004c2c8       ___clrfp_sse2              1004d2c8 f   libucrt:fpctrl.obj
 0001:0004c2f1       ___ctrlfp_sse2             1004d2f1 f   libucrt:fpctrl.obj
 0001:0004c33a       ___fclrf_sse2              1004d33a f   libucrt:fpctrl.obj
 0001:0004c360       ___get_fpsr_sse2           1004d360 f   libucrt:fpctrl.obj
 0001:0004c385       ___set_fpsr_sse2           1004d385 f   libucrt:fpctrl.obj
 0001:0004c418       ___set_statfp_sse2         1004d418 f   libucrt:fpctrl.obj
 0001:0004c439       ___statfp_sse2             1004d439 f   libucrt:fpctrl.obj
 0001:0004c453       __clrfp                    1004d453 f   libucrt:fpctrl.obj
 0001:0004c46a       __ctrlfp                   1004d46a f   libucrt:fpctrl.obj
 0001:0004c4a1       __set_statfp               1004d4a1 f   libucrt:fpctrl.obj
 0001:0004c512       __statfp                   1004d512 f   libucrt:fpctrl.obj
 0001:0004c528       ??$__crt_fast_decode_pointer@P6AHPAU_exception@@@Z@@YAP6AHPAU_exception@@@ZQ6AH0@Z@Z 1004d528 f i libucrt:matherr.obj
 0001:0004c543       ??$__crt_fast_encode_pointer@P6AHPAU_exception@@@Z@@YAP6AHPAU_exception@@@ZQ6AH0@Z@Z 1004d543 f i libucrt:matherr.obj
 0001:0004c569       ?initialize@?$dual_state_global@P6AHPAU_exception@@@Z@__crt_state_management@@QAEXQ6AHPAU_exception@@@Z@Z 1004d569 f i libucrt:matherr.obj
 0001:0004c5a6       ?value@?$dual_state_global@P6AHPAU_exception@@@Z@__crt_state_management@@QAEAAP6AHPAU_exception@@@ZXZ 1004d5a6 f i libucrt:matherr.obj
 0001:0004c5a9       ___acrt_has_user_matherr   1004d5a9 f   libucrt:matherr.obj
 0001:0004c5c8       ___acrt_initialize_user_matherr 1004d5c8 f   libucrt:matherr.obj
 0001:0004c5e1       ___acrt_invoke_user_matherr 1004d5e1 f   libucrt:matherr.obj
 0001:0004c63c       ___setusermatherr          1004d63c f   libucrt:matherr.obj
 0001:0004d04e       ??$find_first_file_ex@ABQADW4_FINDEX_INFO_LEVELS@@PAU_WIN32_FIND_DATAA@@W4_FINDEX_SEARCH_OPS@@$$TH@?$__crt_char_traits@D@@SAPAXABQAD$$QAW4_FINDEX_INFO_LEVELS@@$$QAPAU_WIN32_FIND_DATAA@@$$QAW4_FINDEX_SEARCH_OPS@@$$QA$$T$$QAH@Z 1004e04e f i libucrt:argv_wildcards.obj
 0001:0004d083       ??$find_first_file_ex@ABQA_WW4_FINDEX_INFO_LEVELS@@PAU_WIN32_FIND_DATAW@@W4_FINDEX_SEARCH_OPS@@$$TH@?$__crt_char_traits@_W@@SAPAXABQA_W$$QAW4_FINDEX_INFO_LEVELS@@$$QAPAU_WIN32_FIND_DATAW@@$$QAW4_FINDEX_SEARCH_OPS@@$$QA$$T$$QAH@Z 1004e083 f i libucrt:argv_wildcards.obj
 0001:0004d0b8       ??$find_next_file@PAXPAU_WIN32_FIND_DATAA@@@?$__crt_char_traits@D@@SAH$$QAPAX$$QAPAU_WIN32_FIND_DATAA@@@Z 1004e0b8 f i libucrt:argv_wildcards.obj
 0001:0004d0d4       ??$find_next_file@PAXPAU_WIN32_FIND_DATAW@@@?$__crt_char_traits@_W@@SAH$$QAPAX$$QAPAU_WIN32_FIND_DATAW@@@Z 1004e0d4 f i libucrt:argv_wildcards.obj
 0001:0004d0f0       ??$tcsncpy_s@AAPADIAAPADABI@?$__crt_char_traits@D@@SAHAAPAD$$QAI0ABI@Z 1004e0f0 f i libucrt:argv_wildcards.obj
 0001:0004d11b       ??$tcsncpy_s@AAPA_WIAAPA_WABI@?$__crt_char_traits@_W@@SAHAAPA_W$$QAI0ABI@Z 1004e11b f i libucrt:argv_wildcards.obj
 0001:0004d146       ??$tcsncpy_s@PAD$$CBIABQBDABI@?$__crt_char_traits@D@@SAH$$QAPAD$$QBIABQBDABI@Z 1004e146 f i libucrt:argv_wildcards.obj
 0001:0004d171       ??$tcsncpy_s@PADABIABQBDABI@?$__crt_char_traits@D@@SAH$$QAPADABIABQBD1@Z 1004e171 f i libucrt:argv_wildcards.obj
 0001:0004d19c       ??$tcsncpy_s@PA_W$$CBIABQB_WABI@?$__crt_char_traits@_W@@SAH$$QAPA_W$$QBIABQB_WABI@Z 1004e19c f i libucrt:argv_wildcards.obj
 0001:0004d1c7       ??$tcsncpy_s@PA_WABIABQB_WABI@?$__crt_char_traits@_W@@SAH$$QAPA_WABIABQB_W1@Z 1004e1c7 f i libucrt:argv_wildcards.obj
 0001:0004d1f2       ??$tcspbrk@AAPADAAY02$$CBD@?$__crt_char_traits@D@@SAPADAAPADAAY02$$CBD@Z 1004e1f2 f i libucrt:argv_wildcards.obj
 0001:0004d20d       ??$tcspbrk@AAPA_WAAY02$$CB_W@?$__crt_char_traits@_W@@SAPA_WAAPA_WAAY02$$CB_W@Z 1004e20d f i libucrt:argv_wildcards.obj
 0001:0004d228       ??0?$__crt_unique_handle_t@U__crt_findfile_traits@@@@QAE@QAX@Z 1004e228 f i libucrt:argv_wildcards.obj
 0001:0004d23c       ??0?$argument_list@D@?A0xb0e4b824@@QAE@XZ 1004e23c f i libucrt:argv_wildcards.obj
 0001:0004d24c       ??0?$argument_list@_W@?A0xb0e4b824@@QAE@XZ 1004e24c f i libucrt:argv_wildcards.obj
 0001:0004d25c       ??1?$__crt_unique_handle_t@U__crt_findfile_traits@@@@QAE@XZ 1004e25c f i libucrt:argv_wildcards.obj
 0001:0004d278       ??1?$argument_list@D@?A0xb0e4b824@@QAE@XZ 1004e278 f i libucrt:argv_wildcards.obj
 0001:0004d2a6       ??1?$argument_list@_W@?A0xb0e4b824@@QAE@XZ 1004e2a6 f i libucrt:argv_wildcards.obj
 0001:0004d334       ?append@?$argument_list@D@?A0xb0e4b824@@QAEHQAD@Z 1004e334 f i libucrt:argv_wildcards.obj
 0001:0004d376       ?append@?$argument_list@_W@?A0xb0e4b824@@QAEHQA_W@Z 1004e376 f i libucrt:argv_wildcards.obj
 0001:0004d3b8       ?begin@?$argument_list@D@?A0xb0e4b824@@QBEPAPADXZ 1004e3b8 f i libucrt:argv_wildcards.obj
 0001:0004d3bb       ?begin@?$argument_list@_W@?A0xb0e4b824@@QBEPAPA_WXZ 1004e3bb f i libucrt:argv_wildcards.obj
 0001:0004d3be       ?close@?$__crt_unique_handle_t@U__crt_findfile_traits@@@@QAEXXZ 1004e3be f i libucrt:argv_wildcards.obj
 0001:0004d3da       ?close@__crt_findfile_traits@@SA_NPAX@Z 1004e3da f i libucrt:argv_wildcards.obj
 0001:0004d3f5       ?end@?$argument_list@D@?A0xb0e4b824@@QBEPAPADXZ 1004e3f5 f i libucrt:argv_wildcards.obj
 0001:0004d3f9       ?end@?$argument_list@_W@?A0xb0e4b824@@QBEPAPA_WXZ 1004e3f9 f i libucrt:argv_wildcards.obj
 0001:0004d3fd       ?expand_if_necessary@?$argument_list@D@?A0xb0e4b824@@AAEHXZ 1004e3fd f i libucrt:argv_wildcards.obj
 0001:0004d4a5       ?expand_if_necessary@?$argument_list@_W@?A0xb0e4b824@@AAEHXZ 1004e4a5 f i libucrt:argv_wildcards.obj
 0001:0004d54d       ?get@?$__crt_unique_handle_t@U__crt_findfile_traits@@@@QBEPAXXZ 1004e54d f i libucrt:argv_wildcards.obj
 0001:0004d550       ?get_invalid_value@__crt_findfile_traits@@SAPAXXZ 1004e550 f i libucrt:argv_wildcards.obj
 0001:0004d571       ?size@?$argument_list@D@?A0xb0e4b824@@QBEIXZ 1004e571 f i libucrt:argv_wildcards.obj
 0001:0004d57c       ?size@?$argument_list@_W@?A0xb0e4b824@@QBEIXZ 1004e57c f i libucrt:argv_wildcards.obj
 0001:0004d587       ?strpbrk@@YAPADQADQBD@Z    1004e587 f i libucrt:argv_wildcards.obj
 0001:0004d594       ?wcspbrk@@YAPA_WPA_WPB_W@Z 1004e594 f i libucrt:argv_wildcards.obj
 0001:0004d5a1       ___acrt_expand_narrow_argv_wildcards 1004e5a1 f   libucrt:argv_wildcards.obj
 0001:0004d5ae       ___acrt_expand_wide_argv_wildcards 1004e5ae f   libucrt:argv_wildcards.obj
 0001:0004d5bb       ??$?RV<lambda_978dc153c237d78434369da87b74ff60>@@AAV<lambda_ad1ced32f4ac17aa236e5ef05d6b3b7c>@@V<lambda_4a8533e2866a575feecb8298ce776b0d>@@@?$__crt_seh_guarded_call@X@@QAEX$$QAV<lambda_978dc153c237d78434369da87b74ff60>@@AAV<lambda_ad1ced32f4ac17aa236e5ef05d6b3b7c>@@$$QAV<lambda_4a8533e2866a575feecb8298ce776b0d>@@@Z 1004e5bb f i libucrt:mbctype.obj
 0001:0004d60e       ??$__acrt_lock_and_call@V<lambda_ad1ced32f4ac17aa236e5ef05d6b3b7c>@@@@YAXW4__acrt_lock_id@@$$QAV<lambda_ad1ced32f4ac17aa236e5ef05d6b3b7c>@@@Z 1004e60e f i libucrt:mbctype.obj
 0001:0004dc1f       ___acrt_initialize_multibyte 1004ec1f f   libucrt:mbctype.obj
 0001:0004dc44       ___acrt_update_thread_multibyte_data 1004ec44 f   libucrt:mbctype.obj
 0001:0004dd0e       ___p__mbcasemap            1004ed0e f   libucrt:mbctype.obj
 0001:0004dd14       ___p__mbctype              1004ed14 f   libucrt:mbctype.obj
 0001:0004dd1a       __getmbcp                  1004ed1a f   libucrt:mbctype.obj
 0001:0004dd5d       __setmbcp                  1004ed5d f   libucrt:mbctype.obj
 0001:0004dd74       __setmbcp_nolock           1004ed74 f   libucrt:mbctype.obj
 0001:0004e0f1       __ismbbalnum               1004f0f1 f   libucrt:ismbbyte.obj
 0001:0004e112       __ismbbalnum_l             1004f112 f   libucrt:ismbbyte.obj
 0001:0004e135       __ismbbalpha               1004f135 f   libucrt:ismbbyte.obj
 0001:0004e156       __ismbbalpha_l             1004f156 f   libucrt:ismbbyte.obj
 0001:0004e179       __ismbbblank               1004f179 f   libucrt:ismbbyte.obj
 0001:0004e1a4       __ismbbblank_l             1004f1a4 f   libucrt:ismbbyte.obj
 0001:0004e1d1       __ismbbgraph               1004f1d1 f   libucrt:ismbbyte.obj
 0001:0004e1f2       __ismbbgraph_l             1004f1f2 f   libucrt:ismbbyte.obj
 0001:0004e215       __ismbbkalnum              1004f215 f   libucrt:ismbbyte.obj
 0001:0004e233       __ismbbkalnum_l            1004f233 f   libucrt:ismbbyte.obj
 0001:0004e252       __ismbbkana                1004f252 f   libucrt:ismbbyte.obj
 0001:0004e269       __ismbbkana_l              1004f269 f   libucrt:ismbbyte.obj
 0001:0004e2ce       __ismbbkprint              1004f2ce f   libucrt:ismbbyte.obj
 0001:0004e2ec       __ismbbkprint_l            1004f2ec f   libucrt:ismbbyte.obj
 0001:0004e30b       __ismbbkpunct              1004f30b f   libucrt:ismbbyte.obj
 0001:0004e329       __ismbbkpunct_l            1004f329 f   libucrt:ismbbyte.obj
 0001:0004e348       __ismbblead                1004f348 f   libucrt:ismbbyte.obj
 0001:0004e366       __ismbblead_l              1004f366 f   libucrt:ismbbyte.obj
 0001:0004e385       __ismbbprint               1004f385 f   libucrt:ismbbyte.obj
 0001:0004e3a6       __ismbbprint_l             1004f3a6 f   libucrt:ismbbyte.obj
 0001:0004e3c9       __ismbbpunct               1004f3c9 f   libucrt:ismbbyte.obj
 0001:0004e3e7       __ismbbpunct_l             1004f3e7 f   libucrt:ismbbyte.obj
 0001:0004e406       __ismbbtrail               1004f406 f   libucrt:ismbbyte.obj
 0001:0004e424       __ismbbtrail_l             1004f424 f   libucrt:ismbbyte.obj
 0001:0004e443       ___acrt_initialize_command_line 1004f443 f   libucrt:argv_data.obj
 0001:0004e462       ___acrt_uninitialize_command_line 1004f462 f   libucrt:argv_data.obj
 0001:0004e465       ___p___argc                1004f465 f   libucrt:argv_data.obj
 0001:0004e46b       ___p___argv                1004f46b f   libucrt:argv_data.obj
 0001:0004e471       ___p___wargv               1004f471 f   libucrt:argv_data.obj
 0001:0004e477       ___p__acmdln               1004f477 f   libucrt:argv_data.obj
 0001:0004e47d       ___p__pgmptr               1004f47d f   libucrt:argv_data.obj
 0001:0004e483       ___p__wcmdln               1004f483 f   libucrt:argv_data.obj
 0001:0004e489       ___p__wpgmptr              1004f489 f   libucrt:argv_data.obj
 0001:0004e48f       __get_pgmptr               1004f48f f   libucrt:argv_data.obj
 0001:0004e4cc       __get_wpgmptr              1004f4cc f   libucrt:argv_data.obj
 0001:0004e509       ??0?$__crt_unique_handle_t@Uenvironment_strings_traits@?A0x588e5281@@@@QAE@QA_W@Z 1004f509 f i libucrt:get_environment_from_os.obj
 0001:0004e51d       ??1?$__crt_unique_handle_t@Uenvironment_strings_traits@?A0x588e5281@@@@QAE@XZ 1004f51d f i libucrt:get_environment_from_os.obj
 0001:0004e539       ??B?$__crt_unique_handle_t@Uenvironment_strings_traits@?A0x588e5281@@@@QBE_NXZ 1004f539 f i libucrt:get_environment_from_os.obj
 0001:0004e543       ?close@?$__crt_unique_handle_t@Uenvironment_strings_traits@?A0x588e5281@@@@QAEXXZ 1004f543 f i libucrt:get_environment_from_os.obj
 0001:0004e55f       ?close@environment_strings_traits@?A0x588e5281@@SA_NPA_W@Z 1004f55f f i libucrt:get_environment_from_os.obj
 0001:0004e5b9       ?get@?$__crt_unique_handle_t@Uenvironment_strings_traits@?A0x588e5281@@@@QBEPA_WXZ 1004f5b9 f i libucrt:get_environment_from_os.obj
 0001:0004e5bc       ?get_invalid_value@environment_strings_traits@?A0x588e5281@@SAPA_WXZ 1004f5bc f i libucrt:get_environment_from_os.obj
 0001:0004e5bf       ?is_valid@?$__crt_unique_handle_t@Uenvironment_strings_traits@?A0x588e5281@@@@QBE_NXZ 1004f5bf f i libucrt:get_environment_from_os.obj
 0001:0004e5c9       ___dcrt_get_narrow_environment_from_os 1004f5c9 f   libucrt:get_environment_from_os.obj
 0001:0004e66c       ___dcrt_get_wide_environment_from_os 1004f66c f   libucrt:get_environment_from_os.obj
 0001:0004ef04       ??$get_or_create_environment_nolock@$$$V@?$__crt_char_traits@D@@SAPAPADXZ 1004ff04 f i libucrt:setenv.obj
 0001:0004ef09       ??$get_or_create_environment_nolock@$$$V@?$__crt_char_traits@_W@@SAPAPA_WXZ 1004ff09 f i libucrt:setenv.obj
 0001:0004ef0e       ??$set_environment_variable@ABQADQAD@?$__crt_char_traits@D@@SAHABQAD$$QBQAD@Z 1004ff0e f i libucrt:setenv.obj
 0001:0004ef2a       ??$set_environment_variable@ABQA_WQA_W@?$__crt_char_traits@_W@@SAHABQA_W$$QBQA_W@Z 1004ff2a f i libucrt:setenv.obj
 0001:0004ef46       ??$tcschr@ABQADD@?$__crt_char_traits@D@@SAPADABQAD$$QAD@Z 1004ff46 f i libucrt:setenv.obj
 0001:0004ef66       ??$tcschr@ABQA_WD@?$__crt_char_traits@_W@@SAPA_WABQA_W$$QAD@Z 1004ff66 f i libucrt:setenv.obj
 0001:0004ef8b       ??$tcscpy_s@AAPADABIAAPAD@?$__crt_char_traits@D@@SAHAAPADABI0@Z 1004ff8b f i libucrt:setenv.obj
 0001:0004efb0       ??$tcscpy_s@AAPA_WABIAAPA_W@?$__crt_char_traits@_W@@SAHAAPA_WABI0@Z 1004ffb0 f i libucrt:setenv.obj
 0001:0004efd5       ??$tcscpy_s@ABQADABIABQAD@?$__crt_char_traits@D@@SAHABQADABI0@Z 1004ffd5 f i libucrt:setenv.obj
 0001:0004effa       ??$tcscpy_s@ABQA_WABIABQA_W@?$__crt_char_traits@_W@@SAHABQA_WABI0@Z 1004fffa f i libucrt:setenv.obj
 0001:0004f01f       ??$tcsnicoll@ABQBDAAPADABI@?$__crt_char_traits@D@@SAHABQBDAAPADABI@Z 1005001f f i libucrt:setenv.obj
 0001:0004f044       ??$tcsnicoll@ABQB_WAAPA_WABI@?$__crt_char_traits@_W@@SAHABQB_WAAPA_WABI@Z 10050044 f i libucrt:setenv.obj
 0001:0004f08d       ?strchr@@YAPADQADH@Z       1005008d f i libucrt:setenv.obj
 0001:0004f09a       ?wcschr@@YAPA_WPA_W_W@Z    1005009a f i libucrt:setenv.obj
 0001:0004f0a7       ___dcrt_set_variable_in_narrow_environment_nolock 100500a7 f   libucrt:setenv.obj
 0001:0004f0b4       ___dcrt_set_variable_in_wide_environment_nolock 100500b4 f   libucrt:setenv.obj
 0001:0004f0c1       __recalloc                 100500c1 f   libucrt:recalloc.obj
 0001:0004f0ce       __recalloc_base            100500ce f   libucrt:recalloc.obj
 0001:0004f156       ___acrt_getheap            10050156 f   libucrt:heap_handle.obj
 0001:0004f15c       ___acrt_initialize_heap    1005015c f   libucrt:heap_handle.obj
 0001:0004f171       ___acrt_uninitialize_heap  10050171 f   libucrt:heap_handle.obj
 0001:0004f17d       __get_heap_handle          1005017d f   libucrt:heap_handle.obj
 0001:0004f183       ___acrt_execute_initializers 10050183 f   libucrt:shared_initialization.obj
 0001:0004f226       ___acrt_execute_uninitializers 10050226 f   libucrt:shared_initialization.obj
 0001:0004f286       ??$?B$$A6AHI@Z@__crt_fast_encoded_nullptr_t@@QBEP6AHI@ZXZ 10050286 f i libucrt:new_handler.obj
 0001:0004f2a4       ??$__crt_fast_decode_pointer@P6AHI@Z@@YAP6AHI@ZQ6AHI@Z@Z 100502a4 f i libucrt:new_handler.obj
 0001:0004f2bf       ??$__crt_fast_encode_pointer@P6AHI@Z@@YAP6AHI@ZQ6AHI@Z@Z 100502bf f i libucrt:new_handler.obj
 0001:0004f2e5       ?_set_new_handler@@YAP6AHI@ZH@Z 100502e5 f   libucrt:new_handler.obj
 0001:0004f30b       ?initialize@?$dual_state_global@P6AHI@Z@__crt_state_management@@QAEXQ6AHI@Z@Z 1005030b f i libucrt:new_handler.obj
 0001:0004f348       ?value@?$dual_state_global@P6AHI@Z@__crt_state_management@@QAEAAP6AHI@ZXZ 10050348 f i libucrt:new_handler.obj
 0001:0004f34b       ___acrt_initialize_new_handler 1005034b f   libucrt:new_handler.obj
 0001:0004f364       __callnewh                 10050364 f   libucrt:new_handler.obj
 0001:0004f3b9       __query_new_handler        100503b9 f   libucrt:new_handler.obj
 0001:0004f41f       __set_new_handler          1005041f f   libucrt:new_handler.obj
 0001:0004f497       ?value@?$dual_state_global@J@__crt_state_management@@QAEAAJXZ 10050497 f i libucrt:new_mode.obj
 0001:0004f49a       __query_new_mode           1005049a f   libucrt:new_mode.obj
 0001:0004f4a0       __set_new_mode             100504a0 f   libucrt:new_mode.obj
 0001:0004f4da       ___pctype_func             100504da f   libucrt:ctype.obj
 0001:0004f509       ___pwctype_func            10050509 f   libucrt:ctype.obj
 0001:0004f50f       __iswctype_l               1005050f f   libucrt:iswctype.obj
 0001:0004f528       _iswctype                  10050528 f   libucrt:iswctype.obj
 0001:0004f59e       __isctype                  1005059e f   libucrt:isctype.obj
 0001:0004f5db       __isctype_l                100505db f   libucrt:isctype.obj
 0001:0004f8a2       ___acrt_DownlevelLCIDToLocaleName 100508a2 f   libucrt:lcidtoname_downlevel.obj
 0001:0004f976       ___acrt_DownlevelLocaleNameToLCID 10050976 f   libucrt:lcidtoname_downlevel.obj
 0001:0004f9ad       ??$?RV<lambda_61cee617f5178ae960314fd4d05640a0>@@AAV<lambda_6978c1fb23f02e42e1d9e99668cc68aa>@@V<lambda_9cd88cf8ad10232537feb2133f08c833>@@@?$__crt_seh_guarded_call@H@@QAEH$$QAV<lambda_61cee617f5178ae960314fd4d05640a0>@@AAV<lambda_6978c1fb23f02e42e1d9e99668cc68aa>@@$$QAV<lambda_9cd88cf8ad10232537feb2133f08c833>@@@Z 100509ad f i libucrt:commit.obj
 0001:0004fa6b       ??$__acrt_lowio_lock_fh_and_call@V<lambda_6978c1fb23f02e42e1d9e99668cc68aa>@@@@YAHH$$QAV<lambda_6978c1fb23f02e42e1d9e99668cc68aa>@@@Z 10050a6b f i libucrt:commit.obj
 0001:0004fb5d       __commit                   10050b5d f   libucrt:commit.obj
 0001:0004fbe7       ??$?RU__crt_lowio_handle_data@@@__crt_internal_free_policy@@QBEXQBU__crt_lowio_handle_data@@@Z 10050be7 f i libucrt:osfinfo.obj
 0001:0004fbfd       ??0?$__crt_unique_heap_ptr@U__crt_lowio_handle_data@@U__crt_internal_free_policy@@@@QAE@QAU__crt_lowio_handle_data@@@Z 10050bfd f i libucrt:osfinfo.obj
 0001:0004fc11       ??1?$__crt_unique_heap_ptr@U__crt_lowio_handle_data@@U__crt_internal_free_policy@@@@QAE@XZ 10050c11 f i libucrt:osfinfo.obj
 0001:0004fc27       ??B?$__crt_unique_heap_ptr@U__crt_lowio_handle_data@@U__crt_internal_free_policy@@@@QBE_NXZ 10050c27 f i libucrt:osfinfo.obj
 0001:0004fc31       ?detach@?$__crt_unique_heap_ptr@U__crt_lowio_handle_data@@U__crt_internal_free_policy@@@@QAEPAU__crt_lowio_handle_data@@XZ 10050c31 f i libucrt:osfinfo.obj
 0001:0004fc37       ?get@?$__crt_unique_heap_ptr@U__crt_lowio_handle_data@@U__crt_internal_free_policy@@@@QBEPAU__crt_lowio_handle_data@@XZ 10050c37 f i libucrt:osfinfo.obj
 0001:0004fc3a       ?is_valid@?$__crt_unique_heap_ptr@U__crt_lowio_handle_data@@U__crt_internal_free_policy@@@@QBE_NXZ 10050c3a f i libucrt:osfinfo.obj
 0001:0004fc44       ?release@?$__crt_unique_heap_ptr@U__crt_lowio_handle_data@@U__crt_internal_free_policy@@@@QAEXXZ 10050c44 f i libucrt:osfinfo.obj
 0001:0004fc5a       ___acrt_lowio_create_handle_array 10050c5a f   libucrt:osfinfo.obj
 0001:0004fcf2       ___acrt_lowio_destroy_handle_array 10050cf2 f   libucrt:osfinfo.obj
 0001:0004fd34       ___acrt_lowio_ensure_fh_exists 10050d34 f   libucrt:osfinfo.obj
 0001:0004fdf2       ___acrt_lowio_lock_fh      10050df2 f   libucrt:osfinfo.obj
 0001:0004fe1d       ___acrt_lowio_set_os_handle 10050e1d f   libucrt:osfinfo.obj
 0001:0004fed6       ___acrt_lowio_unlock_fh    10050ed6 f   libucrt:osfinfo.obj
 0001:0004ff01       __alloc_osfhnd             10050f01 f   libucrt:osfinfo.obj
 0001:00050057       __free_osfhnd              10051057 f   libucrt:osfinfo.obj
 0001:0005010c       __get_osfhandle            1005110c f   libucrt:osfinfo.obj
 0001:00050190       __open_osfhandle           10051190 f   libucrt:osfinfo.obj
 0001:000502e1       ___iswcsym                 100512e1 f i libucrt:_wctype.obj
 0001:00050310       ___iswcsymf                10051310 f i libucrt:_wctype.obj
 0001:0005033f       __isleadbyte_l             1005133f f i libucrt:_wctype.obj
 0001:00050386       __iswalnum_l               10051386 f i libucrt:_wctype.obj
 0001:000503a1       __iswalpha_l               100513a1 f i libucrt:_wctype.obj
 0001:000503bc       __iswblank_l               100513bc f i libucrt:_wctype.obj
 0001:000503e0       __iswcntrl_l               100513e0 f i libucrt:_wctype.obj
 0001:000503f7       __iswcsym_l                100513f7 f i libucrt:_wctype.obj
 0001:00050426       __iswcsymf_l               10051426 f i libucrt:_wctype.obj
 0001:00050455       __iswdigit_l               10051455 f i libucrt:_wctype.obj
 0001:0005046c       __iswgraph_l               1005146c f i libucrt:_wctype.obj
 0001:00050487       __iswlower_l               10051487 f i libucrt:_wctype.obj
 0001:0005049e       __iswprint_l               1005149e f i libucrt:_wctype.obj
 0001:000504b9       __iswpunct_l               100514b9 f i libucrt:_wctype.obj
 0001:000504d0       __iswspace_l               100514d0 f i libucrt:_wctype.obj
 0001:000504e7       __iswupper_l               100514e7 f i libucrt:_wctype.obj
 0001:000504fe       __iswxdigit_l              100514fe f i libucrt:_wctype.obj
 0001:00050519       _isleadbyte                10051519 f i libucrt:_wctype.obj
 0001:00050530       _iswalnum                  10051530 f i libucrt:_wctype.obj
 0001:0005054b       _iswalpha                  1005154b f i libucrt:_wctype.obj
 0001:00050566       _iswascii                  10051566 f i libucrt:_wctype.obj
 0001:0005057f       _iswblank                  1005157f f i libucrt:_wctype.obj
 0001:000505a3       _iswcntrl                  100515a3 f i libucrt:_wctype.obj
 0001:000505ba       _iswdigit                  100515ba f i libucrt:_wctype.obj
 0001:000505d1       _iswgraph                  100515d1 f i libucrt:_wctype.obj
 0001:000505ec       _iswlower                  100515ec f i libucrt:_wctype.obj
 0001:00050603       _iswprint                  10051603 f i libucrt:_wctype.obj
 0001:0005061e       _iswpunct                  1005161e f i libucrt:_wctype.obj
 0001:00050635       _iswspace                  10051635 f i libucrt:_wctype.obj
 0001:0005064c       _iswupper                  1005164c f i libucrt:_wctype.obj
 0001:00050663       _iswxdigit                 10051663 f i libucrt:_wctype.obj
 0001:0005067e       ??0?$__crt_scoped_stack_ptr@_W@@QAE@U?$__crt_scoped_stack_ptr_tag@_W@@@Z 1005167e f i libucrt:lcmapstringa.obj
 0001:00050692       ??0?$__crt_scoped_stack_ptr_tag@_W@@QAE@QA_W@Z 10051692 f i libucrt:lcmapstringa.obj
 0001:000506a6       ??1?$__crt_scoped_stack_ptr@_W@@QAE@XZ 100516a6 f i libucrt:lcmapstringa.obj
 0001:000506b1       ??B?$__crt_scoped_stack_ptr@_W@@QBE_NXZ 100516b1 f i libucrt:lcmapstringa.obj
 0001:0005095f       ?get@?$__crt_scoped_stack_ptr@_W@@QBEPA_WXZ 1005195f f i libucrt:lcmapstringa.obj
 0001:00050962       __MallocaComputeSize       10051962 f i libucrt:lcmapstringa.obj
 0001:00050979       __MarkAllocaS              10051979 f i libucrt:lcmapstringa.obj
 0001:00050994       ___acrt_LCMapStringA       10051994 f   libucrt:lcmapstringa.obj
 0001:000509f1       __freea_crt                100519f1 f i libucrt:lcmapstringa.obj
 0001:00050a19       ??$?RG@__crt_internal_free_policy@@QBEXQBG@Z 10051a19 f i libucrt:initctype.obj
 0001:00050a2f       ??$?RJ@__crt_internal_free_policy@@QBEXQBJ@Z 10051a2f f i libucrt:initctype.obj
 0001:00050a45       ??0?$__crt_unique_heap_ptr@GU__crt_internal_free_policy@@@@QAE@QAG@Z 10051a45 f i libucrt:initctype.obj
 0001:00050a59       ??0?$__crt_unique_heap_ptr@JU__crt_internal_free_policy@@@@QAE@QAJ@Z 10051a59 f i libucrt:initctype.obj
 0001:00050a6d       ??1?$__crt_unique_heap_ptr@GU__crt_internal_free_policy@@@@QAE@XZ 10051a6d f i libucrt:initctype.obj
 0001:00050a83       ??1?$__crt_unique_heap_ptr@JU__crt_internal_free_policy@@@@QAE@XZ 10051a83 f i libucrt:initctype.obj
 0001:00050a99       ?detach@?$__crt_unique_heap_ptr@GU__crt_internal_free_policy@@@@QAEPAGXZ 10051a99 f i libucrt:initctype.obj
 0001:00050a9f       ?detach@?$__crt_unique_heap_ptr@JU__crt_internal_free_policy@@@@QAEPAJXZ 10051a9f f i libucrt:initctype.obj
 0001:00050aa5       ?release@?$__crt_unique_heap_ptr@GU__crt_internal_free_policy@@@@QAEXXZ 10051aa5 f i libucrt:initctype.obj
 0001:00050abb       ?release@?$__crt_unique_heap_ptr@JU__crt_internal_free_policy@@@@QAEXXZ 10051abb f i libucrt:initctype.obj
 0001:00050ad1       ____lc_codepage_func       10051ad1 f   libucrt:initctype.obj
 0001:00050b01       ____lc_collate_cp_func     10051b01 f   libucrt:initctype.obj
 0001:00050b31       ____lc_locale_name_func    10051b31 f   libucrt:initctype.obj
 0001:00050b64       ____mb_cur_max_func        10051b64 f   libucrt:initctype.obj
 0001:00050b94       ____mb_cur_max_l_func      10051b94 f   libucrt:initctype.obj
 0001:00050bb3       ___acrt_locale_initialize_ctype 10051bb3 f   libucrt:initctype.obj
 0001:00051038       ___acrt_add_locale_ref     10052038 f   libucrt:locale_refcounting.obj
 0001:000510d4       ___acrt_free_locale        100520d4 f   libucrt:locale_refcounting.obj
 0001:00051270       ___acrt_locale_add_lc_time_reference 10052270 f   libucrt:locale_refcounting.obj
 0001:000512a3       ___acrt_locale_free_lc_time_if_unreferenced 100522a3 f   libucrt:locale_refcounting.obj
 0001:000512df       ___acrt_locale_release_lc_time_reference 100522df f   libucrt:locale_refcounting.obj
 0001:00051312       ___acrt_release_locale_ref 10052312 f   libucrt:locale_refcounting.obj
 0001:000513b3       ___acrt_update_thread_locale_data 100523b3 f   libucrt:locale_refcounting.obj
 0001:00051447       __updatetlocinfoEx_nolock  10052447 f   libucrt:locale_refcounting.obj
 0001:000514ab       ___acrt_fp_strflt_to_string 100524ab f   libucrt:_fptostr.obj
 0001:00052ce0       ??0big_integer@__crt_strtox@@QAE@ABU01@@Z 10053ce0 f i libucrt:cfout.obj
 0001:00052d20       ??0big_integer@__crt_strtox@@QAE@XZ 10053d20 f i libucrt:cfout.obj
 0001:00052d2b       ??0scoped_fp_state_reset@?A0x48fbfdd4@@QAE@XZ 10053d2b f i libucrt:cfout.obj
 0001:00052d5f       ??1scoped_fp_state_reset@?A0x48fbfdd4@@QAE@XZ 10053d5f f i libucrt:cfout.obj
 0001:00052d70       ??4big_integer@__crt_strtox@@QAEAAU01@ABU01@@Z 10053d70 f i libucrt:cfout.obj
 0001:00052db0       ??8__crt_strtox@@YA_NABUbig_integer@0@0@Z 10053db0 f i libucrt:cfout.obj
 0001:00052e00       ??9__crt_strtox@@YA_NABUbig_integer@0@0@Z 10053e00 f i libucrt:cfout.obj
 0001:00052e60       ?add_carry@__crt_strtox@@YAIAAIII@Z 10053e60 f i libucrt:cfout.obj
 0001:00052e90       ?add_multiply_carry@__crt_strtox@@YAIAAIIII@Z 10053e90 f i libucrt:cfout.obj
 0001:00052ec0       ?bit_scan_reverse@__crt_strtox@@YAII@Z 10053ec0 f i libucrt:cfout.obj
 0001:00052ef0       ?count_sequential_high_zeroes@__crt_strtox@@YAII@Z 10053ef0 f i libucrt:cfout.obj
 0001:00052f20       ?divide@__crt_strtox@@YA_KAAUbig_integer@1@ABU21@@Z 10053f20 f i libucrt:cfout.obj
 0001:00053500       ?is_zero@__crt_strtox@@YA_NABUbig_integer@1@@Z 10054500 f i libucrt:cfout.obj
 0001:00053520       ?make_big_integer@__crt_strtox@@YA?AUbig_integer@1@_K@Z 10054520 f i libucrt:cfout.obj
 0001:00053550       ?make_big_integer_power_of_two@__crt_strtox@@YA?AUbig_integer@1@I@Z 10054550 f i libucrt:cfout.obj
 0001:000535b0       ?multiply@__crt_strtox@@YA_NAAUbig_integer@1@ABU21@@Z 100545b0 f i libucrt:cfout.obj
 0001:00053a60       ?multiply@__crt_strtox@@YA_NAAUbig_integer@1@I@Z 10054a60 f i libucrt:cfout.obj
 0001:00053b60       ?multiply_64_32@__crt_strtox@@YA_K_KI@Z 10054b60 f i libucrt:cfout.obj
 0001:00053b80       ?multiply_by_power_of_ten@__crt_strtox@@YA_NAAUbig_integer@1@I@Z 10054b80 f i libucrt:cfout.obj
 0001:00054280       ?multiply_core@__crt_strtox@@YAIQAIII@Z 10055280 f i libucrt:cfout.obj
 0001:000542d0       ?shift_left@__crt_strtox@@YA_NAAUbig_integer@1@I@Z 100552d0 f i libucrt:cfout.obj
 0001:00054472       ___acrt_fltout             10055472 f   libucrt:cfout.obj
 0001:00055d96       __isatty                   10056d96 f   libucrt:isatty.obj
 0001:00055e01       ??$?RUlconv@@@__crt_internal_free_policy@@QBEXQBUlconv@@@Z 10056e01 f i libucrt:initmon.obj
 0001:00055e17       ??0?$__crt_unique_heap_ptr@Ulconv@@U__crt_internal_free_policy@@@@QAE@QAUlconv@@@Z 10056e17 f i libucrt:initmon.obj
 0001:00055e2b       ??1?$__crt_unique_heap_ptr@Ulconv@@U__crt_internal_free_policy@@@@QAE@XZ 10056e2b f i libucrt:initmon.obj
 0001:00055e41       ?detach@?$__crt_unique_heap_ptr@Ulconv@@U__crt_internal_free_policy@@@@QAEPAUlconv@@XZ 10056e41 f i libucrt:initmon.obj
 0001:00055e47       ?release@?$__crt_unique_heap_ptr@Ulconv@@U__crt_internal_free_policy@@@@QAEXXZ 10056e47 f i libucrt:initmon.obj
 0001:00055e5d       ___acrt_locale_free_monetary 10056e5d f   libucrt:initmon.obj
 0001:00055f9a       ___acrt_locale_initialize_monetary 10056f9a f   libucrt:initmon.obj
 0001:0005648d       ___acrt_locale_free_numeric 1005748d f   libucrt:initnum.obj
 0001:00056510       ___acrt_locale_initialize_numeric 10057510 f   libucrt:initnum.obj
 0001:000567fb       ??$?RU__crt_lc_time_data@@@__crt_internal_free_policy@@QBEXQBU__crt_lc_time_data@@@Z 100577fb f i libucrt:inittime.obj
 0001:0005689b       ??0?$__crt_unique_heap_ptr@U__crt_lc_time_data@@U__crt_internal_free_policy@@@@QAE@QAU__crt_lc_time_data@@@Z 1005789b f i libucrt:inittime.obj
 0001:000568af       ??1?$__crt_unique_heap_ptr@U__crt_lc_time_data@@U__crt_internal_free_policy@@@@QAE@XZ 100578af f i libucrt:inittime.obj
 0001:000568c5       ??B?$__crt_unique_heap_ptr@U__crt_lc_time_data@@U__crt_internal_free_policy@@@@QBE_NXZ 100578c5 f i libucrt:inittime.obj
 0001:000568cf       ?detach@?$__crt_unique_heap_ptr@U__crt_lc_time_data@@U__crt_internal_free_policy@@@@QAEPAU__crt_lc_time_data@@XZ 100578cf f i libucrt:inittime.obj
 0001:00056920       ?get@?$__crt_unique_heap_ptr@U__crt_lc_time_data@@U__crt_internal_free_policy@@@@QBEPAU__crt_lc_time_data@@XZ 10057920 f i libucrt:inittime.obj
 0001:00056cb8       ?is_valid@?$__crt_unique_heap_ptr@U__crt_lc_time_data@@U__crt_internal_free_policy@@@@QBE_NXZ 10057cb8 f i libucrt:inittime.obj
 0001:00056cc2       ?release@?$__crt_unique_heap_ptr@U__crt_lc_time_data@@U__crt_internal_free_policy@@@@QAEXXZ 10057cc2 f i libucrt:inittime.obj
 0001:00056cd8       ___acrt_locale_free_time   10057cd8 f   libucrt:inittime.obj
 0001:00056df5       ___acrt_locale_initialize_time 10057df5 f   libucrt:inittime.obj
 0001:00056f93       _wcsncpy_s                 10057f93 f   libucrt:wcsncpy_s.obj
 0001:00056fa0       _wcscspn                   10057fa0 f   libucrt:wcscspn.obj
 0001:00057004       _wcsncmp                   10058004 f   libucrt:wcsncmp.obj
 0001:0005704c       _wcspbrk                   1005804c f   libucrt:wcspbrk.obj
 0001:000570a2       ___acrt_GetStringTypeA     100580a2 f   libucrt:getstringtypea.obj
 0001:00057b16       ___acrt_get_qualified_locale 10058b16 f   libucrt:get_qualified_locale.obj
 0001:000586bd       ___acrt_get_qualified_locale_downlevel 100596bd f   libucrt:getqloc_downlevel.obj
 0001:00058945       _localeconv                10059945 f   libucrt:localeconv.obj
 0001:00058979       ___acrt_initialize_sse2    10059979 f   libucrt:mathfcns.obj
 0001:0005898b       __set_SSE2_enable          1005998b f   libucrt:mathfcns.obj
 0001:000589c0       __CIsin_pentium4           100599c0 f   libucrt:sin_pentium4.obj
 0001:000589d8       __sin_pentium4             100599d8     libucrt:sin_pentium4.obj
 0001:00058c00       __trandisp1                10059c00 f   libucrt:87disp.obj
 0001:00058c67       __trandisp2                10059c67 f   libucrt:87disp.obj
 0001:00058cf3       __rttospopde               10059cf3     libucrt:87disp.obj
 0001:00058cf8       __rttospop                 10059cf8     libucrt:87disp.obj
 0001:00058cfa       __rtnospop                 10059cfa     libucrt:87disp.obj
 0001:00058cfc       __rttosnpop                10059cfc     libucrt:87disp.obj
 0001:00058cfd       __rtnospopde               10059cfd     libucrt:87disp.obj
 0001:00058d04       __rtzeropop                10059d04     libucrt:87disp.obj
 0001:00058d06       __rtzeronpop               10059d06     libucrt:87disp.obj
 0001:00058d0b       __rtzerospop               10059d0b     libucrt:87disp.obj
 0001:00058d18       __rtonepop                 10059d18     libucrt:87disp.obj
 0001:00058d1a       __rtonenpop                10059d1a     libucrt:87disp.obj
 0001:00058d1f       __tosnan1                  10059d1f     libucrt:87disp.obj
 0001:00058d4a       __nosnan2                  10059d4a     libucrt:87disp.obj
 0001:00058d4c       __tosnan2                  10059d4c     libucrt:87disp.obj
 0001:00058d74       __nan2                     10059d74     libucrt:87disp.obj
 0001:00058db3       __rtindfpop                10059db3     libucrt:87disp.obj
 0001:00058db5       __rtindfnpop               10059db5     libucrt:87disp.obj
 0001:00058dc6       __rttosnpopde              10059dc6     libucrt:87disp.obj
 0001:00058dd0       __rtatan2inf               10059dd0     libucrt:87disp.obj
 0001:00058ded       __rtchsifneg               10059ded     libucrt:87disp.obj
 0001:00058e71       ___setfflag                10059e71 f   libucrt:fp_flags.obj
 0001:00058e90       __twoToTOS                 10059e90 f   libucrt:common.obj
 0001:00058ea5       __load_CW                  10059ea5 f   libucrt:common.obj
 0001:00058ebc       __convertTOStoQNaN         10059ebc f   libucrt:common.obj
 0001:00058ed5       __fload_withFB             10059ed5 f   libucrt:common.obj
 0001:00058f18       __checkTOS_withFB          10059f18 f   libucrt:common.obj
 0001:00058f2e       __fast_exit                10059f2e f   libucrt:common.obj
 0001:00058f3b       __math_exit                10059f3b f   libucrt:common.obj
 0001:00058f65       __check_overflow_exit      10059f65 f   libucrt:common.obj
 0001:00058f79       __check_range_exit         10059f79 f   libucrt:common.obj
 0001:00059080       __startTwoArgErrorHandling 1005a080 f   libucrt:genexcep.obj
 0001:00059097       __startOneArgErrorHandling 1005a097 f   libucrt:genexcep.obj
 0001:000590e7       __wcsnicmp                 1005a0e7 f   libucrt:wcsnicmp.obj
 0001:000591cd       __wcsnicmp_l               1005a1cd f   libucrt:wcsnicmp.obj
 0001:00059310       _strncmp                   1005a310 f   libucrt:strncmp.obj
 0001:000593a6       __strnicmp                 1005a3a6 f   libucrt:strnicmp.obj
 0001:0005942d       __strnicmp_l               1005a42d f   libucrt:strnicmp.obj
 0001:00059511       ??$__vcrt_va_start_verify_argument_type@$$CBH@@YAXXZ 1005a511 f i libucrt:open.obj
 0001:000598c8       ??$tsopen_nolock@PAHABQAHABQBDABHABHABHABH@?$__crt_char_traits@D@@SAH$$QAPAHABQAHABQBDABH333@Z 1005a8c8 f i libucrt:open.obj
 0001:00059906       ??$tsopen_nolock@PAHABQAHABQB_WABHABHABHABH@?$__crt_char_traits@_W@@SAH$$QAPAHABQAHABQB_WABH333@Z 1005a906 f i libucrt:open.obj
 0001:00059944       ??$tsopen_nolock@PAHPAHABQBDABHHABHH@?$__crt_char_traits@D@@SAH$$QAPAH0ABQBDABH$$QAH23@Z 1005a944 f i libucrt:open.obj
 0001:00059982       ??$tsopen_nolock@PAHPAHABQB_WABHHABHH@?$__crt_char_traits@_W@@SAH$$QAPAH0ABQB_WABH$$QAH23@Z 1005a982 f i libucrt:open.obj
 0001:0005a150       __open                     1005b150 f   libucrt:open.obj
 0001:0005a16e       __sopen                    1005b16e f   libucrt:open.obj
 0001:0005a1b0       __sopen_dispatch           1005b1b0 f   libucrt:open.obj
 0001:0005a1bd       __sopen_nolock             1005b1bd f   libucrt:open.obj
 0001:0005a222       __sopen_s                  1005b222 f   libucrt:open.obj
 0001:0005a24a       __wopen                    1005b24a f   libucrt:open.obj
 0001:0005a268       __wsopen                   1005b268 f   libucrt:open.obj
 0001:0005a2aa       __wsopen_dispatch          1005b2aa f   libucrt:open.obj
 0001:0005a2b7       __wsopen_nolock            1005b2b7 f   libucrt:open.obj
 0001:0005a6aa       __wsopen_s                 1005b6aa f   libucrt:open.obj
 0001:0005a6d2       ___p__commode              1005b6d2 f   libucrt:ncommode.obj
 0001:0005a6d8       ___acrt_stdio_allocate_buffer_nolock 1005b6d8 f   libucrt:_getbuf.obj
 0001:0005a74c       ??$?RV<lambda_4980db0136e49a56f91ef52c46ca659a>@@AAV<lambda_6e3e78bb6855d1e4040e022c1b427e22>@@V<lambda_9c074eaf62197b4fd0274ed9e7824161>@@@?$__crt_seh_guarded_call@G@@QAEG$$QAV<lambda_4980db0136e49a56f91ef52c46ca659a>@@AAV<lambda_6e3e78bb6855d1e4040e022c1b427e22>@@$$QAV<lambda_9c074eaf62197b4fd0274ed9e7824161>@@@Z 1005b74c f i libucrt:putwch.obj
 0001:0005a7c1       ??$__acrt_lock_and_call@V<lambda_6e3e78bb6855d1e4040e022c1b427e22>@@@@YAGW4__acrt_lock_id@@$$QAV<lambda_6e3e78bb6855d1e4040e022c1b427e22>@@@Z 1005b7c1 f i libucrt:putwch.obj
 0001:0005a859       __putwch                   1005b859 f   libucrt:putwch.obj
 0001:0005a87d       __putwch_nolock            1005b87d f   libucrt:putwch.obj
 0001:0005a8d3       _nextafter                 1005b8d3 f   libucrt:nextafter.obj
 0001:0005a8f9       ??1scoped_global_state_reset@__crt_state_management@@QAE@XZ 1005b8f9 f i libucrt:qsort.obj
 0001:0005aa10       _qsort                     1005ba10 f   libucrt:qsort.obj
 0001:0005af6d       _strncpy_s                 1005bf6d f   libucrt:strncpy_s.obj
 0001:0005af80       _strpbrk                   1005bf80 f   libucrt:strpbrk.obj
 0001:0005afd0       __mbsdec                   1005bfd0 f   libucrt:mbsdec.obj
 0001:0005afec       __mbsdec_l                 1005bfec f   libucrt:mbsdec.obj
 0001:0005b0ae       __wcsnicoll                1005c0ae f   libucrt:wcsnicol.obj
 0001:0005b1b2       __wcsnicoll_l              1005c1b2 f   libucrt:wcsnicol.obj
 0001:0005b32a       __strnicoll                1005c32a f   libucrt:strnicol.obj
 0001:0005b35d       __strnicoll_l              1005c35d f   libucrt:strnicol.obj
 0001:0005b498       __msize                    1005c498 f   libucrt:msize.obj
 0001:0005b4d7       ___strncnt                 1005c4d7 f   libucrt:strncnt.obj
 0001:0005b633       ___acrt_GetLocaleInfoA     1005c633 f   libucrt:getlocaleinfoa.obj
 0001:0005b851       _fegetenv                  1005c851 f   libucrt:fegetenv.obj
 0001:0005b875       _fesetenv                  1005c875 f   libucrt:fesetenv.obj
 0001:0005b8d0       _feholdexcept              1005c8d0 f   libucrt:feholdexcept.obj
 0001:0005b940       _log10                     1005c940 f   libucrt:log10.obj
 0001:0005b980       __CIlog10                  1005c980 f   libucrt:log10.obj
 0001:0005b9bb       __CIlog10_default          1005c9bb f   libucrt:log10.obj
 0001:0005b9cf       __log10_default            1005c9cf     libucrt:log10.obj
 0001:0005baf0       _ceil                      1005caf0 f   libucrt:ceil_pentium4.obj
 0001:0005bb30       __ceil_pentium4            1005cb30 f   libucrt:ceil_pentium4.obj
 0001:0005bc54       __wcsicmp                  1005cc54 f   libucrt:wcsicmp.obj
 0001:0005bd0e       __wcsicmp_l                1005cd0e f   libucrt:wcsicmp.obj
 0001:0005be26       __87except                 1005ce26 f   libucrt:87except.obj
 0001:0005bf73       __towlower_l               1005cf73 f   libucrt:towlower.obj
 0001:0005c06e       _towlower                  1005d06e f   libucrt:towlower.obj
 0001:0005c090       ___ascii_strnicmp          1005d090 f   libucrt:_strnicm.obj
 0001:0005c109       ??$__crt_interlocked_read@H@@YAHPDH@Z 1005d109 f i libucrt:setmode.obj
 0001:0005c118       __get_fmode                1005d118 f   libucrt:setmode.obj
 0001:0005c14f       __set_fmode                1005d14f f   libucrt:setmode.obj
 0001:0005c19b       __setmode                  1005d19b f   libucrt:setmode.obj
 0001:0005c2ec       __setmode_nolock           1005d2ec f   libucrt:setmode.obj
 0001:0005c3f1       ??$?RV<lambda_4cfda81533ccf5a03113a1ca40a30445>@@AAV<lambda_1cffa78e445b1da5fba1a2e0e533226f>@@V<lambda_68c952aa1b860373b2109ef12d0bba9d>@@@?$__crt_seh_guarded_call@H@@QAEH$$QAV<lambda_4cfda81533ccf5a03113a1ca40a30445>@@AAV<lambda_1cffa78e445b1da5fba1a2e0e533226f>@@$$QAV<lambda_68c952aa1b860373b2109ef12d0bba9d>@@@Z 1005d3f1 f i libucrt:chsize.obj
 0001:0005c49b       ??$__acrt_lowio_lock_fh_and_call@V<lambda_1cffa78e445b1da5fba1a2e0e533226f>@@@@YAHH$$QAV<lambda_1cffa78e445b1da5fba1a2e0e533226f>@@@Z 1005d49b f i libucrt:chsize.obj
 0001:0005c57d       __chsize                   1005d57d f   libucrt:chsize.obj
 0001:0005c5a0       __chsize_nolock            1005d5a0 f   libucrt:chsize.obj
 0001:0005c795       __chsize_s                 1005d795 f   libucrt:chsize.obj
 0001:0005c856       __umask                    1005d856 f   libucrt:umask.obj
 0001:0005c884       __umask_s                  1005d884 f   libucrt:umask.obj
 0001:0005c8cd       ___dcrt_lowio_initialize_console_output 1005d8cd f   libucrt:initcon.obj
 0001:0005c8f3       ___dcrt_terminate_console_output 1005d8f3 f   libucrt:initcon.obj
 0001:0005c90f       _nexttoward                1005d90f f   libucrt:nexttoward.obj
 0001:0005cac0       ___acrt_CompareStringW     1005dac0 f   libucrt:comparestringw.obj
 0001:0005ce94       ___acrt_CompareStringA     1005de94 f   libucrt:comparestringa.obj
 0001:0005ceee       ___acrt_fenv_get_fp_status_word_from_exception_mask 1005deee f   libucrt:_fenvutils.obj
 0001:0005d331       __getfpcontrolword         1005e331 f   libucrt:_fenvutils.obj
 0001:0005d384       __getfpstatusword          1005e384 f   libucrt:_fenvutils.obj
 0001:0005d456       __setfpcontrolword         1005e456 f   libucrt:_fenvutils.obj
 0001:0005d4f6       __setfpstatusword          1005e4f6 f   libucrt:_fenvutils.obj
 0001:0005d72c       ___control87_2             1005e72c f   libucrt:ieee87.obj
 0001:0005dd00       ___fpreset_sse2            1005ed00 f   libucrt:ieee87.obj
 0001:0005df53       __clearfp                  1005ef53 f   libucrt:ieee87.obj
 0001:0005e068       __control87                1005f068 f   libucrt:ieee87.obj
 0001:0005e42a       __controlfp                1005f42a f   libucrt:ieee87.obj
 0001:0005e44a       __fpreset                  1005f44a f   libucrt:ieee87.obj
 0001:0005e547       __set_controlfp            1005f547 f   libucrt:ieee87.obj
 0001:0005e5dd       __statusfp                 1005f5dd f   libucrt:ieee87.obj
 0001:0005e6a0       __statusfp2                1005f6a0 f   libucrt:ieee87.obj
 0001:0005e720       __CIlog10_pentium4         1005f720 f   libucrt:log10_pentium4.obj
 0001:0005e738       __log10_pentium4           1005f738     libucrt:log10_pentium4.obj
 0001:0005ea71       __fFEXP                    1005fa71     libucrt:87tran.obj
 0001:0005eac8       __rtinfpopse               1005fac8     libucrt:87tran.obj
 0001:0005eaca       __rtinfnpopse              1005faca     libucrt:87tran.obj
 0001:0005eada       __fFLN                     1005fada     libucrt:87tran.obj
 0001:0005eb8f       __rtinfpop                 1005fb8f     libucrt:87tran.obj
 0001:0005eb91       __rtinfnpop                1005fb91     libucrt:87tran.obj
 0001:0005ebae       __ffexpm1                  1005fbae     libucrt:87tran.obj
 0001:0005ecd4       ___libm_error_support      1005fcd4 f   libucrt:libm_error.obj
 0001:0005ef72       ___libm_setusermatherr     1005ff72 f   libucrt:libm_error.obj
 0001:0005efab       __ceil_default             1005ffab f   libucrt:ceil.obj
 0001:0005f092       ___acrt_LCMapStringW       10060092 f   libucrt:lcmapstringw.obj
 0001:0005f0df       ___p__fmode                100600df f   libucrt:txtmode.obj
 0001:0005f0e5       __d_int                    100600e5 f   libucrt:_test.obj
 0001:0005f22d       __dtest                    1006022d f   libucrt:_test.obj
 0001:0005f2aa       __fd_int                   100602aa f   libucrt:_test.obj
 0001:0005f3ac       __fdtest                   100603ac f   libucrt:_test.obj
 0001:0005f40d       __fperrraise               1006040d f   libucrt:_test.obj
 0001:0005f438       __ld_int                   10060438 f   libucrt:_test.obj
 0001:0005f445       __ldtest                   10060445 f   libucrt:_test.obj
 0001:0005f4ea       __controlfp_s              100604ea f   libucrt:contrlfp.obj
 0001:0005f560       __d_inttype                10060560 f   libucrt:powhlp.obj
 0001:0005f5e4       __powhlp                   100605e4 f   libucrt:powhlp.obj
 0001:0005f759       __frnd                     10060759 f   libucrt:frnd.obj
 0001:0005f774       _fegetexceptflag           10060774 f   libucrt:fegetexceptflag.obj
 0001:0005f7b1       _fesetexceptflag           100607b1 f   libucrt:fesetexceptflag.obj
 0001:0005f812       _fetestexcept              10060812 f   libucrt:fetestexcept.obj
 0001:0005f840       __FindPESection            10060840 f   LIBCMT:pesect.obj
 0001:0005f8a0       __IsNonwritableInCurrentImage 100608a0 f   LIBCMT:pesect.obj
 0001:0005f990       __ValidateImageBase        10060990 f   LIBCMT:pesect.obj
 0001:0005f9d0       __aulldvrm                 100609d0 f   LIBCMT:ulldvrm.obj
 0001:0005fa8a       ??1type_info@@UAE@XZ       10060a8a f   LIBCMT:std_type_info_static.obj
 0001:0005fa91       ??_Etype_info@@UAEPAXI@Z   10060a91 f i LIBCMT:std_type_info_static.obj
 0001:0005fa91       ??_Gtype_info@@UAEPAXI@Z   10060a91 f i LIBCMT:std_type_info_static.obj
 0001:0005fac0       __SEH_prolog4_GS           10060ac0 f   LIBCMT:_sehprolg4gs_.obj
 0001:0005fb09       __SEH_epilog4_GS           10060b09 f   LIBCMT:_sehprolg4gs_.obj
 0001:0005fb30       __allmul                   10060b30 f   LIBCMT:llmul.obj
 0001:0005fb80       __alldvrm                  10060b80 f   LIBCMT:lldvrm.obj
 0001:0005fca0       __aullshr                  10060ca0 f   LIBCMT:ullshr.obj
 0001:0005fcd0       __chkstk                   10060cd0 f   LIBCMT:chkstk.obj
 0001:0005fcd0       __alloca_probe             10060cd0 f   LIBCMT:chkstk.obj
 0001:0005fd10       __alloca_probe_16          10060d10 f   LIBCMT:alloca16.obj
 0001:0005fd26       __alloca_probe_8           10060d26     LIBCMT:alloca16.obj
 0001:0005fd50       __allshl                   10060d50 f   LIBCMT:llshl.obj
 0001:0005fd80       __ftol2_sse                10060d80 f   LIBCMT:_ftol2_.obj
 0001:0005fd89       __ftol2_pentium4           10060d89 f   LIBCMT:_ftol2_.obj
 0001:0005fd9c       __ftol2_sse_excpt          10060d9c f   LIBCMT:_ftol2_.obj
 0001:0005fdc0       __ftol2                    10060dc0 f   LIBCMT:_ftol2_.obj
 0001:0005fe62       __initialize_default_precision 10060e62 f   LIBCMT:default_precision.obj
 0001:0005fe8b       ??3@YAXPAXI@Z              10060e8b f   LIBCMT:delete_scalar_size.obj
 0001:0005fe9c       ??3@YAXPAX@Z               10060e9c f   LIBCMT:delete_scalar.obj
 0001:0005fea2       _InterlockedPushEntrySList@8 10060ea2 f   kernel32:KERNEL32.dll
 0001:0005fea8       _InterlockedFlushSList@4   10060ea8 f   kernel32:KERNEL32.dll
 0001:0005feae       _RtlUnwind@16              10060eae f   kernel32:KERNEL32.dll
 0001:0005feb4       _GetLastError@0            10060eb4 f   kernel32:KERNEL32.dll
 0001:0005feba       _SetLastError@4            10060eba f   kernel32:KERNEL32.dll
 0001:0005fec0       _EnterCriticalSection@4    10060ec0 f   kernel32:KERNEL32.dll
 0001:0005fec6       _LeaveCriticalSection@4    10060ec6 f   kernel32:KERNEL32.dll
 0001:0005fecc       _DeleteCriticalSection@4   10060ecc f   kernel32:KERNEL32.dll
 0001:0005fed2       _InitializeCriticalSectionAndSpinCount@8 10060ed2 f   kernel32:KERNEL32.dll
 0001:0005fed8       _TlsAlloc@0                10060ed8 f   kernel32:KERNEL32.dll
 0001:0005fede       _TlsGetValue@4             10060ede f   kernel32:KERNEL32.dll
 0001:0005fee4       _TlsSetValue@8             10060ee4 f   kernel32:KERNEL32.dll
 0001:0005feea       _TlsFree@4                 10060eea f   kernel32:KERNEL32.dll
 0001:0005fef0       _FreeLibrary@4             10060ef0 f   kernel32:KERNEL32.dll
 0001:0005fef6       _LoadLibraryExW@12         10060ef6 f   kernel32:KERNEL32.dll
 0001:0005fefc       _GetStdHandle@4            10060efc f   kernel32:KERNEL32.dll
 0001:0005ff02       _GetFileType@4             10060f02 f   kernel32:KERNEL32.dll
 0001:0005ff08       _GetModuleFileNameA@12     10060f08 f   kernel32:KERNEL32.dll
 0001:0005ff0e       _GetModuleFileNameW@12     10060f0e f   kernel32:KERNEL32.dll
 0001:0005ff14       _GetModuleHandleExW@12     10060f14 f   kernel32:KERNEL32.dll
 0001:0005ff1a       _WriteConsoleW@20          10060f1a f   kernel32:KERNEL32.dll
 0001:0005ff20       _ExitProcess@4             10060f20 f   kernel32:KERNEL32.dll
 0001:0005ff26       _RaiseException@16         10060f26 f   kernel32:KERNEL32.dll
 0001:0005ff2c       _MultiByteToWideChar@24    10060f2c f   kernel32:KERNEL32.dll
 0001:0005ff32       _WideCharToMultiByte@32    10060f32 f   kernel32:KERNEL32.dll
 0001:0005ff38       _HeapFree@12               10060f38 f   kernel32:KERNEL32.dll
 0001:0005ff3e       _HeapAlloc@12              10060f3e f   kernel32:KERNEL32.dll
 0001:0005ff44       _GetDateFormatW@24         10060f44 f   kernel32:KERNEL32.dll
 0001:0005ff4a       _GetTimeFormatW@24         10060f4a f   kernel32:KERNEL32.dll
 0001:0005ff50       _CompareStringW@24         10060f50 f   kernel32:KERNEL32.dll
 0001:0005ff56       _LCMapStringW@24           10060f56 f   kernel32:KERNEL32.dll
 0001:0005ff5c       _GetLocaleInfoW@16         10060f5c f   kernel32:KERNEL32.dll
 0001:0005ff62       _IsValidLocale@8           10060f62 f   kernel32:KERNEL32.dll
 0001:0005ff68       _GetUserDefaultLCID@0      10060f68 f   kernel32:KERNEL32.dll
 0001:0005ff6e       _EnumSystemLocalesW@8      10060f6e f   kernel32:KERNEL32.dll
 0001:0005ff74       _GetCurrentThread@0        10060f74 f   kernel32:KERNEL32.dll
 0001:0005ff7a       _GetACP@0                  10060f7a f   kernel32:KERNEL32.dll
 0001:0005ff80       _WriteFile@20              10060f80 f   kernel32:KERNEL32.dll
 0001:0005ff86       _OutputDebugStringA@4      10060f86 f   kernel32:KERNEL32.dll
 0001:0005ff8c       _OutputDebugStringW@4      10060f8c f   kernel32:KERNEL32.dll
 0001:0005ff92       _CloseHandle@4             10060f92 f   kernel32:KERNEL32.dll
 0001:0005ff98       _WaitForSingleObjectEx@12  10060f98 f   kernel32:KERNEL32.dll
 0001:0005ff9e       _CreateThread@24           10060f9e f   kernel32:KERNEL32.dll
 0001:0005ffa4       _SetConsoleCtrlHandler@8   10060fa4 f   kernel32:KERNEL32.dll
 0001:0005ffaa       _HeapReAlloc@16            10060faa f   kernel32:KERNEL32.dll
 0001:0005ffb0       _ReadFile@20               10060fb0 f   kernel32:KERNEL32.dll
 0001:0005ffb6       _GetConsoleMode@8          10060fb6 f   kernel32:KERNEL32.dll
 0001:0005ffbc       _ReadConsoleW@20           10060fbc f   kernel32:KERNEL32.dll
 0001:0005ffc2       _GetConsoleCP@0            10060fc2 f   kernel32:KERNEL32.dll
 0001:0005ffc8       _DeleteFileW@4             10060fc8 f   kernel32:KERNEL32.dll
 0001:0005ffce       _SetFilePointerEx@20       10060fce f   kernel32:KERNEL32.dll
 0001:0005ffd4       _FindClose@4               10060fd4 f   kernel32:KERNEL32.dll
 0001:0005ffda       _FindFirstFileExA@24       10060fda f   kernel32:KERNEL32.dll
 0001:0005ffe0       _FindFirstFileExW@24       10060fe0 f   kernel32:KERNEL32.dll
 0001:0005ffe6       _FindNextFileA@8           10060fe6 f   kernel32:KERNEL32.dll
 0001:0005ffec       _FindNextFileW@8           10060fec f   kernel32:KERNEL32.dll
 0001:0005fff2       _IsValidCodePage@4         10060ff2 f   kernel32:KERNEL32.dll
 0001:0005fff8       _GetOEMCP@0                10060ff8 f   kernel32:KERNEL32.dll
 0001:0005fffe       _GetCPInfo@8               10060ffe f   kernel32:KERNEL32.dll
 0001:00060004       _GetCommandLineA@0         10061004 f   kernel32:KERNEL32.dll
 0001:0006000a       _GetCommandLineW@0         1006100a f   kernel32:KERNEL32.dll
 0001:00060010       _GetEnvironmentStringsW@0  10061010 f   kernel32:KERNEL32.dll
 0001:00060016       _FreeEnvironmentStringsW@4 10061016 f   kernel32:KERNEL32.dll
 0001:0006001c       _SetEnvironmentVariableA@8 1006101c f   kernel32:KERNEL32.dll
 0001:00060022       _SetEnvironmentVariableW@8 10061022 f   kernel32:KERNEL32.dll
 0001:00060028       _GetProcessHeap@0          10061028 f   kernel32:KERNEL32.dll
 0001:0006002e       _GetStringTypeW@16         1006102e f   kernel32:KERNEL32.dll
 0001:00060034       _FlushFileBuffers@4        10061034 f   kernel32:KERNEL32.dll
 0001:0006003a       _SetStdHandle@8            1006103a f   kernel32:KERNEL32.dll
 0001:00060040       _CreateFileW@28            10061040 f   kernel32:KERNEL32.dll
 0001:00060046       _HeapSize@12               10061046 f   kernel32:KERNEL32.dll
 0001:0006004c       _SetEndOfFile@4            1006104c f   kernel32:KERNEL32.dll
 0001:00060052       _EncodePointer@4           10061052 f   kernel32:KERNEL32.dll
 0001:00060058       _DecodePointer@4           10061058 f   kernel32:KERNEL32.dll
 0001:00060060       _strrchr                   10061060 f   libvcruntime:strrchr.obj
 0001:00060347       _memcmp                    10061347 f   libvcruntime:_memcmp_.obj
 0001:00063e2f       _wcschr                    10064e2f f   libvcruntime:wcschr.obj
 0002:00000000       ___xc_a                    10065000     LIBCMT:initializers.obj
 0002:00000104       ___xc_z                    10065104     LIBCMT:initializers.obj
 0002:00000208       ___xi_a                    10065208     LIBCMT:initializers.obj
 0002:0000030c       ___acrt_stdio_initializer  1006530c     libucrt:stdio_initializer.obj
 0002:00000310       ___acrt_multibyte_initializer 10065310     libucrt:multibyte_initializer.obj
 0002:00000314       ___acrt_tran_sse2_initializer 10065314     libucrt:sse2_initializer.obj
 0002:0000041c       ___xi_z                    1006541c     LIBCMT:initializers.obj
 0002:00000520       ___xp_a                    10065520     LIBCMT:initializers.obj
 0002:00000624       ___acrt_locale_terminator  10065624     libucrt:locale_initializer.obj
 0002:00000628       ___dcrt_console_output_terminator 10065628     libucrt:console_output_initializer.obj
 0002:00000730       ___acrt_stdio_terminator   10065730     libucrt:stdio_initializer.obj
 0002:00000834       ___xp_z                    10065834     LIBCMT:initializers.obj
 0002:00000938       ___xt_a                    10065938     LIBCMT:initializers.obj
 0002:00000a3c       ___xt_z                    10065a3c     LIBCMT:initializers.obj
 0002:00000b40       ??_C@_00CNPNBAHC@?$AA@     10065b40     PID_LoadCell_Magnet.obj
 0002:00000b44       ??_C@_08INHBMDAJ@Setpoint?$AA@ 10065b44     PID_LoadCell_Magnet.obj
 0002:00000b50       ??_C@_0M@OCJOIDIA@Error?5Sigal?$AA@ 10065b50     PID_LoadCell_Magnet.obj
 0002:00000b60       ??_C@_0P@HGGDJAMI@Motor?5Position?$AA@ 10065b60     PID_LoadCell_Magnet.obj
 0002:00000b74       ??_C@_0CB@CNKEEOFE@PID_LoadCell_Magnet?1setpoint_Out@ 10065b74     PID_LoadCell_Magnet.obj
 0002:00000b9c       ??_C@_0CE@GEEEOEEM@PID_LoadCell_Magnet?1errorSignal_@ 10065b9c     PID_LoadCell_Magnet.obj
 0002:00000bc8       ??_C@_0CB@CDKIAAEG@PID_LoadCell_Magnet?1motorPos_Out@ 10065bc8     PID_LoadCell_Magnet.obj
 0002:00000bf0       ??_C@_0CA@IENLMIAP@PID_LoadCell_Magnet?1loadCell_In?$AA@ 10065bf0     PID_LoadCell_Magnet.obj
 0002:00000c18       _PID_LoadCell_Magnet_M     10065c18     PID_LoadCell_Magnet.obj
 0002:00000c94       ??_C@_0BI@PEBACBDB@Error?5creating?5scope?53?6?$AA@ 10065c94     PID_LoadCell_Magnet.obj
 0002:00000cb0       ??_C@_07PFAGFFFO@Gain?1s1?$AA@ 10065cb0     PID_LoadCell_Magnet.obj
 0002:00000cbc       ??_C@_07NOCLAGJN@Gain?1s2?$AA@ 10065cbc     PID_LoadCell_Magnet.obj
 0002:00000cc8       ??_C@_07MHDADHNM@Gain?1s3?$AA@ 10065cc8     PID_LoadCell_Magnet.obj
 0002:00000cd4       ??_C@_07IIHBKBBL@Gain?1s4?$AA@ 10065cd4     PID_LoadCell_Magnet.obj
 0002:00000ce0       ??_C@_0BG@HCGNMBDA@Setpoint?5?5?5?5?5?5?5?5?$CF3?42f?$AA@ 10065ce0     PID_LoadCell_Magnet.obj
 0002:00000cfc       ??_C@_0BG@KBNMBNLJ@Motor?5Position?5?5?$CF3?42f?$AA@ 10065cfc     PID_LoadCell_Magnet.obj
 0002:00000d18       ??_C@_0BG@OKNLFNOK@Error?5Signal?5?5?5?5?$CF3?42f?$AA@ 10065d18     PID_LoadCell_Magnet.obj
 0002:00000d34       ??_C@_0BH@EEADBKDE@Load?5Cell?5?$CIV?$CJ?5?5?5?5?$CF4?43f?$AA@ 10065d34     PID_LoadCell_Magnet.obj
 0002:00000d50       ??_C@_0BI@PFNCELAG@Error?5creating?5scope?52?6?$AA@ 10065d50     PID_LoadCell_Magnet.obj
 0002:00000d6c       ??_C@_04JMNNLCJG@Sum1?$AA@ 10065d6c     PID_LoadCell_Magnet.obj
 0002:00000d74       ??_C@_0BI@PDBJIJON@Error?5creating?5scope?57?6?$AA@ 10065d74     PID_LoadCell_Magnet.obj
 0002:00000d90       ??_C@_0EN@BAAEGADN@Real?5motor?1angular_position?5?$DN?5?5?$FL@ 10065d90     PID_LoadCell_Magnet.obj
 0002:00000dec       ??_C@_0BI@PHJEPFFP@Error?5creating?5scope?51?6?$AA@ 10065dec     PID_LoadCell_Magnet.obj
 0002:00000e08       ??_C@_04CNCNIFFP@gain?$AA@ 10065e08     PID_LoadCell_Magnet.obj
 0002:00000e10       ??_C@_04CMIMOENB@ode3?$AA@ 10065e10     PID_LoadCell_Magnet.obj
 0002:00000e18       ??_C@_04EPKDLPPB@tout?$AA@ 10065e18     PID_LoadCell_Magnet.obj
 0002:00000e20       ??_C@_03HBFGMJOD@rt_?$AA@  10065e20     PID_LoadCell_Magnet.obj
 0002:00000e24       ??_C@_04LHDDHLEA@yout?$AA@ 10065e24     PID_LoadCell_Magnet.obj
 0002:00000e2c       ??_C@_0BO@FGDALDHL@Channel?50?5of?5?6Encoder?5Inputs?5?$AA@ 10065e2c     PID_LoadCell_Magnet.obj
 0002:00000e50       ??_C@_0DN@POBJNFAH@PID_LoadCell_Magnet?1Real?5motor?1C@ 10065e50     PID_LoadCell_Magnet.obj
 0002:00000e9c       ??_C@_09OEBDMAHA@Load?5Cell?$AA@ 10065e9c     PID_LoadCell_Magnet.obj
 0002:00000ea8       ??_C@_0BO@DANHKCDI@PID_LoadCell_Magnet?1Load?5Cell?$AA@ 10065ea8     PID_LoadCell_Magnet.obj
 0002:00000ecc       ??_C@_0DH@LFMGCAGH@Channel?50?5?9Control?5signal?5to?5?6mo@ 10065ecc     PID_LoadCell_Magnet.obj
 0002:00000f10       ??_C@_0EL@GHHJBJML@PID_LoadCell_Magnet?1Channel?50?5?9C@ 10065f10     PID_LoadCell_Magnet.obj
 0002:00000f70       __real@3f50624dd2f1a9fc    10065f70     PID_LoadCell_Magnet.obj
 0002:00000f80       __real@3fcc71c71c71c71c    10065f80     PID_LoadCell_Magnet.obj
 0002:00000f90       __real@3fd5555555555555    10065f90     PID_LoadCell_Magnet.obj
 0002:00000fa0       __real@3fdc71c71c71c71c    10065fa0     PID_LoadCell_Magnet.obj
 0002:00000fb0       __real@3fe0000000000000    10065fb0     PID_LoadCell_Magnet.obj
 0002:00000fc0       __real@3fe8000000000000    10065fc0     PID_LoadCell_Magnet.obj
 0002:00000fd0       __real@4008000000000000    10065fd0     PID_LoadCell_Magnet.obj
 0002:00000fe0       __real@4024000000000000    10065fe0     PID_LoadCell_Magnet.obj
 0002:00000ff0       __real@4065400000000000    10065ff0     PID_LoadCell_Magnet.obj
 0002:00001000       __real@4066800000000000    10066000     PID_LoadCell_Magnet.obj
 0002:00001010       __real@4069000000000000    10066010     PID_LoadCell_Magnet.obj
 0002:00001020       __real@407f400000000000    10066020     PID_LoadCell_Magnet.obj
 0002:00001030       __real@41f0000000000000    10066030     PID_LoadCell_Magnet.obj
 0002:00001040       __real@bff0000000000000    10066040     PID_LoadCell_Magnet.obj
 0002:00001050       __real@c066800000000000    10066050     PID_LoadCell_Magnet.obj
 0002:00001060       __xmm@00000001000000010000000100000001 10066060     PID_LoadCell_Magnet.obj
 0002:00001080       __xmm@0000006c000000130000002700000002 10066080     PID_LoadCell_Magnet.obj
 0002:000010a0       __xmm@3f50624dd2f1a9fc0000000000000000 100660a0     PID_LoadCell_Magnet.obj
 0002:000010c0       __xmm@41f00000000000000000000000000000 100660c0     PID_LoadCell_Magnet.obj
 0002:000010e0       __xmm@7fffffffffffffff7fffffffffffffff 100660e0     PID_LoadCell_Magnet.obj
 0002:000010f8       __real@3cb0000000000000    100660f8     rt_matrx.obj
 0002:00001108       __real@3ff0000000000000    10066108     rt_matrx.obj
 0002:0000196c       ??_C@_09MODAECCC@AbsDError?$AA@ 1006696c     PID_LoadCell_Magnet_capi.obj
 0002:00001978       ??_C@_08NMGCEGGL@AbsError?$AA@ 10066978     PID_LoadCell_Magnet_capi.obj
 0002:00001984       ??_C@_0O@KMOEPDCA@DerivativePID?$AA@ 10066984     PID_LoadCell_Magnet_capi.obj
 0002:00001994       ??_C@_04OMOMKKFL@Gain?$AA@ 10066994     PID_LoadCell_Magnet_capi.obj
 0002:0000199c       ??_C@_02HNOAOKGP@Kd?$AA@   1006699c     PID_LoadCell_Magnet_capi.obj
 0002:000019a0       ??_C@_02MIEOJECC@Ki?$AA@   100669a0     PID_LoadCell_Magnet_capi.obj
 0002:000019a4       ??_C@_02FDEODNDK@Kp?$AA@   100669a4     PID_LoadCell_Magnet_capi.obj
 0002:000019a8       ??_C@_0O@IAJKEFBN@IntegratorPID?$AA@ 100669a8     PID_LoadCell_Magnet_capi.obj
 0002:000019b8       ??_C@_05DIANJFID@Merge?$AA@ 100669b8     PID_LoadCell_Magnet_capi.obj
 0002:000019c0       ??_C@_0L@EICILOBK@Saturation?$AA@ 100669c0     PID_LoadCell_Magnet_capi.obj
 0002:000019d0       ??_C@_09OEIKEBHN@Sine?5Wave?$AA@ 100669d0     PID_LoadCell_Magnet_capi.obj
 0002:000019dc       ??_C@_04OBKKEGND@Sum4?$AA@ 100669dc     PID_LoadCell_Magnet_capi.obj
 0002:000019e4       ??_C@_07OCBIOHEM@Switch1?$AA@ 100669e4     PID_LoadCell_Magnet_capi.obj
 0002:000019f0       ??_C@_07MJDFLEIP@Switch2?$AA@ 100669f0     PID_LoadCell_Magnet_capi.obj
 0002:000019fc       ??_C@_0BD@KJLJAFAA@Else?5Subsystem?1In1?$AA@ 100669fc     PID_LoadCell_Magnet_capi.obj
 0002:00001a14       ??_C@_0BB@BAPICNDG@If?5Subsystem?1In1?$AA@ 10066a14     PID_LoadCell_Magnet_capi.obj
 0002:00001a28       ??_C@_0CJ@GBFCCONM@Real?5motor?1Channel?50?5of?5?5Encoder@ 10066a28     PID_LoadCell_Magnet_capi.obj
 0002:00001a5c       ??_C@_02MOPPPLEE@5V?$AA@   10066a5c     PID_LoadCell_Magnet_capi.obj
 0002:00001a60       ??_C@_05LPIJGKJ@Value?$AA@ 10066a60     PID_LoadCell_Magnet_capi.obj
 0002:00001a68       ??_C@_06DGFMLKGB@Degree?$AA@ 10066a68     PID_LoadCell_Magnet_capi.obj
 0002:00001a70       ??_C@_0BC@JJDNPNE@DegreeErrorThresh?$AA@ 10066a70     PID_LoadCell_Magnet_capi.obj
 0002:00001a88       ??_C@_0BA@JBLOPHPB@RateErrorThresh?$AA@ 10066a88     PID_LoadCell_Magnet_capi.obj
 0002:00001a9c       ??_C@_0L@IFLCOLGG@magnetDrop?$AA@ 10066a9c     PID_LoadCell_Magnet_capi.obj
 0002:00001aac       ??_C@_08OBEDHCOE@magnetOn?$AA@ 10066aac     PID_LoadCell_Magnet_capi.obj
 0002:00001ab8       ??_C@_0BB@CFEOEMDC@InitialCondition?$AA@ 10066ab8     PID_LoadCell_Magnet_capi.obj
 0002:00001acc       ??_C@_0L@FBCGKKEN@UpperLimit?$AA@ 10066acc     PID_LoadCell_Magnet_capi.obj
 0002:00001adc       ??_C@_0L@DGFJOHKP@LowerLimit?$AA@ 10066adc     PID_LoadCell_Magnet_capi.obj
 0002:00001aec       ??_C@_0DH@HKHAPGAF@Channel?50?5?9Control?5signal?5to?5?5mo@ 10066aec     PID_LoadCell_Magnet_capi.obj
 0002:00001b30       ??_C@_02KKFPAPOP@P1?$AA@   10066b30     PID_LoadCell_Magnet_capi.obj
 0002:00001b34       ??_C@_02IBHCFMCM@P2?$AA@   10066b34     PID_LoadCell_Magnet_capi.obj
 0002:00001b38       ??_C@_02JIGJGNGN@P3?$AA@   10066b38     PID_LoadCell_Magnet_capi.obj
 0002:00001b3c       ??_C@_02NHCIPLKK@P4?$AA@   10066b3c     PID_LoadCell_Magnet_capi.obj
 0002:00001b40       ??_C@_02MODDMKOL@P5?$AA@   10066b40     PID_LoadCell_Magnet_capi.obj
 0002:00001b44       ??_C@_02OFBOJJCI@P6?$AA@   10066b44     PID_LoadCell_Magnet_capi.obj
 0002:00001b48       ??_C@_02PMAFKIGJ@P7?$AA@   10066b48     PID_LoadCell_Magnet_capi.obj
 0002:00001b4c       ??_C@_02HLJNLEKG@P8?$AA@   10066b4c     PID_LoadCell_Magnet_capi.obj
 0002:00001b50       ??_C@_02GCIGIFOH@P9?$AA@   10066b50     PID_LoadCell_Magnet_capi.obj
 0002:00001b54       ??_C@_09IHLJOMI@Amplitude?$AA@ 10066b54     PID_LoadCell_Magnet_capi.obj
 0002:00001b60       ??_C@_04BAMHDAGA@Bias?$AA@ 10066b60     PID_LoadCell_Magnet_capi.obj
 0002:00001b68       ??_C@_09OGDICNME@Frequency?$AA@ 10066b68     PID_LoadCell_Magnet_capi.obj
 0002:00001b74       ??_C@_05CGFGLDKK@Phase?$AA@ 10066b74     PID_LoadCell_Magnet_capi.obj
 0002:00001b7c       ??_C@_09HLCHFPPJ@Threshold?$AA@ 10066b7c     PID_LoadCell_Magnet_capi.obj
 0002:00001b88       ??_C@_03OPFJJGBF@P10?$AA@  10066b88     PID_LoadCell_Magnet_capi.obj
 0002:00001b8c       ??_C@_03PGECKHFE@P11?$AA@  10066b8c     PID_LoadCell_Magnet_capi.obj
 0002:00001b90       ??_C@_03NNGPPEJH@P12?$AA@  10066b90     PID_LoadCell_Magnet_capi.obj
 0002:00001b94       ??_C@_06BNJCAIGJ@double?$AA@ 10066b94     PID_LoadCell_Magnet_capi.obj
 0002:00001b9c       ??_C@_06CNMIJIPB@real_T?$AA@ 10066b9c     PID_LoadCell_Magnet_capi.obj
 0002:00001ba4       ??_C@_05KNFBNCOH@float?$AA@ 10066ba4     PID_LoadCell_Magnet_capi.obj
 0002:00001bac       _serialfifoground          10066bac     xpc_datatype_ground.obj
 0002:00001bb8       _bcmsg1553ground           10066bb8     xpc_datatype_ground.obj
 0002:00001bc8       _bcstatground              10066bc8     xpc_datatype_ground.obj
 0002:00001be0       _bmmsg1553ground           10066be0     xpc_datatype_ground.obj
 0002:00001c1c       ??_C@_0BI@INNPNFJN@Memory?5Allocation?5Error?$AA@ 10066c1c     rtw_modelmap_utils.obj
 0002:00001c38       ??_C@_1HC@IFMGIDHA@?$AAC?$AA?3?$AA?2?$AAP?$AAR?$AAO?$AAG?$AAR?$AAA?$AA?$HO?$AA1?$AA?2?$AAM?$AAA?$AAT?$AAL?$AAA?$AAB?$AA?2?$AAR?$AA2?$AA0?$AA1?$AA7?$AAa?$AA?2?$AAr?$AAt?$AAw?$AA?2?$AAc?$AA?2@ 10066c38     rtw_modelmap_utils.obj
 0002:00001cc0       ??_C@_1CI@OEAJCJND@?$AAj?$AA?5?$AA?$DN?$AA?$DN?$AA?5?$AAe?$AAn?$AAc?$AAo?$AAd?$AAe?$AAd?$AAP?$AAa?$AAt?$AAh?$AAL?$AAe?$AAn?$AA?$AA@ 10066cc0     rtw_modelmap_utils.obj
 0002:00001cf0       ??_C@_1DC@NFAOIFKB@?$AAe?$AAn?$AAc?$AAo?$AAd?$AAe?$AAd?$AAP?$AAa?$AAt?$AAh?$AA?$FL?$AAj?$AA?9?$AA1?$AA?$FN?$AA?5?$AA?$DN?$AA?$DN?$AA?5?$AA?8?$AA?2?$AA0?$AA?8?$AA?$AA@ 10066cf0     rtw_modelmap_utils.obj
 0002:00001d2c       ??_C@_1DI@FLNJGPEE@?$AAs?$AAi?$AAg?$AAC?$AAo?$AAm?$AAp?$AAl?$AAe?$AAx?$AAi?$AAt?$AAy?$AA?$FL?$AA?$CK?$AAs?$AAi?$AAg?$AAI?$AAd?$AAx?$AA?$FN?$AA?5?$AA?$CB?$AA?$DN?$AA?5?$AA1?$AA?$AA@ 10066d2c     rtw_modelmap_utils.obj
 0002:00001d70       ??_C@_1KI@OFELMGBG@?$AA?$CI?$AA?$CI?$AA?$CI?$AAd?$AAa?$AAt?$AAa?$AAT?$AAy?$AAp?$AAe?$AAM?$AAa?$AAp?$AA?$CJ?$AA?$FL?$AA?$CI?$AA?$CI?$AA?$CI?$AAs?$AAt?$AAa?$AAt?$AAe?$AAs?$AA?$CJ?$AA?$FL?$AA?$CI?$AAi?$AA?$CJ?$AA?$FN?$AA?4@ 10066d70     rtw_modelmap_utils.obj
 0002:00001e3c       ??_C@_1DA@ILCMPHNE@?$AAf?$AAu?$AAl?$AAl?$AAP?$AAa?$AAt?$AAh?$AA?5?$AA?$CB?$AA?$DN?$AA?5?$AA?$CI?$AA?$CI?$AAv?$AAo?$AAi?$AAd?$AA?5?$AA?$CK?$AA?$CJ?$AA0?$AA?$CJ?$AA?$AA@ 10066e3c     rtw_modelmap_utils.obj
 0002:00001e78       ??_C@_1CI@OEPPFCCA@?$AAp?$AAa?$AAt?$AAh?$AA?5?$AA?$CB?$AA?$DN?$AA?5?$AA?$CI?$AA?$CI?$AAv?$AAo?$AAi?$AAd?$AA?5?$AA?$CK?$AA?$CJ?$AA0?$AA?$CJ?$AA?$AA@ 10066e78     rtw_modelmap_utils.obj
 0002:00001ea8       ??_C@_1FK@GLJIMFHB@?$AA?$CI?$AA?$CI?$AAm?$AAm?$AAi?$AA?$CJ?$AA?9?$AA?$DO?$AAI?$AAn?$AAs?$AAt?$AAa?$AAn?$AAc?$AAe?$AAM?$AAa?$AAp?$AA?4?$AAf?$AAu?$AAl?$AAl?$AAP?$AAa?$AAt?$AAh?$AA?$CJ?$AA?5?$AA?$DN?$AA?$DN@ 10066ea8     rtw_modelmap_utils.obj
 0002:00001f14       ??_C@_1DG@HPCJGNCE@?$AAm?$AAm?$AAi?$AAP?$AAa?$AAt?$AAh?$AA?$FL?$AAp?$AAa?$AAt?$AAh?$AAL?$AAe?$AAn?$AA?9?$AA1?$AA?$FN?$AA?5?$AA?$DN?$AA?$DN?$AA?5?$AA?8?$AA?2?$AA0?$AA?8?$AA?$AA@ 10066f14     rtw_modelmap_utils.obj
 0002:00001f54       ??_C@_1DM@DBAOGGOO@?$AAm?$AAm?$AAi?$AAP?$AAa?$AAt?$AAh?$AA?$FL?$AAm?$AAm?$AAi?$AAP?$AAa?$AAt?$AAh?$AAL?$AAe?$AAn?$AA?9?$AA1?$AA?$FN?$AA?5?$AA?$DN?$AA?$DN?$AA?5?$AA?8?$AA?2?$AA0?$AA?8?$AA?$AA@ 10066f54     rtw_modelmap_utils.obj
 0002:00001f9c       ??_C@_1DC@LHIAKAFE@?$AAb?$AAl?$AAo?$AAc?$AAk?$AAP?$AAa?$AAt?$AAh?$AA?5?$AA?$CB?$AA?$DN?$AA?5?$AA?$CI?$AA?$CI?$AAv?$AAo?$AAi?$AAd?$AA?5?$AA?$CK?$AA?$CJ?$AA0?$AA?$CJ?$AA?$AA@ 10066f9c     rtw_modelmap_utils.obj
 0002:00001fd8       ??_C@_1GI@KIEJKPGC@?$AAf?$AAu?$AAl?$AAl?$AAS?$AAt?$AAa?$AAt?$AAe?$AAB?$AAl?$AAo?$AAc?$AAk?$AAP?$AAa?$AAt?$AAh?$AA?$FL?$AAf?$AAu?$AAl?$AAl?$AAS?$AAt?$AAa?$AAt?$AAe?$AAB?$AAl?$AAo?$AAc@ 10066fd8     rtw_modelmap_utils.obj
 0002:00002058       ??_C@_1EE@DNPIBJHC@?$AA?$CI?$AA?$CI?$AAd?$AAi?$AAm?$AAM?$AAa?$AAp?$AA?$CJ?$AA?$FL?$AA?$CI?$AAm?$AAa?$AAp?$AAI?$AAd?$AAx?$AA?$CJ?$AA?$FN?$AA?4?$AAn?$AAu?$AAm?$AAD?$AAi?$AAm?$AAs?$AA?$CJ?$AA?5?$AA?$DN?$AA?$DN?$AA?5@ 10067058     rtw_modelmap_utils.obj
 0002:000020ac       ??_C@_06JFOKFOED@CSTATE?$AA@ 100670ac     rtw_modelmap_utils.obj
 0002:000020b4       ??_C@_06FAENGAMN@DSTATE?$AA@ 100670b4     rtw_modelmap_utils.obj
 0002:000020bc       ??_C@_1BI@LEBJNOGG@?$AAc?$AAs?$AAv?$AAI?$AAd?$AAx?$AA?5?$AA?$DO?$AA?$DN?$AA?5?$AA0?$AA?$AA@ 100670bc     rtw_modelmap_utils.obj
 0002:000020d8       ??_C@_1BA@KDMGHCHP@?$AAT?$AAI?$AAD?$AA?$DN?$AA?$DN?$AA?9?$AA1?$AA?$AA@ 100670d8     rtw_modelmap_utils.obj
 0002:000020ec       ??_C@_1DM@DHGKBPCE@?$AAs?$AAi?$AAg?$AAP?$AAa?$AAt?$AAh?$AA?$FL?$AAs?$AAi?$AAg?$AAP?$AAa?$AAt?$AAh?$AAL?$AAe?$AAn?$AA?9?$AA1?$AA?$FN?$AA?5?$AA?$DN?$AA?$DN?$AA?5?$AA?8?$AA?2?$AA0?$AA?8?$AA?$AA@ 100670ec     rtw_modelmap_utils.obj
 0002:00002998       ??_C@_0DJ@FHKINPLE@Unexpected?5itemKind?5?$DN?5DATA_ITEM?5@ 10067998     rt_logging.obj
 0002:000029dc       ??_C@_0DA@IEHFPFCJ@Unexpected?5itemKind?$DN?$CFd?5in?5rt_Pro@ 100679dc     rt_logging.obj
 0002:00002a18       ??_C@_0DA@IFLHJPBO@Unexpected?5itemKind?$DN?$CFd?5in?5rt_Pro@ 10067a18     rt_logging.obj
 0002:00002a54       ??_C@_0DA@IAPIIJJL@Unexpected?5itemKind?$DN?$CFd?5in?5rt_Pro@ 10067a54     rt_logging.obj
 0002:00002a90       ??_C@_0BE@LCIGPJIG@MATLAB?55?40?5MAT?9file?$AA@ 10067a90     rt_logging.obj
 0002:00002aa8       ??_C@_0FB@PCJEAJIB@?$CK?$CK?$CK?5Log?5variable?5?$CFs?5has?5wrapped?5@ 10067aa8     rt_logging.obj
 0002:00002b10       ??_C@_0MG@NKMLMOGF@?$CK?$CK?$CK?5To?5avoid?5wrapping?0?5explicitl@ 10067b10     rt_logging.obj
 0002:00002c00       ??_C@_0N@IPAEOLLP@_rtw_tmw?4tmw?$AA@ 10067c00     rt_logging.obj
 0002:00002c10       ??_C@_04HDOCAJNK@?$CFs?$CFs?$AA@ 10067c10     rt_logging.obj
 0002:00002c18       ??_C@_03ELIABIOC@w?$CLb?$AA@ 10067c18     rt_logging.obj
 0002:00002c1c       ??_C@_0BF@JPILDDFA@?$CK?$CK?$CK?5Error?5opening?5?$CFs?$AA@ 10067c1c     rt_logging.obj
 0002:00002c38       ??_C@_0BK@EEMDELA@unable?5to?5open?5data?5file?6?$AA@ 10067c38     rt_logging.obj
 0002:00002c58       ??_C@_04CGFJFPFD@none?$AA@ 10067c58     rt_logging.obj
 0002:00002c60       ??_C@_0EE@LCGFPNON@?$CK?$CK?$CK?5Error?5creating?5signals?5struc@ 10067c60     rt_logging.obj
 0002:00002cb4       ??_C@_0CE@NHECEDMK@?$CK?$CK?$CK?5Error?5creating?5log?5variable?5@ 10067cb4     rt_logging.obj
 0002:00002ce0       ??_C@_0DB@IOCGKAGH@?$CK?$CK?$CK?5Errors?5occurred?5when?5startin@ 10067ce0     rt_logging.obj
 0002:00002d1c       ??_C@_0BO@BBLOGEBK@?$CK?$CK?$CK?5Memory?5allocation?5error?4?6?$AA@ 10067d1c     rt_logging.obj
 0002:00002d40       ??_C@_0N@LGFBAGEL@?5?$CIreal?5part?$CJ?$AA@ 10067d40     rt_logging.obj
 0002:00002d50       ??_C@_0KH@CGNMHNFE@?5?5?5?5varName?5?5?5?5?5?5?5?5?5?5?$DN?5?$CFs?$CFs?6?5?5?5?5@ 10067d50     rt_logging.obj
 0002:00002e18       ??_C@_0LE@OALKKEFM@?5?5?5?5varName?5?5?5?5?5?5?5?5?5?5?$DN?5?$CFs?5?$CIcompl@ 10067e18     rt_logging.obj
 0002:00002ef0       ??_C@_0KF@JDDLEOKO@?5?5?5?5varName?5?5?5?5?5?5?5?5?5?5?$DN?5?$CFs?6?5?5?5?5nR@ 10067ef0     rt_logging.obj
 0002:00002fb8       ??_C@_0DP@HPDMIOFM@?$CK?$CK?$CK?5Using?5a?5default?5buffer?5of?5si@ 10067fb8     rt_logging.obj
 0002:00003008       ??_C@_0KE@JEFOLKNF@?6?$CK?$CK?$CK?5Memory?5required?5to?5log?5vari@ 10068008     rt_logging.obj
 0002:000030d0       ??_C@_0JP@DKLMHCBI@?$CK?$CK?$CK?5Details?3?6?5?5?5?5?5?5?5varName?5?5?5?5?5@ 100680d0     rt_logging.obj
 0002:00003190       ??_C@_0CM@CAMILBED@?$CK?$CK?$CK?5Error?5allocating?5memory?5for?5@ 10068190     rt_logging.obj
 0002:000031c4       ??_C@_0DF@BBCNMOPM@?$CK?$CK?$CK?5Error?5allocating?5memory?5for?5@ 100681c4     rt_logging.obj
 0002:00003208       ??_C@_0JP@DBCLPCCI@?$CK?$CK?$CK?5Details?3?6?5?5?5?5?5?5?5varName?5?5?5?5?5@ 10068208     rt_logging.obj
 0002:000032c8       ??_C@_0FK@DPGAOBGA@?$CK?$CK?$CK?5Error?5allocating?5memory?5for?5@ 100682c8     rt_logging.obj
 0002:00003334       ??_C@_0BI@GGDNPHLJ@?$CK?$CK?$CK?5Error?5writing?5to?5?$CFs?$AA@ 10068334     rt_logging.obj
 0002:00003350       ??_C@_0CB@IBGJGELG@?$CK?$CK?$CK?5Error?5writing?5?$CFs?5due?5to?3?5?$CFs?6@ 10068350     rt_logging.obj
 0002:00003378       ??_C@_0CN@FLMCHCPB@?$CK?$CK?$CK?5Error?5writing?5log?5variable?5?$CF@ 10068378     rt_logging.obj
 0002:000033b0       ??_C@_0DH@GAJCNOJP@?$CK?$CK?$CK?5Error?5writing?5structure?5log?5@ 100683b0     rt_logging.obj
 0002:000033f4       ??_C@_0BD@POEALECL@?$CK?$CK?5created?5?$CFs?5?$CK?$CK?6?6?$AA@ 100683f4     rt_logging.obj
 0002:00003410       __real@0000000000000000    10068410     rt_logging.obj
 0002:00003420       __real@4020000000000000    10068420     rt_logging.obj
 0002:00003430       __real@41dfffffffc00000    10068430     rt_logging.obj
 0002:00003440       __real@41efffffffe00000    10068440     rt_logging.obj
 0002:00003450       __real@4330000000000000    10068450     rt_logging.obj
 0002:00003460       __real@8000000000000000    10068460     rt_logging.obj
 0002:00003470       __real@bfbf9add3afd2773    10068470     rt_logging.obj
 0002:00003480       __real@c000000000000000    10068480     rt_logging.obj
 0002:00003490       __xmm@20202020202020202020202020202020 10068490     rt_logging.obj
 0002:000034a4       ??_C@_0BE@EDLJHFBJ@PID_LoadCell_Magnet?$AA@ 100684a4     xpctarget.obj
 0002:000034bc       _ptsetfilename             100684bc     xpctarget.obj
 0002:000034c0       _xmlfile                   100684c0     xpctarget.obj
 0002:000034c8       ??_C@_0L@CHBJKKFC@xpceSetVar?$AA@ 100684c8     xpctarget.obj
 0002:000034d8       ??_C@_03LADEHNAB@6?46?$AA@ 100684d8     xpctarget.obj
 0002:000034e0       __real@3fb999999999999a    100684e0     xpctarget.obj
 0002:000034f0       __real@408f400000000000    100684f0     xpctarget.obj
 0002:00003500       _PID_LoadCell_Magnet_BIOMAP 10068500     appmappingData.obj
 0002:00003608       _PID_LoadCell_Magnet_LBLMAP 10068608     appmappingData.obj
 0002:00003710       _PID_LoadCell_Magnet_SIDMAP 10068710     appmappingData.obj
 0002:00003818       _PID_LoadCell_Magnet_SBIO  10068818     appmappingData.obj
 0002:00003870       _PID_LoadCell_Magnet_SLBL  10068870     appmappingData.obj
 0002:000038c8       _PID_LoadCell_Magnet_PTIDSMAP 100688c8     appmappingData.obj
 0002:00003a50       _PID_LoadCell_Magnet_PTNAMESMAP 10068a50     appmappingData.obj
 0002:00003bd8       _PID_LoadCell_Magnet_SPTMAP 10068bd8     appmappingData.obj
 0002:00003c9c       _PID_LoadCell_Magnet_dtmap 10068c9c     appmappingData.obj
 0002:00003ca8       _appInfo                   10068ca8     appmappingData.obj
 0002:00003e8c       ??_C@_0CC@FIFFDAB@?$CFd?5input?5args?5expected?0?5?$CFd?5passe@ 10068e8c     adquanserq8.obj
 0002:00003eb4       ??_C@_0L@GPCJJFPH@Quanser?5Q8?$AA@ 10068eb4     adquanserq8.obj
 0002:00003ec4       ??_C@_0L@MDJMNKPL@Quanser?5Q4?$AA@ 10068ec4     adquanserq8.obj
 0002:00003ed4       ??_C@_0BI@IHCNPKCM@No?5?$CFs?5at?5bus?5?$CFd?5slot?5?$CFd?$AA@ 10068ed4     adquanserq8.obj
 0002:00003ef0       ??_C@_0BN@HPKICLI@?$CFs?5A?1D?5driver?5internal?5error?$AA@ 10068ef0     adquanserq8.obj
 0002:00003f18       __real@3f54000000000000    10068f18     adquanserq8.obj
 0002:00003f24       ??_C@_0BK@DJPPGIA@Bad?5channel?5in?5?$CFs?5D?1A?3?5?$CFn?$AA@ 10068f24     daquanserq8.obj
 0002:00003f44       ??_C@_0BI@OLGKMIEO@Bad?5range?5in?5?$CFs?5D?1A?3?5?$CFd?$AA@ 10068f44     daquanserq8.obj
 0002:00003f60       __real@4014000000000000    10068f60     daquanserq8.obj
 0002:00003f70       __real@406999999999999a    10068f70     daquanserq8.obj
 0002:00003f80       __real@407999999999999a    10068f80     daquanserq8.obj
 0002:00003f8c       ??_C@_0BL@NBOIGMKP@Q8?1Q4?5encoder?5error?5?$CFx?5?$CFx?6?$AA@ 10068f8c     encquanserq8.obj
 0002:00003fac       ??_C@_0CC@DMFKNLL@VendorId?5?$DN?50x?$CFx?0?5DeviceId?5?$DN?50x?$CFx@ 10068fac     xpcruntime:xpcimports.obj
 0002:00003fd4       ??_C@_0DH@OHCBLNMG@Subsystem?5Device?5ID?5?$DN?50x?$CFx?6Subsy@ 10068fd4     xpcruntime:xpcimports.obj
 0002:00004018       ??_C@_0BD@MMMMEFCM@Class?5Code?5?$DN?50x?$CFx?6?$AA@ 10069018     xpcruntime:xpcimports.obj
 0002:00004030       ??_C@_0BE@OLDDDNHM@InterruptLine?5?$DN?5?$CFd?6?$AA@ 10069030     xpcruntime:xpcimports.obj
 0002:00004048       ??_C@_0BF@OLKLEKBD@bus?5?$DN?5?$CFd?0?5slot?5?$DN?5?$CFd?6?$AA@ 10069048     xpcruntime:xpcimports.obj
 0002:00004064       ??_C@_0CE@DGLLGDFH@?5?5?5?5Phys?5?5?5Virtual?5?5?5Length?5IO?1M@ 10069064     xpcruntime:xpcimports.obj
 0002:00004090       ??_C@_0BI@FEOPLEMG@?$CF08x?5?$CF08x?5?$CF08x?5?5?5?5?5?5?$CFc?6?$AA@ 10069090     xpcruntime:xpcimports.obj
 0002:000040ac       ??_C@_0BB@BNNCEDPC@rl32eScopeExists?$AA@ 100690ac     xpcruntime:xpcimports.obj
 0002:000040c0       ??_C@_0BM@FJBFEGFG@rl32eScopeExists?5not?5found?6?$AA@ 100690c0     xpcruntime:xpcimports.obj
 0002:000040e4       ??_C@_0O@BNNGKJEA@rl32eDefScope?$AA@ 100690e4     xpcruntime:xpcimports.obj
 0002:000040f4       ??_C@_0BJ@CDNOENKA@rl32eDefScope?5not?5found?6?$AA@ 100690f4     xpcruntime:xpcimports.obj
 0002:00004114       ??_C@_0P@CKNKILDP@rl32eAddSignal?$AA@ 10069114     xpcruntime:xpcimports.obj
 0002:00004128       ??_C@_0BK@GMJAJBAI@rl32eAddSignal?5not?5found?6?$AA@ 10069128     xpcruntime:xpcimports.obj
 0002:00004148       ??_C@_0BB@LDMIHGCE@rl32eGetSignalNo?$AA@ 10069148     xpcruntime:xpcimports.obj
 0002:0000415c       ??_C@_0BM@LGAMBAID@rl32eGetSignalNo?5not?5found?6?$AA@ 1006915c     xpcruntime:xpcimports.obj
 0002:00004180       ??_C@_0O@CFDGALBP@rl32eSetScope?$AA@ 10069180     xpcruntime:xpcimports.obj
 0002:00004190       ??_C@_0BJ@JCLHHIN@rl32eSetScope?5not?5found?6?$AA@ 10069190     xpcruntime:xpcimports.obj
 0002:000041b0       ??_C@_0P@IKMCBMHH@xpceFSScopeSet?$AA@ 100691b0     xpcruntime:xpcimports.obj
 0002:000041c4       ??_C@_0BK@JODJPNNH@xpceFSScopeSet?5not?5found?6?$AA@ 100691c4     xpcruntime:xpcimports.obj
 0002:000041e4       ??_C@_0BE@DLACEEJM@rl32eSetTargetScope?$AA@ 100691e4     xpcruntime:xpcimports.obj
 0002:000041fc       ??_C@_0BP@JCHFMKPJ@rl32eSetTargetScope?5not?5found?6?$AA@ 100691fc     xpcruntime:xpcimports.obj
 0002:00004224       ??_C@_0BJ@LIDLNDHC@rl32eSetTargetScopeSigFt?$AA@ 10069224     xpcruntime:xpcimports.obj
 0002:00004244       ??_C@_0CE@JLGHCFHI@rl32eSetTargetScopeSigFt?5not?5fou@ 10069244     xpcruntime:xpcimports.obj
 0002:00004270       ??_C@_0BI@JAPOIDNG@rl32eRestartAcquisition?$AA@ 10069270     xpcruntime:xpcimports.obj
 0002:0000428c       ??_C@_0CD@LLBEFFBO@rl32eRestartAcquisition?5not?5foun@ 1006928c     xpcruntime:xpcimports.obj
 0002:000042b8       ??_C@_0P@IEIIADJB@xpceScopeAcqOK?$AA@ 100692b8     xpcruntime:xpcimports.obj
 0002:000042cc       ??_C@_0BK@NJCKNFPN@xpceScopeAcqOK?5not?5found?6?$AA@ 100692cc     xpcruntime:xpcimports.obj
 0002:000042ec       ??_C@_0BA@IJINKAHF@xpceRegisterISR?$AA@ 100692ec     xpcruntime:xpcimports.obj
 0002:00004300       ??_C@_0BL@NNDLOEJE@xpceRegisterISR?5not?5found?6?$AA@ 10069300     xpcruntime:xpcimports.obj
 0002:00004320       ??_C@_0BC@NLBADGKF@xpceDeRegisterISR?$AA@ 10069320     xpcruntime:xpcimports.obj
 0002:00004338       ??_C@_0BN@DCAIKFFD@xpceDeRegisterISR?5not?5found?6?$AA@ 10069338     xpcruntime:xpcimports.obj
 0002:0000435c       ??_C@_07JPMEPILD@xpcInpB?$AA@ 1006935c     xpcruntime:xpcimports.obj
 0002:00004368       ??_C@_0BD@PGABEJOL@xpcInpB?5not?5found?6?$AA@ 10069368     xpcruntime:xpcimports.obj
 0002:00004380       ??_C@_07KIHBBOKH@xpcInpW?$AA@ 10069380     xpcruntime:xpcimports.obj
 0002:0000438c       ??_C@_0BD@FPCJFMCC@xpcInpW?5not?5found?6?$AA@ 1006938c     xpcruntime:xpcimports.obj
 0002:000043a4       ??_C@_08KDIAJBOP@xpcInpDW?$AA@ 100693a4     xpcruntime:xpcimports.obj
 0002:000043b0       ??_C@_0BE@PIELDNIL@xpcInpDW?5not?5found?6?$AA@ 100693b0     xpcruntime:xpcimports.obj
 0002:000043c8       ??_C@_08PJFMOIGO@xpcOutpB?$AA@ 100693c8     xpcruntime:xpcimports.obj
 0002:000043d4       ??_C@_0BE@HCKNCEKF@xpcOutpB?5not?5found?6?$AA@ 100693d4     xpcruntime:xpcimports.obj
 0002:000043ec       ??_C@_08MOOJAOHK@xpcOutpW?$AA@ 100693ec     xpcruntime:xpcimports.obj
 0002:000043f8       ??_C@_0BE@NLIFDBGM@xpcOutpW?5not?5found?6?$AA@ 100693f8     xpcruntime:xpcimports.obj
 0002:00004410       ??_C@_09FLIEKHJG@xpcOutpDW?$AA@ 10069410     xpcruntime:xpcimports.obj
 0002:0000441c       ??_C@_0BF@GJKLPNHB@xpcOutpDW?5not?5found?6?$AA@ 1006941c     xpcruntime:xpcimports.obj
 0002:00004438       ??_C@_0BH@EHOLELHH@xpcReserveMemoryRegion?$AA@ 10069438     xpcruntime:xpcimports.obj
 0002:00004454       ??_C@_0CC@KAAAGPI@xpcReserveMemoryRegion?5not?5found@ 10069454     xpcruntime:xpcimports.obj
 0002:0000447c       ??_C@_0BA@JGPMHGAF@rl32eShowPCIDev?$AA@ 1006947c     xpcruntime:xpcimports.obj
 0002:00004490       ??_C@_0BL@DDFFLNHI@rl32eShowPCIDev?5not?5found?6?$AA@ 10069490     xpcruntime:xpcimports.obj
 0002:000044b0       ??_C@_0BB@KBCOJPFB@rl32eShowPCIInfo?$AA@ 100694b0     xpcruntime:xpcimports.obj
 0002:000044c4       ??_C@_0BM@IFDMAGLO@rl32eShowPCIInfo?5not?5found?6?$AA@ 100694c4     xpcruntime:xpcimports.obj
 0002:000044e8       ??_C@_0BA@BGPAADB@rl32eGetPCIInfo?$AA@ 100694e8     xpcruntime:xpcimports.obj
 0002:000044fc       ??_C@_0BL@IGOMLDCK@rl32eGetPCIInfo?5not?5found?6?$AA@ 100694fc     xpcruntime:xpcimports.obj
 0002:0000451c       ??_C@_0BG@NJPFKFDP@rl32eGetPCIInfoAtSlot?$AA@ 1006951c     xpcruntime:xpcimports.obj
 0002:00004538       ??_C@_0CB@BBKIPMLA@rl32eGetPCIInfoAtSlot?5not?5found?6@ 10069538     xpcruntime:xpcimports.obj
 0002:00004560       ??_C@_0BH@OKBOPNFG@xpceAssignPCIInterrupt?$AA@ 10069560     xpcruntime:xpcimports.obj
 0002:0000457c       ??_C@_0CC@CDNDNJBJ@xpceAssignPCIInterrupt?5not?5found@ 1006957c     xpcruntime:xpcimports.obj
 0002:000045a4       ??_C@_0BD@PCKOKHO@xpceGetSignalValue?$AA@ 100695a4     xpcruntime:xpcimports.obj
 0002:000045bc       ??_C@_0BO@GCBDJHMB@xpceGetSignalValue?5not?5found?6?$AA@ 100695bc     xpcruntime:xpcimports.obj
 0002:000045e0       ??_C@_0BB@BJONJAGA@xpceSetParameter?$AA@ 100695e0     xpcruntime:xpcimports.obj
 0002:000045f4       ??_C@_0BM@BJIKDLHA@xpceSetParameter?5not?5found?6?$AA@ 100695f4     xpcruntime:xpcimports.obj
 0002:00004618       ??_C@_0BB@GNFDFMCM@xpceGetParameter?$AA@ 10069618     xpcruntime:xpcimports.obj
 0002:0000462c       ??_C@_0BM@POHNKBC@xpceGetParameter?5not?5found?6?$AA@ 1006962c     xpcruntime:xpcimports.obj
 0002:00004650       ??_C@_0BB@CEIJLFCD@xpceGetParamDims?$AA@ 10069650     xpcruntime:xpcimports.obj
 0002:00004664       ??_C@_0BM@OABDBKAO@xpceGetParamDims?5not?5found?6?$AA@ 10069664     xpcruntime:xpcimports.obj
 0002:00004688       ??_C@_0L@OCBLLHBM@xpceGetTET?$AA@ 10069688     xpcruntime:xpcimports.obj
 0002:00004698       ??_C@_0BG@HNOFBOB@xpceGetTET?5not?5found?6?$AA@ 10069698     xpcruntime:xpcimports.obj
 0002:000046b4       ??_C@_0P@OKGNGAGH@xpcIsModelInit?$AA@ 100696b4     xpcruntime:xpcimports.obj
 0002:000046c8       ??_C@_0BK@DHEMLBIM@xpcIsModelInit?5not?5found?6?$AA@ 100696c8     xpcruntime:xpcimports.obj
 0002:000046e8       ??_C@_0BH@KJJLCAOJ@xpcAllocPhysicalMemory?$AA@ 100696e8     xpcruntime:xpcimports.obj
 0002:00004704       ??_C@_0CC@MOJPNHKL@xpcAllocPhysicalMemory?5not?5found@ 10069704     xpcruntime:xpcimports.obj
 0002:0000472c       ??_C@_0BG@CBNPGAEL@xpcFreePhysicalMemory?$AA@ 1006972c     xpcruntime:xpcimports.obj
 0002:00004748       ??_C@_0CB@PKJEBPOG@xpcFreePhysicalMemory?5not?5found?6@ 10069748     xpcruntime:xpcimports.obj
 0002:00004770       ??_C@_0BC@JGKNLICL@xpcGetElapsedTime?$AA@ 10069770     xpcruntime:xpcimports.obj
 0002:00004788       ??_C@_0BN@OEOAHCIO@xpcGetElapsedTime?5not?5found?6?$AA@ 10069788     xpcruntime:xpcimports.obj
 0002:000047ac       ??_C@_0M@ICBLMODA@xpcBusyWait?$AA@ 100697ac     xpcruntime:xpcimports.obj
 0002:000047bc       ??_C@_0BH@FBOPECBI@xpcBusyWait?5not?5found?6?$AA@ 100697bc     xpcruntime:xpcimports.obj
 0002:000047d8       ??_C@_0N@LKKJEKKA@TBCreateSpin?$AA@ 100697d8     xpcruntime:xpcimports.obj
 0002:000047e8       ??_C@_0BI@FHKMLKOE@TBCreateSpin?5not?5found?6?$AA@ 100697e8     xpcruntime:xpcimports.obj
 0002:00004804       ??_C@_0N@HOAJHNBD@TBDeleteSpin?$AA@ 10069804     xpcruntime:xpcimports.obj
 0002:00004814       ??_C@_0BI@BKCPAAG@TBDeleteSpin?5not?5found?6?$AA@ 10069814     xpcruntime:xpcimports.obj
 0002:00004830       ??_C@_0P@DAHDDBJG@TBTakeSpinFast?$AA@ 10069830     xpcruntime:xpcimports.obj
 0002:00004844       ??_C@_0BK@NKAIBHGB@TBTakeSpinFast?5not?5found?6?$AA@ 10069844     xpcruntime:xpcimports.obj
 0002:00004864       ??_C@_0P@FKNAAELA@TBGiveSpinFast?$AA@ 10069864     xpcruntime:xpcimports.obj
 0002:00004878       ??_C@_0BK@KGPJBJND@TBGiveSpinFast?5not?5found?6?$AA@ 10069878     xpcruntime:xpcimports.obj
 0002:00004898       ??_C@_0BE@IIGBFDHK@xpceCreateSemaphore?$AA@ 10069898     xpcruntime:xpcimports.obj
 0002:000048b0       ??_C@_0BP@KFBAFFKJ@xpceCreateSemaphore?5not?5found?6?$AA@ 100698b0     xpcruntime:xpcimports.obj
 0002:000048d8       ??_C@_0BC@IFNIONKJ@xpceWaitSemaphore?$AA@ 100698d8     xpcruntime:xpcimports.obj
 0002:000048f0       ??_C@_0BN@NMFAADIO@xpceWaitSemaphore?5not?5found?6?$AA@ 100698f0     xpcruntime:xpcimports.obj
 0002:00004914       ??_C@_0BE@NNDIOBKE@xpceSignalSemaphore?$AA@ 10069914     xpcruntime:xpcimports.obj
 0002:0000492c       ??_C@_0BP@LBANMHJP@xpceSignalSemaphore?5not?5found?6?$AA@ 1006992c     xpcruntime:xpcimports.obj
 0002:00004954       ??_C@_0BE@MEBEKOIM@xpceDeleteSemaphore?$AA@ 10069954     xpcruntime:xpcimports.obj
 0002:0000496c       ??_C@_0BP@OFNCKOJH@xpceDeleteSemaphore?5not?5found?6?$AA@ 1006996c     xpcruntime:xpcimports.obj
 0002:00004994       ??_C@_0BD@MFNDMBOF@FindUsbVideoDevice?$AA@ 10069994     xpcruntime:xpcimports.obj
 0002:000049ac       ??_C@_0BO@POKLDHMI@FindUsbVideoDevice?5not?5found?6?$AA@ 100699ac     xpcruntime:xpcimports.obj
 0002:000049d0       ??_C@_0BA@PLPAPNAB@GetVideoConfigs?$AA@ 100699d0     xpcruntime:xpcimports.obj
 0002:000049e4       ??_C@_0BL@DALDHKHC@GetVideoConfigs?5not?5found?6?$AA@ 100699e4     xpcruntime:xpcimports.obj
 0002:00004a04       ??_C@_0L@GBAEMHMH@StartVideo?$AA@ 10069a04     xpcruntime:xpcimports.obj
 0002:00004a14       ??_C@_0BG@HDCELEBP@StartVideo?5not?5found?6?$AA@ 10069a14     xpcruntime:xpcimports.obj
 0002:00004a30       ??_C@_0BA@FDNPOCLN@ReadFrameBuffer?$AA@ 10069a30     xpcruntime:xpcimports.obj
 0002:00004a44       ??_C@_0BL@JHGHPNBI@ReadFrameBuffer?5not?5found?6?$AA@ 10069a44     xpcruntime:xpcimports.obj
 0002:00004a64       ??_C@_09FAHCLKAG@StopVideo?$AA@ 10069a64     xpcruntime:xpcimports.obj
 0002:00004a70       ??_C@_0BF@NKGKKADL@StopVideo?5not?5found?6?$AA@ 10069a70     xpcruntime:xpcimports.obj
 0002:00004a8c       ??_C@_0O@MCPKDLLL@ConvertUImage?$AA@ 10069a8c     xpcruntime:xpcimports.obj
 0002:00004a9c       ??_C@_0BJ@PHJKOAFL@ConvertUImage?5not?5found?6?$AA@ 10069a9c     xpcruntime:xpcimports.obj
 0002:00004abc       ??_C@_0BD@NKCBPBJJ@CreateVideoDisplay?$AA@ 10069abc     xpcruntime:xpcimports.obj
 0002:00004ad4       ??_C@_0BO@HPPLLNFP@CreateVideoDisplay?5not?5found?6?$AA@ 10069ad4     xpcruntime:xpcimports.obj
 0002:00004af8       ??_C@_0BE@KJCKGPHA@DestroyVideoDisplay?$AA@ 10069af8     xpcruntime:xpcimports.obj
 0002:00004b10       ??_C@_0BP@FMGLJAIJ@DestroyVideoDisplay?5not?5found?6?$AA@ 10069b10     xpcruntime:xpcimports.obj
 0002:00004b38       ??_C@_0BC@HCMIMIDN@StartVideoDisplay?$AA@ 10069b38     xpcruntime:xpcimports.obj
 0002:00004b50       ??_C@_0BN@EFIEBGOO@StartVideoDisplay?5not?5found?6?$AA@ 10069b50     xpcruntime:xpcimports.obj
 0002:00004b74       ??_C@_0BB@JBBLMILG@StopVideoDisplay?$AA@ 10069b74     xpcruntime:xpcimports.obj
 0002:00004b88       ??_C@_0BM@DBJBPLEL@StopVideoDisplay?5not?5found?6?$AA@ 10069b88     xpcruntime:xpcimports.obj
 0002:00004bac       ??_C@_0M@MFJEGMHC@StreamVideo?$AA@ 10069bac     xpcruntime:xpcimports.obj
 0002:00004bbc       ??_C@_0BH@OINCDMLA@StreamVideo?5not?5found?6?$AA@ 10069bbc     xpcruntime:xpcimports.obj
 0002:00004bd8       ??_C@_0N@IGGLCIGE@xpceaddEvent?$AA@ 10069bd8     xpcruntime:xpcimports.obj
 0002:00004be8       ??_C@_0BI@NHJNFMKH@xpceaddEvent?5not?5found?6?$AA@ 10069be8     xpcruntime:xpcimports.obj
 0002:00004c04       ??_C@_0BB@HDPOIJAB@xpceDAQPostEvent?$AA@ 10069c04     xpcruntime:xpcimports.obj
 0002:00004c18       ??_C@_0BM@IHANBKGN@xpceDAQPostEvent?5not?5found?6?$AA@ 10069c18     xpcruntime:xpcimports.obj
 0002:00004c3c       ??_C@_0BH@MBACMOD@xpceDAQUpdateTimeStamp?$AA@ 10069c3c     xpcruntime:xpcimports.obj
 0002:00004c58       ??_C@_0CC@DAKBBINL@xpceDAQUpdateTimeStamp?5not?5found@ 10069c58     xpcruntime:xpcimports.obj
 0002:00004c80       ??_C@_0BN@HJOHIFOM@xpceGetIntTimerGranularityNS?$AA@ 10069c80     xpcruntime:xpcimports.obj
 0002:00004ca4       ??_C@_0CI@OADDPMKB@xpceGetIntTimerGranularityNS?5not@ 10069ca4     xpcruntime:xpcimports.obj
 0002:00004cd4       ??_C@_0BG@CCHICKPN@slrteSetStepSizeDelta?$AA@ 10069cd4     xpcruntime:xpcimports.obj
 0002:00004cf0       ??_C@_0CB@MKHINEIJ@slrteSetStepSizeDelta?5not?5found?6@ 10069cf0     xpcruntime:xpcimports.obj
 0002:00004d18       ??_C@_0BI@CLNBLDKJ@slrteGetCurrentStepSize?$AA@ 10069d18     xpcruntime:xpcimports.obj
 0002:00004d34       ??_C@_0CD@GIOJPGJA@slrteGetCurrentStepSize?5not?5foun@ 10069d34     xpcruntime:xpcimports.obj
 0002:00004d60       ??_C@_0BE@FCLCBOC@registerPTPTimeRead?$AA@ 10069d60     xpcruntime:xpcimports.obj
 0002:00004d78       ??_C@_0BP@LHPKAJIP@registerPTPTimeRead?5not?5found?6?$AA@ 10069d78     xpcruntime:xpcimports.obj
 0002:00004da0       ??_C@_0BG@KIGCDDJI@unRegisterPTPTimeRead?$AA@ 10069da0     xpcruntime:xpcimports.obj
 0002:00004dbc       ??_C@_0CB@MLFFBFCM@unRegisterPTPTimeRead?5not?5found?6@ 10069dbc     xpcruntime:xpcimports.obj
 0002:00004de4       ??_C@_0BB@IPMDDBHK@slTestInitialize?$AA@ 10069de4     xpcruntime:xpcimports.obj
 0002:00004df8       ??_C@_0BM@LAJFCCJH@slTestInitialize?5not?5found?6?$AA@ 10069df8     xpcruntime:xpcimports.obj
 0002:00004e1c       ??_C@_0BF@OOMPMEBC@slTestLogAssessments?$AA@ 10069e1c     xpcruntime:xpcimports.obj
 0002:00004e38       ??_C@_0CA@FGJCEBAG@slTestLogAssessments?5not?5found?6?$AA@ 10069e38     xpcruntime:xpcimports.obj
 0002:00004e60       ??_C@_0BB@HJHKONHO@slTestEvalOnFail?$AA@ 10069e60     xpcruntime:xpcimports.obj
 0002:00004e74       ??_C@_0BM@JIKCFFNJ@slTestEvalOnFail?5not?5found?6?$AA@ 10069e74     xpcruntime:xpcimports.obj
 0002:00004e98       ??_C@_0BA@LBHLABFP@slTestTerminate?$AA@ 10069e98     xpcruntime:xpcimports.obj
 0002:00004eac       ??_C@_0BL@EMFGKAPA@slTestTerminate?5not?5found?6?$AA@ 10069eac     xpcruntime:xpcimports.obj
 0002:00004ecc       ??_C@_0BE@JPNPBBEO@slTestRegAssessment?$AA@ 10069ecc     xpcruntime:xpcimports.obj
 0002:00004ee4       ??_C@_0BP@FBDEJJJH@slTestRegAssessment?5not?5found?6?$AA@ 10069ee4     xpcruntime:xpcimports.obj
 0002:00004f0c       ??_C@_0O@NCLGDNIB@slrteSetupMSI?$AA@ 10069f0c     xpcruntime:xpcimports.obj
 0002:00004f1c       ??_C@_0BJ@HEFMECLM@slrteSetupMSI?5not?5found?6?$AA@ 10069f1c     xpcruntime:xpcimports.obj
 0002:00004f3c       ??_C@_0BH@BPOLALHD@slrtGetCRBScratchSpace?$AA@ 10069f3c     xpcruntime:xpcimports.obj
 0002:00004f58       ??_C@_0CC@KCKAJKKJ@slrtGetCRBScratchSpace?5not?5found@ 10069f58     xpcruntime:xpcimports.obj
 0002:00004f80       ??_C@_0BC@MKFDAKOL@slrtGetSgCRBSpace?$AA@ 10069f80     xpcruntime:xpcimports.obj
 0002:00004f98       ??_C@_0BN@JDPHPLHL@slrtGetSgCRBSpace?5not?5found?6?$AA@ 10069f98     xpcruntime:xpcimports.obj
 0002:00004fbc       ??_C@_0P@EPAPKLIF@slrtfsOpenFile?$AA@ 10069fbc     xpcruntime:xpcimports.obj
 0002:00004fd0       ??_C@_0BK@FIHCBOHG@slrtfsOpenFile?5not?5found?6?$AA@ 10069fd0     xpcruntime:xpcimports.obj
 0002:00004ff0       ??_C@_0BA@LILAFDDL@slrtfsCloseFile?$AA@ 10069ff0     xpcruntime:xpcimports.obj
 0002:00005004       ??_C@_0BL@DEGHJFIB@slrtfsCloseFile?5not?5found?6?$AA@ 1006a004     xpcruntime:xpcimports.obj
 0002:00005024       ??_C@_0BC@OKMJDIEH@slrtfsWriteToFile?$AA@ 1006a024     xpcruntime:xpcimports.obj
 0002:0000503c       ??_C@_0BN@KCFLCLAH@slrtfsWriteToFile?5not?5found?6?$AA@ 1006a03c     xpcruntime:xpcimports.obj
 0002:00005060       ??_C@_0BK@GIPNFFFF@slrtfsGetFileErrorMessage?$AA@ 1006a060     xpcruntime:xpcimports.obj
 0002:00005080       ??_C@_0CF@BCBLMKLE@slrtfsGetFileErrorMessage?5not?5fo@ 1006a080     xpcruntime:xpcimports.obj
 0002:000050ac       ??_C@_0BD@ICBOKMK@slrtfsGetFileError?$AA@ 1006a0ac     xpcruntime:xpcimports.obj
 0002:000050c4       ??_C@_0BO@FNBANAE@slrtfsGetFileError?5not?5found?6?$AA@ 1006a0c4     xpcruntime:xpcimports.obj
 0002:000050e8       ??_C@_0BE@PPAJMHJP@slrtfsOpenFileAsync?$AA@ 1006a0e8     xpcruntime:xpcimports.obj
 0002:00005100       ??_C@_0BP@HKBMMJOK@slrtfsOpenFileAsync?5not?5found?6?$AA@ 1006a100     xpcruntime:xpcimports.obj
 0002:00005128       ??_C@_0BF@IGNDIBPF@slrtfsCloseFileAsync?$AA@ 1006a128     xpcruntime:xpcimports.obj
 0002:00005144       ??_C@_0CA@GJPFDBKN@slrtfsCloseFileAsync?5not?5found?6?$AA@ 1006a144     xpcruntime:xpcimports.obj
 0002:0000516c       ??_C@_0BE@IOLEBNB@slrtfsGetFileStatus?$AA@ 1006a16c     xpcruntime:xpcimports.obj
 0002:00005184       ??_C@_0BP@PEFHDGHL@slrtfsGetFileStatus?5not?5found?6?$AA@ 1006a184     xpcruntime:xpcimports.obj
 0002:000051ac       ??_C@_0M@HKIJIMG@slrtfsFread?$AA@ 1006a1ac     xpcruntime:xpcimports.obj
 0002:000051bc       ??_C@_0BH@OOKBGONO@slrtfsFread?5not?5found?6?$AA@ 1006a1bc     xpcruntime:xpcimports.obj
 0002:000051d8       ??_C@_0BE@OGCMPLAP@slrtGetDefaultDrive?$AA@ 1006a1d8     xpcruntime:xpcimports.obj
 0002:000051f0       ??_C@_0BP@HKFGLHOE@slrtGetDefaultDrive?5not?5found?6?$AA@ 1006a1f0     xpcruntime:xpcimports.obj
 0002:00005218       ??_C@_0N@NAJIKFFI@slrtLogEvent?$AA@ 1006a218     xpcruntime:xpcimports.obj
 0002:00005228       ??_C@_0BI@NKCEACND@slrtLogEvent?5not?5found?6?$AA@ 1006a228     xpcruntime:xpcimports.obj
 0002:00005244       ??_C@_0N@IDKFJOHI@getlasterror?$AA@ 1006a244     xpcruntime:xpcimports.obj
 0002:00005254       ??_C@_0BI@MIHMCHGL@getlasterror?5not?5found?6?$AA@ 1006a254     xpcruntime:xpcimports.obj
 0002:00005270       ??_C@_0P@OKHGKJKN@geterrorstring?$AA@ 1006a270     xpcruntime:xpcimports.obj
 0002:00005284       ??_C@_0BK@NOHFDMLP@geterrorstring?5not?5found?6?$AA@ 1006a284     xpcruntime:xpcimports.obj
 0002:000052a4       ??_C@_0BD@HNFFKMGJ@slrtGetCPUTCelsius?$AA@ 1006a2a4     xpcruntime:xpcimports.obj
 0002:000052bc       ??_C@_0BO@LHBFKLIH@slrtGetCPUTCelsius?5not?5found?6?$AA@ 1006a2bc     xpcruntime:xpcimports.obj
 0002:000052e0       ??_C@_0M@OONCNCLM@slrtWarning?$AA@ 1006a2e0     xpcruntime:xpcimports.obj
 0002:000052f0       ??_C@_0BH@ICKGIEMB@slrtWarning?5not?5found?6?$AA@ 1006a2f0     xpcruntime:xpcimports.obj
 0002:0000530c       ??_C@_0N@EAAOMIIE@isUsedByRTIP?$AA@ 1006a30c     xpcruntime:xpcimports.obj
 0002:0000531c       ??_C@_0BI@GNHHHICK@isUsedByRTIP?5not?5found?6?$AA@ 1006a31c     xpcruntime:xpcimports.obj
 0002:00005338       ??_C@_0BC@HLDKJAG@SetIPTASKPriority?$AA@ 1006a338     xpcruntime:xpcimports.obj
 0002:00005350       ??_C@_0BN@OGKMHHAE@SetIPTASKPriority?5not?5found?6?$AA@ 1006a350     xpcruntime:xpcimports.obj
 0002:00005374       ??_C@_0O@LHENMBDD@OpenInterface?$AA@ 1006a374     xpcruntime:xpcimports.obj
 0002:00005384       ??_C@_0BJ@PFGDBKHB@OpenInterface?5not?5found?6?$AA@ 1006a384     xpcruntime:xpcimports.obj
 0002:000053a4       ??_C@_0P@IINFELKD@CloseInterface?$AA@ 1006a3a4     xpcruntime:xpcimports.obj
 0002:000053b8       ??_C@_0BK@PAPDNDBK@CloseInterface?5not?5found?6?$AA@ 1006a3b8     xpcruntime:xpcimports.obj
 0002:000053d8       ??_C@_05LEFIAAOI@SetIP?$AA@ 1006a3d8     xpcruntime:xpcimports.obj
 0002:000053e0       ??_C@_0BB@CGLIBAMM@SetIP?5not?5found?6?$AA@ 1006a3e0     xpcruntime:xpcimports.obj
 0002:000053f4       ??_C@_0BA@HIJJHHMD@AddGatewayRoute?$AA@ 1006a3f4     xpcruntime:xpcimports.obj
 0002:00005408       ??_C@_0BL@BFCFMDMN@AddGatewayRoute?5not?5found?6?$AA@ 1006a408     xpcruntime:xpcimports.obj
 0002:00005428       ??_C@_0M@PHMABFPI@DeleteRoute?$AA@ 1006a428     xpcruntime:xpcimports.obj
 0002:00005438       ??_C@_0BH@JPJGLLID@DeleteRoute?5not?5found?6?$AA@ 1006a438     xpcruntime:xpcimports.obj
 0002:00005454       ??_C@_0BA@FCDIMKIJ@GetHostTarIPAdd?$AA@ 1006a454     xpcruntime:xpcimports.obj
 0002:00005468       ??_C@_0BL@MBKDGKBO@GetHostTarIPAdd?5not?5found?6?$AA@ 1006a468     xpcruntime:xpcimports.obj
 0002:00005488       ??_C@_0M@HPMIPIBI@GetDCUUsage?$AA@ 1006a488     xpcruntime:xpcimports.obj
 0002:00005498       ??_C@_0BH@EBLJKCJC@GetDCUUsage?5not?5found?6?$AA@ 1006a498     xpcruntime:xpcimports.obj
 0002:000054b4       ??_C@_06MPKMECK@accept?$AA@ 1006a4b4     xpcruntime:xpcimports.obj
 0002:000054bc       ??_C@_0BC@GBGIEMNO@accept?5not?5found?6?$AA@ 1006a4bc     xpcruntime:xpcimports.obj
 0002:000054d4       ??_C@_04NPNJNMMP@bind?$AA@ 1006a4d4     xpcruntime:xpcimports.obj
 0002:000054dc       ??_C@_0BA@DAJNENLO@bind?5not?5found?6?$AA@ 1006a4dc     xpcruntime:xpcimports.obj
 0002:000054f0       ??_C@_0L@CKHNIFCM@setsockopt?$AA@ 1006a4f0     xpcruntime:xpcimports.obj
 0002:00005500       ??_C@_0BG@MFIIOMFE@setsockopt?5not?5found?6?$AA@ 1006a500     xpcruntime:xpcimports.obj
 0002:0000551c       ??_C@_0M@ODDJDCDK@closesocket?$AA@ 1006a51c     xpcruntime:xpcimports.obj
 0002:0000552c       ??_C@_0BH@JHGHMIL@closesocket?5not?5found?6?$AA@ 1006a52c     xpcruntime:xpcimports.obj
 0002:00005548       ??_C@_07KAIBNCHO@connect?$AA@ 1006a548     xpcruntime:xpcimports.obj
 0002:00005554       ??_C@_0BD@MKLLMBM@connect?5not?5found?6?$AA@ 1006a554     xpcruntime:xpcimports.obj
 0002:0000556c       ??_C@_0M@PBPOCKDG@ioctlsocket?$AA@ 1006a56c     xpcruntime:xpcimports.obj
 0002:0000557c       ??_C@_0BH@NFCNHHIH@ioctlsocket?5not?5found?6?$AA@ 1006a57c     xpcruntime:xpcimports.obj
 0002:00005598       ??_C@_06OODDLKLE@listen?$AA@ 1006a598     xpcruntime:xpcimports.obj
 0002:000055a0       ??_C@_0BC@NHBILEKI@listen?5not?5found?6?$AA@ 1006a5a0     xpcruntime:xpcimports.obj
 0002:000055b8       ??_C@_08HMBBGFHE@recvfrom?$AA@ 1006a5b8     xpcruntime:xpcimports.obj
 0002:000055c4       ??_C@_0BE@BJAJFFLF@recvfrom?5not?5found?6?$AA@ 1006a5c4     xpcruntime:xpcimports.obj
 0002:000055dc       ??_C@_06MEPBGKEC@sendto?$AA@ 1006a5dc     xpcruntime:xpcimports.obj
 0002:000055e4       ??_C@_0BC@BHPIMDJO@sendto?5not?5found?6?$AA@ 1006a5e4     xpcruntime:xpcimports.obj
 0002:000055fc       ??_C@_09JKBDEEOB@inet_addr?$AA@ 1006a5fc     xpcruntime:xpcimports.obj
 0002:00005608       ??_C@_0BF@HKJPGECN@inet_addr?5not?5found?6?$AA@ 1006a608     xpcruntime:xpcimports.obj
 0002:00005624       ??_C@_06HBELJPBO@socket?$AA@ 1006a624     xpcruntime:xpcimports.obj
 0002:0000562c       ??_C@_0BC@NAGFFJGA@socket?5not?5found?6?$AA@ 1006a62c     xpcruntime:xpcimports.obj
 0002:00005644       ??_C@_09ICJIFGNC@GetSocket?$AA@ 1006a644     xpcruntime:xpcimports.obj
 0002:00005650       ??_C@_0BF@KDBCKMOJ@GetSocket?5not?5found?6?$AA@ 1006a650     xpcruntime:xpcimports.obj
 0002:0000566c       ??_C@_0P@KJEGJMJI@GetSocketState?$AA@ 1006a66c     xpcruntime:xpcimports.obj
 0002:00005680       ??_C@_0BK@IALBJHEB@GetSocketState?5not?5found?6?$AA@ 1006a680     xpcruntime:xpcimports.obj
 0002:000056a0       ??_C@_0L@MEAJHNHB@SocketSend?$AA@ 1006a6a0     xpcruntime:xpcimports.obj
 0002:000056b0       ??_C@_0BG@EOCMBFJA@SocketSend?5not?5found?6?$AA@ 1006a6b0     xpcruntime:xpcimports.obj
 0002:000056cc       ??_C@_0O@PFPCLEMF@SocketReceive?$AA@ 1006a6cc     xpcruntime:xpcimports.obj
 0002:000056dc       ??_C@_0BJ@HIBADDFO@SocketReceive?5not?5found?6?$AA@ 1006a6dc     xpcruntime:xpcimports.obj
 0002:000056fc       ??_C@_0BD@OOGFNAIK@CreateServerSocket?$AA@ 1006a6fc     xpcruntime:xpcimports.obj
 0002:00005714       ??_C@_0BO@GKIJHIPH@CreateServerSocket?5not?5found?6?$AA@ 1006a714     xpcruntime:xpcimports.obj
 0002:00005738       ??_C@_0BB@KGHJGFFO@OpenServerListen?$AA@ 1006a738     xpcruntime:xpcimports.obj
 0002:0000574c       ??_C@_0BM@NFMMLIO@OpenServerListen?5not?5found?6?$AA@ 1006a74c     xpcruntime:xpcimports.obj
 0002:00005770       ??_C@_0BE@BAJLDJAH@ConnectServerSocket?$AA@ 1006a770     xpcruntime:xpcimports.obj
 0002:00005788       ??_C@_0BP@KJNODIKE@ConnectServerSocket?5not?5found?6?$AA@ 1006a788     xpcruntime:xpcimports.obj
 0002:000057b0       ??_C@_0BC@PLKKJDIM@CloseServerSocket?$AA@ 1006a7b0     xpcruntime:xpcimports.obj
 0002:000057c8       ??_C@_0BN@KEJEPNMB@CloseServerSocket?5not?5found?6?$AA@ 1006a7c8     xpcruntime:xpcimports.obj
 0002:000057ec       ??_C@_0BD@MCLPKCPP@CreateClientSocket?$AA@ 1006a7ec     xpcruntime:xpcimports.obj
 0002:00005804       ??_C@_0BO@DILAGPFN@CreateClientSocket?5not?5found?6?$AA@ 1006a804     xpcruntime:xpcimports.obj
 0002:00005828       ??_C@_0BB@DAPKNNLG@BindClientSocket?$AA@ 1006a828     xpcruntime:xpcimports.obj
 0002:0000583c       ??_C@_0BM@LLLMMDFN@BindClientSocket?5not?5found?6?$AA@ 1006a83c     xpcruntime:xpcimports.obj
 0002:00005860       ??_C@_0BE@DMEBELHC@ConnectClientSocket?$AA@ 1006a860     xpcruntime:xpcimports.obj
 0002:00005878       ??_C@_0BP@PLOHCPAO@ConnectClientSocket?5not?5found?6?$AA@ 1006a878     xpcruntime:xpcimports.obj
 0002:000058a0       ??_C@_0BC@NHHAOBPJ@CloseClientSocket?$AA@ 1006a8a0     xpcruntime:xpcimports.obj
 0002:000058b8       ??_C@_0BN@PGKNOKGL@CloseClientSocket?5not?5found?6?$AA@ 1006a8b8     xpcruntime:xpcimports.obj
 0002:00005988       __pDefaultRawDllMain       1006a988     LIBCMT:dll_dllmain.obj
 0002:00005988       __pRawDllMain              1006a988     LIBCMT:dll_dllmain.obj
 0002:000059a0       ??_C@_1BC@DNHGCMLG@?$AAa?$AAd?$AAv?$AAa?$AAp?$AAi?$AA3?$AA2?$AA?$AA@ 1006a9a0     libvcruntime:winapi_downlevel.obj
 0002:000059b8       ??_C@_1DM@KHCHBNEB@?$AAa?$AAp?$AAi?$AA?9?$AAm?$AAs?$AA?9?$AAw?$AAi?$AAn?$AA?9?$AAc?$AAo?$AAr?$AAe?$AA?9?$AAf?$AAi?$AAb?$AAe?$AAr?$AAs?$AA?9?$AAl?$AA1?$AA?9?$AA1?$AA?9?$AA1?$AA?$AA@ 1006a9b8     libvcruntime:winapi_downlevel.obj
 0002:00005a00       ??_C@_1DK@LPPGFMPP@?$AAa?$AAp?$AAi?$AA?9?$AAm?$AAs?$AA?9?$AAw?$AAi?$AAn?$AA?9?$AAc?$AAo?$AAr?$AAe?$AA?9?$AAs?$AAy?$AAn?$AAc?$AAh?$AA?9?$AAl?$AA1?$AA?9?$AA2?$AA?9?$AA0?$AA?$AA@ 1006aa00     libvcruntime:winapi_downlevel.obj
 0002:00005a48       ??_C@_1BC@GDMECMAK@?$AAk?$AAe?$AAr?$AAn?$AAe?$AAl?$AA3?$AA2?$AA?$AA@ 1006aa48     libvcruntime:winapi_downlevel.obj
 0002:00005a64       ??_C@_0O@BAMBGLIE@EventRegister?$AA@ 1006aa64     libvcruntime:winapi_downlevel.obj
 0002:00005a78       ??_C@_0BE@BJEEGHGK@EventSetInformation?$AA@ 1006aa78     libvcruntime:winapi_downlevel.obj
 0002:00005a94       ??_C@_0BA@FAKLIPIC@EventUnregister?$AA@ 1006aa94     libvcruntime:winapi_downlevel.obj
 0002:00005aac       ??_C@_0BD@PKLHJPHD@EventWriteTransfer?$AA@ 1006aaac     libvcruntime:winapi_downlevel.obj
 0002:00005ad0       ??_C@_08KNHFBNJ@FlsAlloc?$AA@ 1006aad0     libvcruntime:winapi_downlevel.obj
 0002:00005ae8       ??_C@_07PEJMOBNF@FlsFree?$AA@ 1006aae8     libvcruntime:winapi_downlevel.obj
 0002:00005b00       ??_C@_0M@GDNOONDI@FlsGetValue?$AA@ 1006ab00     libvcruntime:winapi_downlevel.obj
 0002:00005b1c       ??_C@_0M@JCPCPOEF@FlsSetValue?$AA@ 1006ab1c     libvcruntime:winapi_downlevel.obj
 0002:00005b38       ??_C@_0BM@HCFOFFN@InitializeCriticalSectionEx?$AA@ 1006ab38     libvcruntime:winapi_downlevel.obj
 0002:00005d40       ??_C@_08EHJDFFNH@__based?$CI?$AA@ 1006ad40     libvcruntime:undname.obj
 0002:00005d4c       ??_C@_07KOLFKCDI@__cdecl?$AA@ 1006ad4c     libvcruntime:undname.obj
 0002:00005d58       ??_C@_08GHMPAG@__pascal?$AA@ 1006ad58     libvcruntime:undname.obj
 0002:00005d64       ??_C@_09IFJBGAPI@__stdcall?$AA@ 1006ad64     libvcruntime:undname.obj
 0002:00005d70       ??_C@_0L@NPHFGOKO@__thiscall?$AA@ 1006ad70     libvcruntime:undname.obj
 0002:00005d80       ??_C@_0L@JMKHOMEK@__fastcall?$AA@ 1006ad80     libvcruntime:undname.obj
 0002:00005d90       ??_C@_0N@BCKKPABJ@__vectorcall?$AA@ 1006ad90     libvcruntime:undname.obj
 0002:00005da0       ??_C@_09HIJEGCPM@__clrcall?$AA@ 1006ada0     libvcruntime:undname.obj
 0002:00005dac       ??_C@_06GHPCKEAG@__eabi?$AA@ 1006adac     libvcruntime:undname.obj
 0002:00005db4       ??_C@_07JOMMBBKO@__ptr64?$AA@ 1006adb4     libvcruntime:undname.obj
 0002:00005dc0       ??_C@_0L@PILCLIHE@__restrict?$AA@ 1006adc0     libvcruntime:undname.obj
 0002:00005dd0       ??_C@_0M@GFIIJFMG@__unaligned?$AA@ 1006add0     libvcruntime:undname.obj
 0002:00005de0       ??_C@_09DHDLOLLB@restrict?$CI?$AA@ 1006ade0     libvcruntime:undname.obj
 0002:00005dec       ??_C@_04NIHEBCM@?5new?$AA@ 1006adec     libvcruntime:undname.obj
 0002:00005df4       ??_C@_07FPCDHGMM@?5delete?$AA@ 1006adf4     libvcruntime:undname.obj
 0002:00005e00       ??_C@_01NEMOKFLO@?$DN?$AA@ 1006ae00     libvcruntime:undname.obj
 0002:00005e04       ??_C@_02GPIOPFAK@?$DO?$DO?$AA@ 1006ae04     libvcruntime:undname.obj
 0002:00005e08       ??_C@_02FODMEDOG@?$DM?$DM?$AA@ 1006ae08     libvcruntime:undname.obj
 0002:00005e0c       ??_C@_01DCLJPIOD@?$CB?$AA@ 1006ae0c     libvcruntime:undname.obj
 0002:00005e10       ??_C@_02EGOFBIJA@?$DN?$DN?$AA@ 1006ae10     libvcruntime:undname.obj
 0002:00005e14       ??_C@_02FDNJECIE@?$CB?$DN?$AA@ 1006ae14     libvcruntime:undname.obj
 0002:00005e18       ??_C@_02GPECMEKF@?$FL?$FN?$AA@ 1006ae18     libvcruntime:undname.obj
 0002:00005e1c       ??_C@_08LHJFAFGD@operator?$AA@ 1006ae1c     libvcruntime:undname.obj
 0002:00005e28       ??_C@_02HBOOOICD@?9?$DO?$AA@ 1006ae28     libvcruntime:undname.obj
 0002:00005e2c       ??_C@_01NBENCBCI@?$CK?$AA@ 1006ae2c     libvcruntime:undname.obj
 0002:00005e30       ??_C@_02ECNGHCIF@?$CL?$CL?$AA@ 1006ae30     libvcruntime:undname.obj
 0002:00005e34       ??_C@_02BAABKJLB@?9?9?$AA@ 1006ae34     libvcruntime:undname.obj
 0002:00005e38       ??_C@_01JOAMLHOP@?9?$AA@   1006ae38     libvcruntime:undname.obj
 0002:00005e3c       ??_C@_01MIFGBAGJ@?$CL?$AA@ 1006ae3c     libvcruntime:undname.obj
 0002:00005e40       ??_C@_01HNPIGOCE@?$CG?$AA@ 1006ae40     libvcruntime:undname.obj
 0002:00005e44       ??_C@_03MNHNFDLC@?9?$DO?$CK?$AA@ 1006ae44     libvcruntime:undname.obj
 0002:00005e48       ??_C@_01KMDKNFGN@?1?$AA@   1006ae48     libvcruntime:undname.obj
 0002:00005e4c       ??_C@_01FGNFDNOH@?$CF?$AA@ 1006ae4c     libvcruntime:undname.obj
 0002:00005e50       ??_C@_01MNNFJEPP@?$DM?$AA@ 1006ae50     libvcruntime:undname.obj
 0002:00005e54       ??_C@_02EHCHHCKH@?$DM?$DN?$AA@ 1006ae54     libvcruntime:undname.obj
 0002:00005e58       ??_C@_01PPODPGHN@?$DO?$AA@ 1006ae58     libvcruntime:undname.obj
 0002:00005e5c       ??_C@_02EEKDKGMJ@?$DO?$DN?$AA@ 1006ae5c     libvcruntime:undname.obj
 0002:00005e60       ??_C@_01IHBHIGKO@?0?$AA@   1006ae60     libvcruntime:undname.obj
 0002:00005e64       ??_C@_02HCKGKOFO@?$CI?$CJ?$AA@ 1006ae64     libvcruntime:undname.obj
 0002:00005e68       ??_C@_01PJKLJHI@?$HO?$AA@  1006ae68     libvcruntime:undname.obj
 0002:00005e6c       ??_C@_01JKBOJNNK@?$FO?$AA@ 1006ae6c     libvcruntime:undname.obj
 0002:00005e70       ??_C@_01DNKMNLPK@?$HM?$AA@ 1006ae70     libvcruntime:undname.obj
 0002:00005e74       ??_C@_02PPKAJPJL@?$CG?$CG?$AA@ 1006ae74     libvcruntime:undname.obj
 0002:00005e78       ??_C@_02NONPIBCD@?$HM?$HM?$AA@ 1006ae78     libvcruntime:undname.obj
 0002:00005e7c       ??_C@_02FPIMKNGF@?$CK?$DN?$AA@ 1006ae7c     libvcruntime:undname.obj
 0002:00005e80       ??_C@_02FOEOMHFC@?$CL?$DN?$AA@ 1006ae80     libvcruntime:undname.obj
 0002:00005e84       ??_C@_02FKMDLLOA@?9?$DN?$AA@ 1006ae84     libvcruntime:undname.obj
 0002:00005e88       ??_C@_02FJEHGPIO@?1?$DN?$AA@ 1006ae88     libvcruntime:undname.obj
 0002:00005e8c       ??_C@_02FENAOKFI@?$CF?$DN?$AA@ 1006ae8c     libvcruntime:undname.obj
 0002:00005e90       ??_C@_03IKFCCPFF@?$DO?$DO?$DN?$AA@ 1006ae90     libvcruntime:undname.obj
 0002:00005e94       ??_C@_03CDNPDDLA@?$DM?$DM?$DN?$AA@ 1006ae94     libvcruntime:undname.obj
 0002:00005e98       ??_C@_02FGJGFEAB@?$CG?$DN?$AA@ 1006ae98     libvcruntime:undname.obj
 0002:00005e9c       ??_C@_02DHLNPPGH@?$HM?$DN?$AA@ 1006ae9c     libvcruntime:undname.obj
 0002:00005ea0       ??_C@_02MHEGNOJ@?$FO?$DN?$AA@ 1006aea0     libvcruntime:undname.obj
 0002:00005ea4       ??_C@_09IFPLHPGF@?$GAvftable?8?$AA@ 1006aea4     libvcruntime:undname.obj
 0002:00005eb0       ??_C@_09BLBHBJP@?$GAvbtable?8?$AA@ 1006aeb0     libvcruntime:undname.obj
 0002:00005ebc       ??_C@_07FEEIOKP@?$GAvcall?8?$AA@ 1006aebc     libvcruntime:undname.obj
 0002:00005ec8       ??_C@_08LLFFHHDJ@?$GAtypeof?8?$AA@ 1006aec8     libvcruntime:undname.obj
 0002:00005ed4       ??_C@_0BF@KDPPACIK@?$GAlocal?5static?5guard?8?$AA@ 1006aed4     libvcruntime:undname.obj
 0002:00005ef0       ??_C@_08OBABFOLI@?$GAstring?8?$AA@ 1006aef0     libvcruntime:undname.obj
 0002:00005efc       ??_C@_0BD@JDLKDPAB@?$GAvbase?5destructor?8?$AA@ 1006aefc     libvcruntime:undname.obj
 0002:00005f14       ??_C@_0BN@DEGPLNFK@?$GAvector?5deleting?5destructor?8?$AA@ 1006af14     libvcruntime:undname.obj
 0002:00005f38       ??_C@_0BO@OBMKPJIG@?$GAdefault?5constructor?5closure?8?$AA@ 1006af38     libvcruntime:undname.obj
 0002:00005f5c       ??_C@_0BN@IMDCHIKM@?$GAscalar?5deleting?5destructor?8?$AA@ 1006af5c     libvcruntime:undname.obj
 0002:00005f80       ??_C@_0BO@PFGOCPJJ@?$GAvector?5constructor?5iterator?8?$AA@ 1006af80     libvcruntime:undname.obj
 0002:00005fa4       ??_C@_0BN@LFPFMEDL@?$GAvector?5destructor?5iterator?8?$AA@ 1006afa4     libvcruntime:undname.obj
 0002:00005fc8       ??_C@_0CE@IKBNEHA@?$GAvector?5vbase?5constructor?5iterat@ 1006afc8     libvcruntime:undname.obj
 0002:00005ff4       ??_C@_0BL@NILFHHPC@?$GAvirtual?5displacement?5map?8?$AA@ 1006aff4     libvcruntime:undname.obj
 0002:00006014       ??_C@_0CB@JONCMFFK@?$GAeh?5vector?5constructor?5iterator?8@ 1006b014     libvcruntime:undname.obj
 0002:0000603c       ??_C@_0CA@GCEOPDGL@?$GAeh?5vector?5destructor?5iterator?8?$AA@ 1006b03c     libvcruntime:undname.obj
 0002:00006064       ??_C@_0CH@OOJPLCPH@?$GAeh?5vector?5vbase?5constructor?5ite@ 1006b064     libvcruntime:undname.obj
 0002:00006094       ??_C@_0BL@LLKPOHJI@?$GAcopy?5constructor?5closure?8?$AA@ 1006b094     libvcruntime:undname.obj
 0002:000060b4       ??_C@_0BA@KBCDOMBN@?$GAudt?5returning?8?$AA@ 1006b0b4     libvcruntime:undname.obj
 0002:000060c8       ??_C@_03KLGMFNMG@?$GAEH?$AA@ 1006b0c8     libvcruntime:undname.obj
 0002:000060cc       ??_C@_05KHLCHHI@?$GARTTI?$AA@ 1006b0cc     libvcruntime:undname.obj
 0002:000060d4       ??_C@_0BA@KKLDJDLB@?$GAlocal?5vftable?8?$AA@ 1006b0d4     libvcruntime:undname.obj
 0002:000060e8       ??_C@_0CE@IIHCMGGL@?$GAlocal?5vftable?5constructor?5closu@ 1006b0e8     libvcruntime:undname.obj
 0002:00006114       ??_C@_06FHBGPFGH@?5new?$FL?$FN?$AA@ 1006b114     libvcruntime:undname.obj
 0002:0000611c       ??_C@_09LBNFPBCA@?5delete?$FL?$FN?$AA@ 1006b11c     libvcruntime:undname.obj
 0002:00006128       ??_C@_0P@HJKNJFNN@?$GAomni?5callsig?8?$AA@ 1006b128     libvcruntime:undname.obj
 0002:0000613c       ??_C@_0BL@CNOONJFP@?$GAplacement?5delete?5closure?8?$AA@ 1006b13c     libvcruntime:undname.obj
 0002:0000615c       ??_C@_0BN@CKNJLHMB@?$GAplacement?5delete?$FL?$FN?5closure?8?$AA@ 1006b15c     libvcruntime:undname.obj
 0002:00006180       ??_C@_0CG@CFDHKGGD@?$GAmanaged?5vector?5constructor?5iter@ 1006b180     libvcruntime:undname.obj
 0002:000061b0       ??_C@_0CF@IMGKMJNO@?$GAmanaged?5vector?5destructor?5itera@ 1006b1b0     libvcruntime:undname.obj
 0002:000061dc       ??_C@_0CG@HLDDJMAG@?$GAeh?5vector?5copy?5constructor?5iter@ 1006b1dc     libvcruntime:undname.obj
 0002:0000620c       ??_C@_0CM@FCBBDIGB@?$GAeh?5vector?5vbase?5copy?5constructo@ 1006b20c     libvcruntime:undname.obj
 0002:00006240       ??_C@_0BL@CLIPGLGB@?$GAdynamic?5initializer?5for?5?8?$AA@ 1006b240     libvcruntime:undname.obj
 0002:00006260       ??_C@_0CB@PDBIFEP@?$GAdynamic?5atexit?5destructor?5for?5?8@ 1006b260     libvcruntime:undname.obj
 0002:00006288       ??_C@_0CD@CGAJBKEJ@?$GAvector?5copy?5constructor?5iterato@ 1006b288     libvcruntime:undname.obj
 0002:000062b4       ??_C@_0CJ@GJELGAMM@?$GAvector?5vbase?5copy?5constructor?5i@ 1006b2b4     libvcruntime:undname.obj
 0002:000062e8       ??_C@_0CL@FGIJHLCE@?$GAmanaged?5vector?5copy?5constructor@ 1006b2e8     libvcruntime:undname.obj
 0002:0000631c       ??_C@_0BM@PMGGMLDN@?$GAlocal?5static?5thread?5guard?8?$AA@ 1006b31c     libvcruntime:undname.obj
 0002:00006340       ??_C@_0N@BDNMDMOL@operator?5?$CC?$CC?5?$AA@ 1006b340     libvcruntime:undname.obj
 0002:00006350       ??_C@_0BC@DAFEJGAK@?5Type?5Descriptor?8?$AA@ 1006b350     libvcruntime:undname.obj
 0002:00006368       ??_C@_0BM@LDKODKLH@?5Base?5Class?5Descriptor?5at?5?$CI?$AA@ 1006b368     libvcruntime:undname.obj
 0002:0000638c       ??_C@_0BD@LGICGFMM@?5Base?5Class?5Array?8?$AA@ 1006b38c     libvcruntime:undname.obj
 0002:000063a4       ??_C@_0BN@MECKDCOJ@?5Class?5Hierarchy?5Descriptor?8?$AA@ 1006b3a4     libvcruntime:undname.obj
 0002:000063c8       ??_C@_0BK@CFCOFLF@?5Complete?5Object?5Locator?8?$AA@ 1006b3c8     libvcruntime:undname.obj
 0002:000063e8       ??_C@_04HEJADOOB@CV?3?5?$AA@ 1006b3e8     libvcruntime:undname.obj
 0002:000063f0       ??_C@_02MOLJINC@?3?3?$AA@  1006b3f0     libvcruntime:undname.obj
 0002:000063f4       ??_C@_0BE@JAEOCHPE@template?9parameter?9?$AA@ 1006b3f4     libvcruntime:undname.obj
 0002:0000640c       ??_C@_0O@KHGCOMHP@generic?9type?9?$AA@ 1006b40c     libvcruntime:undname.obj
 0002:0000641c       ??_C@_01NLNLIGKH@?$GA?$AA@ 1006b41c     libvcruntime:undname.obj
 0002:00006420       ??_C@_01GEODFPGF@?8?$AA@   1006b420     libvcruntime:undname.obj
 0002:00006424       ??_C@_0BG@JNJLAMPM@?$GAanonymous?5namespace?8?$AA@ 1006b424     libvcruntime:undname.obj
 0002:00006440       ??_C@_02OHHJMEON@?8?8?$AA@ 1006b440     libvcruntime:undname.obj
 0002:00006444       ??_C@_0BN@IBLMMFAP@?$GAnon?9type?9template?9parameter?$AA@ 1006b444     libvcruntime:undname.obj
 0002:00006468       ??_C@_04GKJNKENE@void?$AA@ 1006b468     libvcruntime:undname.obj
 0002:00006470       ??_C@_0BE@EODMJLIF@?$GAtemplate?9parameter?$AA@ 1006b470     libvcruntime:undname.obj
 0002:00006488       ??_C@_03KHICJKCI@?4?4?4?$AA@ 1006b488     libvcruntime:undname.obj
 0002:0000648c       ??_C@_04HIBGFPH@NULL?$AA@  1006b48c     libvcruntime:undname.obj
 0002:00006494       ??_C@_02DPKJAMEF@?$CFd?$AA@ 1006b494     libvcruntime:undname.obj
 0002:00006498       ??_C@_0BK@IHCCFNEL@?$GAtemplate?9type?9parameter?9?$AA@ 1006b498     libvcruntime:undname.obj
 0002:000064b8       ??_C@_0BK@OFCNNNKO@?$GAgeneric?9class?9parameter?9?$AA@ 1006b4b8     libvcruntime:undname.obj
 0002:000064d8       ??_C@_0BL@NGJBLFIL@?$GAgeneric?9method?9parameter?9?$AA@ 1006b4d8     libvcruntime:undname.obj
 0002:000064f8       ??_C@_03OPGICMGF@?$HN?8?5?$AA@ 1006b4f8     libvcruntime:undname.obj
 0002:000064fc       ??_C@_02IGFCGPIL@?$HN?8?$AA@ 1006b4fc     libvcruntime:undname.obj
 0002:00006500       ??_C@_01CLKCMJKC@?5?$AA@   1006b500     libvcruntime:undname.obj
 0002:00006504       ??_C@_0N@CBHHHENL@?$GAvtordispex?$HL?$AA@ 1006b504     libvcruntime:undname.obj
 0002:00006514       ??_C@_0L@GHPFDFH@?$GAvtordisp?$HL?$AA@ 1006b514     libvcruntime:undname.obj
 0002:00006524       ??_C@_0L@HNGCOGAE@?$GAadjustor?$HL?$AA@ 1006b524     libvcruntime:undname.obj
 0002:00006534       ??_C@_0CB@KJDOOODE@?$GAlocal?5static?5destructor?5helper?8@ 1006b534     libvcruntime:undname.obj
 0002:0000655c       ??_C@_0DB@ILEFOCIJ@?$GAtemplate?5static?5data?5member?5con@ 1006b55c     libvcruntime:undname.obj
 0002:00006598       ??_C@_0DA@HGFJFBBE@?$GAtemplate?5static?5data?5member?5des@ 1006b598     libvcruntime:undname.obj
 0002:000065d4       ??_C@_07PGOEDBHP@static?5?$AA@ 1006b5d4     libvcruntime:undname.obj
 0002:000065e0       ??_C@_08NIEOINHE@virtual?5?$AA@ 1006b5e0     libvcruntime:undname.obj
 0002:000065ec       ??_C@_09LAPHOOG@private?3?5?$AA@ 1006b5ec     libvcruntime:undname.obj
 0002:000065f8       ??_C@_0M@GAIFPFIP@protected?3?5?$AA@ 1006b5f8     libvcruntime:undname.obj
 0002:00006608       ??_C@_08GPDDCMKI@public?3?5?$AA@ 1006b608     libvcruntime:undname.obj
 0002:00006614       ??_C@_08KJLFOPNE@?$FLthunk?$FN?3?$AA@ 1006b614     libvcruntime:undname.obj
 0002:00006620       ??_C@_0M@DHNBOJMP@extern?5?$CCC?$CC?5?$AA@ 1006b620     libvcruntime:undname.obj
 0002:00006630       ??_C@_02KCKGHPCA@?$CJ?5?$AA@ 1006b630     libvcruntime:undname.obj
 0002:00006634       ??_C@_05CIHEBHNO@char?5?$AA@ 1006b634     libvcruntime:undname.obj
 0002:0000663c       ??_C@_06EHJMALKF@short?5?$AA@ 1006b63c     libvcruntime:undname.obj
 0002:00006644       ??_C@_04LAHKHJMA@int?5?$AA@ 1006b644     libvcruntime:undname.obj
 0002:0000664c       ??_C@_05CJIMAING@long?5?$AA@ 1006b64c     libvcruntime:undname.obj
 0002:00006654       ??_C@_09EBBEKKIH@unsigned?5?$AA@ 1006b654     libvcruntime:undname.obj
 0002:00006660       ??_C@_05BEFAKPML@void?5?$AA@ 1006b660     libvcruntime:undname.obj
 0002:00006668       ??_C@_08PABEKFH@volatile?$AA@ 1006b668     libvcruntime:undname.obj
 0002:00006674       ??_C@_0BA@LKIJLKPP@std?3?3nullptr_t?5?$AA@ 1006b674     libvcruntime:undname.obj
 0002:00006688       ??_C@_0P@GCOCNKDM@std?3?3nullptr_t?$AA@ 1006b688     libvcruntime:undname.obj
 0002:0000669c       ??_C@_0L@EGPHHEKN@?$DMellipsis?$DO?$AA@ 1006b69c     libvcruntime:undname.obj
 0002:000066ac       ??_C@_04EENFHACM@?0?4?4?4?$AA@ 1006b6ac     libvcruntime:undname.obj
 0002:000066b4       ??_C@_0M@ELJOJFFH@?0?$DMellipsis?$DO?$AA@ 1006b6b4     libvcruntime:undname.obj
 0002:000066c4       ??_C@_07HDJPLPEK@?5throw?$CI?$AA@ 1006b6c4     libvcruntime:undname.obj
 0002:000066d0       ??_C@_03PBJBJNON@cpu?$AA@  1006b6d0     libvcruntime:undname.obj
 0002:000066d4       ??_C@_03DCBBJBAA@amp?$AA@  1006b6d4     libvcruntime:undname.obj
 0002:000066d8       ??_C@_02KEGNLNML@?0?5?$AA@ 1006b6d8     libvcruntime:undname.obj
 0002:000066dc       ??_C@_04ENMBGAPA@char?$AA@ 1006b6dc     libvcruntime:undname.obj
 0002:000066e4       ??_C@_05BFKKPKCG@short?$AA@ 1006b6e4     libvcruntime:undname.obj
 0002:000066ec       ??_C@_03JBIPMCLC@int?$AA@  1006b6ec     libvcruntime:undname.obj
 0002:000066f0       ??_C@_04GOKPGOLB@long?$AA@ 1006b6f0     libvcruntime:undname.obj
 0002:000066f8       ??_C@_04DDKJGDCM@bool?$AA@ 1006b6f8     libvcruntime:undname.obj
 0002:00006700       ??_C@_06EBGKOKIG@__int8?$AA@ 1006b700     libvcruntime:undname.obj
 0002:00006708       ??_C@_07ICFHOGAF@__int16?$AA@ 1006b708     libvcruntime:undname.obj
 0002:00006714       ??_C@_07OFLPPHGP@__int32?$AA@ 1006b714     libvcruntime:undname.obj
 0002:00006720       ??_C@_07LFCOJCAC@__int64?$AA@ 1006b720     libvcruntime:undname.obj
 0002:0000672c       ??_C@_08GAHOLHEO@__int128?$AA@ 1006b72c     libvcruntime:undname.obj
 0002:00006738       ??_C@_09EEKGDCPH@?$DMunknown?$DO?$AA@ 1006b738     libvcruntime:undname.obj
 0002:00006744       ??_C@_08HBIPOFJB@char16_t?$AA@ 1006b744     libvcruntime:undname.obj
 0002:00006750       ??_C@_08IECNCBKG@char32_t?$AA@ 1006b750     libvcruntime:undname.obj
 0002:0000675c       ??_C@_07CLGGIAMF@wchar_t?$AA@ 1006b75c     libvcruntime:undname.obj
 0002:00006768       ??_C@_06GCICPBLB@__w64?5?$AA@ 1006b768     libvcruntime:undname.obj
 0002:00006770       ??_C@_07NFANNNEC@UNKNOWN?$AA@ 1006b770     libvcruntime:undname.obj
 0002:0000677c       ??_C@_07EDHNAJHC@signed?5?$AA@ 1006b77c     libvcruntime:undname.obj
 0002:00006788       ??_C@_05BNCCCJPP@const?$AA@ 1006b788     libvcruntime:undname.obj
 0002:00006790       ??_C@_09EFNPDFFP@?5volatile?$AA@ 1006b790     libvcruntime:undname.obj
 0002:0000679c       ??_C@_0P@GCIFDJCJ@?$GAunknown?5ecsu?8?$AA@ 1006b79c     libvcruntime:undname.obj
 0002:000067b0       ??_C@_06MOJHIBMG@union?5?$AA@ 1006b7b0     libvcruntime:undname.obj
 0002:000067b8       ??_C@_07DIBCDNGL@struct?5?$AA@ 1006b7b8     libvcruntime:undname.obj
 0002:000067c4       ??_C@_06LJBABKPM@class?5?$AA@ 1006b7c4     libvcruntime:undname.obj
 0002:000067cc       ??_C@_08KOFANOFK@coclass?5?$AA@ 1006b7cc     libvcruntime:undname.obj
 0002:000067d8       ??_C@_0N@DLIEFKNA@cointerface?5?$AA@ 1006b7d8     libvcruntime:undname.obj
 0002:000067e8       ??_C@_05LJGMCFOG@enum?5?$AA@ 1006b7e8     libvcruntime:undname.obj
 0002:000067f0       ??_C@_09GAIEOBLP@volatile?5?$AA@ 1006b7f0     libvcruntime:undname.obj
 0002:000067fc       ??_C@_06LIJLOJAG@const?5?$AA@ 1006b7fc     libvcruntime:undname.obj
 0002:00006804       ??_C@_02KJPKDIBN@?$CG?5?$AA@ 1006b804     libvcruntime:undname.obj
 0002:00006808       ??_C@_03PCKGMOPB@?$CG?$CG?5?$AA@ 1006b808     libvcruntime:undname.obj
 0002:0000680c       ??_C@_0M@EALIELKG@cli?3?3array?$DM?$AA@ 1006b80c     libvcruntime:undname.obj
 0002:0000681c       ??_C@_0O@GKABPPIF@cli?3?3pin_ptr?$DM?$AA@ 1006b81c     libvcruntime:undname.obj
 0002:0000682c       ??_C@_02GOGNNPBN@?$CJ?$FL?$AA@ 1006b82c     libvcruntime:undname.obj
 0002:00006830       ??_C@_06EEGAIFAK@?$HLflat?$HN?$AA@ 1006b830     libvcruntime:undname.obj
 0002:00006838       ??_C@_05JIBOFOHK@?$HLfor?5?$AA@ 1006b838     libvcruntime:undname.obj
 0002:00006840       ??_C@_02MDINNEEG@s?5?$AA@  1006b840     libvcruntime:undname.obj
 0002:00006848       ??_7DNameNode@@6B@         1006b848     libvcruntime:undname.obj
 0002:0000685c       ??_7charNode@@6B@          1006b85c     libvcruntime:undname.obj
 0002:00006870       ??_7pcharNode@@6B@         1006b870     libvcruntime:undname.obj
 0002:00006884       ??_7pDNameNode@@6B@        1006b884     libvcruntime:undname.obj
 0002:00006898       ??_7DNameStatusNode@@6B@   1006b898     libvcruntime:undname.obj
 0002:000068ac       ??_7pairNode@@6B@          1006b8ac     libvcruntime:undname.obj
 0002:000068bc       ??_C@_04OKOHEJBO@?5?$DP?$DP?5?$AA@ 1006b8bc     libvcruntime:undname.obj
 0002:000068c8       _standard_lookup_table     1006b8c8     libucrt:output.obj
 0002:00006938       _format_validation_lookup_table 1006b938     libucrt:output.obj
 0002:000069a8       ??_C@_06OJHGLDPL@?$CInull?$CJ?$AA@ 1006b9a8     libucrt:output.obj
 0002:000069b0       ??_C@_1O@CEDCILHN@?$AA?$CI?$AAn?$AAu?$AAl?$AAl?$AA?$CJ?$AA?$AA@ 1006b9b0     libucrt:output.obj
 0002:00006ad4       ??_C@_0CF@GOGNBNAK@Microsoft?5Visual?5C?$CL?$CL?5Runtime?5Lib@ 1006bad4     libucrt:assert.obj
 0002:00006b00       ??_C@_1EK@MBDPDCGA@?$AAM?$AAi?$AAc?$AAr?$AAo?$AAs?$AAo?$AAf?$AAt?$AA?5?$AAV?$AAi?$AAs?$AAu?$AAa?$AAl?$AA?5?$AAC?$AA?$CL?$AA?$CL?$AA?5?$AAR?$AAu?$AAn?$AAt?$AAi?$AAm?$AAe?$AA?5?$AAL?$AAi?$AAb@ 1006bb00     libucrt:assert.obj
 0002:00006b58       ??_C@_0CK@CFPGFGGO@Assertion?5failed?3?5?$CFTs?0?5file?5?$CFTs?0@ 1006bb58     libucrt:assert.obj
 0002:00006b90       ??_C@_1FE@LHBLIKM@?$AAA?$AAs?$AAs?$AAe?$AAr?$AAt?$AAi?$AAo?$AAn?$AA?5?$AAf?$AAa?$AAi?$AAl?$AAe?$AAd?$AA?3?$AA?5?$AA?$CF?$AAT?$AAs?$AA?0?$AA?5?$AAf?$AAi?$AAl?$AAe?$AA?5?$AA?$CF?$AAT?$AAs?$AA?0@ 1006bb90     libucrt:assert.obj
 0002:00006bf4       ??_C@_0BC@LAIDCHCH@Assertion?5failed?$CB?$AA@ 1006bbf4     libucrt:assert.obj
 0002:00006c0c       ??_C@_1CE@OJBNHDMO@?$AAA?$AAs?$AAs?$AAe?$AAr?$AAt?$AAi?$AAo?$AAn?$AA?5?$AAf?$AAa?$AAi?$AAl?$AAe?$AAd?$AA?$CB?$AA?$AA@ 1006bc0c     libucrt:assert.obj
 0002:00006c38       ??_C@_09KLGCKDOD@Program?3?5?$AA@ 1006bc38     libucrt:assert.obj
 0002:00006c44       ??_C@_1BE@PHKBBGE@?$AAP?$AAr?$AAo?$AAg?$AAr?$AAa?$AAm?$AA?3?$AA?5?$AA?$AA@ 1006bc44     libucrt:assert.obj
 0002:00006c5c       ??_C@_06IGPBOHMJ@File?3?5?$AA@ 1006bc5c     libucrt:assert.obj
 0002:00006c64       ??_C@_1O@HEMHKNDC@?$AAF?$AAi?$AAl?$AAe?$AA?3?$AA?5?$AA?$AA@ 1006bc64     libucrt:assert.obj
 0002:00006c74       ??_C@_06FIEBOLOH@Line?3?5?$AA@ 1006bc74     libucrt:assert.obj
 0002:00006c7c       ??_C@_1O@KCAFKHJE@?$AAL?$AAi?$AAn?$AAe?$AA?3?$AA?5?$AA?$AA@ 1006bc7c     libucrt:assert.obj
 0002:00006c8c       ??_C@_0N@MEECIJGN@Expression?3?5?$AA@ 1006bc8c     libucrt:assert.obj
 0002:00006c9c       ??_C@_1BK@PEDCIPMA@?$AAE?$AAx?$AAp?$AAr?$AAe?$AAs?$AAs?$AAi?$AAo?$AAn?$AA?3?$AA?5?$AA?$AA@ 1006bc9c     libucrt:assert.obj
 0002:00006cc0       ??_C@_0HA@OJHAGA@For?5information?5on?5how?5your?5prog@ 1006bcc0     libucrt:assert.obj
 0002:00006d48       ??_C@_1OA@EGMLFBHJ@?$AAF?$AAo?$AAr?$AA?5?$AAi?$AAn?$AAf?$AAo?$AAr?$AAm?$AAa?$AAt?$AAi?$AAo?$AAn?$AA?5?$AAo?$AAn?$AA?5?$AAh?$AAo?$AAw?$AA?5?$AAy?$AAo?$AAu?$AAr?$AA?5?$AAp?$AAr?$AAo?$AAg@ 1006bd48     libucrt:assert.obj
 0002:00006e54       ??_C@_0DN@EBBNMLME@?$CIPress?5Retry?5to?5debug?5the?5applic@ 1006be54     libucrt:assert.obj
 0002:00006ea0       ??_C@_1HK@POCJMFGK@?$AA?$CI?$AAP?$AAr?$AAe?$AAs?$AAs?$AA?5?$AAR?$AAe?$AAt?$AAr?$AAy?$AA?5?$AAt?$AAo?$AA?5?$AAd?$AAe?$AAb?$AAu?$AAg?$AA?5?$AAt?$AAh?$AAe?$AA?5?$AAa?$AAp?$AAp?$AAl?$AAi?$AAc@ 1006bea0     libucrt:assert.obj
 0002:00006f34       ??_C@_17LGKOMLJ@?$AA?4?$AA?4?$AA?4?$AA?$AA@ 1006bf34     libucrt:assert.obj
 0002:00006f40       ??_C@_01EEMJAFIK@?6?$AA@   1006bf40     libucrt:assert.obj
 0002:00006f44       ??_C@_13LBAGMAIH@?$AA?6?$AA?$AA@ 1006bf44     libucrt:assert.obj
 0002:00006f48       ??_C@_02PHMGELLB@?6?6?$AA@ 1006bf48     libucrt:assert.obj
 0002:00006f4c       ??_C@_15IABLJNFO@?$AA?6?$AA?6?$AA?$AA@ 1006bf4c     libucrt:assert.obj
 0002:00006f54       ??_C@_0BH@DNAGHKFM@?$DMprogram?5name?5unknown?$DO?$AA@ 1006bf54     libucrt:assert.obj
 0002:00006f70       ??_C@_1CO@EAEJAADC@?$AA?$DM?$AAp?$AAr?$AAo?$AAg?$AAr?$AAa?$AAm?$AA?5?$AAn?$AAa?$AAm?$AAe?$AA?5?$AAu?$AAn?$AAk?$AAn?$AAo?$AAw?$AAn?$AA?$DO?$AA?$AA@ 1006bf70     libucrt:assert.obj
 0002:00006fa8       _RtlNtPathSeperatorString  1006bfa8     libucrt:exit.obj
 0002:00006fb4       ??_C@_13FPGAJAPJ@?$AA?2?$AA?$AA@ 1006bfb4     libucrt:exit.obj
 0002:00006fb8       _RtlDosPathSeperatorsString 1006bfb8     libucrt:exit.obj
 0002:00006fc4       ??_C@_15MNCACJLI@?$AA?2?$AA?1?$AA?$AA@ 1006bfc4     libucrt:exit.obj
 0002:00006fcc       _RtlAlternateDosPathSeperatorString 1006bfcc     libucrt:exit.obj
 0002:00006fd8       ??_C@_13CGOKJPIL@?$AA?1?$AA?$AA@ 1006bfd8     libucrt:exit.obj
 0002:00006fdc       ??_C@_1BI@BGOHAHKC@?$AAm?$AAs?$AAc?$AAo?$AAr?$AAe?$AAe?$AA?4?$AAd?$AAl?$AAl?$AA?$AA@ 1006bfdc     libucrt:exit.obj
 0002:00006ff8       ??_C@_0P@MIGLKIOC@CorExitProcess?$AA@ 1006bff8     libucrt:exit.obj
 0002:0000700c       ??_C@_04FJHINJAO@tanh?$AA@ 1006c00c     libucrt:fpexcept.obj
 0002:00007014       ??_C@_04FIHNOPOL@asin?$AA@ 1006c014     libucrt:fpexcept.obj
 0002:0000701c       ??_C@_04PDIFKINK@acos?$AA@ 1006c01c     libucrt:fpexcept.obj
 0002:00007024       ??_C@_04MLLJIGOK@atan?$AA@ 1006c024     libucrt:fpexcept.obj
 0002:0000702c       ??_C@_05KNGEOGJB@atan2?$AA@ 1006c02c     libucrt:fpexcept.obj
 0002:00007034       ??_C@_04EIAKFFMI@sqrt?$AA@ 1006c034     libucrt:fpexcept.obj
 0002:0000703c       ??_C@_03BLEJJJBH@sin?$AA@  1006c03c     libucrt:fpexcept.obj
 0002:00007040       ??_C@_03LALBNOCG@cos?$AA@  1006c040     libucrt:fpexcept.obj
 0002:00007044       ??_C@_03IIINPABG@tan?$AA@  1006c044     libucrt:fpexcept.obj
 0002:00007048       ??_C@_04GFPJNGEK@ceil?$AA@ 1006c048     libucrt:fpexcept.obj
 0002:00007050       ??_C@_05PBJFFIGL@floor?$AA@ 1006c050     libucrt:fpexcept.obj
 0002:00007058       ??_C@_04ODHECPBC@fabs?$AA@ 1006c058     libucrt:fpexcept.obj
 0002:00007060       ??_C@_04EHEDPDJG@modf?$AA@ 1006c060     libucrt:fpexcept.obj
 0002:00007068       ??_C@_05CEJMAHNP@ldexp?$AA@ 1006c068     libucrt:fpexcept.obj
 0002:00007070       ??_C@_05KBKMEMPO@_cabs?$AA@ 1006c070     libucrt:fpexcept.obj
 0002:00007078       ??_C@_06MEIMCGCF@_hypot?$AA@ 1006c078     libucrt:fpexcept.obj
 0002:00007080       ??_C@_04KEPJIHGP@fmod?$AA@ 1006c080     libucrt:fpexcept.obj
 0002:00007088       ??_C@_05GKKHEGJL@frexp?$AA@ 1006c088     libucrt:fpexcept.obj
 0002:00007090       ??_C@_03MJLDFKDL@_y0?$AA@  1006c090     libucrt:fpexcept.obj
 0002:00007094       ??_C@_03NAKIGLHK@_y1?$AA@  1006c094     libucrt:fpexcept.obj
 0002:00007098       ??_C@_03ONILCKOB@_yn?$AA@  1006c098     libucrt:fpexcept.obj
 0002:0000709c       ??_C@_05JGDBENOH@_logb?$AA@ 1006c09c     libucrt:fpexcept.obj
 0002:000070a4       ??_C@_0L@KDOEJCKC@_nextafter?$AA@ 1006c0a4     libucrt:fpexcept.obj
 0002:000071d0       ??_C@_03KHJOGHMM@exp?$AA@  1006c1d0     libucrt:fpexcept.obj
 0002:000071d4       ??_C@_03JGHBODFD@pow?$AA@  1006c1d4     libucrt:fpexcept.obj
 0002:000071d8       ??_C@_03MGHMBJCF@log?$AA@  1006c1d8     libucrt:fpexcept.obj
 0002:000071dc       ??_C@_05HGHHAHAP@log10?$AA@ 1006c1dc     libucrt:fpexcept.obj
 0002:000071e4       ??_C@_04COOMCNPB@sinh?$AA@ 1006c1e4     libucrt:fpexcept.obj
 0002:000071ec       ??_C@_04HPJJNFIM@cosh?$AA@ 1006c1ec     libucrt:fpexcept.obj
 0002:000071f8       ___acrt_exception_action_table 1006c1f8     libucrt:exception_filter.obj
 0002:000072a4       ___acrt_signal_action_table_count 1006c2a4     libucrt:exception_filter.obj
 0002:000072a8       ___acrt_signal_action_table_size 1006c2a8     libucrt:exception_filter.obj
 0002:000072ac       ___acrt_signal_action_first_fpe_index 1006c2ac     libucrt:exception_filter.obj
 0002:000072b0       ___acrt_signal_action_fpe_count 1006c2b0     libucrt:exception_filter.obj
 0002:00007348       ??_C@_1BG@HHIFPOEK@?$AAm?$AAs?$AAv?$AAc?$AAr?$AAt?$AA?4?$AAd?$AAl?$AAl?$AA?$AA@ 1006c348     libucrt:free_base.obj
 0002:00007364       __Fenv0                    1006c364     libucrt:atox.obj
 0002:00007580       ??_C@_1EG@CNNIPFIM@?$AAa?$AAp?$AAi?$AA?9?$AAm?$AAs?$AA?9?$AAw?$AAi?$AAn?$AA?9?$AAa?$AAp?$AAp?$AAm?$AAo?$AAd?$AAe?$AAl?$AA?9?$AAr?$AAu?$AAn?$AAt?$AAi?$AAm?$AAe?$AA?9?$AAl?$AA1?$AA?9?$AA1@ 1006c580     libucrt:winapi_thunks.obj
 0002:000075d8       ??_C@_1EA@JGEFHKEI@?$AAa?$AAp?$AAi?$AA?9?$AAm?$AAs?$AA?9?$AAw?$AAi?$AAn?$AA?9?$AAc?$AAo?$AAr?$AAe?$AA?9?$AAd?$AAa?$AAt?$AAe?$AAt?$AAi?$AAm?$AAe?$AA?9?$AAl?$AA1?$AA?9?$AA1?$AA?9?$AA1?$AA?$AA@ 1006c5d8     libucrt:winapi_thunks.obj
 0002:00007624       ??_C@_1DI@GCIAAENM@?$AAa?$AAp?$AAi?$AA?9?$AAm?$AAs?$AA?9?$AAw?$AAi?$AAn?$AA?9?$AAc?$AAo?$AAr?$AAe?$AA?9?$AAf?$AAi?$AAl?$AAe?$AA?9?$AAl?$AA2?$AA?9?$AA1?$AA?9?$AA1?$AA?$AA@ 1006c624     libucrt:winapi_thunks.obj
 0002:00007668       ??_C@_1EI@MPIAOHOC@?$AAa?$AAp?$AAi?$AA?9?$AAm?$AAs?$AA?9?$AAw?$AAi?$AAn?$AA?9?$AAc?$AAo?$AAr?$AAe?$AA?9?$AAl?$AAo?$AAc?$AAa?$AAl?$AAi?$AAz?$AAa?$AAt?$AAi?$AAo?$AAn?$AA?9?$AAl?$AA1?$AA?9@ 1006c668     libucrt:winapi_thunks.obj
 0002:000076c0       ??_C@_1FK@FPHCKFIE@?$AAa?$AAp?$AAi?$AA?9?$AAm?$AAs?$AA?9?$AAw?$AAi?$AAn?$AA?9?$AAc?$AAo?$AAr?$AAe?$AA?9?$AAl?$AAo?$AAc?$AAa?$AAl?$AAi?$AAz?$AAa?$AAt?$AAi?$AAo?$AAn?$AA?9?$AAo?$AAb?$AAs@ 1006c6c0     libucrt:winapi_thunks.obj
 0002:00007730       ??_C@_1EM@DILCGIIO@?$AAa?$AAp?$AAi?$AA?9?$AAm?$AAs?$AA?9?$AAw?$AAi?$AAn?$AA?9?$AAc?$AAo?$AAr?$AAe?$AA?9?$AAp?$AAr?$AAo?$AAc?$AAe?$AAs?$AAs?$AAt?$AAh?$AAr?$AAe?$AAa?$AAd?$AAs?$AA?9?$AAl@ 1006c730     libucrt:winapi_thunks.obj
 0002:0000778c       ??_C@_1DM@LNCGDDPN@?$AAa?$AAp?$AAi?$AA?9?$AAm?$AAs?$AA?9?$AAw?$AAi?$AAn?$AA?9?$AAc?$AAo?$AAr?$AAe?$AA?9?$AAs?$AAt?$AAr?$AAi?$AAn?$AAg?$AA?9?$AAl?$AA1?$AA?9?$AA1?$AA?9?$AA0?$AA?$AA@ 1006c78c     libucrt:winapi_thunks.obj
 0002:000077d4       ??_C@_1DO@FPAPJEMD@?$AAa?$AAp?$AAi?$AA?9?$AAm?$AAs?$AA?9?$AAw?$AAi?$AAn?$AA?9?$AAc?$AAo?$AAr?$AAe?$AA?9?$AAs?$AAy?$AAs?$AAi?$AAn?$AAf?$AAo?$AA?9?$AAl?$AA1?$AA?9?$AA2?$AA?9?$AA1?$AA?$AA@ 1006c7d4     libucrt:winapi_thunks.obj
 0002:00007820       ??_C@_1DK@NDHNAHIO@?$AAa?$AAp?$AAi?$AA?9?$AAm?$AAs?$AA?9?$AAw?$AAi?$AAn?$AA?9?$AAc?$AAo?$AAr?$AAe?$AA?9?$AAw?$AAi?$AAn?$AAr?$AAt?$AA?9?$AAl?$AA1?$AA?9?$AA1?$AA?9?$AA0?$AA?$AA@ 1006c820     libucrt:winapi_thunks.obj
 0002:00007868       ??_C@_1DM@KGHDGBCM@?$AAa?$AAp?$AAi?$AA?9?$AAm?$AAs?$AA?9?$AAw?$AAi?$AAn?$AA?9?$AAc?$AAo?$AAr?$AAe?$AA?9?$AAx?$AAs?$AAt?$AAa?$AAt?$AAe?$AA?9?$AAl?$AA2?$AA?9?$AA1?$AA?9?$AA0?$AA?$AA@ 1006c868     libucrt:winapi_thunks.obj
 0002:000078b0       ??_C@_1EO@IJIOEFOH@?$AAa?$AAp?$AAi?$AA?9?$AAm?$AAs?$AA?9?$AAw?$AAi?$AAn?$AA?9?$AAr?$AAt?$AAc?$AAo?$AAr?$AAe?$AA?9?$AAn?$AAt?$AAu?$AAs?$AAe?$AAr?$AA?9?$AAw?$AAi?$AAn?$AAd?$AAo?$AAw?$AA?9@ 1006c8b0     libucrt:winapi_thunks.obj
 0002:00007910       ??_C@_1FG@HHGEKANL@?$AAa?$AAp?$AAi?$AA?9?$AAm?$AAs?$AA?9?$AAw?$AAi?$AAn?$AA?9?$AAs?$AAe?$AAc?$AAu?$AAr?$AAi?$AAt?$AAy?$AA?9?$AAs?$AAy?$AAs?$AAt?$AAe?$AAm?$AAf?$AAu?$AAn?$AAc?$AAt?$AAi@ 1006c910     libucrt:winapi_thunks.obj
 0002:00007978       ??_C@_1FG@NCKKOLKO@?$AAe?$AAx?$AAt?$AA?9?$AAm?$AAs?$AA?9?$AAw?$AAi?$AAn?$AA?9?$AAk?$AAe?$AAr?$AAn?$AAe?$AAl?$AA3?$AA2?$AA?9?$AAp?$AAa?$AAc?$AAk?$AAa?$AAg?$AAe?$AA?9?$AAc?$AAu?$AAr?$AAr@ 1006c978     libucrt:winapi_thunks.obj
 0002:000079e0       ??_C@_1EG@DBIOJECG@?$AAe?$AAx?$AAt?$AA?9?$AAm?$AAs?$AA?9?$AAw?$AAi?$AAn?$AA?9?$AAn?$AAt?$AAu?$AAs?$AAe?$AAr?$AA?9?$AAd?$AAi?$AAa?$AAl?$AAo?$AAg?$AAb?$AAo?$AAx?$AA?9?$AAl?$AA1?$AA?9?$AA1@ 1006c9e0     libucrt:winapi_thunks.obj
 0002:00007a38       ??_C@_1EO@FIHMJCLF@?$AAe?$AAx?$AAt?$AA?9?$AAm?$AAs?$AA?9?$AAw?$AAi?$AAn?$AA?9?$AAn?$AAt?$AAu?$AAs?$AAe?$AAr?$AA?9?$AAw?$AAi?$AAn?$AAd?$AAo?$AAw?$AAs?$AAt?$AAa?$AAt?$AAi?$AAo?$AAn?$AA?9@ 1006ca38     libucrt:winapi_thunks.obj
 0002:00007a98       ??_C@_1O@BCCLBEOE@?$AAu?$AAs?$AAe?$AAr?$AA3?$AA2?$AA?$AA@ 1006ca98     libucrt:winapi_thunks.obj
 0002:00007aac       ??_C@_0BA@FHFNEAED@AreFileApisANSI?$AA@ 1006caac     libucrt:winapi_thunks.obj
 0002:00007acc       ??_C@_0BA@IHGNDAEB@CompareStringEx?$AA@ 1006cacc     libucrt:winapi_thunks.obj
 0002:00007aec       ??_C@_0BE@LJANKFHF@EnumSystemLocalesEx?$AA@ 1006caec     libucrt:winapi_thunks.obj
 0002:00007b40       ??_C@_0BA@HNOPNCHB@GetActiveWindow?$AA@ 1006cb40     libucrt:winapi_thunks.obj
 0002:00007b60       ??_C@_0BE@JOGNEJCI@GetCurrentPackageId?$AA@ 1006cb60     libucrt:winapi_thunks.obj
 0002:00007b84       ??_C@_0BA@EPCJIIPD@GetDateFormatEx?$AA@ 1006cb84     libucrt:winapi_thunks.obj
 0002:00007ba4       ??_C@_0BJ@DIBIJBHA@GetEnabledXStateFeatures?$AA@ 1006cba4     libucrt:winapi_thunks.obj
 0002:00007bd0       ??_C@_0BN@NEEHBBPO@GetFileInformationByHandleEx?$AA@ 1006cbd0     libucrt:winapi_thunks.obj
 0002:00007c00       ??_C@_0BD@HHGDFDBJ@GetLastActivePopup?$AA@ 1006cc00     libucrt:winapi_thunks.obj
 0002:00007c24       ??_C@_0BA@ONOKGCMP@GetLocaleInfoEx?$AA@ 1006cc24     libucrt:winapi_thunks.obj
 0002:00007c44       ??_C@_0BI@DFKBFLJE@GetProcessWindowStation?$AA@ 1006cc44     libucrt:winapi_thunks.obj
 0002:00007c64       ??_C@_0BP@FPNJPEJC@GetSystemTimePreciseAsFileTime?$AA@ 1006cc64     libucrt:winapi_thunks.obj
 0002:00007c98       ??_C@_0BA@CIJJKCJJ@GetTimeFormatEx?$AA@ 1006cc98     libucrt:winapi_thunks.obj
 0002:00007cb8       ??_C@_0BJ@PBCCBIPI@GetUserDefaultLocaleName?$AA@ 1006ccb8     libucrt:winapi_thunks.obj
 0002:00007ce4       ??_C@_0BK@DEKFELLI@GetUserObjectInformationW?$AA@ 1006cce4     libucrt:winapi_thunks.obj
 0002:00007d10       ??_C@_0BG@IKLDMBLM@GetXStateFeaturesMask?$AA@ 1006cd10     libucrt:winapi_thunks.obj
 0002:00007d44       ??_C@_0BC@CELBKLLA@IsValidLocaleName?$AA@ 1006cd44     libucrt:winapi_thunks.obj
 0002:00007d68       ??_C@_0O@KKBNKAPF@LCMapStringEx?$AA@ 1006cd68     libucrt:winapi_thunks.obj
 0002:00007d84       ??_C@_0BB@CDHDDLLP@LCIDToLocaleName?$AA@ 1006cd84     libucrt:winapi_thunks.obj
 0002:00007da4       ??_C@_0BB@HBDEELFH@LocaleNameToLCID?$AA@ 1006cda4     libucrt:winapi_thunks.obj
 0002:00007dc4       ??_C@_0BE@KINNKFDA@LocateXStateFeature?$AA@ 1006cdc4     libucrt:winapi_thunks.obj
 0002:00007de8       ??_C@_0M@CHKKJDAI@MessageBoxA?$AA@ 1006cde8     libucrt:winapi_thunks.obj
 0002:00007e04       ??_C@_0M@DLDCCGNP@MessageBoxW?$AA@ 1006ce04     libucrt:winapi_thunks.obj
 0002:00007e18       ??_C@_0N@PPOMPGGK@RoInitialize?$AA@ 1006ce18     libucrt:winapi_thunks.obj
 0002:00007e2c       ??_C@_0P@LLFHBIJD@RoUninitialize?$AA@ 1006ce2c     libucrt:winapi_thunks.obj
 0002:00007e4c       ??_C@_0BI@BKLFFAPO@SetThreadStackGuarantee?$AA@ 1006ce4c     libucrt:winapi_thunks.obj
 0002:00007e74       ??_C@_0BC@JEAENNKH@SystemFunction036?$AA@ 1006ce74     libucrt:winapi_thunks.obj
 0002:00007e8c       ??_C@_03OEIAHPBN@INF?$AA@  1006ce8c     libucrt:cvt.obj
 0002:00007e90       ??_C@_03OJHLLCGB@inf?$AA@  1006ce90     libucrt:cvt.obj
 0002:00007e94       ??_C@_03LKNCIKJB@NAN?$AA@  1006ce94     libucrt:cvt.obj
 0002:00007e98       ??_C@_03LHCJEHON@nan?$AA@  1006ce98     libucrt:cvt.obj
 0002:00007e9c       ??_C@_09OFJJIMPC@NAN?$CISNAN?$CJ?$AA@ 1006ce9c     libucrt:cvt.obj
 0002:00007ea8       ??_C@_09IPFBKMDL@nan?$CIsnan?$CJ?$AA@ 1006cea8     libucrt:cvt.obj
 0002:00007eb4       ??_C@_08IKHNHAJ@NAN?$CIIND?$CJ?$AA@ 1006ceb4     libucrt:cvt.obj
 0002:00007ec0       ??_C@_08OFCDMILK@nan?$CIind?$CJ?$AA@ 1006cec0     libucrt:cvt.obj
 0002:00007ecc       ??_C@_05KLBDPFGC@e?$CL000?$AA@ 1006cecc     libucrt:cvt.obj
 0002:00007ed8       ___lc_category             1006ced8     libucrt:wsetlocale.obj
 0002:00007f30       ??_C@_1O@GIFLHMA@?$AAL?$AAC?$AA_?$AAA?$AAL?$AAL?$AA?$AA@ 1006cf30     libucrt:wsetlocale.obj
 0002:00007f40       ??_C@_1BG@PPOMIBNJ@?$AAL?$AAC?$AA_?$AAC?$AAO?$AAL?$AAL?$AAA?$AAT?$AAE?$AA?$AA@ 1006cf40     libucrt:wsetlocale.obj
 0002:00007f5c       ??_C@_1BC@FFJGAPJM@?$AAL?$AAC?$AA_?$AAC?$AAT?$AAY?$AAP?$AAE?$AA?$AA@ 1006cf5c     libucrt:wsetlocale.obj
 0002:00007f74       ??_C@_1BI@PCKFNJFB@?$AAL?$AAC?$AA_?$AAM?$AAO?$AAN?$AAE?$AAT?$AAA?$AAR?$AAY?$AA?$AA@ 1006cf74     libucrt:wsetlocale.obj
 0002:00007f90       ??_C@_1BG@ENIEDKID@?$AAL?$AAC?$AA_?$AAN?$AAU?$AAM?$AAE?$AAR?$AAI?$AAC?$AA?$AA@ 1006cf90     libucrt:wsetlocale.obj
 0002:00007fac       ??_C@_1BA@HAAOMIIG@?$AAL?$AAC?$AA_?$AAT?$AAI?$AAM?$AAE?$AA?$AA@ 1006cfac     libucrt:wsetlocale.obj
 0002:00008058       ??_C@_15NBPDDFIP@?$AA?$DN?$AA?$DL?$AA?$AA@ 1006d058     libucrt:wsetlocale.obj
 0002:00008060       ??_C@_13PJJBFPED@?$AA?$DL?$AA?$AA@ 1006d060     libucrt:wsetlocale.obj
 0002:00008064       ??_C@_13NMPKAAJP@?$AA?$DN?$AA?$AA@ 1006d064     libucrt:wsetlocale.obj
 0002:00008068       ??_C@_13FHBKNHDA@?$AAC?$AA?$AA@ 1006d068     libucrt:wsetlocale.obj
 0002:0000806c       ??_C@_17MBJJLFDM@?$AA_?$AA?4?$AA?0?$AA?$AA@ 1006d06c     libucrt:wsetlocale.obj
 0002:00008078       ??_C@_13ENNFDPBH@?$AA_?$AA?$AA@ 1006d078     libucrt:wsetlocale.obj
 0002:0000807c       ??_C@_13JOFGPIOO@?$AA?4?$AA?$AA@ 1006d07c     libucrt:wsetlocale.obj
 0002:00008080       ??_C@_03KOEHGMDN@Sun?$AA@  1006d080     libucrt:nlsdata.obj
 0002:00008084       ??_C@_03PDAGKDH@Mon?$AA@   1006d084     libucrt:nlsdata.obj
 0002:00008088       ??_C@_03NAGEINEP@Tue?$AA@  1006d088     libucrt:nlsdata.obj
 0002:0000808c       ??_C@_03MHOMLAJA@Wed?$AA@  1006d08c     libucrt:nlsdata.obj
 0002:00008090       ??_C@_03IOFIKPDN@Thu?$AA@  1006d090     libucrt:nlsdata.obj
 0002:00008094       ??_C@_03IDIOELNC@Fri?$AA@  1006d094     libucrt:nlsdata.obj
 0002:00008098       ??_C@_03FEFJNEK@Sat?$AA@   1006d098     libucrt:nlsdata.obj
 0002:0000809c       ??_C@_06OOPIFAJ@Sunday?$AA@ 1006d09c     libucrt:nlsdata.obj
 0002:000080a4       ??_C@_06JLEDEDGH@Monday?$AA@ 1006d0a4     libucrt:nlsdata.obj
 0002:000080ac       ??_C@_07BAAGCFCM@Tuesday?$AA@ 1006d0ac     libucrt:nlsdata.obj
 0002:000080b8       ??_C@_09DLIGFAKA@Wednesday?$AA@ 1006d0b8     libucrt:nlsdata.obj
 0002:000080c4       ??_C@_08HACCIKIA@Thursday?$AA@ 1006d0c4     libucrt:nlsdata.obj
 0002:000080d0       ??_C@_06JECMNKMI@Friday?$AA@ 1006d0d0     libucrt:nlsdata.obj
 0002:000080d8       ??_C@_08INBOOONO@Saturday?$AA@ 1006d0d8     libucrt:nlsdata.obj
 0002:000080e4       ??_C@_03JIHJHPIE@Jan?$AA@  1006d0e4     libucrt:nlsdata.obj
 0002:000080e8       ??_C@_03HJBDCHOM@Feb?$AA@  1006d0e8     libucrt:nlsdata.obj
 0002:000080ec       ??_C@_03ODNJBKGA@Mar?$AA@  1006d0ec     libucrt:nlsdata.obj
 0002:000080f0       ??_C@_03LEOLGMJP@Apr?$AA@  1006d0f0     libucrt:nlsdata.obj
 0002:000080f4       ??_C@_03CNMDKL@May?$AA@    1006d0f4     libucrt:nlsdata.obj
 0002:000080f8       ??_C@_03IDFGHECI@Jun?$AA@  1006d0f8     libucrt:nlsdata.obj
 0002:000080fc       ??_C@_03LBGABGKK@Jul?$AA@  1006d0fc     libucrt:nlsdata.obj
 0002:00008100       ??_C@_03IFJFEIGA@Aug?$AA@  1006d100     libucrt:nlsdata.obj
 0002:00008104       ??_C@_03GGCAPAJC@Sep?$AA@  1006d104     libucrt:nlsdata.obj
 0002:00008108       ??_C@_03BMAOKBAD@Oct?$AA@  1006d108     libucrt:nlsdata.obj
 0002:0000810c       ??_C@_03JPJOFNIA@Nov?$AA@  1006d10c     libucrt:nlsdata.obj
 0002:00008110       ??_C@_03MKABNOCG@Dec?$AA@  1006d110     libucrt:nlsdata.obj
 0002:00008114       ??_C@_07CGJPFGJA@January?$AA@ 1006d114     libucrt:nlsdata.obj
 0002:00008120       ??_C@_08GNJGEPFN@February?$AA@ 1006d120     libucrt:nlsdata.obj
 0002:0000812c       ??_C@_05HPCKOFNC@March?$AA@ 1006d12c     libucrt:nlsdata.obj
 0002:00008134       ??_C@_05DMJDNLEJ@April?$AA@ 1006d134     libucrt:nlsdata.obj
 0002:0000813c       ??_C@_04CNLMGBGM@June?$AA@ 1006d13c     libucrt:nlsdata.obj
 0002:00008144       ??_C@_04MIEPOIFP@July?$AA@ 1006d144     libucrt:nlsdata.obj
 0002:0000814c       ??_C@_06LBBHFDDG@August?$AA@ 1006d14c     libucrt:nlsdata.obj
 0002:00008154       ??_C@_09BHHEALKD@September?$AA@ 1006d154     libucrt:nlsdata.obj
 0002:00008160       ??_C@_07JJNFCEND@October?$AA@ 1006d160     libucrt:nlsdata.obj
 0002:0000816c       ??_C@_08HCHEGEOA@November?$AA@ 1006d16c     libucrt:nlsdata.obj
 0002:00008178       ??_C@_08EDHMEBNP@December?$AA@ 1006d178     libucrt:nlsdata.obj
 0002:00008184       ??_C@_02DEDBPAFC@AM?$AA@   1006d184     libucrt:nlsdata.obj
 0002:00008188       ??_C@_02CJNFDJBF@PM?$AA@   1006d188     libucrt:nlsdata.obj
 0002:0000818c       ??_C@_08BPBNCDIB@MM?1dd?1yy?$AA@ 1006d18c     libucrt:nlsdata.obj
 0002:00008198       ??_C@_0BE@CKGJFCPC@dddd?0?5MMMM?5dd?0?5yyyy?$AA@ 1006d198     libucrt:nlsdata.obj
 0002:000081b0       ??_C@_08JCCMCCIL@HH?3mm?3ss?$AA@ 1006d1b0     libucrt:nlsdata.obj
 0002:000081bc       ??_C@_17MBGCMIPB@?$AAS?$AAu?$AAn?$AA?$AA@ 1006d1bc     libucrt:nlsdata.obj
 0002:000081c8       ??_C@_17KBOMKBF@?$AAM?$AAo?$AAn?$AA?$AA@ 1006d1c8     libucrt:nlsdata.obj
 0002:000081d4       ??_C@_17BMKGEGOJ@?$AAT?$AAu?$AAe?$AA?$AA@ 1006d1d4     libucrt:nlsdata.obj
 0002:000081e0       ??_C@_17CJEDCEPE@?$AAW?$AAe?$AAd?$AA?$AA@ 1006d1e0     libucrt:nlsdata.obj
 0002:000081ec       ??_C@_17PDPHAADD@?$AAT?$AAh?$AAu?$AA?$AA@ 1006d1ec     libucrt:nlsdata.obj
 0002:000081f8       ??_C@_17HFOLPPLP@?$AAF?$AAr?$AAi?$AA?$AA@ 1006d1f8     libucrt:nlsdata.obj
 0002:00008204       ??_C@_17GGIBDPIH@?$AAS?$AAa?$AAt?$AA?$AA@ 1006d204     libucrt:nlsdata.obj
 0002:00008210       ??_C@_1O@IHNHDHPB@?$AAS?$AAu?$AAn?$AAd?$AAa?$AAy?$AA?$AA@ 1006d210     libucrt:nlsdata.obj
 0002:00008220       ??_C@_1O@MMNBFLIA@?$AAM?$AAo?$AAn?$AAd?$AAa?$AAy?$AA?$AA@ 1006d220     libucrt:nlsdata.obj
 0002:00008230       ??_C@_1BA@ENFBFFEK@?$AAT?$AAu?$AAe?$AAs?$AAd?$AAa?$AAy?$AA?$AA@ 1006d230     libucrt:nlsdata.obj
 0002:00008244       ??_C@_1BE@EBOGMDOH@?$AAW?$AAe?$AAd?$AAn?$AAe?$AAs?$AAd?$AAa?$AAy?$AA?$AA@ 1006d244     libucrt:nlsdata.obj
 0002:0000825c       ??_C@_1BC@HHMNLIHE@?$AAT?$AAh?$AAu?$AAr?$AAs?$AAd?$AAa?$AAy?$AA?$AA@ 1006d25c     libucrt:nlsdata.obj
 0002:00008274       ??_C@_1O@PDICJHAG@?$AAF?$AAr?$AAi?$AAd?$AAa?$AAy?$AA?$AA@ 1006d274     libucrt:nlsdata.obj
 0002:00008284       ??_C@_1BC@ENMNNPAJ@?$AAS?$AAa?$AAt?$AAu?$AAr?$AAd?$AAa?$AAy?$AA?$AA@ 1006d284     libucrt:nlsdata.obj
 0002:0000829c       ??_C@_17DKNBKCHM@?$AAJ?$AAa?$AAn?$AA?$AA@ 1006d29c     libucrt:nlsdata.obj
 0002:000082a8       ??_C@_17LMDJEKJN@?$AAF?$AAe?$AAb?$AA?$AA@ 1006d2a8     libucrt:nlsdata.obj
 0002:000082b4       ??_C@_17CKNLEDEC@?$AAM?$AAa?$AAr?$AA?$AA@ 1006d2b4     libucrt:nlsdata.obj
 0002:000082c0       ??_C@_17LFPOIHDD@?$AAA?$AAp?$AAr?$AA?$AA@ 1006d2c0     libucrt:nlsdata.obj
 0002:000082cc       ??_C@_17PNNKMEED@?$AAM?$AAa?$AAy?$AA?$AA@ 1006d2cc     libucrt:nlsdata.obj
 0002:000082d8       ??_C@_17KCJGOCPB@?$AAJ?$AAu?$AAn?$AA?$AA@ 1006d2d8     libucrt:nlsdata.obj
 0002:000082e4       ??_C@_17IJPCKHK@?$AAJ?$AAu?$AAl?$AA?$AA@ 1006d2e4     libucrt:nlsdata.obj
 0002:000082f0       ??_C@_17ICPELBCN@?$AAA?$AAu?$AAg?$AA?$AA@ 1006d2f0     libucrt:nlsdata.obj
 0002:000082fc       ??_C@_17HCHCOKMG@?$AAS?$AAe?$AAp?$AA?$AA@ 1006d2fc     libucrt:nlsdata.obj
 0002:00008308       ??_C@_17FNLKOI@?$AAO?$AAc?$AAt?$AA?$AA@ 1006d308     libucrt:nlsdata.obj
 0002:00008314       ??_C@_17BBDMLCIG@?$AAN?$AAo?$AAv?$AA?$AA@ 1006d314     libucrt:nlsdata.obj
 0002:00008320       ??_C@_17EGKACKIF@?$AAD?$AAe?$AAc?$AA?$AA@ 1006d320     libucrt:nlsdata.obj
 0002:0000832c       ??_C@_1BA@EFMEIEBA@?$AAJ?$AAa?$AAn?$AAu?$AAa?$AAr?$AAy?$AA?$AA@ 1006d32c     libucrt:nlsdata.obj
 0002:00008340       ??_C@_1BC@JGDDFFAM@?$AAF?$AAe?$AAb?$AAr?$AAu?$AAa?$AAr?$AAy?$AA?$AA@ 1006d340     libucrt:nlsdata.obj
 0002:00008358       ??_C@_1M@IKEENEDF@?$AAM?$AAa?$AAr?$AAc?$AAh?$AA?$AA@ 1006d358     libucrt:nlsdata.obj
 0002:00008368       ??_C@_1M@GJNLMHFD@?$AAA?$AAp?$AAr?$AAi?$AAl?$AA?$AA@ 1006d368     libucrt:nlsdata.obj
 0002:00008378       ??_C@_19EPFLPGAP@?$AAJ?$AAu?$AAn?$AAe?$AA?$AA@ 1006d378     libucrt:nlsdata.obj
 0002:00008384       ??_C@_19BIFMLPCD@?$AAJ?$AAu?$AAl?$AAy?$AA?$AA@ 1006d384     libucrt:nlsdata.obj
 0002:00008390       ??_C@_1O@PAHLKOAC@?$AAA?$AAu?$AAg?$AAu?$AAs?$AAt?$AA?$AA@ 1006d390     libucrt:nlsdata.obj
 0002:000083a0       ??_C@_1BE@DKAAMBJL@?$AAS?$AAe?$AAp?$AAt?$AAe?$AAm?$AAb?$AAe?$AAr?$AA?$AA@ 1006d3a0     libucrt:nlsdata.obj
 0002:000083b8       ??_C@_1BA@EPANDLNG@?$AAO?$AAc?$AAt?$AAo?$AAb?$AAe?$AAr?$AA?$AA@ 1006d3b8     libucrt:nlsdata.obj
 0002:000083cc       ??_C@_1BC@BGLIFPF@?$AAN?$AAo?$AAv?$AAe?$AAm?$AAb?$AAe?$AAr?$AA?$AA@ 1006d3cc     libucrt:nlsdata.obj
 0002:000083e4       ??_C@_1BC@FEMKIFH@?$AAD?$AAe?$AAc?$AAe?$AAm?$AAb?$AAe?$AAr?$AA?$AA@ 1006d3e4     libucrt:nlsdata.obj
 0002:000083fc       ??_C@_15ODEHAHHF@?$AAA?$AAM?$AA?$AA@ 1006d3fc     libucrt:nlsdata.obj
 0002:00008404       ??_C@_15CLMNNGEL@?$AAP?$AAM?$AA?$AA@ 1006d404     libucrt:nlsdata.obj
 0002:0000840c       ??_C@_1BC@IEBCMHCM@?$AAM?$AAM?$AA?1?$AAd?$AAd?$AA?1?$AAy?$AAy?$AA?$AA@ 1006d40c     libucrt:nlsdata.obj
 0002:00008424       ??_C@_1CI@KNAKOEBC@?$AAd?$AAd?$AAd?$AAd?$AA?0?$AA?5?$AAM?$AAM?$AAM?$AAM?$AA?5?$AAd?$AAd?$AA?0?$AA?5?$AAy?$AAy?$AAy?$AAy?$AA?$AA@ 1006d424     libucrt:nlsdata.obj
 0002:00008454       ??_C@_1BC@GDGBMEMK@?$AAH?$AAH?$AA?3?$AAm?$AAm?$AA?3?$AAs?$AAs?$AA?$AA@ 1006d454     libucrt:nlsdata.obj
 0002:0000846c       ??_C@_1M@BMHNFIME@?$AAe?$AAn?$AA?9?$AAU?$AAS?$AA?$AA@ 1006d46c     libucrt:nlsdata.obj
 0002:00008480       ___lc_time_c               1006d480     libucrt:nlsdata.obj
 0002:00008640       ___acrt_cos_sin_ctable     1006d640     libucrt:cos_sin_ctable.obj
 0002:00008fdc       ??_C@_1DE@JNGNBFGO@?$AAR?$AAu?$AAn?$AAt?$AAi?$AAm?$AAe?$AA?5?$AAE?$AAr?$AAr?$AAo?$AAr?$AA?$CB?$AA?6?$AA?6?$AAP?$AAr?$AAo?$AAg?$AAr?$AAa?$AAm?$AA?3?$AA?5?$AA?$AA@ 1006dfdc     libucrt:report_runtime_error.obj
 0002:0000901c       ?ccs@?BL@???$__acrt_stdio_parse_mode@D@@YA?AU__acrt_stdio_stream_mode@@QBD@Z@4QBDB 1006e01c     libucrt:openfile.obj
 0002:00009020       ?utf8_encoding@?BL@???$__acrt_stdio_parse_mode@D@@YA?AU__acrt_stdio_stream_mode@@QBD@Z@4QBDB 1006e020     libucrt:openfile.obj
 0002:00009028       ?utf16_encoding@?BL@???$__acrt_stdio_parse_mode@D@@YA?AU__acrt_stdio_stream_mode@@QBD@Z@4QBDB 1006e028     libucrt:openfile.obj
 0002:00009034       ?unicode_encoding@?BL@???$__acrt_stdio_parse_mode@D@@YA?AU__acrt_stdio_stream_mode@@QBD@Z@4QBDB 1006e034     libucrt:openfile.obj
 0002:0000903c       ?ccs@?BL@???$__acrt_stdio_parse_mode@_W@@YA?AU__acrt_stdio_stream_mode@@QB_W@Z@4QB_WB 1006e03c     libucrt:openfile.obj
 0002:00009044       ?utf8_encoding@?BL@???$__acrt_stdio_parse_mode@_W@@YA?AU__acrt_stdio_stream_mode@@QB_W@Z@4QB_WB 1006e044     libucrt:openfile.obj
 0002:00009050       ?utf16_encoding@?BL@???$__acrt_stdio_parse_mode@_W@@YA?AU__acrt_stdio_stream_mode@@QB_W@Z@4QB_WB 1006e050     libucrt:openfile.obj
 0002:00009064       ?unicode_encoding@?BL@???$__acrt_stdio_parse_mode@_W@@YA?AU__acrt_stdio_stream_mode@@QB_W@Z@4QB_WB 1006e064     libucrt:openfile.obj
 0002:00009078       __d_inf                    1006e078     libucrt:util.obj
 0002:00009088       __d_ind                    1006e088     libucrt:util.obj
 0002:00009098       __d_max                    1006e098     libucrt:util.obj
 0002:000090a8       __d_min                    1006e0a8     libucrt:util.obj
 0002:000090b8       __d_mzero                  1006e0b8     libucrt:util.obj
 0002:000090f8       ??_C@_1M@HPNHIDJI@?$AAj?$AAa?$AA?9?$AAJ?$AAP?$AA?$AA@ 1006e0f8     libucrt:mbctype.obj
 0002:00009108       ??_C@_1M@BIBDDEMK@?$AAz?$AAh?$AA?9?$AAC?$AAN?$AA?$AA@ 1006e108     libucrt:mbctype.obj
 0002:00009118       ??_C@_1M@JLOOOEGK@?$AAk?$AAo?$AA?9?$AAK?$AAR?$AA?$AA@ 1006e118     libucrt:mbctype.obj
 0002:00009128       ??_C@_1M@CLNBBOPM@?$AAz?$AAh?$AA?9?$AAT?$AAW?$AA?$AA@ 1006e128     libucrt:mbctype.obj
 0002:00009138       __wctype                   1006e138     libucrt:ctype.obj
 0002:000093a8       ___newctype                1006e3a8     libucrt:ctype.obj
 0002:00009748       ___newclmap                1006e748     libucrt:ctype.obj
 0002:00009918       ___newcumap                1006e918     libucrt:ctype.obj
 0002:0000a374       ??_C@_15EMKDOKLE@?$AAa?$AAr?$AA?$AA@ 1006f374     libucrt:lcidtoname_downlevel.obj
 0002:0000a37c       ??_C@_15KNPADPLH@?$AAb?$AAg?$AA?$AA@ 1006f37c     libucrt:lcidtoname_downlevel.obj
 0002:0000a384       ??_C@_15EDMHLDMO@?$AAc?$AAa?$AA?$AA@ 1006f384     libucrt:lcidtoname_downlevel.obj
 0002:0000a38c       ??_C@_1O@BPEAJADD@?$AAz?$AAh?$AA?9?$AAC?$AAH?$AAS?$AA?$AA@ 1006f38c     libucrt:lcidtoname_downlevel.obj
 0002:0000a39c       ??_C@_15LJNHCMNK@?$AAc?$AAs?$AA?$AA@ 1006f39c     libucrt:lcidtoname_downlevel.obj
 0002:0000a3a4       ??_C@_15FOMCIDHG@?$AAd?$AAa?$AA?$AA@ 1006f3a4     libucrt:lcidtoname_downlevel.obj
 0002:0000a3ac       ??_C@_15NBKABECB@?$AAd?$AAe?$AA?$AA@ 1006f3ac     libucrt:lcidtoname_downlevel.obj
 0002:0000a3b4       ??_C@_15GHPEIIAO@?$AAe?$AAl?$AA?$AA@ 1006f3b4     libucrt:lcidtoname_downlevel.obj
 0002:0000a3bc       ??_C@_15MNPNEAIF@?$AAe?$AAn?$AA?$AA@ 1006f3bc     libucrt:lcidtoname_downlevel.obj
 0002:0000a3c4       ??_C@_15GPIOMPMH@?$AAe?$AAs?$AA?$AA@ 1006f3c4     libucrt:lcidtoname_downlevel.obj
 0002:0000a3cc       ??_C@_15NGLOAKJC@?$AAf?$AAi?$AA?$AA@ 1006f3cc     libucrt:lcidtoname_downlevel.obj
 0002:0000a3d4       ??_C@_15FBKGNKAM@?$AAf?$AAr?$AA?$AA@ 1006f3d4     libucrt:lcidtoname_downlevel.obj
 0002:0000a3dc       ??_C@_15KGGCNEFK@?$AAh?$AAe?$AA?$AA@ 1006f3dc     libucrt:lcidtoname_downlevel.obj
 0002:0000a3e4       ??_C@_15PGHLIDMF@?$AAh?$AAu?$AA?$AA@ 1006f3e4     libucrt:lcidtoname_downlevel.obj
 0002:0000a3ec       ??_C@_15BIEMAPLM@?$AAi?$AAs?$AA?$AA@ 1006f3ec     libucrt:lcidtoname_downlevel.obj
 0002:0000a3f4       ??_C@_15IFJLDHAF@?$AAi?$AAt?$AA?$AA@ 1006f3f4     libucrt:lcidtoname_downlevel.obj
 0002:0000a3fc       ??_C@_15GEMIOCAG@?$AAj?$AAa?$AA?$AA@ 1006f3fc     libucrt:lcidtoname_downlevel.obj
 0002:0000a404       ??_C@_15EPELEGJA@?$AAk?$AAo?$AA?$AA@ 1006f404     libucrt:lcidtoname_downlevel.obj
 0002:0000a40c       ??_C@_15NDDHIMN@?$AAn?$AAl?$AA?$AA@ 1006f40c     libucrt:lcidtoname_downlevel.obj
 0002:0000a414       ??_C@_15BPIGNHCD@?$AAn?$AAo?$AA?$AA@ 1006f414     libucrt:lcidtoname_downlevel.obj
 0002:0000a41c       ??_C@_15DEOPBLCG@?$AAp?$AAl?$AA?$AA@ 1006f41c     libucrt:lcidtoname_downlevel.obj
 0002:0000a424       ??_C@_15KBECGEFG@?$AAp?$AAt?$AA?$AA@ 1006f424     libucrt:lcidtoname_downlevel.obj
 0002:0000a42c       ??_C@_15GLJCBFMD@?$AAr?$AAo?$AA?$AA@ 1006f42c     libucrt:lcidtoname_downlevel.obj
 0002:0000a434       ??_C@_15FEDGKCDI@?$AAr?$AAu?$AA?$AA@ 1006f434     libucrt:lcidtoname_downlevel.obj
 0002:0000a43c       ??_C@_15GLKMLLHM@?$AAh?$AAr?$AA?$AA@ 1006f43c     libucrt:lcidtoname_downlevel.obj
 0002:0000a444       ??_C@_15CPKMFBDB@?$AAs?$AAk?$AA?$AA@ 1006f444     libucrt:lcidtoname_downlevel.obj
 0002:0000a44c       ??_C@_15BAAIOGMK@?$AAs?$AAq?$AA?$AA@ 1006f44c     libucrt:lcidtoname_downlevel.obj
 0002:0000a454       ??_C@_15INNPNOHD@?$AAs?$AAv?$AA?$AA@ 1006f454     libucrt:lcidtoname_downlevel.obj
 0002:0000a45c       ??_C@_15CABMMOGH@?$AAt?$AAh?$AA?$AA@ 1006f45c     libucrt:lcidtoname_downlevel.obj
 0002:0000a464       ??_C@_15BPLIHJJM@?$AAt?$AAr?$AA?$AA@ 1006f464     libucrt:lcidtoname_downlevel.obj
 0002:0000a46c       ??_C@_15NEOEKKDJ@?$AAu?$AAr?$AA?$AA@ 1006f46c     libucrt:lcidtoname_downlevel.obj
 0002:0000a474       ??_C@_15NFICGAJK@?$AAi?$AAd?$AA?$AA@ 1006f474     libucrt:lcidtoname_downlevel.obj
 0002:0000a47c       ??_C@_15PJPFLCCM@?$AAu?$AAk?$AA?$AA@ 1006f47c     libucrt:lcidtoname_downlevel.obj
 0002:0000a484       ??_C@_15HPJPHDM@?$AAb?$AAe?$AA?$AA@ 1006f484     libucrt:lcidtoname_downlevel.obj
 0002:0000a48c       ??_C@_15LCHLGJII@?$AAs?$AAl?$AA?$AA@ 1006f48c     libucrt:lcidtoname_downlevel.obj
 0002:0000a494       ??_C@_15PCFJPHHO@?$AAe?$AAt?$AA?$AA@ 1006f494     libucrt:lcidtoname_downlevel.obj
 0002:0000a49c       ??_C@_15HPFPGODN@?$AAl?$AAv?$AA?$AA@ 1006f49c     libucrt:lcidtoname_downlevel.obj
 0002:0000a4a4       ??_C@_15NFFGKGLG@?$AAl?$AAt?$AA?$AA@ 1006f4a4     libucrt:lcidtoname_downlevel.obj
 0002:0000a4ac       ??_C@_15BDAKCCHN@?$AAf?$AAa?$AA?$AA@ 1006f4ac     libucrt:lcidtoname_downlevel.obj
 0002:0000a4b4       ??_C@_15NFGIAIAJ@?$AAv?$AAi?$AA?$AA@ 1006f4b4     libucrt:lcidtoname_downlevel.obj
 0002:0000a4bc       ??_C@_15LMKNDMHN@?$AAh?$AAy?$AA?$AA@ 1006f4bc     libucrt:lcidtoname_downlevel.obj
 0002:0000a4c4       ??_C@_15IJBHMCFL@?$AAa?$AAz?$AA?$AA@ 1006f4c4     libucrt:lcidtoname_downlevel.obj
 0002:0000a4cc       ??_C@_15EKOFJABL@?$AAe?$AAu?$AA?$AA@ 1006f4cc     libucrt:lcidtoname_downlevel.obj
 0002:0000a4d4       ??_C@_15BGHADCNK@?$AAm?$AAk?$AA?$AA@ 1006f4d4     libucrt:lcidtoname_downlevel.obj
 0002:0000a4dc       ??_C@_15JDNICKHM@?$AAa?$AAf?$AA?$AA@ 1006f4dc     libucrt:lcidtoname_downlevel.obj
 0002:0000a4e4       ??_C@_15KPJEDBKD@?$AAk?$AAa?$AA?$AA@ 1006f4e4     libucrt:lcidtoname_downlevel.obj
 0002:0000a4ec       ??_C@_15PDNFFFEO@?$AAf?$AAo?$AA?$AA@ 1006f4ec     libucrt:lcidtoname_downlevel.obj
 0002:0000a4f4       ??_C@_15OMLEGLOC@?$AAh?$AAi?$AA?$AA@ 1006f4f4     libucrt:lcidtoname_downlevel.obj
 0002:0000a4fc       ??_C@_15IDNNENKK@?$AAm?$AAs?$AA?$AA@ 1006f4fc     libucrt:lcidtoname_downlevel.obj
 0002:0000a504       ??_C@_15MACJNBMH@?$AAk?$AAk?$AA?$AA@ 1006f504     libucrt:lcidtoname_downlevel.obj
 0002:0000a50c       ??_C@_15DKDJEOND@?$AAk?$AAy?$AA?$AA@ 1006f50c     libucrt:lcidtoname_downlevel.obj
 0002:0000a514       ??_C@_15DFGDLJBG@?$AAs?$AAw?$AA?$AA@ 1006f514     libucrt:lcidtoname_downlevel.obj
 0002:0000a51c       ??_C@_15BBFAICNG@?$AAu?$AAz?$AA?$AA@ 1006f51c     libucrt:lcidtoname_downlevel.obj
 0002:0000a524       ??_C@_15DKNDCGEA@?$AAt?$AAt?$AA?$AA@ 1006f524     libucrt:lcidtoname_downlevel.obj
 0002:0000a52c       ??_C@_15MGIFMDPL@?$AAp?$AAa?$AA?$AA@ 1006f52c     libucrt:lcidtoname_downlevel.obj
 0002:0000a534       ??_C@_15HCNDBBA@?$AAg?$AAu?$AA?$AA@ 1006f534     libucrt:lcidtoname_downlevel.obj
 0002:0000a53c       ??_C@_15FNBEIBON@?$AAt?$AAa?$AA?$AA@ 1006f53c     libucrt:lcidtoname_downlevel.obj
 0002:0000a544       ??_C@_15NCHGBGLK@?$AAt?$AAe?$AA?$AA@ 1006f544     libucrt:lcidtoname_downlevel.obj
 0002:0000a54c       ??_C@_15PHPHCBPF@?$AAk?$AAn?$AA?$AA@ 1006f54c     libucrt:lcidtoname_downlevel.obj
 0002:0000a554       ??_C@_15DLGBCKMP@?$AAm?$AAr?$AA?$AA@ 1006f554     libucrt:lcidtoname_downlevel.obj
 0002:0000a55c       ??_C@_15EABBLBFF@?$AAs?$AAa?$AA?$AA@ 1006f55c     libucrt:lcidtoname_downlevel.obj
 0002:0000a564       ??_C@_15CBKOMCOI@?$AAm?$AAn?$AA?$AA@ 1006f564     libucrt:lcidtoname_downlevel.obj
 0002:0000a56c       ??_C@_15CKDMCJAF@?$AAg?$AAl?$AA?$AA@ 1006f56c     libucrt:lcidtoname_downlevel.obj
 0002:0000a574       ??_C@_17CNJFBPG@?$AAk?$AAo?$AAk?$AA?$AA@ 1006f574     libucrt:lcidtoname_downlevel.obj
 0002:0000a580       ??_C@_17FFBJICPL@?$AAs?$AAy?$AAr?$AA?$AA@ 1006f580     libucrt:lcidtoname_downlevel.obj
 0002:0000a58c       ??_C@_17KPNDCPAF@?$AAd?$AAi?$AAv?$AA?$AA@ 1006f58c     libucrt:lcidtoname_downlevel.obj
 0002:0000a598       ??_C@_11LOCGONAA@?$AA?$AA@ 1006f598     libucrt:lcidtoname_downlevel.obj
 0002:0000a59c       ??_C@_1M@OKAHONE@?$AAa?$AAr?$AA?9?$AAS?$AAA?$AA?$AA@ 1006f59c     libucrt:lcidtoname_downlevel.obj
 0002:0000a5ac       ??_C@_1M@FFFIGIGK@?$AAb?$AAg?$AA?9?$AAB?$AAG?$AA?$AA@ 1006f5ac     libucrt:lcidtoname_downlevel.obj
 0002:0000a5bc       ??_C@_1M@BJNKEDC@?$AAc?$AAa?$AA?9?$AAE?$AAS?$AA?$AA@ 1006f5bc     libucrt:lcidtoname_downlevel.obj
 0002:0000a5cc       ??_C@_1M@IJJHFJHA@?$AAc?$AAs?$AA?9?$AAC?$AAZ?$AA?$AA@ 1006f5cc     libucrt:lcidtoname_downlevel.obj
 0002:0000a5dc       ??_C@_1M@CLPEOBGI@?$AAd?$AAa?$AA?9?$AAD?$AAK?$AA?$AA@ 1006f5dc     libucrt:lcidtoname_downlevel.obj
 0002:0000a5ec       ??_C@_1M@MCMADGCB@?$AAd?$AAe?$AA?9?$AAD?$AAE?$AA?$AA@ 1006f5ec     libucrt:lcidtoname_downlevel.obj
 0002:0000a5fc       ??_C@_1M@OOCKEMAM@?$AAe?$AAl?$AA?9?$AAG?$AAR?$AA?$AA@ 1006f5fc     libucrt:lcidtoname_downlevel.obj
 0002:0000a60c       ??_C@_1M@DDNJFGID@?$AAf?$AAi?$AA?9?$AAF?$AAI?$AA?$AA@ 1006f60c     libucrt:lcidtoname_downlevel.obj
 0002:0000a61c       ??_C@_1M@GLIPPMAC@?$AAf?$AAr?$AA?9?$AAF?$AAR?$AA?$AA@ 1006f61c     libucrt:lcidtoname_downlevel.obj
 0002:0000a62c       ??_C@_1M@GFMCHPE@?$AAh?$AAe?$AA?9?$AAI?$AAL?$AA?$AA@ 1006f62c     libucrt:lcidtoname_downlevel.obj
 0002:0000a63c       ??_C@_1M@MHLPGNKM@?$AAh?$AAu?$AA?9?$AAH?$AAU?$AA?$AA@ 1006f63c     libucrt:lcidtoname_downlevel.obj
 0002:0000a64c       ??_C@_1M@LPDDNNPN@?$AAi?$AAs?$AA?9?$AAI?$AAS?$AA?$AA@ 1006f64c     libucrt:lcidtoname_downlevel.obj
 0002:0000a65c       ??_C@_1M@MADIPODN@?$AAi?$AAt?$AA?9?$AAI?$AAT?$AA?$AA@ 1006f65c     libucrt:lcidtoname_downlevel.obj
 0002:0000a66c       ??_C@_1M@IHBJJGG@?$AAn?$AAl?$AA?9?$AAN?$AAL?$AA?$AA@ 1006f66c     libucrt:lcidtoname_downlevel.obj
 0002:0000a67c       ??_C@_1M@EANAGDL@?$AAn?$AAb?$AA?9?$AAN?$AAO?$AA?$AA@ 1006f67c     libucrt:lcidtoname_downlevel.obj
 0002:0000a68c       ??_C@_1M@NEIEMEGP@?$AAp?$AAl?$AA?9?$AAP?$AAL?$AA?$AA@ 1006f68c     libucrt:lcidtoname_downlevel.obj
 0002:0000a69c       ??_C@_1M@BOCFIGEP@?$AAp?$AAt?$AA?9?$AAB?$AAR?$AA?$AA@ 1006f69c     libucrt:lcidtoname_downlevel.obj
 0002:0000a6ac       ??_C@_1M@IMPFOPBG@?$AAr?$AAo?$AA?9?$AAR?$AAO?$AA?$AA@ 1006f6ac     libucrt:lcidtoname_downlevel.obj
 0002:0000a6bc       ??_C@_1M@IDNNEJMM@?$AAr?$AAu?$AA?9?$AAR?$AAU?$AA?$AA@ 1006f6bc     libucrt:lcidtoname_downlevel.obj
 0002:0000a6cc       ??_C@_1M@LILEEOGM@?$AAh?$AAr?$AA?9?$AAH?$AAR?$AA?$AA@ 1006f6cc     libucrt:lcidtoname_downlevel.obj
 0002:0000a6dc       ??_C@_1M@FKIFEHPB@?$AAs?$AAk?$AA?9?$AAS?$AAK?$AA?$AA@ 1006f6dc     libucrt:lcidtoname_downlevel.obj
 0002:0000a6ec       ??_C@_1M@LJMAMNPJ@?$AAs?$AAq?$AA?9?$AAA?$AAL?$AA?$AA@ 1006f6ec     libucrt:lcidtoname_downlevel.obj
 0002:0000a6fc       ??_C@_1M@GIAKDKJK@?$AAs?$AAv?$AA?9?$AAS?$AAE?$AA?$AA@ 1006f6fc     libucrt:lcidtoname_downlevel.obj
 0002:0000a70c       ??_C@_1M@MKJKIKCL@?$AAt?$AAh?$AA?9?$AAT?$AAH?$AA?$AA@ 1006f70c     libucrt:lcidtoname_downlevel.obj
 0002:0000a71c       ??_C@_1M@MFLCCMPB@?$AAt?$AAr?$AA?9?$AAT?$AAR?$AA?$AA@ 1006f71c     libucrt:lcidtoname_downlevel.obj
 0002:0000a72c       ??_C@_1M@OIJHDKJN@?$AAu?$AAr?$AA?9?$AAP?$AAK?$AA?$AA@ 1006f72c     libucrt:lcidtoname_downlevel.obj
 0002:0000a73c       ??_C@_1M@LHIPCIEK@?$AAi?$AAd?$AA?9?$AAI?$AAD?$AA?$AA@ 1006f73c     libucrt:lcidtoname_downlevel.obj
 0002:0000a74c       ??_C@_1M@MFMOBGI@?$AAu?$AAk?$AA?9?$AAU?$AAA?$AA?$AA@ 1006f74c     libucrt:lcidtoname_downlevel.obj
 0002:0000a75c       ??_C@_1M@OBGLJIPL@?$AAb?$AAe?$AA?9?$AAB?$AAY?$AA?$AA@ 1006f75c     libucrt:lcidtoname_downlevel.obj
 0002:0000a76c       ??_C@_1M@BCFAJEAD@?$AAs?$AAl?$AA?9?$AAS?$AAI?$AA?$AA@ 1006f76c     libucrt:lcidtoname_downlevel.obj
 0002:0000a77c       ??_C@_1M@FKFFEDDN@?$AAe?$AAt?$AA?9?$AAE?$AAE?$AA?$AA@ 1006f77c     libucrt:lcidtoname_downlevel.obj
 0002:0000a78c       ??_C@_1M@KGKKAACI@?$AAl?$AAv?$AA?9?$AAL?$AAV?$AA?$AA@ 1006f78c     libucrt:lcidtoname_downlevel.obj
 0002:0000a79c       ??_C@_1M@IFGBIJO@?$AAl?$AAt?$AA?9?$AAL?$AAT?$AA?$AA@ 1006f79c     libucrt:lcidtoname_downlevel.obj
 0002:0000a7ac       ??_C@_1M@FGEAHEDM@?$AAf?$AAa?$AA?9?$AAI?$AAR?$AA?$AA@ 1006f7ac     libucrt:lcidtoname_downlevel.obj
 0002:0000a7bc       ??_C@_1M@KBMAIBFN@?$AAv?$AAi?$AA?9?$AAV?$AAN?$AA?$AA@ 1006f7bc     libucrt:lcidtoname_downlevel.obj
 0002:0000a7cc       ??_C@_1M@GPCBKDJK@?$AAh?$AAy?$AA?9?$AAA?$AAM?$AA?$AA@ 1006f7cc     libucrt:lcidtoname_downlevel.obj
 0002:0000a7dc       ??_C@_1BG@BECMDDJB@?$AAa?$AAz?$AA?9?$AAA?$AAZ?$AA?9?$AAL?$AAa?$AAt?$AAn?$AA?$AA@ 1006f7dc     libucrt:lcidtoname_downlevel.obj
 0002:0000a7f8       ??_C@_1M@MAOFCAEA@?$AAe?$AAu?$AA?9?$AAE?$AAS?$AA?$AA@ 1006f7f8     libucrt:lcidtoname_downlevel.obj
 0002:0000a808       ??_C@_1M@IGHABKPI@?$AAm?$AAk?$AA?9?$AAM?$AAK?$AA?$AA@ 1006f808     libucrt:lcidtoname_downlevel.obj
 0002:0000a818       ??_C@_1M@IAIGNEJG@?$AAt?$AAn?$AA?9?$AAZ?$AAA?$AA?$AA@ 1006f818     libucrt:lcidtoname_downlevel.obj
 0002:0000a828       ??_C@_1M@IIJCOJFA@?$AAx?$AAh?$AA?9?$AAZ?$AAA?$AA?$AA@ 1006f828     libucrt:lcidtoname_downlevel.obj
 0002:0000a838       ??_C@_1M@LGPJHNJH@?$AAz?$AAu?$AA?9?$AAZ?$AAA?$AA?$AA@ 1006f838     libucrt:lcidtoname_downlevel.obj
 0002:0000a848       ??_C@_1M@HOKAOIO@?$AAa?$AAf?$AA?9?$AAZ?$AAA?$AA?$AA@ 1006f848     libucrt:lcidtoname_downlevel.obj
 0002:0000a858       ??_C@_1M@DPCLHLIE@?$AAk?$AAa?$AA?9?$AAG?$AAE?$AA?$AA@ 1006f858     libucrt:lcidtoname_downlevel.obj
 0002:0000a868       ??_C@_1M@BLKMHJBI@?$AAf?$AAo?$AA?9?$AAF?$AAO?$AA?$AA@ 1006f868     libucrt:lcidtoname_downlevel.obj
 0002:0000a878       ??_C@_1M@LGGJAPPB@?$AAh?$AAi?$AA?9?$AAI?$AAN?$AA?$AA@ 1006f878     libucrt:lcidtoname_downlevel.obj
 0002:0000a888       ??_C@_1M@FIKPIHFE@?$AAm?$AAt?$AA?9?$AAM?$AAT?$AA?$AA@ 1006f888     libucrt:lcidtoname_downlevel.obj
 0002:0000a898       ??_C@_1M@HEGGPBFA@?$AAs?$AAe?$AA?9?$AAN?$AAO?$AA?$AA@ 1006f898     libucrt:lcidtoname_downlevel.obj
 0002:0000a8a8       ??_C@_1M@EIBJEEPA@?$AAm?$AAs?$AA?9?$AAM?$AAY?$AA?$AA@ 1006f8a8     libucrt:lcidtoname_downlevel.obj
 0002:0000a8b8       ??_C@_1M@FHLBGMPP@?$AAk?$AAk?$AA?9?$AAK?$AAZ?$AA?$AA@ 1006f8b8     libucrt:lcidtoname_downlevel.obj
 0002:0000a8c8       ??_C@_1M@NGJJLCGI@?$AAk?$AAy?$AA?9?$AAK?$AAG?$AA?$AA@ 1006f8c8     libucrt:lcidtoname_downlevel.obj
 0002:0000a8d8       ??_C@_1M@GIENNBFC@?$AAs?$AAw?$AA?9?$AAK?$AAE?$AA?$AA@ 1006f8d8     libucrt:lcidtoname_downlevel.obj
 0002:0000a8e8       ??_C@_1BG@NDGMJIMJ@?$AAu?$AAz?$AA?9?$AAU?$AAZ?$AA?9?$AAL?$AAa?$AAt?$AAn?$AA?$AA@ 1006f8e8     libucrt:lcidtoname_downlevel.obj
 0002:0000a904       ??_C@_1M@IDCCIHBC@?$AAt?$AAt?$AA?9?$AAR?$AAU?$AA?$AA@ 1006f904     libucrt:lcidtoname_downlevel.obj
 0002:0000a914       ??_C@_1M@LOICPMOJ@?$AAb?$AAn?$AA?9?$AAI?$AAN?$AA?$AA@ 1006f914     libucrt:lcidtoname_downlevel.obj
 0002:0000a924       ??_C@_1M@KPKKNEAH@?$AAp?$AAa?$AA?9?$AAI?$AAN?$AA?$AA@ 1006f924     libucrt:lcidtoname_downlevel.obj
 0002:0000a934       ??_C@_1M@PJGPPBOG@?$AAg?$AAu?$AA?9?$AAI?$AAN?$AA?$AA@ 1006f934     libucrt:lcidtoname_downlevel.obj
 0002:0000a944       ??_C@_1M@KMKMOPHI@?$AAt?$AAa?$AA?9?$AAI?$AAN?$AA?$AA@ 1006f944     libucrt:lcidtoname_downlevel.obj
 0002:0000a954       ??_C@_1M@KFEHEPAC@?$AAt?$AAe?$AA?9?$AAI?$AAN?$AA?$AA@ 1006f954     libucrt:lcidtoname_downlevel.obj
 0002:0000a964       ??_C@_1M@CDCLMGHI@?$AAk?$AAn?$AA?9?$AAI?$AAN?$AA?$AA@ 1006f964     libucrt:lcidtoname_downlevel.obj
 0002:0000a974       ??_C@_1M@MIODLDKF@?$AAm?$AAl?$AA?9?$AAI?$AAN?$AA?$AA@ 1006f974     libucrt:lcidtoname_downlevel.obj
 0002:0000a984       ??_C@_1M@PBIEACPO@?$AAm?$AAr?$AA?9?$AAI?$AAN?$AA?$AA@ 1006f984     libucrt:lcidtoname_downlevel.obj
 0002:0000a994       ??_C@_1M@NIDEAGPH@?$AAs?$AAa?$AA?9?$AAI?$AAN?$AA?$AA@ 1006f994     libucrt:lcidtoname_downlevel.obj
 0002:0000a9a4       ??_C@_1M@FHIHCBIO@?$AAm?$AAn?$AA?9?$AAM?$AAN?$AA?$AA@ 1006f9a4     libucrt:lcidtoname_downlevel.obj
 0002:0000a9b4       ??_C@_1M@JAIJPENP@?$AAc?$AAy?$AA?9?$AAG?$AAB?$AA?$AA@ 1006f9b4     libucrt:lcidtoname_downlevel.obj
 0002:0000a9c4       ??_C@_1M@PHGFBEPN@?$AAg?$AAl?$AA?9?$AAE?$AAS?$AA?$AA@ 1006f9c4     libucrt:lcidtoname_downlevel.obj
 0002:0000a9d4       ??_C@_1O@KPIPDNCP@?$AAk?$AAo?$AAk?$AA?9?$AAI?$AAN?$AA?$AA@ 1006f9d4     libucrt:lcidtoname_downlevel.obj
 0002:0000a9e4       ??_C@_1O@KNHJLDJA@?$AAs?$AAy?$AAr?$AA?9?$AAS?$AAY?$AA?$AA@ 1006f9e4     libucrt:lcidtoname_downlevel.obj
 0002:0000a9f4       ??_C@_1O@MKEKBLAH@?$AAd?$AAi?$AAv?$AA?9?$AAM?$AAV?$AA?$AA@ 1006f9f4     libucrt:lcidtoname_downlevel.obj
 0002:0000aa04       ??_C@_1O@OHDCKDDF@?$AAq?$AAu?$AAz?$AA?9?$AAB?$AAO?$AA?$AA@ 1006fa04     libucrt:lcidtoname_downlevel.obj
 0002:0000aa14       ??_C@_1M@LEPJNLFD@?$AAn?$AAs?$AA?9?$AAZ?$AAA?$AA?$AA@ 1006fa14     libucrt:lcidtoname_downlevel.obj
 0002:0000aa24       ??_C@_1M@OMLEIIJB@?$AAm?$AAi?$AA?9?$AAN?$AAZ?$AA?$AA@ 1006fa24     libucrt:lcidtoname_downlevel.obj
 0002:0000aa34       ??_C@_1M@PMPEAILG@?$AAa?$AAr?$AA?9?$AAI?$AAQ?$AA?$AA@ 1006fa34     libucrt:lcidtoname_downlevel.obj
 0002:0000aa44       ??_C@_1M@CNKPNOEE@?$AAd?$AAe?$AA?9?$AAC?$AAH?$AA?$AA@ 1006fa44     libucrt:lcidtoname_downlevel.obj
 0002:0000aa54       ??_C@_1M@LKMGMLKO@?$AAe?$AAn?$AA?9?$AAG?$AAB?$AA?$AA@ 1006fa54     libucrt:lcidtoname_downlevel.obj
 0002:0000aa64       ??_C@_1M@PGKJFFGL@?$AAe?$AAs?$AA?9?$AAM?$AAX?$AA?$AA@ 1006fa64     libucrt:lcidtoname_downlevel.obj
 0002:0000aa74       ??_C@_1M@DNNANBDC@?$AAf?$AAr?$AA?9?$AAB?$AAE?$AA?$AA@ 1006fa74     libucrt:lcidtoname_downlevel.obj
 0002:0000aa84       ??_C@_1M@HLGMDFHM@?$AAi?$AAt?$AA?9?$AAC?$AAH?$AA?$AA@ 1006fa84     libucrt:lcidtoname_downlevel.obj
 0002:0000aa94       ??_C@_1M@CLLBGJH@?$AAn?$AAl?$AA?9?$AAB?$AAE?$AA?$AA@ 1006fa94     libucrt:lcidtoname_downlevel.obj
 0002:0000aaa4       ??_C@_1M@BODBOGLF@?$AAn?$AAn?$AA?9?$AAN?$AAO?$AA?$AA@ 1006faa4     libucrt:lcidtoname_downlevel.obj
 0002:0000aab4       ??_C@_1M@HFFAHKAD@?$AAp?$AAt?$AA?9?$AAP?$AAT?$AA?$AA@ 1006fab4     libucrt:lcidtoname_downlevel.obj
 0002:0000aac4       ??_C@_1BG@LNOAKHIE@?$AAs?$AAr?$AA?9?$AAS?$AAP?$AA?9?$AAL?$AAa?$AAt?$AAn?$AA?$AA@ 1006fac4     libucrt:lcidtoname_downlevel.obj
 0002:0000aae0       ??_C@_1M@HBMHBGAK@?$AAs?$AAv?$AA?9?$AAF?$AAI?$AA?$AA@ 1006fae0     libucrt:lcidtoname_downlevel.obj
 0002:0000aaf0       ??_C@_1BG@DGCJGJBE@?$AAa?$AAz?$AA?9?$AAA?$AAZ?$AA?9?$AAC?$AAy?$AAr?$AAl?$AA?$AA@ 1006faf0     libucrt:lcidtoname_downlevel.obj
 0002:0000ab0c       ??_C@_1M@KEJDAAHB@?$AAs?$AAe?$AA?9?$AAS?$AAE?$AA?$AA@ 1006fb0c     libucrt:lcidtoname_downlevel.obj
 0002:0000ab1c       ??_C@_1M@HEIBJJAD@?$AAm?$AAs?$AA?9?$AAB?$AAN?$AA?$AA@ 1006fb1c     libucrt:lcidtoname_downlevel.obj
 0002:0000ab2c       ??_C@_1BG@PBGJMCEM@?$AAu?$AAz?$AA?9?$AAU?$AAZ?$AA?9?$AAC?$AAy?$AAr?$AAl?$AA?$AA@ 1006fb2c     libucrt:lcidtoname_downlevel.obj
 0002:0000ab48       ??_C@_1O@LAOBCMDF@?$AAq?$AAu?$AAz?$AA?9?$AAE?$AAC?$AA?$AA@ 1006fb48     libucrt:lcidtoname_downlevel.obj
 0002:0000ab58       ??_C@_1M@POEEMAIO@?$AAa?$AAr?$AA?9?$AAE?$AAG?$AA?$AA@ 1006fb58     libucrt:lcidtoname_downlevel.obj
 0002:0000ab68       ??_C@_1M@EFAKDEDL@?$AAz?$AAh?$AA?9?$AAH?$AAK?$AA?$AA@ 1006fb68     libucrt:lcidtoname_downlevel.obj
 0002:0000ab78       ??_C@_1M@HKKIJHGI@?$AAd?$AAe?$AA?9?$AAA?$AAT?$AA?$AA@ 1006fb78     libucrt:lcidtoname_downlevel.obj
 0002:0000ab88       ??_C@_1M@KBFBEHJF@?$AAe?$AAn?$AA?9?$AAA?$AAU?$AA?$AA@ 1006fb88     libucrt:lcidtoname_downlevel.obj
 0002:0000ab98       ??_C@_1M@MNPLFAAH@?$AAe?$AAs?$AA?9?$AAE?$AAS?$AA?$AA@ 1006fb98     libucrt:lcidtoname_downlevel.obj
 0002:0000aba8       ??_C@_1M@HJOOJFMA@?$AAf?$AAr?$AA?9?$AAC?$AAA?$AA?$AA@ 1006fba8     libucrt:lcidtoname_downlevel.obj
 0002:0000abb8       ??_C@_1BG@JPOFPNAB@?$AAs?$AAr?$AA?9?$AAS?$AAP?$AA?9?$AAC?$AAy?$AAr?$AAl?$AA?$AA@ 1006fbb8     libucrt:lcidtoname_downlevel.obj
 0002:0000abd4       ??_C@_1M@LNFOCMOB@?$AAs?$AAe?$AA?9?$AAF?$AAI?$AA?$AA@ 1006fbd4     libucrt:lcidtoname_downlevel.obj
 0002:0000abe4       ??_C@_1O@MGJBOAMB@?$AAq?$AAu?$AAz?$AA?9?$AAP?$AAE?$AA?$AA@ 1006fbe4     libucrt:lcidtoname_downlevel.obj
 0002:0000abf4       ??_C@_1M@GJINLBOK@?$AAa?$AAr?$AA?9?$AAL?$AAY?$AA?$AA@ 1006fbf4     libucrt:lcidtoname_downlevel.obj
 0002:0000ac04       ??_C@_1M@GGMNHJNL@?$AAz?$AAh?$AA?9?$AAS?$AAG?$AA?$AA@ 1006fc04     libucrt:lcidtoname_downlevel.obj
 0002:0000ac14       ??_C@_1M@HOIKODND@?$AAd?$AAe?$AA?9?$AAL?$AAU?$AA?$AA@ 1006fc14     libucrt:lcidtoname_downlevel.obj
 0002:0000ac24       ??_C@_1M@DDOCCGFG@?$AAe?$AAn?$AA?9?$AAC?$AAA?$AA?$AA@ 1006fc24     libucrt:lcidtoname_downlevel.obj
 0002:0000ac34       ??_C@_1M@BNOEMJLF@?$AAe?$AAs?$AA?9?$AAG?$AAT?$AA?$AA@ 1006fc34     libucrt:lcidtoname_downlevel.obj
 0002:0000ac44       ??_C@_1M@EOGNKEK@?$AAf?$AAr?$AA?9?$AAC?$AAH?$AA?$AA@ 1006fc44     libucrt:lcidtoname_downlevel.obj
 0002:0000ac54       ??_C@_1M@FLIDJFHL@?$AAh?$AAr?$AA?9?$AAB?$AAA?$AA?$AA@ 1006fc54     libucrt:lcidtoname_downlevel.obj
 0002:0000ac64       ??_C@_1O@FMCELNAJ@?$AAs?$AAm?$AAj?$AA?9?$AAN?$AAO?$AA?$AA@ 1006fc64     libucrt:lcidtoname_downlevel.obj
 0002:0000ac74       ??_C@_1M@JHGLJMGJ@?$AAa?$AAr?$AA?9?$AAD?$AAZ?$AA?$AA@ 1006fc74     libucrt:lcidtoname_downlevel.obj
 0002:0000ac84       ??_C@_1M@JKKFDCNP@?$AAz?$AAh?$AA?9?$AAM?$AAO?$AA?$AA@ 1006fc84     libucrt:lcidtoname_downlevel.obj
 0002:0000ac94       ??_C@_1M@GEEFALPE@?$AAd?$AAe?$AA?9?$AAL?$AAI?$AA?$AA@ 1006fc94     libucrt:lcidtoname_downlevel.obj
 0002:0000aca4       ??_C@_1M@IGEOFBG@?$AAe?$AAn?$AA?9?$AAN?$AAZ?$AA?$AA@ 1006fca4     libucrt:lcidtoname_downlevel.obj
 0002:0000acb4       ??_C@_1M@KDBONEHP@?$AAe?$AAs?$AA?9?$AAC?$AAR?$AA?$AA@ 1006fcb4     libucrt:lcidtoname_downlevel.obj
 0002:0000acc4       ??_C@_1M@FHMDOHNN@?$AAf?$AAr?$AA?9?$AAL?$AAU?$AA?$AA@ 1006fcc4     libucrt:lcidtoname_downlevel.obj
 0002:0000acd4       ??_C@_1BG@NFKKMAFG@?$AAb?$AAs?$AA?9?$AAB?$AAA?$AA?9?$AAL?$AAa?$AAt?$AAn?$AA?$AA@ 1006fcd4     libucrt:lcidtoname_downlevel.obj
 0002:0000acf0       ??_C@_1O@IMNBEMCI@?$AAs?$AAm?$AAj?$AA?9?$AAS?$AAE?$AA?$AA@ 1006fcf0     libucrt:lcidtoname_downlevel.obj
 0002:0000ad00       ??_C@_1M@DHHMBNDP@?$AAa?$AAr?$AA?9?$AAM?$AAA?$AA?$AA@ 1006fd00     libucrt:lcidtoname_downlevel.obj
 0002:0000ad10       ??_C@_1M@BNBLJCGH@?$AAe?$AAn?$AA?9?$AAI?$AAE?$AA?$AA@ 1006fd10     libucrt:lcidtoname_downlevel.obj
 0002:0000ad20       ??_C@_1M@GEPAFMDL@?$AAe?$AAs?$AA?9?$AAP?$AAA?$AA?$AA@ 1006fd20     libucrt:lcidtoname_downlevel.obj
 0002:0000ad30       ??_C@_1M@OJONDMDL@?$AAf?$AAr?$AA?9?$AAM?$AAC?$AA?$AA@ 1006fd30     libucrt:lcidtoname_downlevel.obj
 0002:0000ad40       ??_C@_1BG@OBCNFJB@?$AAs?$AAr?$AA?9?$AAB?$AAA?$AA?9?$AAL?$AAa?$AAt?$AAn?$AA?$AA@ 1006fd40     libucrt:lcidtoname_downlevel.obj
 0002:0000ad5c       ??_C@_1O@KEMEEGPO@?$AAs?$AAm?$AAa?$AA?9?$AAN?$AAO?$AA?$AA@ 1006fd5c     libucrt:lcidtoname_downlevel.obj
 0002:0000ad6c       ??_C@_1M@ELMGFODK@?$AAa?$AAr?$AA?9?$AAT?$AAN?$AA?$AA@ 1006fd6c     libucrt:lcidtoname_downlevel.obj
 0002:0000ad7c       ??_C@_1M@BHDLHFAF@?$AAe?$AAn?$AA?9?$AAZ?$AAA?$AA?$AA@ 1006fd7c     libucrt:lcidtoname_downlevel.obj
 0002:0000ad8c       ??_C@_1M@BMGIGLIF@?$AAe?$AAs?$AA?9?$AAD?$AAO?$AA?$AA@ 1006fd8c     libucrt:lcidtoname_downlevel.obj
 0002:0000ad9c       ??_C@_1BG@CMBHIPBE@?$AAs?$AAr?$AA?9?$AAB?$AAA?$AA?9?$AAC?$AAy?$AAr?$AAl?$AA?$AA@ 1006fd9c     libucrt:lcidtoname_downlevel.obj
 0002:0000adb8       ??_C@_1O@HEDBLHNP@?$AAs?$AAm?$AAa?$AA?9?$AAS?$AAE?$AA?$AA@ 1006fdb8     libucrt:lcidtoname_downlevel.obj
 0002:0000adc8       ??_C@_1M@DAGCADIM@?$AAa?$AAr?$AA?9?$AAO?$AAM?$AA?$AA@ 1006fdc8     libucrt:lcidtoname_downlevel.obj
 0002:0000add8       ??_C@_1M@FODLMICG@?$AAe?$AAn?$AA?9?$AAJ?$AAM?$AA?$AA@ 1006fdd8     libucrt:lcidtoname_downlevel.obj
 0002:0000ade8       ??_C@_1M@DNMLCIHB@?$AAe?$AAs?$AA?9?$AAV?$AAE?$AA?$AA@ 1006fde8     libucrt:lcidtoname_downlevel.obj
 0002:0000adf8       ??_C@_1O@EOKHMKJK@?$AAs?$AAm?$AAs?$AA?9?$AAF?$AAI?$AA?$AA@ 1006fdf8     libucrt:lcidtoname_downlevel.obj
 0002:0000ae08       ??_C@_1M@CAFJMKOF@?$AAa?$AAr?$AA?9?$AAY?$AAE?$AA?$AA@ 1006fe08     libucrt:lcidtoname_downlevel.obj
 0002:0000ae18       ??_C@_1M@CBFHIJLI@?$AAe?$AAn?$AA?9?$AAC?$AAB?$AA?$AA@ 1006fe18     libucrt:lcidtoname_downlevel.obj
 0002:0000ae28       ??_C@_1M@BGNFLDN@?$AAe?$AAs?$AA?9?$AAC?$AAO?$AA?$AA@ 1006fe28     libucrt:lcidtoname_downlevel.obj
 0002:0000ae38       ??_C@_1O@JMPHMAMC@?$AAs?$AAm?$AAn?$AA?9?$AAF?$AAI?$AA?$AA@ 1006fe38     libucrt:lcidtoname_downlevel.obj
 0002:0000ae48       ??_C@_1M@JLANABKE@?$AAa?$AAr?$AA?9?$AAS?$AAY?$AA?$AA@ 1006fe48     libucrt:lcidtoname_downlevel.obj
 0002:0000ae58       ??_C@_1M@HPKGCFGN@?$AAe?$AAn?$AA?9?$AAB?$AAZ?$AA?$AA@ 1006fe58     libucrt:lcidtoname_downlevel.obj
 0002:0000ae68       ??_C@_1M@OLJCMLGM@?$AAe?$AAs?$AA?9?$AAP?$AAE?$AA?$AA@ 1006fe68     libucrt:lcidtoname_downlevel.obj
 0002:0000ae78       ??_C@_1M@MKKGFKLE@?$AAa?$AAr?$AA?9?$AAJ?$AAO?$AA?$AA@ 1006fe78     libucrt:lcidtoname_downlevel.obj
 0002:0000ae88       ??_C@_1M@EKPGLDNI@?$AAe?$AAn?$AA?9?$AAT?$AAT?$AA?$AA@ 1006fe88     libucrt:lcidtoname_downlevel.obj
 0002:0000ae98       ??_C@_1M@OONGHFHE@?$AAe?$AAs?$AA?9?$AAA?$AAR?$AA?$AA@ 1006fe98     libucrt:lcidtoname_downlevel.obj
 0002:0000aea8       ??_C@_1M@OOJFGBHE@?$AAa?$AAr?$AA?9?$AAL?$AAB?$AA?$AA@ 1006fea8     libucrt:lcidtoname_downlevel.obj
 0002:0000aeb8       ??_C@_1M@GCEJHNEG@?$AAe?$AAn?$AA?9?$AAZ?$AAW?$AA?$AA@ 1006feb8     libucrt:lcidtoname_downlevel.obj
 0002:0000aec8       ??_C@_1M@JNOCAHJI@?$AAe?$AAs?$AA?9?$AAE?$AAC?$AA?$AA@ 1006fec8     libucrt:lcidtoname_downlevel.obj
 0002:0000aed8       ??_C@_1M@JEFHPGGB@?$AAa?$AAr?$AA?9?$AAK?$AAW?$AA?$AA@ 1006fed8     libucrt:lcidtoname_downlevel.obj
 0002:0000aee8       ??_C@_1M@MLKIBJOJ@?$AAe?$AAn?$AA?9?$AAP?$AAH?$AA?$AA@ 1006fee8     libucrt:lcidtoname_downlevel.obj
 0002:0000aef8       ??_C@_1M@BDNIPEND@?$AAe?$AAs?$AA?9?$AAC?$AAL?$AA?$AA@ 1006fef8     libucrt:lcidtoname_downlevel.obj
 0002:0000af08       ??_C@_1M@MPNMEKBD@?$AAa?$AAr?$AA?9?$AAA?$AAE?$AA?$AA@ 1006ff08     libucrt:lcidtoname_downlevel.obj
 0002:0000af18       ??_C@_1M@KBJALCPI@?$AAe?$AAs?$AA?9?$AAU?$AAY?$AA?$AA@ 1006ff18     libucrt:lcidtoname_downlevel.obj
 0002:0000af28       ??_C@_1M@LLCCOAGA@?$AAa?$AAr?$AA?9?$AAB?$AAH?$AA?$AA@ 1006ff28     libucrt:lcidtoname_downlevel.obj
 0002:0000af38       ??_C@_1M@PBFNCDEL@?$AAe?$AAs?$AA?9?$AAP?$AAY?$AA?$AA@ 1006ff38     libucrt:lcidtoname_downlevel.obj
 0002:0000af48       ??_C@_1M@EDGINPNP@?$AAa?$AAr?$AA?9?$AAQ?$AAA?$AA?$AA@ 1006ff48     libucrt:lcidtoname_downlevel.obj
 0002:0000af58       ??_C@_1M@MKDBIIJI@?$AAe?$AAs?$AA?9?$AAB?$AAO?$AA?$AA@ 1006ff58     libucrt:lcidtoname_downlevel.obj
 0002:0000af68       ??_C@_1M@CPKKEBLD@?$AAe?$AAs?$AA?9?$AAS?$AAV?$AA?$AA@ 1006ff68     libucrt:lcidtoname_downlevel.obj
 0002:0000af78       ??_C@_1M@NDBGMMJL@?$AAe?$AAs?$AA?9?$AAH?$AAN?$AA?$AA@ 1006ff78     libucrt:lcidtoname_downlevel.obj
 0002:0000af88       ??_C@_1M@JIJIBHDP@?$AAe?$AAs?$AA?9?$AAN?$AAI?$AA?$AA@ 1006ff88     libucrt:lcidtoname_downlevel.obj
 0002:0000af98       ??_C@_1M@CGFMKEEK@?$AAe?$AAs?$AA?9?$AAP?$AAR?$AA?$AA@ 1006ff98     libucrt:lcidtoname_downlevel.obj
 0002:0000afa8       ??_C@_1O@ICJHKIIK@?$AAz?$AAh?$AA?9?$AAC?$AAH?$AAT?$AA?$AA@ 1006ffa8     libucrt:lcidtoname_downlevel.obj
 0002:0000afb8       ??_C@_15CLNEJCE@?$AAs?$AAr?$AA?$AA@ 1006ffb8     libucrt:lcidtoname_downlevel.obj
 0002:0000b84c       ??_C@_1M@KAHEKEIG@?$AAa?$AAf?$AA?9?$AAz?$AAa?$AA?$AA@ 1007084c     libucrt:lcidtoname_downlevel.obj
 0002:0000b85c       ??_C@_1M@GIECOABL@?$AAa?$AAr?$AA?9?$AAa?$AAe?$AA?$AA@ 1007085c     libucrt:lcidtoname_downlevel.obj
 0002:0000b86c       ??_C@_1M@BMLMEKGI@?$AAa?$AAr?$AA?9?$AAb?$AAh?$AA?$AA@ 1007086c     libucrt:lcidtoname_downlevel.obj
 0002:0000b87c       ??_C@_1M@DAPFDGGB@?$AAa?$AAr?$AA?9?$AAd?$AAz?$AA?$AA@ 1007087c     libucrt:lcidtoname_downlevel.obj
 0002:0000b88c       ??_C@_1M@FJNKGKIG@?$AAa?$AAr?$AA?9?$AAe?$AAg?$AA?$AA@ 1007088c     libucrt:lcidtoname_downlevel.obj
 0002:0000b89c       ??_C@_1M@FLGKKCLO@?$AAa?$AAr?$AA?9?$AAi?$AAq?$AA?$AA@ 1007089c     libucrt:lcidtoname_downlevel.obj
 0002:0000b8ac       ??_C@_1M@GNDIPALM@?$AAa?$AAr?$AA?9?$AAj?$AAo?$AA?$AA@ 100708ac     libucrt:lcidtoname_downlevel.obj
 0002:0000b8bc       ??_C@_1M@DDMJFMGJ@?$AAa?$AAr?$AA?9?$AAk?$AAw?$AA?$AA@ 100708bc     libucrt:lcidtoname_downlevel.obj
 0002:0000b8cc       ??_C@_1M@EJALMLHM@?$AAa?$AAr?$AA?9?$AAl?$AAb?$AA?$AA@ 100708cc     libucrt:lcidtoname_downlevel.obj
 0002:0000b8dc       ??_C@_1M@MOBDBLOC@?$AAa?$AAr?$AA?9?$AAl?$AAy?$AA?$AA@ 100708dc     libucrt:lcidtoname_downlevel.obj
 0002:0000b8ec       ??_C@_1M@JAOCLHDH@?$AAa?$AAr?$AA?9?$AAm?$AAa?$AA?$AA@ 100708ec     libucrt:lcidtoname_downlevel.obj
 0002:0000b8fc       ??_C@_1M@JHPMKJIE@?$AAa?$AAr?$AA?9?$AAo?$AAm?$AA?$AA@ 100708fc     libucrt:lcidtoname_downlevel.obj
 0002:0000b90c       ??_C@_1M@OEPGHFNH@?$AAa?$AAr?$AA?9?$AAq?$AAa?$AA?$AA@ 1007090c     libucrt:lcidtoname_downlevel.obj
 0002:0000b91c       ??_C@_1M@KJDONENM@?$AAa?$AAr?$AA?9?$AAs?$AAa?$AA?$AA@ 1007091c     libucrt:lcidtoname_downlevel.obj
 0002:0000b92c       ??_C@_1M@DMJDKLKM@?$AAa?$AAr?$AA?9?$AAs?$AAy?$AA?$AA@ 1007092c     libucrt:lcidtoname_downlevel.obj
 0002:0000b93c       ??_C@_1M@OMFIPEDC@?$AAa?$AAr?$AA?9?$AAt?$AAn?$AA?$AA@ 1007093c     libucrt:lcidtoname_downlevel.obj
 0002:0000b94c       ??_C@_1M@IHMHGAON@?$AAa?$AAr?$AA?9?$AAy?$AAe?$AA?$AA@ 1007094c     libucrt:lcidtoname_downlevel.obj
 0002:0000b95c       ??_C@_1BG@KDCPGJGB@?$AAa?$AAz?$AA?9?$AAa?$AAz?$AA?9?$AAc?$AAy?$AAr?$AAl?$AA?$AA@ 1007095c     libucrt:lcidtoname_downlevel.obj
 0002:0000b978       ??_C@_1BG@IBCKDDOE@?$AAa?$AAz?$AA?9?$AAa?$AAz?$AA?9?$AAl?$AAa?$AAt?$AAn?$AA?$AA@ 10070978     libucrt:lcidtoname_downlevel.obj
 0002:0000b994       ??_C@_1M@EGPFDCPD@?$AAb?$AAe?$AA?9?$AAb?$AAy?$AA?$AA@ 10070994     libucrt:lcidtoname_downlevel.obj
 0002:0000b9a4       ??_C@_1M@PCMGMCGC@?$AAb?$AAg?$AA?9?$AAb?$AAg?$AA?$AA@ 100709a4     libucrt:lcidtoname_downlevel.obj
 0002:0000b9b4       ??_C@_1M@BJBMFGOB@?$AAb?$AAn?$AA?9?$AAi?$AAn?$AA?$AA@ 100709b4     libucrt:lcidtoname_downlevel.obj
 0002:0000b9c4       ??_C@_1BG@EAKMMACD@?$AAb?$AAs?$AA?9?$AAb?$AAa?$AA?9?$AAl?$AAa?$AAt?$AAn?$AA?$AA@ 100709c4     libucrt:lcidtoname_downlevel.obj
 0002:0000b9e0       ??_C@_1M@KGADAODK@?$AAc?$AAa?$AA?9?$AAe?$AAs?$AA?$AA@ 100709e0     libucrt:lcidtoname_downlevel.obj
 0002:0000b9f0       ??_C@_1M@COAJPDHI@?$AAc?$AAs?$AA?9?$AAc?$AAz?$AA?$AA@ 100709f0     libucrt:lcidtoname_downlevel.obj
 0002:0000ba00       ??_C@_1M@DHBHFONH@?$AAc?$AAy?$AA?9?$AAg?$AAb?$AA?$AA@ 10070a00     libucrt:lcidtoname_downlevel.obj
 0002:0000ba10       ??_C@_1M@IMGKELGA@?$AAd?$AAa?$AA?9?$AAd?$AAk?$AA?$AA@ 10070a10     libucrt:lcidtoname_downlevel.obj
 0002:0000ba20       ??_C@_1M@NNDGDNGA@?$AAd?$AAe?$AA?9?$AAa?$AAt?$AA?$AA@ 10070a20     libucrt:lcidtoname_downlevel.obj
 0002:0000ba30       ??_C@_1M@IKDBHEEM@?$AAd?$AAe?$AA?9?$AAc?$AAh?$AA?$AA@ 10070a30     libucrt:lcidtoname_downlevel.obj
 0002:0000ba40       ??_C@_1M@GFFOJMCJ@?$AAd?$AAe?$AA?9?$AAd?$AAe?$AA?$AA@ 10070a40     libucrt:lcidtoname_downlevel.obj
 0002:0000ba50       ??_C@_1M@MDNLKBPM@?$AAd?$AAe?$AA?9?$AAl?$AAi?$AA?$AA@ 10070a50     libucrt:lcidtoname_downlevel.obj
 0002:0000ba60       ??_C@_1M@NJBEEJNL@?$AAd?$AAe?$AA?9?$AAl?$AAu?$AA?$AA@ 10070a60     libucrt:lcidtoname_downlevel.obj
 0002:0000ba70       ??_C@_1O@GNNELBAP@?$AAd?$AAi?$AAv?$AA?9?$AAm?$AAv?$AA?$AA@ 10070a70     libucrt:lcidtoname_downlevel.obj
 0002:0000ba80       ??_C@_1M@EJLEOGAE@?$AAe?$AAl?$AA?9?$AAg?$AAr?$AA?$AA@ 10070a80     libucrt:lcidtoname_downlevel.obj
 0002:0000ba90       ??_C@_1M@GMPONJN@?$AAe?$AAn?$AA?9?$AAa?$AAu?$AA?$AA@ 10070a90     libucrt:lcidtoname_downlevel.obj
 0002:0000baa0       ??_C@_1M@NIDIIPGF@?$AAe?$AAn?$AA?9?$AAb?$AAz?$AA?$AA@ 10070aa0     libucrt:lcidtoname_downlevel.obj
 0002:0000bab0       ??_C@_1M@JEHMIMFO@?$AAe?$AAn?$AA?9?$AAc?$AAa?$AA?$AA@ 10070ab0     libucrt:lcidtoname_downlevel.obj
 0002:0000bac0       ??_C@_1M@IGMJCDLA@?$AAe?$AAn?$AA?9?$AAc?$AAb?$AA?$AA@ 10070ac0     libucrt:lcidtoname_downlevel.obj
 0002:0000bad0       ??_C@_1M@BNFIGBKG@?$AAe?$AAn?$AA?9?$AAg?$AAb?$AA?$AA@ 10070ad0     libucrt:lcidtoname_downlevel.obj
 0002:0000bae0       ??_C@_1M@LKIFDIGP@?$AAe?$AAn?$AA?9?$AAi?$AAe?$AA?$AA@ 10070ae0     libucrt:lcidtoname_downlevel.obj
 0002:0000baf0       ??_C@_1M@PJKFGCCO@?$AAe?$AAn?$AA?9?$AAj?$AAm?$AA?$AA@ 10070af0     libucrt:lcidtoname_downlevel.obj
 0002:0000bb00       ??_C@_1M@KPPKEPBO@?$AAe?$AAn?$AA?9?$AAn?$AAz?$AA?$AA@ 10070b00     libucrt:lcidtoname_downlevel.obj
 0002:0000bb10       ??_C@_1M@GMDGLDOB@?$AAe?$AAn?$AA?9?$AAp?$AAh?$AA?$AA@ 10070b10     libucrt:lcidtoname_downlevel.obj
 0002:0000bb20       ??_C@_1M@ONGIBJNA@?$AAe?$AAn?$AA?9?$AAt?$AAt?$AA?$AA@ 10070b20     libucrt:lcidtoname_downlevel.obj
 0002:0000bb30       ??_C@_1M@LLODPCMM@?$AAe?$AAn?$AA?9?$AAu?$AAs?$AA?$AA@ 10070b30     libucrt:lcidtoname_downlevel.obj
 0002:0000bb40       ??_C@_1M@LAKFNPAN@?$AAe?$AAn?$AA?9?$AAz?$AAa?$AA?$AA@ 10070b40     libucrt:lcidtoname_downlevel.obj
 0002:0000bb50       ??_C@_1M@MFNHNHEO@?$AAe?$AAn?$AA?9?$AAz?$AAw?$AA?$AA@ 10070b50     libucrt:lcidtoname_downlevel.obj
 0002:0000bb60       ??_C@_1M@EJEINPHM@?$AAe?$AAs?$AA?9?$AAa?$AAr?$AA?$AA@ 10070b60     libucrt:lcidtoname_downlevel.obj
 0002:0000bb70       ??_C@_1M@GNKPCCJA@?$AAe?$AAs?$AA?9?$AAb?$AAo?$AA?$AA@ 10070b70     libucrt:lcidtoname_downlevel.obj
 0002:0000bb80       ??_C@_1M@LEEGFONL@?$AAe?$AAs?$AA?9?$AAc?$AAl?$AA?$AA@ 10070b80     libucrt:lcidtoname_downlevel.obj
 0002:0000bb90       ??_C@_1M@KGPDPBDF@?$AAe?$AAs?$AA?9?$AAc?$AAo?$AA?$AA@ 10070b90     libucrt:lcidtoname_downlevel.obj
 0002:0000bba0       ??_C@_1M@EIAHOHH@?$AAe?$AAs?$AA?9?$AAc?$AAr?$AA?$AA@ 10070ba0     libucrt:lcidtoname_downlevel.obj
 0002:0000bbb0       ??_C@_1M@LLPGMBIN@?$AAe?$AAs?$AA?9?$AAd?$AAo?$AA?$AA@ 10070bb0     libucrt:lcidtoname_downlevel.obj
 0002:0000bbc0       ??_C@_1M@DKHMKNJA@?$AAe?$AAs?$AA?9?$AAe?$AAc?$AA?$AA@ 10070bc0     libucrt:lcidtoname_downlevel.obj
 0002:0000bbd0       ??_C@_1M@GKGFPKAP@?$AAe?$AAs?$AA?9?$AAe?$AAs?$AA?$AA@ 10070bd0     libucrt:lcidtoname_downlevel.obj
 0002:0000bbe0       ??_C@_1M@LKHKGDLN@?$AAe?$AAs?$AA?9?$AAg?$AAt?$AA?$AA@ 10070be0     libucrt:lcidtoname_downlevel.obj
 0002:0000bbf0       ??_C@_1M@HEIIGGJD@?$AAe?$AAs?$AA?9?$AAh?$AAn?$AA?$AA@ 10070bf0     libucrt:lcidtoname_downlevel.obj
 0002:0000bc00       ??_C@_1M@FBDHPPGD@?$AAe?$AAs?$AA?9?$AAm?$AAx?$AA?$AA@ 10070c00     libucrt:lcidtoname_downlevel.obj
 0002:0000bc10       ??_C@_1M@DPAGLNDH@?$AAe?$AAs?$AA?9?$AAn?$AAi?$AA?$AA@ 10070c10     libucrt:lcidtoname_downlevel.obj
 0002:0000bc20       ??_C@_1M@MDGOPGDD@?$AAe?$AAs?$AA?9?$AAp?$AAa?$AA?$AA@ 10070c20     libucrt:lcidtoname_downlevel.obj
 0002:0000bc30       ??_C@_1M@EMAMGBGE@?$AAe?$AAs?$AA?9?$AAp?$AAe?$AA?$AA@ 10070c30     libucrt:lcidtoname_downlevel.obj
 0002:0000bc40       ??_C@_1M@IBMCAOEC@?$AAe?$AAs?$AA?9?$AAp?$AAr?$AA?$AA@ 10070c40     libucrt:lcidtoname_downlevel.obj
 0002:0000bc50       ??_C@_1M@FGMDIJED@?$AAe?$AAs?$AA?9?$AAp?$AAy?$AA?$AA@ 10070c50     libucrt:lcidtoname_downlevel.obj
 0002:0000bc60       ??_C@_1M@IIDEOLLL@?$AAe?$AAs?$AA?9?$AAs?$AAv?$AA?$AA@ 10070c60     libucrt:lcidtoname_downlevel.obj
 0002:0000bc70       ??_C@_1M@GAOBIPA@?$AAe?$AAs?$AA?9?$AAu?$AAy?$AA?$AA@ 10070c70     libucrt:lcidtoname_downlevel.obj
 0002:0000bc80       ??_C@_1M@JKFFICHJ@?$AAe?$AAs?$AA?9?$AAv?$AAe?$AA?$AA@ 10070c80     libucrt:lcidtoname_downlevel.obj
 0002:0000bc90       ??_C@_1M@PNMLOJDF@?$AAe?$AAt?$AA?9?$AAe?$AAe?$AA?$AA@ 10070c90     libucrt:lcidtoname_downlevel.obj
 0002:0000bca0       ??_C@_1M@GHHLIKEI@?$AAe?$AAu?$AA?9?$AAe?$AAs?$AA?$AA@ 10070ca0     libucrt:lcidtoname_downlevel.obj
 0002:0000bcb0       ??_C@_1M@PBNONODE@?$AAf?$AAa?$AA?9?$AAi?$AAr?$AA?$AA@ 10070cb0     libucrt:lcidtoname_downlevel.obj
 0002:0000bcc0       ??_C@_1M@JEEHPMIL@?$AAf?$AAi?$AA?9?$AAf?$AAi?$AA?$AA@ 10070cc0     libucrt:lcidtoname_downlevel.obj
 0002:0000bcd0       ??_C@_1M@LMDCNDBA@?$AAf?$AAo?$AA?9?$AAf?$AAo?$AA?$AA@ 10070cd0     libucrt:lcidtoname_downlevel.obj
 0002:0000bce0       ??_C@_1M@JKEOHLDK@?$AAf?$AAr?$AA?9?$AAb?$AAe?$AA?$AA@ 10070ce0     libucrt:lcidtoname_downlevel.obj
 0002:0000bcf0       ??_C@_1M@NOHADPMI@?$AAf?$AAr?$AA?9?$AAc?$AAa?$AA?$AA@ 10070cf0     libucrt:lcidtoname_downlevel.obj
 0002:0000bd00       ??_C@_1M@KDHIHAEC@?$AAf?$AAr?$AA?9?$AAc?$AAh?$AA?$AA@ 10070d00     libucrt:lcidtoname_downlevel.obj
 0002:0000bd10       ??_C@_1M@MMBBFGAK@?$AAf?$AAr?$AA?9?$AAf?$AAr?$AA?$AA@ 10070d10     libucrt:lcidtoname_downlevel.obj
 0002:0000bd20       ??_C@_1M@PAFNENNF@?$AAf?$AAr?$AA?9?$AAl?$AAu?$AA?$AA@ 10070d20     libucrt:lcidtoname_downlevel.obj
 0002:0000bd30       ??_C@_1M@EOHDJGDD@?$AAf?$AAr?$AA?9?$AAm?$AAc?$AA?$AA@ 10070d30     libucrt:lcidtoname_downlevel.obj
 0002:0000bd40       ??_C@_1M@FAPLLOPF@?$AAg?$AAl?$AA?9?$AAe?$AAs?$AA?$AA@ 10070d40     libucrt:lcidtoname_downlevel.obj
 0002:0000bd50       ??_C@_1M@FOPBFLOO@?$AAg?$AAu?$AA?9?$AAi?$AAn?$AA?$AA@ 10070d50     libucrt:lcidtoname_downlevel.obj
 0002:0000bd60       ??_C@_1M@KBMCINPM@?$AAh?$AAe?$AA?9?$AAi?$AAl?$AA?$AA@ 10070d60     libucrt:lcidtoname_downlevel.obj
 0002:0000bd70       ??_C@_1M@BBPHKFPJ@?$AAh?$AAi?$AA?9?$AAi?$AAn?$AA?$AA@ 10070d70     libucrt:lcidtoname_downlevel.obj
 0002:0000bd80       ??_C@_1M@PMBNDPHD@?$AAh?$AAr?$AA?9?$AAb?$AAa?$AA?$AA@ 10070d80     libucrt:lcidtoname_downlevel.obj
 0002:0000bd90       ??_C@_1M@BPCKOEGE@?$AAh?$AAr?$AA?9?$AAh?$AAr?$AA?$AA@ 10070d90     libucrt:lcidtoname_downlevel.obj
 0002:0000bda0       ??_C@_1M@GACBMHKE@?$AAh?$AAu?$AA?9?$AAh?$AAu?$AA?$AA@ 10070da0     libucrt:lcidtoname_downlevel.obj
 0002:0000bdb0       ??_C@_1M@MILPAJJC@?$AAh?$AAy?$AA?9?$AAa?$AAm?$AA?$AA@ 10070db0     libucrt:lcidtoname_downlevel.obj
 0002:0000bdc0       ??_C@_1M@BABBICEC@?$AAi?$AAd?$AA?9?$AAi?$AAd?$AA?$AA@ 10070dc0     libucrt:lcidtoname_downlevel.obj
 0002:0000bdd0       ??_C@_1M@BIKNHHPF@?$AAi?$AAs?$AA?9?$AAi?$AAs?$AA?$AA@ 10070dd0     libucrt:lcidtoname_downlevel.obj
 0002:0000bde0       ??_C@_1M@NMPCJPHE@?$AAi?$AAt?$AA?9?$AAc?$AAh?$AA?$AA@ 10070de0     libucrt:lcidtoname_downlevel.obj
 0002:0000bdf0       ??_C@_1M@GHKGFEDF@?$AAi?$AAt?$AA?9?$AAi?$AAt?$AA?$AA@ 10070df0     libucrt:lcidtoname_downlevel.obj
 0002:0000be00       ??_C@_1M@NIEJCJJA@?$AAj?$AAa?$AA?9?$AAj?$AAp?$AA?$AA@ 10070e00     libucrt:lcidtoname_downlevel.obj
 0002:0000be10       ??_C@_1M@JILFNBIM@?$AAk?$AAa?$AA?9?$AAg?$AAe?$AA?$AA@ 10070e10     libucrt:lcidtoname_downlevel.obj
 0002:0000be20       ??_C@_1M@PACPMGPH@?$AAk?$AAk?$AA?9?$AAk?$AAz?$AA?$AA@ 10070e20     libucrt:lcidtoname_downlevel.obj
 0002:0000be30       ??_C@_1M@IELFGMHA@?$AAk?$AAn?$AA?9?$AAi?$AAn?$AA?$AA@ 10070e30     libucrt:lcidtoname_downlevel.obj
 0002:0000be40       ??_C@_1O@IBBJHCH@?$AAk?$AAo?$AAk?$AA?9?$AAi?$AAn?$AA?$AA@ 10070e40     libucrt:lcidtoname_downlevel.obj
 0002:0000be50       ??_C@_1M@DMHAEOGC@?$AAk?$AAo?$AA?9?$AAk?$AAr?$AA?$AA@ 10070e50     libucrt:lcidtoname_downlevel.obj
 0002:0000be60       ??_C@_1M@HBAHBIGA@?$AAk?$AAy?$AA?9?$AAk?$AAg?$AA?$AA@ 10070e60     libucrt:lcidtoname_downlevel.obj
 0002:0000be70       ??_C@_1M@KPMILCJG@?$AAl?$AAt?$AA?9?$AAl?$AAt?$AA?$AA@ 10070e70     libucrt:lcidtoname_downlevel.obj
 0002:0000be80       ??_C@_1M@BDEKKCA@?$AAl?$AAv?$AA?9?$AAl?$AAv?$AA?$AA@ 10070e80     libucrt:lcidtoname_downlevel.obj
 0002:0000be90       ??_C@_1M@ELCKCCJJ@?$AAm?$AAi?$AA?9?$AAn?$AAz?$AA?$AA@ 10070e90     libucrt:lcidtoname_downlevel.obj
 0002:0000bea0       ??_C@_1M@CBOOLAPA@?$AAm?$AAk?$AA?9?$AAm?$AAk?$AA?$AA@ 10070ea0     libucrt:lcidtoname_downlevel.obj
 0002:0000beb0       ??_C@_1M@GPHNBJKN@?$AAm?$AAl?$AA?9?$AAi?$AAn?$AA?$AA@ 10070eb0     libucrt:lcidtoname_downlevel.obj
 0002:0000bec0       ??_C@_1M@PABJILIG@?$AAm?$AAn?$AA?9?$AAm?$AAn?$AA?$AA@ 10070ec0     libucrt:lcidtoname_downlevel.obj
 0002:0000bed0       ??_C@_1M@FGBKKIPG@?$AAm?$AAr?$AA?9?$AAi?$AAn?$AA?$AA@ 10070ed0     libucrt:lcidtoname_downlevel.obj
 0002:0000bee0       ??_C@_1M@NDBPDDAL@?$AAm?$AAs?$AA?9?$AAb?$AAn?$AA?$AA@ 10070ee0     libucrt:lcidtoname_downlevel.obj
 0002:0000bef0       ??_C@_1M@OPIHOOPI@?$AAm?$AAs?$AA?9?$AAm?$AAy?$AA?$AA@ 10070ef0     libucrt:lcidtoname_downlevel.obj
 0002:0000bf00       ??_C@_1M@PPDBCNFM@?$AAm?$AAt?$AA?9?$AAm?$AAt?$AA?$AA@ 10070f00     libucrt:lcidtoname_downlevel.obj
 0002:0000bf10       ??_C@_1M@KDJDKMDD@?$AAn?$AAb?$AA?9?$AAn?$AAo?$AA?$AA@ 10070f10     libucrt:lcidtoname_downlevel.obj
 0002:0000bf20       ??_C@_1M@KFCFLMJP@?$AAn?$AAl?$AA?9?$AAb?$AAe?$AA?$AA@ 10070f20     libucrt:lcidtoname_downlevel.obj
 0002:0000bf30       ??_C@_1M@KPOPDDGO@?$AAn?$AAl?$AA?9?$AAn?$AAl?$AA?$AA@ 10070f30     libucrt:lcidtoname_downlevel.obj
 0002:0000bf40       ??_C@_1M@LJKPEMLN@?$AAn?$AAn?$AA?9?$AAn?$AAo?$AA?$AA@ 10070f40     libucrt:lcidtoname_downlevel.obj
 0002:0000bf50       ??_C@_1M@BDGHHBFL@?$AAn?$AAs?$AA?9?$AAz?$AAa?$AA?$AA@ 10070f50     libucrt:lcidtoname_downlevel.obj
 0002:0000bf60       ??_C@_1M@IDEHOAP@?$AAp?$AAa?$AA?9?$AAi?$AAn?$AA?$AA@ 10070f60     libucrt:lcidtoname_downlevel.obj
 0002:0000bf70       ??_C@_1M@HDBKGOGH@?$AAp?$AAl?$AA?9?$AAp?$AAl?$AA?$AA@ 10070f70     libucrt:lcidtoname_downlevel.obj
 0002:0000bf80       ??_C@_1M@LJLLCMEH@?$AAp?$AAt?$AA?9?$AAb?$AAr?$AA?$AA@ 10070f80     libucrt:lcidtoname_downlevel.obj
 0002:0000bf90       ??_C@_1M@NCMONAAL@?$AAp?$AAt?$AA?9?$AAp?$AAt?$AA?$AA@ 10070f90     libucrt:lcidtoname_downlevel.obj
 0002:0000bfa0       ??_C@_1O@EAKMAJDN@?$AAq?$AAu?$AAz?$AA?9?$AAb?$AAo?$AA?$AA@ 10070fa0     libucrt:lcidtoname_downlevel.obj
 0002:0000bfb0       ??_C@_1O@BHHPIGDN@?$AAq?$AAu?$AAz?$AA?9?$AAe?$AAc?$AA?$AA@ 10070fb0     libucrt:lcidtoname_downlevel.obj
 0002:0000bfc0       ??_C@_1O@GBAPEKMJ@?$AAq?$AAu?$AAz?$AA?9?$AAp?$AAe?$AA?$AA@ 10070fc0     libucrt:lcidtoname_downlevel.obj
 0002:0000bfd0       ??_C@_1M@CLGLEFBO@?$AAr?$AAo?$AA?9?$AAr?$AAo?$AA?$AA@ 10070fd0     libucrt:lcidtoname_downlevel.obj
 0002:0000bfe0       ??_C@_1M@CEEDODME@?$AAr?$AAu?$AA?9?$AAr?$AAu?$AA?$AA@ 10070fe0     libucrt:lcidtoname_downlevel.obj
 0002:0000bff0       ??_C@_1M@HPKKKMPP@?$AAs?$AAa?$AA?9?$AAi?$AAn?$AA?$AA@ 10070ff0     libucrt:lcidtoname_downlevel.obj
 0002:0000c000       ??_C@_1M@BKMAIGOJ@?$AAs?$AAe?$AA?9?$AAf?$AAi?$AA?$AA@ 10071000     libucrt:lcidtoname_downlevel.obj
 0002:0000c010       ??_C@_1M@NDPIFLFI@?$AAs?$AAe?$AA?9?$AAn?$AAo?$AA?$AA@ 10071010     libucrt:lcidtoname_downlevel.obj
 0002:0000c020       ??_C@_1M@DANKKHJ@?$AAs?$AAe?$AA?9?$AAs?$AAe?$AA?$AA@ 10071020     libucrt:lcidtoname_downlevel.obj
 0002:0000c030       ??_C@_1M@PNBLONPJ@?$AAs?$AAk?$AA?9?$AAs?$AAk?$AA?$AA@ 10071030     libucrt:lcidtoname_downlevel.obj
 0002:0000c040       ??_C@_1M@LFMODOAL@?$AAs?$AAl?$AA?9?$AAs?$AAi?$AA?$AA@ 10071040     libucrt:lcidtoname_downlevel.obj
 0002:0000c050       ??_C@_1O@DFKOMPG@?$AAs?$AAm?$AAa?$AA?9?$AAn?$AAo?$AA?$AA@ 10071050     libucrt:lcidtoname_downlevel.obj
 0002:0000c060       ??_C@_1O@NDKPBNNH@?$AAs?$AAm?$AAa?$AA?9?$AAs?$AAe?$AA?$AA@ 10071060     libucrt:lcidtoname_downlevel.obj
 0002:0000c070       ??_C@_1O@PLLKBHAB@?$AAs?$AAm?$AAj?$AA?9?$AAn?$AAo?$AA?$AA@ 10071070     libucrt:lcidtoname_downlevel.obj
 0002:0000c080       ??_C@_1O@CLEPOGCA@?$AAs?$AAm?$AAj?$AA?9?$AAs?$AAe?$AA?$AA@ 10071080     libucrt:lcidtoname_downlevel.obj
 0002:0000c090       ??_C@_1O@DLGJGKMK@?$AAs?$AAm?$AAn?$AA?9?$AAf?$AAi?$AA?$AA@ 10071090     libucrt:lcidtoname_downlevel.obj
 0002:0000c0a0       ??_C@_1O@OJDJGAJC@?$AAs?$AAm?$AAs?$AA?9?$AAf?$AAi?$AA?$AA@ 100710a0     libucrt:lcidtoname_downlevel.obj
 0002:0000c0b0       ??_C@_1M@BOFOGHPB@?$AAs?$AAq?$AA?9?$AAa?$AAl?$AA?$AA@ 100710b0     libucrt:lcidtoname_downlevel.obj
 0002:0000c0c0       ??_C@_1BG@LJBBIPGB@?$AAs?$AAr?$AA?9?$AAb?$AAa?$AA?9?$AAc?$AAy?$AAr?$AAl?$AA?$AA@ 100710c0     libucrt:lcidtoname_downlevel.obj
 0002:0000c0dc       ??_C@_1BG@JLBENFOE@?$AAs?$AAr?$AA?9?$AAb?$AAa?$AA?9?$AAl?$AAa?$AAt?$AAn?$AA?$AA@ 100710dc     libucrt:lcidtoname_downlevel.obj
 0002:0000c0f8       ??_C@_1BG@KODPNHE@?$AAs?$AAr?$AA?9?$AAs?$AAp?$AA?9?$AAc?$AAy?$AAr?$AAl?$AA?$AA@ 100710f8     libucrt:lcidtoname_downlevel.obj
 0002:0000c114       ??_C@_1BG@CIOGKHPB@?$AAs?$AAr?$AA?9?$AAs?$AAp?$AA?9?$AAl?$AAa?$AAt?$AAn?$AA?$AA@ 10071114     libucrt:lcidtoname_downlevel.obj
 0002:0000c130       ??_C@_1M@NGFJLMAC@?$AAs?$AAv?$AA?9?$AAf?$AAi?$AA?$AA@ 10071130     libucrt:lcidtoname_downlevel.obj
 0002:0000c140       ??_C@_1M@MPJEJAJC@?$AAs?$AAv?$AA?9?$AAs?$AAe?$AA?$AA@ 10071140     libucrt:lcidtoname_downlevel.obj
 0002:0000c150       ??_C@_1M@MPNDHLFK@?$AAs?$AAw?$AA?9?$AAk?$AAe?$AA?$AA@ 10071150     libucrt:lcidtoname_downlevel.obj
 0002:0000c160       ??_C@_1O@KOHBJJI@?$AAs?$AAy?$AAr?$AA?9?$AAs?$AAy?$AA?$AA@ 10071160     libucrt:lcidtoname_downlevel.obj
 0002:0000c170       ??_C@_1M@LDCEFHA@?$AAt?$AAa?$AA?9?$AAi?$AAn?$AA?$AA@ 10071170     libucrt:lcidtoname_downlevel.obj
 0002:0000c180       ??_C@_1M@CNJOFAK@?$AAt?$AAe?$AA?9?$AAi?$AAn?$AA?$AA@ 10071180     libucrt:lcidtoname_downlevel.obj
 0002:0000c190       ??_C@_1M@GNAECACD@?$AAt?$AAh?$AA?9?$AAt?$AAh?$AA?$AA@ 10071190     libucrt:lcidtoname_downlevel.obj
 0002:0000c1a0       ??_C@_1M@CHBIHOJO@?$AAt?$AAn?$AA?9?$AAz?$AAa?$AA?$AA@ 100711a0     libucrt:lcidtoname_downlevel.obj
 0002:0000c1b0       ??_C@_1M@GCCMIGPJ@?$AAt?$AAr?$AA?9?$AAt?$AAr?$AA?$AA@ 100711b0     libucrt:lcidtoname_downlevel.obj
 0002:0000c1c0       ??_C@_1M@CELMCNBK@?$AAt?$AAt?$AA?9?$AAr?$AAu?$AA?$AA@ 100711c0     libucrt:lcidtoname_downlevel.obj
 0002:0000c1d0       ??_C@_1M@KLMCELGA@?$AAu?$AAk?$AA?9?$AAu?$AAa?$AA?$AA@ 100711d0     libucrt:lcidtoname_downlevel.obj
 0002:0000c1e0       ??_C@_1M@EPAJJAJF@?$AAu?$AAr?$AA?9?$AAp?$AAk?$AA?$AA@ 100711e0     libucrt:lcidtoname_downlevel.obj
 0002:0000c1f0       ??_C@_1BG@GEGPMCDJ@?$AAu?$AAz?$AA?9?$AAu?$AAz?$AA?9?$AAc?$AAy?$AAr?$AAl?$AA?$AA@ 100711f0     libucrt:lcidtoname_downlevel.obj
 0002:0000c20c       ??_C@_1BG@EGGKJILM@?$AAu?$AAz?$AA?9?$AAu?$AAz?$AA?9?$AAl?$AAa?$AAt?$AAn?$AA?$AA@ 1007120c     libucrt:lcidtoname_downlevel.obj
 0002:0000c228       ??_C@_1M@GFOCLFF@?$AAv?$AAi?$AA?9?$AAv?$AAn?$AA?$AA@ 10071228     libucrt:lcidtoname_downlevel.obj
 0002:0000c238       ??_C@_1M@CPAMEDFI@?$AAx?$AAh?$AA?9?$AAz?$AAa?$AA?$AA@ 10071238     libucrt:lcidtoname_downlevel.obj
 0002:0000c248       ??_C@_1O@EBKIFIGN@?$AAz?$AAh?$AA?9?$AAc?$AAh?$AAs?$AA?$AA@ 10071248     libucrt:lcidtoname_downlevel.obj
 0002:0000c258       ??_C@_1O@NMHPGANE@?$AAz?$AAh?$AA?9?$AAc?$AAh?$AAt?$AA?$AA@ 10071258     libucrt:lcidtoname_downlevel.obj
 0002:0000c268       ??_C@_1M@LPINJOMC@?$AAz?$AAh?$AA?9?$AAc?$AAn?$AA?$AA@ 10071268     libucrt:lcidtoname_downlevel.obj
 0002:0000c278       ??_C@_1M@OCJEJODD@?$AAz?$AAh?$AA?9?$AAh?$AAk?$AA?$AA@ 10071278     libucrt:lcidtoname_downlevel.obj
 0002:0000c288       ??_C@_1M@DNDLJINH@?$AAz?$AAh?$AA?9?$AAm?$AAo?$AA?$AA@ 10071288     libucrt:lcidtoname_downlevel.obj
 0002:0000c298       ??_C@_1M@MBFDNDND@?$AAz?$AAh?$AA?9?$AAs?$AAg?$AA?$AA@ 10071298     libucrt:lcidtoname_downlevel.obj
 0002:0000c2a8       ??_C@_1M@IMEPLEPE@?$AAz?$AAh?$AA?9?$AAt?$AAw?$AA?$AA@ 100712a8     libucrt:lcidtoname_downlevel.obj
 0002:0000c2b8       ??_C@_1M@BBGHNHJP@?$AAz?$AAu?$AA?9?$AAz?$AAa?$AA?$AA@ 100712b8     libucrt:lcidtoname_downlevel.obj
 0002:0000c2c8       ?large_power_data@?1??multiply_by_power_of_ten@__crt_strtox@@YA_NAAUbig_integer@2@I@Z@4QBIB 100712c8     libucrt:cfout.obj
 0002:0000cda0       ?large_power_indices@?1??multiply_by_power_of_ten@__crt_strtox@@YA_NAAUbig_integer@2@I@Z@4QBUunpack_index@?1??12@YA_N0I@Z@B 10071da0     libucrt:cfout.obj
 0002:0000ce58       ?small_powers_of_ten@?6??multiply_by_power_of_ten@__crt_strtox@@YA_NAAUbig_integer@2@I@Z@4QBIB 10071e58     libucrt:cfout.obj
 0002:0000ce84       ??_C@_01GBGANLPD@0?$AA@    10071e84     libucrt:cfout.obj
 0002:0000ce88       ??_C@_05DNEBIAHO@1?$CDINF?$AA@ 10071e88     libucrt:cfout.obj
 0002:0000ce90       ??_C@_06IMKFLFPG@1?$CDQNAN?$AA@ 10071e90     libucrt:cfout.obj
 0002:0000ce98       ??_C@_06PGGFOGJG@1?$CDSNAN?$AA@ 10071e98     libucrt:cfout.obj
 0002:0000cea0       ??_C@_05PHHOCPM@1?$CDIND?$AA@ 10071ea0     libucrt:cfout.obj
 0002:0000cea8       ??_C@_1BC@LLOKLNP@?$AAa?$AAm?$AAe?$AAr?$AAi?$AAc?$AAa?$AAn?$AA?$AA@ 10071ea8     libucrt:get_qualified_locale.obj
 0002:0000cec0       ??_C@_1CC@HEIGCDGG@?$AAa?$AAm?$AAe?$AAr?$AAi?$AAc?$AAa?$AAn?$AA?5?$AAe?$AAn?$AAg?$AAl?$AAi?$AAs?$AAh?$AA?$AA@ 10071ec0     libucrt:get_qualified_locale.obj
 0002:0000cee8       ??_C@_1CC@IHCNOMIN@?$AAa?$AAm?$AAe?$AAr?$AAi?$AAc?$AAa?$AAn?$AA?9?$AAe?$AAn?$AAg?$AAl?$AAi?$AAs?$AAh?$AA?$AA@ 10071ee8     libucrt:get_qualified_locale.obj
 0002:0000cf10       ??_C@_1BG@GKAGPCGG@?$AAa?$AAu?$AAs?$AAt?$AAr?$AAa?$AAl?$AAi?$AAa?$AAn?$AA?$AA@ 10071f10     libucrt:get_qualified_locale.obj
 0002:0000cf2c       ??_C@_1BA@GMENCENF@?$AAb?$AAe?$AAl?$AAg?$AAi?$AAa?$AAn?$AA?$AA@ 10071f2c     libucrt:get_qualified_locale.obj
 0002:0000cf40       ??_C@_1BC@PJMIIAAN@?$AAc?$AAa?$AAn?$AAa?$AAd?$AAi?$AAa?$AAn?$AA?$AA@ 10071f40     libucrt:get_qualified_locale.obj
 0002:0000cf58       ??_C@_17NOIMNFBF@?$AAc?$AAh?$AAh?$AA?$AA@ 10071f58     libucrt:get_qualified_locale.obj
 0002:0000cf64       ??_C@_17GGDALCHA@?$AAc?$AAh?$AAi?$AA?$AA@ 10071f64     libucrt:get_qualified_locale.obj
 0002:0000cf70       ??_C@_1BA@NPNJKIBL@?$AAc?$AAh?$AAi?$AAn?$AAe?$AAs?$AAe?$AA?$AA@ 10071f70     libucrt:get_qualified_locale.obj
 0002:0000cf84       ??_C@_1CC@DINBAMMJ@?$AAc?$AAh?$AAi?$AAn?$AAe?$AAs?$AAe?$AA?9?$AAh?$AAo?$AAn?$AAg?$AAk?$AAo?$AAn?$AAg?$AA?$AA@ 10071f84     libucrt:get_qualified_locale.obj
 0002:0000cfac       ??_C@_1CG@IOBJPACO@?$AAc?$AAh?$AAi?$AAn?$AAe?$AAs?$AAe?$AA?9?$AAs?$AAi?$AAm?$AAp?$AAl?$AAi?$AAf?$AAi?$AAe?$AAd?$AA?$AA@ 10071fac     libucrt:get_qualified_locale.obj
 0002:0000cfdc       ??_C@_1CE@GAJNDCKG@?$AAc?$AAh?$AAi?$AAn?$AAe?$AAs?$AAe?$AA?9?$AAs?$AAi?$AAn?$AAg?$AAa?$AAp?$AAo?$AAr?$AAe?$AA?$AA@ 10071fdc     libucrt:get_qualified_locale.obj
 0002:0000d008       ??_C@_1CI@PAJPIOOD@?$AAc?$AAh?$AAi?$AAn?$AAe?$AAs?$AAe?$AA?9?$AAt?$AAr?$AAa?$AAd?$AAi?$AAt?$AAi?$AAo?$AAn?$AAa?$AAl?$AA?$AA@ 10072008     libucrt:get_qualified_locale.obj
 0002:0000d038       ??_C@_1BM@NILJBMMD@?$AAd?$AAu?$AAt?$AAc?$AAh?$AA?9?$AAb?$AAe?$AAl?$AAg?$AAi?$AAa?$AAn?$AA?$AA@ 10072038     libucrt:get_qualified_locale.obj
 0002:0000d05c       ??_C@_1CC@OOJPJNEJ@?$AAe?$AAn?$AAg?$AAl?$AAi?$AAs?$AAh?$AA?9?$AAa?$AAm?$AAe?$AAr?$AAi?$AAc?$AAa?$AAn?$AA?$AA@ 1007205c     libucrt:get_qualified_locale.obj
 0002:0000d084       ??_C@_1BI@IOLFEEM@?$AAe?$AAn?$AAg?$AAl?$AAi?$AAs?$AAh?$AA?9?$AAa?$AAu?$AAs?$AA?$AA@ 10072084     libucrt:get_qualified_locale.obj
 0002:0000d0a0       ??_C@_1BO@HFFNLENJ@?$AAe?$AAn?$AAg?$AAl?$AAi?$AAs?$AAh?$AA?9?$AAb?$AAe?$AAl?$AAi?$AAz?$AAe?$AA?$AA@ 100720a0     libucrt:get_qualified_locale.obj
 0002:0000d0c4       ??_C@_1BI@HAPKJMPO@?$AAe?$AAn?$AAg?$AAl?$AAi?$AAs?$AAh?$AA?9?$AAc?$AAa?$AAn?$AA?$AA@ 100720c4     libucrt:get_qualified_locale.obj
 0002:0000d0e0       ??_C@_1CE@HLNDMIOJ@?$AAe?$AAn?$AAg?$AAl?$AAi?$AAs?$AAh?$AA?9?$AAc?$AAa?$AAr?$AAi?$AAb?$AAb?$AAe?$AAa?$AAn?$AA?$AA@ 100720e0     libucrt:get_qualified_locale.obj
 0002:0000d10c       ??_C@_1BI@LDHJHHAC@?$AAe?$AAn?$AAg?$AAl?$AAi?$AAs?$AAh?$AA?9?$AAi?$AAr?$AAe?$AA?$AA@ 1007210c     libucrt:get_qualified_locale.obj
 0002:0000d128       ??_C@_1CA@NJMMCFOC@?$AAe?$AAn?$AAg?$AAl?$AAi?$AAs?$AAh?$AA?9?$AAj?$AAa?$AAm?$AAa?$AAi?$AAc?$AAa?$AA?$AA@ 10072128     libucrt:get_qualified_locale.obj
 0002:0000d150       ??_C@_1BG@BHJEBBGG@?$AAe?$AAn?$AAg?$AAl?$AAi?$AAs?$AAh?$AA?9?$AAn?$AAz?$AA?$AA@ 10072150     libucrt:get_qualified_locale.obj
 0002:0000d16c       ??_C@_1CK@FGOEJJCO@?$AAe?$AAn?$AAg?$AAl?$AAi?$AAs?$AAh?$AA?9?$AAs?$AAo?$AAu?$AAt?$AAh?$AA?5?$AAa?$AAf?$AAr?$AAi?$AAc?$AAa?$AA?$AA@ 1007216c     libucrt:get_qualified_locale.obj
 0002:0000d1a0       ??_C@_1DE@PDBJPCJ@?$AAe?$AAn?$AAg?$AAl?$AAi?$AAs?$AAh?$AA?9?$AAt?$AAr?$AAi?$AAn?$AAi?$AAd?$AAa?$AAd?$AA?5?$AAy?$AA?5?$AAt?$AAo?$AAb?$AAa?$AAg?$AAo?$AA?$AA@ 100721a0     libucrt:get_qualified_locale.obj
 0002:0000d1e0       ??_C@_1BG@JGCANDME@?$AAe?$AAn?$AAg?$AAl?$AAi?$AAs?$AAh?$AA?9?$AAu?$AAk?$AA?$AA@ 100721e0     libucrt:get_qualified_locale.obj
 0002:0000d1fc       ??_C@_1BG@DINKMLE@?$AAe?$AAn?$AAg?$AAl?$AAi?$AAs?$AAh?$AA?9?$AAu?$AAs?$AA?$AA@ 100721fc     libucrt:get_qualified_locale.obj
 0002:0000d218       ??_C@_1BI@NMFDBHJE@?$AAe?$AAn?$AAg?$AAl?$AAi?$AAs?$AAh?$AA?9?$AAu?$AAs?$AAa?$AA?$AA@ 10072218     libucrt:get_qualified_locale.obj
 0002:0000d234       ??_C@_1BO@OIHKJKII@?$AAf?$AAr?$AAe?$AAn?$AAc?$AAh?$AA?9?$AAb?$AAe?$AAl?$AAg?$AAi?$AAa?$AAn?$AA?$AA@ 10072234     libucrt:get_qualified_locale.obj
 0002:0000d258       ??_C@_1CA@NKAELJKI@?$AAf?$AAr?$AAe?$AAn?$AAc?$AAh?$AA?9?$AAc?$AAa?$AAn?$AAa?$AAd?$AAi?$AAa?$AAn?$AA?$AA@ 10072258     libucrt:get_qualified_locale.obj
 0002:0000d280       ??_C@_1CE@MGKCNLGN@?$AAf?$AAr?$AAe?$AAn?$AAc?$AAh?$AA?9?$AAl?$AAu?$AAx?$AAe?$AAm?$AAb?$AAo?$AAu?$AAr?$AAg?$AA?$AA@ 10072280     libucrt:get_qualified_locale.obj
 0002:0000d2ac       ??_C@_1BK@CEGEAILM@?$AAf?$AAr?$AAe?$AAn?$AAc?$AAh?$AA?9?$AAs?$AAw?$AAi?$AAs?$AAs?$AA?$AA@ 100722ac     libucrt:get_qualified_locale.obj
 0002:0000d2cc       ??_C@_1CA@PAFKEOCC@?$AAg?$AAe?$AAr?$AAm?$AAa?$AAn?$AA?9?$AAa?$AAu?$AAs?$AAt?$AAr?$AAi?$AAa?$AAn?$AA?$AA@ 100722cc     libucrt:get_qualified_locale.obj
 0002:0000d2f4       ??_C@_1CI@HCFHGOFD@?$AAg?$AAe?$AAr?$AAm?$AAa?$AAn?$AA?9?$AAl?$AAi?$AAc?$AAh?$AAt?$AAe?$AAn?$AAs?$AAt?$AAe?$AAi?$AAn?$AA?$AA@ 100722f4     libucrt:get_qualified_locale.obj
 0002:0000d324       ??_C@_1CE@FEDDNPDG@?$AAg?$AAe?$AAr?$AAm?$AAa?$AAn?$AA?9?$AAl?$AAu?$AAx?$AAe?$AAm?$AAb?$AAo?$AAu?$AAr?$AAg?$AA?$AA@ 10072324     libucrt:get_qualified_locale.obj
 0002:0000d350       ??_C@_1BK@LIMINNMN@?$AAg?$AAe?$AAr?$AAm?$AAa?$AAn?$AA?9?$AAs?$AAw?$AAi?$AAs?$AAs?$AA?$AA@ 10072350     libucrt:get_qualified_locale.obj
 0002:0000d370       ??_C@_1BM@LGMDBEPD@?$AAi?$AAr?$AAi?$AAs?$AAh?$AA?9?$AAe?$AAn?$AAg?$AAl?$AAi?$AAs?$AAh?$AA?$AA@ 10072370     libucrt:get_qualified_locale.obj
 0002:0000d394       ??_C@_1BM@NNCFBAEE@?$AAi?$AAt?$AAa?$AAl?$AAi?$AAa?$AAn?$AA?9?$AAs?$AAw?$AAi?$AAs?$AAs?$AA?$AA@ 10072394     libucrt:get_qualified_locale.obj
 0002:0000d3b8       ??_C@_1BE@FEDJNPIB@?$AAn?$AAo?$AAr?$AAw?$AAe?$AAg?$AAi?$AAa?$AAn?$AA?$AA@ 100723b8     libucrt:get_qualified_locale.obj
 0002:0000d3d0       ??_C@_1CC@CILKDEIE@?$AAn?$AAo?$AAr?$AAw?$AAe?$AAg?$AAi?$AAa?$AAn?$AA?9?$AAb?$AAo?$AAk?$AAm?$AAa?$AAl?$AA?$AA@ 100723d0     libucrt:get_qualified_locale.obj
 0002:0000d3f8       ??_C@_1CE@DHMMHEPL@?$AAn?$AAo?$AAr?$AAw?$AAe?$AAg?$AAi?$AAa?$AAn?$AA?9?$AAn?$AAy?$AAn?$AAo?$AAr?$AAs?$AAk?$AA?$AA@ 100723f8     libucrt:get_qualified_locale.obj
 0002:0000d424       ??_C@_1CK@OPNMHECD@?$AAp?$AAo?$AAr?$AAt?$AAu?$AAg?$AAu?$AAe?$AAs?$AAe?$AA?9?$AAb?$AAr?$AAa?$AAz?$AAi?$AAl?$AAi?$AAa?$AAn?$AA?$AA@ 10072424     libucrt:get_qualified_locale.obj
 0002:0000d458       ??_C@_1CE@KEEHCDB@?$AAs?$AAp?$AAa?$AAn?$AAi?$AAs?$AAh?$AA?9?$AAa?$AAr?$AAg?$AAe?$AAn?$AAt?$AAi?$AAn?$AAa?$AA?$AA@ 10072458     libucrt:get_qualified_locale.obj
 0002:0000d484       ??_C@_1CA@GIAOLHJD@?$AAs?$AAp?$AAa?$AAn?$AAi?$AAs?$AAh?$AA?9?$AAb?$AAo?$AAl?$AAi?$AAv?$AAi?$AAa?$AA?$AA@ 10072484     libucrt:get_qualified_locale.obj
 0002:0000d4ac       ??_C@_1BM@OJNDFNPD@?$AAs?$AAp?$AAa?$AAn?$AAi?$AAs?$AAh?$AA?9?$AAc?$AAh?$AAi?$AAl?$AAe?$AA?$AA@ 100724ac     libucrt:get_qualified_locale.obj
 0002:0000d4d0       ??_C@_1CC@OCOLPALL@?$AAs?$AAp?$AAa?$AAn?$AAi?$AAs?$AAh?$AA?9?$AAc?$AAo?$AAl?$AAo?$AAm?$AAb?$AAi?$AAa?$AA?$AA@ 100724d0     libucrt:get_qualified_locale.obj
 0002:0000d4f8       ??_C@_1CG@BPOFMKBB@?$AAs?$AAp?$AAa?$AAn?$AAi?$AAs?$AAh?$AA?9?$AAc?$AAo?$AAs?$AAt?$AAa?$AA?5?$AAr?$AAi?$AAc?$AAa?$AA?$AA@ 100724f8     libucrt:get_qualified_locale.obj
 0002:0000d528       ??_C@_1DG@IGOBAPBB@?$AAs?$AAp?$AAa?$AAn?$AAi?$AAs?$AAh?$AA?9?$AAd?$AAo?$AAm?$AAi?$AAn?$AAi?$AAc?$AAa?$AAn?$AA?5?$AAr?$AAe?$AAp?$AAu?$AAb?$AAl?$AAi?$AAc?$AA?$AA@ 10072528     libucrt:get_qualified_locale.obj
 0002:0000d568       ??_C@_1CA@JHAPGEGI@?$AAs?$AAp?$AAa?$AAn?$AAi?$AAs?$AAh?$AA?9?$AAe?$AAc?$AAu?$AAa?$AAd?$AAo?$AAr?$AA?$AA@ 10072568     libucrt:get_qualified_locale.obj
 0002:0000d590       ??_C@_1CI@LAPALJPP@?$AAs?$AAp?$AAa?$AAn?$AAi?$AAs?$AAh?$AA?9?$AAe?$AAl?$AA?5?$AAs?$AAa?$AAl?$AAv?$AAa?$AAd?$AAo?$AAr?$AA?$AA@ 10072590     libucrt:get_qualified_locale.obj
 0002:0000d5c0       ??_C@_1CE@PDGBOFOM@?$AAs?$AAp?$AAa?$AAn?$AAi?$AAs?$AAh?$AA?9?$AAg?$AAu?$AAa?$AAt?$AAe?$AAm?$AAa?$AAl?$AAa?$AA?$AA@ 100725c0     libucrt:get_qualified_locale.obj
 0002:0000d5ec       ??_C@_1CC@NBEBAODI@?$AAs?$AAp?$AAa?$AAn?$AAi?$AAs?$AAh?$AA?9?$AAh?$AAo?$AAn?$AAd?$AAu?$AAr?$AAa?$AAs?$AA?$AA@ 100725ec     libucrt:get_qualified_locale.obj
 0002:0000d614       ??_C@_1CA@LLKGHBMF@?$AAs?$AAp?$AAa?$AAn?$AAi?$AAs?$AAh?$AA?9?$AAm?$AAe?$AAx?$AAi?$AAc?$AAa?$AAn?$AA?$AA@ 10072614     libucrt:get_qualified_locale.obj
 0002:0000d63c       ??_C@_1BO@LKNDOIGD@?$AAs?$AAp?$AAa?$AAn?$AAi?$AAs?$AAh?$AA?9?$AAm?$AAo?$AAd?$AAe?$AAr?$AAn?$AA?$AA@ 1007263c     libucrt:get_qualified_locale.obj
 0002:0000d660       ??_C@_1CE@NMDMOEEB@?$AAs?$AAp?$AAa?$AAn?$AAi?$AAs?$AAh?$AA?9?$AAn?$AAi?$AAc?$AAa?$AAr?$AAa?$AAg?$AAu?$AAa?$AA?$AA@ 10072660     libucrt:get_qualified_locale.obj
 0002:0000d68c       ??_C@_1BO@LLCBEJGB@?$AAs?$AAp?$AAa?$AAn?$AAi?$AAs?$AAh?$AA?9?$AAp?$AAa?$AAn?$AAa?$AAm?$AAa?$AA?$AA@ 1007268c     libucrt:get_qualified_locale.obj
 0002:0000d6b0       ??_C@_1CC@FKPGGIHO@?$AAs?$AAp?$AAa?$AAn?$AAi?$AAs?$AAh?$AA?9?$AAp?$AAa?$AAr?$AAa?$AAg?$AAu?$AAa?$AAy?$AA?$AA@ 100726b0     libucrt:get_qualified_locale.obj
 0002:0000d6d8       ??_C@_1BK@CDEIHOOP@?$AAs?$AAp?$AAa?$AAn?$AAi?$AAs?$AAh?$AA?9?$AAp?$AAe?$AAr?$AAu?$AA?$AA@ 100726d8     libucrt:get_qualified_locale.obj
 0002:0000d6f8       ??_C@_1CI@GAHAKKGP@?$AAs?$AAp?$AAa?$AAn?$AAi?$AAs?$AAh?$AA?9?$AAp?$AAu?$AAe?$AAr?$AAt?$AAo?$AA?5?$AAr?$AAi?$AAc?$AAo?$AA?$AA@ 100726f8     libucrt:get_qualified_locale.obj
 0002:0000d728       ??_C@_1CA@NKJBCAGP@?$AAs?$AAp?$AAa?$AAn?$AAi?$AAs?$AAh?$AA?9?$AAu?$AAr?$AAu?$AAg?$AAu?$AAa?$AAy?$AA?$AA@ 10072728     libucrt:get_qualified_locale.obj
 0002:0000d750       ??_C@_1CE@ODILCONM@?$AAs?$AAp?$AAa?$AAn?$AAi?$AAs?$AAh?$AA?9?$AAv?$AAe?$AAn?$AAe?$AAz?$AAu?$AAe?$AAl?$AAa?$AA?$AA@ 10072750     libucrt:get_qualified_locale.obj
 0002:0000d77c       ??_C@_1CA@OBNMCGFO@?$AAs?$AAw?$AAe?$AAd?$AAi?$AAs?$AAh?$AA?9?$AAf?$AAi?$AAn?$AAl?$AAa?$AAn?$AAd?$AA?$AA@ 1007277c     libucrt:get_qualified_locale.obj
 0002:0000d7a4       ??_C@_1M@PIPDDPPI@?$AAs?$AAw?$AAi?$AAs?$AAs?$AA?$AA@ 100727a4     libucrt:get_qualified_locale.obj
 0002:0000d7b4       ??_C@_15GMFIMNFM@?$AAu?$AAs?$AA?$AA@ 100727b4     libucrt:get_qualified_locale.obj
 0002:0000d7bc       ??_C@_17HAEBFAGL@?$AAu?$AAs?$AAa?$AA?$AA@ 100727bc     libucrt:get_qualified_locale.obj
 0002:0000d7c8       ??_C@_1BA@DPFJEPHB@?$AAa?$AAm?$AAe?$AAr?$AAi?$AAc?$AAa?$AA?$AA@ 100727c8     libucrt:get_qualified_locale.obj
 0002:0000d7dc       ??_C@_1BA@ELOGGFK@?$AAb?$AAr?$AAi?$AAt?$AAa?$AAi?$AAn?$AA?$AA@ 100727dc     libucrt:get_qualified_locale.obj
 0002:0000d7f0       ??_C@_1M@GHBGIGDA@?$AAc?$AAh?$AAi?$AAn?$AAa?$AA?$AA@ 100727f0     libucrt:get_qualified_locale.obj
 0002:0000d800       ??_C@_1M@NCHEJOPO@?$AAc?$AAz?$AAe?$AAc?$AAh?$AA?$AA@ 10072800     libucrt:get_qualified_locale.obj
 0002:0000d810       ??_C@_1BA@BKPAPBLA@?$AAe?$AAn?$AAg?$AAl?$AAa?$AAn?$AAd?$AA?$AA@ 10072810     libucrt:get_qualified_locale.obj
 0002:0000d824       ??_C@_1BM@HKBCKIPC@?$AAg?$AAr?$AAe?$AAa?$AAt?$AA?5?$AAb?$AAr?$AAi?$AAt?$AAa?$AAi?$AAn?$AA?$AA@ 10072824     libucrt:get_qualified_locale.obj
 0002:0000d848       ??_C@_1BA@PPCHPGJB@?$AAh?$AAo?$AAl?$AAl?$AAa?$AAn?$AAd?$AA?$AA@ 10072848     libucrt:get_qualified_locale.obj
 0002:0000d85c       ??_C@_1BE@JBMPEGDG@?$AAh?$AAo?$AAn?$AAg?$AA?9?$AAk?$AAo?$AAn?$AAg?$AA?$AA@ 1007285c     libucrt:get_qualified_locale.obj
 0002:0000d874       ??_C@_1BI@KOELBBPJ@?$AAn?$AAe?$AAw?$AA?9?$AAz?$AAe?$AAa?$AAl?$AAa?$AAn?$AAd?$AA?$AA@ 10072874     libucrt:get_qualified_locale.obj
 0002:0000d890       ??_C@_15HIEBHAIO@?$AAn?$AAz?$AA?$AA@ 10072890     libucrt:get_qualified_locale.obj
 0002:0000d898       ??_C@_1BC@CHBCPFPI@?$AAp?$AAr?$AA?5?$AAc?$AAh?$AAi?$AAn?$AAa?$AA?$AA@ 10072898     libucrt:get_qualified_locale.obj
 0002:0000d8b0       ??_C@_1BC@JAOIIFKD@?$AAp?$AAr?$AA?9?$AAc?$AAh?$AAi?$AAn?$AAa?$AA?$AA@ 100728b0     libucrt:get_qualified_locale.obj
 0002:0000d8c8       ??_C@_1BI@BEHPPHKC@?$AAp?$AAu?$AAe?$AAr?$AAt?$AAo?$AA?9?$AAr?$AAi?$AAc?$AAo?$AA?$AA@ 100728c8     libucrt:get_qualified_locale.obj
 0002:0000d8e4       ??_C@_1O@PAEOFKDI@?$AAs?$AAl?$AAo?$AAv?$AAa?$AAk?$AA?$AA@ 100728e4     libucrt:get_qualified_locale.obj
 0002:0000d8f4       ??_C@_1BK@FIHMCKAM@?$AAs?$AAo?$AAu?$AAt?$AAh?$AA?5?$AAa?$AAf?$AAr?$AAi?$AAc?$AAa?$AA?$AA@ 100728f4     libucrt:get_qualified_locale.obj
 0002:0000d914       ??_C@_1BI@NAEOODKB@?$AAs?$AAo?$AAu?$AAt?$AAh?$AA?5?$AAk?$AAo?$AAr?$AAe?$AAa?$AA?$AA@ 10072914     libucrt:get_qualified_locale.obj
 0002:0000d930       ??_C@_1BK@FBDGGIFF@?$AAs?$AAo?$AAu?$AAt?$AAh?$AA?9?$AAa?$AAf?$AAr?$AAi?$AAc?$AAa?$AA?$AA@ 10072930     libucrt:get_qualified_locale.obj
 0002:0000d950       ??_C@_1BI@GHLEJDPK@?$AAs?$AAo?$AAu?$AAt?$AAh?$AA?9?$AAk?$AAo?$AAr?$AAe?$AAa?$AA?$AA@ 10072950     libucrt:get_qualified_locale.obj
 0002:0000d96c       ??_C@_1CE@PLHLOMJF@?$AAt?$AAr?$AAi?$AAn?$AAi?$AAd?$AAa?$AAd?$AA?5?$AA?$CG?$AA?5?$AAt?$AAo?$AAb?$AAa?$AAg?$AAo?$AA?$AA@ 1007296c     libucrt:get_qualified_locale.obj
 0002:0000d998       ??_C@_1BO@MODIMHHI@?$AAu?$AAn?$AAi?$AAt?$AAe?$AAd?$AA?9?$AAk?$AAi?$AAn?$AAg?$AAd?$AAo?$AAm?$AA?$AA@ 10072998     libucrt:get_qualified_locale.obj
 0002:0000d9bc       ??_C@_1BM@FFHJONBJ@?$AAu?$AAn?$AAi?$AAt?$AAe?$AAd?$AA?9?$AAs?$AAt?$AAa?$AAt?$AAe?$AAs?$AA?$AA@ 100729bc     libucrt:get_qualified_locale.obj
 0002:0000d9e0       ___acrt_rg_language        100729e0     libucrt:get_qualified_locale.obj
 0002:0000dd88       ___acrt_rg_language_count  10072d88     libucrt:get_qualified_locale.obj
 0002:0000dd90       ___acrt_rg_country         10072d90     libucrt:get_qualified_locale.obj
 0002:0000dedc       ___acrt_rg_country_count   10072edc     libucrt:get_qualified_locale.obj
 0002:0000dee0       ??_C@_17DNCLJFIF@?$AAA?$AAC?$AAP?$AA?$AA@ 10072ee0     libucrt:get_qualified_locale.obj
 0002:0000deec       ??_C@_17CIKBIHLH@?$AAO?$AAC?$AAP?$AA?$AA@ 10072eec     libucrt:get_qualified_locale.obj
 0002:0000def8       ___rglangidNotDefault      10072ef8     libucrt:getqloc_downlevel.obj
 0002:0000dfd0       __indefinite               10072fd0     libucrt:87disp.obj
 0002:0000dfda       __piby2                    10072fda     libucrt:87disp.obj
 0002:0000dfe4       __piby4                    10072fe4     libucrt:87disp.obj
 0002:0000e028       __DEFAULT_CW_in_mem        10073028     libucrt:common.obj
 0002:0000e02a       __pi_by_2_to_61            1007302a     libucrt:common.obj
 0002:0000e0e8       ??_C@_1BA@BALFACEM@?$AAC?$AAO?$AAN?$AAO?$AAU?$AAT?$AA$?$AA?$AA@ 100730e8     libucrt:initcon.obj
 0002:0000e240       __infinity                 10073240     libucrt:87tran.obj
 0002:0000e24a       __minfinity                1007324a     libucrt:87tran.obj
 0002:0000e254       __logemax                  10073254     libucrt:87tran.obj
 0002:0000e27a       __OP_EXPjmptab             1007327a     libucrt:87tran.obj
 0002:0000e3b0       ___acrt_log10_table_t      100733b0     libucrt:log10_tables.obj
 0002:0000e890       ___acrt_log10_table_cb     10073890     libucrt:log10_tables.obj
 0002:0000ed74       ??_7type_info@@6B@         10073d74     LIBCMT:std_type_info_static.obj
 0002:0000edb8       __load_config_used         10073db8     LIBCMT:loadcfg.obj
 0002:0000f3ac       ??_R4DNameNode@@6B@        100743ac     libvcruntime:undname.obj
 0002:0000f3c4       ??_R3DNameNode@@8          100743c4     libvcruntime:undname.obj
 0002:0000f3d8       ??_R2DNameNode@@8          100743d8     libvcruntime:undname.obj
 0002:0000f3e0       ??_R1A@?0A@EA@DNameNode@@8 100743e0     libvcruntime:undname.obj
 0002:0000f404       ??_R4charNode@@6B@         10074404     libvcruntime:undname.obj
 0002:0000f41c       ??_R3charNode@@8           1007441c     libvcruntime:undname.obj
 0002:0000f430       ??_R2charNode@@8           10074430     libvcruntime:undname.obj
 0002:0000f43c       ??_R1A@?0A@EA@charNode@@8  1007443c     libvcruntime:undname.obj
 0002:0000f460       ??_R4pcharNode@@6B@        10074460     libvcruntime:undname.obj
 0002:0000f478       ??_R3pcharNode@@8          10074478     libvcruntime:undname.obj
 0002:0000f48c       ??_R2pcharNode@@8          1007448c     libvcruntime:undname.obj
 0002:0000f498       ??_R1A@?0A@EA@pcharNode@@8 10074498     libvcruntime:undname.obj
 0002:0000f4bc       ??_R4pDNameNode@@6B@       100744bc     libvcruntime:undname.obj
 0002:0000f4d4       ??_R3pDNameNode@@8         100744d4     libvcruntime:undname.obj
 0002:0000f4e8       ??_R2pDNameNode@@8         100744e8     libvcruntime:undname.obj
 0002:0000f4f4       ??_R1A@?0A@EA@pDNameNode@@8 100744f4     libvcruntime:undname.obj
 0002:0000f518       ??_R4DNameStatusNode@@6B@  10074518     libvcruntime:undname.obj
 0002:0000f530       ??_R3DNameStatusNode@@8    10074530     libvcruntime:undname.obj
 0002:0000f544       ??_R2DNameStatusNode@@8    10074544     libvcruntime:undname.obj
 0002:0000f550       ??_R1A@?0A@EA@DNameStatusNode@@8 10074550     libvcruntime:undname.obj
 0002:0000f574       ??_R4pairNode@@6B@         10074574     libvcruntime:undname.obj
 0002:0000f58c       ??_R3pairNode@@8           1007458c     libvcruntime:undname.obj
 0002:0000f5a0       ??_R2pairNode@@8           100745a0     libvcruntime:undname.obj
 0002:0000f5ac       ??_R1A@?0A@EA@pairNode@@8  100745ac     libvcruntime:undname.obj
 0002:0000f5d0       ??_R4type_info@@6B@        100745d0     LIBCMT:std_type_info_static.obj
 0002:0000f5e8       ??_R3type_info@@8          100745e8     LIBCMT:std_type_info_static.obj
 0002:0000f5fc       ??_R2type_info@@8          100745fc     LIBCMT:std_type_info_static.obj
 0002:0000f604       ??_R1A@?0A@EA@type_info@@8 10074604     LIBCMT:std_type_info_static.obj
 0002:0000f740       ___safe_se_handler_table   10074740     <linker-defined>
 0002:0000fa1c       ___rtc_iaa                 10074a1c     LIBCMT:_initsect_.obj
 0002:0000fb20       ___rtc_izz                 10074b20     LIBCMT:_initsect_.obj
 0002:0000fc24       ___rtc_taa                 10074c24     LIBCMT:_initsect_.obj
 0002:0000fd28       ___rtc_tzz                 10074d28     LIBCMT:_initsect_.obj
 0003:00000398       _PID_LoadCell_Magnet_P     10076398     PID_LoadCell_Magnet_data.obj
 0003:00000890       _pci20041digout            10076890     xpctarget.obj
 0003:00000894       _nipcdio24cnfg             10076894     xpctarget.obj
 0003:00000898       _rtddm6604cnfg             10076898     xpctarget.obj
 0003:000008cc       _DefaultCOMIOBase          100768cc     xpcruntime:xpcimports.obj
 0003:000008dc       _DefaultCOMIRQ             100768dc     xpcruntime:xpcimports.obj
 0003:000008f4       __fltused                  100768f4     LIBCMT:fltused.obj
 0003:00000900       ___isa_enabled             10076900     LIBCMT:_cpu_disp_.obj
 0003:00000904       ___security_cookie_complement 10076904     LIBCMT:gs_cookie.obj
 0003:00000908       ___security_cookie         10076908     LIBCMT:gs_cookie.obj
 0003:00000910       ___scrt_native_dllmain_reason 10076910     LIBCMT:utility.obj
 0003:00000930       __NLG_Destination          10076930     libvcruntime:_exsup_.obj
 0003:00000948       __iob                      10076948     libucrt:_file.obj
 0003:00000a24       ___abort_behavior          10076a24     libucrt:abort.obj
 0003:00000a30       ___badioinfo               10076a30     libucrt:ioinit.obj
 0003:00000a74       ___mb_cur_max              10076a74     libucrt:nlsdata.obj
 0003:00000a78       ___acrt_initial_locale_data 10076a78     libucrt:nlsdata.obj
 0003:00000b54       ___acrt_initial_locale_pointers 10076b54     libucrt:nlsdata.obj
 0003:00000b60       ___acrt_wide_c_locale_string 10076b60     libucrt:nlsdata.obj
 0003:00000b70       __lookuptrailbytes         10076b70     libucrt:read.obj
 0003:00000dd0       __mbctype                  10076dd0     libucrt:mbctype.obj
 0003:00000f08       __mbcasemap                10076f08     libucrt:mbctype.obj
 0003:00001040       ___acrt_initial_multibyte_data 10077040     libucrt:mbctype.obj
 0003:000012cc       ___acrt_current_multibyte_data 100772cc     libucrt:mbctype.obj
 0003:000012d0       __pctype                   100772d0     libucrt:ctype.obj
 0003:000012d4       __pwctype                  100772d4     libucrt:ctype.obj
 0003:000012d8       ___globallocalestatus      100772d8     libucrt:glstatus.obj
 0003:000012dc       ___acrt_lconv_static_decimal 100772dc     libucrt:localeconv.obj
 0003:000012e0       ___acrt_lconv_static_W_decimal 100772e0     libucrt:localeconv.obj
 0003:000012e8       ___acrt_lconv_c            100772e8     libucrt:localeconv.obj
 0003:00001348       ___acrt_lconv              10077348     libucrt:localeconv.obj
 0003:00001350       ___dcrt_lowio_console_output_handle 10077350     libucrt:initcon.obj
 0003:00001494       ??_R0?AVDNameNode@@@8      10077494     libvcruntime:undname.obj
 0003:000014b0       ??_R0?AVcharNode@@@8       100774b0     libvcruntime:undname.obj
 0003:000014cc       ??_R0?AVpcharNode@@@8      100774cc     libvcruntime:undname.obj
 0003:000014e8       ??_R0?AVpDNameNode@@@8     100774e8     libvcruntime:undname.obj
 0003:00001508       ??_R0?AVDNameStatusNode@@@8 10077508     libvcruntime:undname.obj
 0003:0000152c       ??_R0?AVpairNode@@@8       1007752c     libvcruntime:undname.obj
 0003:00001548       ??_R0?AVtype_info@@@8      10077548     LIBCMT:std_type_info_static.obj
 0003:0000172c       ___isa_available_default   1007772c     rt_logging.obj
 0003:00001730       _pci20098PortA             10077730     xpctarget.obj
 0003:00001734       _pci20098PortB             10077734     xpctarget.obj
 0003:00001738       _siepowercan_firmware_initialized 10077738     xpctarget.obj
 0003:0000173c       _siepowercan_port1_configured 1007773c     xpctarget.obj
 0003:00001740       _siepowercan_port2_configured 10077740     xpctarget.obj
 0003:00001744       _CANAC2_FIRMWARE_LOADED    10077744     xpctarget.obj
 0003:00001748       _rs232ports                10077748     xpctarget.obj
 0003:00001758       _NI_AT_MIO_16F_5_commreg2  10077758     xpctarget.obj
 0003:0000175c       _RTD_DM6430_init           1007775c     xpctarget.obj
 0003:00001760       _RTD_DM6420_init           10077760     xpctarget.obj
 0003:00001764       _CANAC2_FIRMWARE_LOADED_mb1 10077764     xpctarget.obj
 0003:00001768       _CANAC2_FIRMWARE_LOADED_mb2 10077768     xpctarget.obj
 0003:0000176c       _CANAC2_FIRMWARE_LOADED_mb3 1007776c     xpctarget.obj
 0003:00001770       _xmlsize                   10077770     xpctarget.obj
 0003:00001eec       ___isa_available           10077eec     LIBCMT:_cpu_disp_.obj
 0003:00001ef0       ___favor                   10077ef0     LIBCMT:_cpu_disp_.obj
 0003:00001efc       ___scrt_current_native_startup_state 10077efc     LIBCMT:utility.obj
 0003:00001f00       ___scrt_native_startup_lock 10077f00     LIBCMT:utility.obj
 0003:00001f28       ?__type_info_root_node@@3U__type_info_node@@A 10077f28     LIBCMT:tncleanup.obj
 0003:00001f38       ?_OptionsStorage@?1??__local_stdio_printf_options@@9@4_KA 10077f38     LIBCMT:default_local_stdio_options.obj
 0003:00001f48       ?_OptionsStorage@?1??__local_stdio_scanf_options@@9@4_KA 10077f48     LIBCMT:default_local_stdio_options.obj
 0003:00001f54       ___scrt_debugger_hook_flag 10077f54     LIBCMT:utility_desktop.obj
 0003:00001fec       ___pPurecall               10077fec     libvcruntime:purevirt_data.obj
 0003:00001ff0       ?pArgList@UnDecorator@@0PAVReplicator@@A 10077ff0     libvcruntime:undname.obj
 0003:00001ff4       ?pZNameList@UnDecorator@@0PAVReplicator@@A 10077ff4     libvcruntime:undname.obj
 0003:00001ff8       ?pTemplateArgList@UnDecorator@@0PAVReplicator@@A 10077ff8     libvcruntime:undname.obj
 0003:00001ffc       ?gName@UnDecorator@@0PBDB  10077ffc     libvcruntime:undname.obj
 0003:00002000       ?name@UnDecorator@@0PBDB   10078000     libvcruntime:undname.obj
 0003:00002004       ?outputString@UnDecorator@@0PADA 10078004     libvcruntime:undname.obj
 0003:00002008       ?maxStringLength@UnDecorator@@0HA 10078008     libvcruntime:undname.obj
 0003:0000200c       ?disableFlags@UnDecorator@@0KA 1007800c     libvcruntime:undname.obj
 0003:00002010       ?fExplicitTemplateParams@UnDecorator@@0_NA 10078010     libvcruntime:undname.obj
 0003:00002011       ?fGetTemplateArgumentList@UnDecorator@@0_NA 10078011     libvcruntime:undname.obj
 0003:00002014       ?m_pGetParameter@UnDecorator@@0P6APADJ@ZA 10078014     libvcruntime:undname.obj
 0003:00002038       ?nodes@?1??make@DNameStatusNode@@SAPAV2@W4DNameStatus@@@Z@4PAV2@A 10078038     libvcruntime:undname.obj
 0003:00002074       ??_B?1??make@DNameStatusNode@@SAPAV1@W4DNameStatus@@@Z@51 10078074     libvcruntime:undname.obj
 0003:00002078       __nstream                  10078078     libucrt:_file.obj
 0003:0000207c       ___piob                    1007807c     libucrt:_file.obj
 0003:00002084       __cflush                   10078084     libucrt:_file.obj
 0003:0000244c       __environ_table            1007844c     libucrt:environment_initialization.obj
 0003:00002450       __wenviron_table           10078450     libucrt:environment_initialization.obj
 0003:00002458       ___dcrt_initial_wide_environment 10078458     libucrt:environment_initialization.obj
 0003:0000245c       ___dcrt_initial_narrow_environment 1007845c     libucrt:environment_initialization.obj
 0003:00002460       ___acrt_atexit_table       10078460     libucrt:onexit.obj
 0003:00002470       ___acrt_at_quick_exit_table 10078470     libucrt:onexit.obj
 0003:00002590       ___pioinfo                 10078590     libucrt:ioinit.obj
 0003:000027f8       __nhandle                  100787f8     libucrt:ioinit.obj
 0003:00002800       ___acrt_stdout_buffer      10078800     libucrt:_sftbuf.obj
 0003:00002804       ___acrt_stderr_buffer      10078804     libucrt:_sftbuf.obj
 0003:00002808       ___acrt_locale_changed_data 10078808     libucrt:wsetlocale.obj
 0003:0000280c       ___acrt_current_locale_data 1007880c     libucrt:nlsdata.obj
 0003:00003118       ___mblocalename            10079118     libucrt:mbctype.obj
 0003:0000311c       ___mbcodepage              1007911c     libucrt:mbctype.obj
 0003:00003120       ___ismbcodepage            10079120     libucrt:mbctype.obj
 0003:00003124       ___mbulinfo                10079124     libucrt:mbctype.obj
 0003:00003138       ___argc                    10079138     libucrt:argv_data.obj
 0003:0000313c       ___argv                    1007913c     libucrt:argv_data.obj
 0003:00003140       ___wargv                   10079140     libucrt:argv_data.obj
 0003:00003144       __acmdln                   10079144     libucrt:argv_data.obj
 0003:00003148       __wcmdln                   10079148     libucrt:argv_data.obj
 0003:0000314c       __pgmptr                   1007914c     libucrt:argv_data.obj
 0003:00003150       __wpgmptr                  10079150     libucrt:argv_data.obj
 0003:00003154       ___acrt_heap               10079154     libucrt:heap_handle.obj
 0003:00003160       ___acrt_lconv_static_null  10079160     libucrt:localeconv.obj
 0003:00003164       ___acrt_lconv_static_W_null 10079164     libucrt:localeconv.obj
 0003:00003168       ___fastflag                10079168     libucrt:fp_flags.obj
 0003:0000316c       __commode                  1007916c     libucrt:ncommode.obj
 0003:00003170       __umaskval                 10079170     libucrt:umask.obj
 0003:00003178       __fmode                    10079178     libucrt:txtmode.obj
 0003:00003180       _CANAC2_2_receiveindex_mb3 10079180     <common>
 0003:00006254       _CANAC2_2_receivemaxindex_mb3 1007c254     <common>
 0003:00006260       _CANAC2_2_sendindex_mb3    1007c260     <common>
 0003:00006580       _CANAC2_2_sendmaxindex_mb3 1007c580     <common>
 0003:000065a0       _CANAC2_1_receiveindex_mb3 1007c5a0     <common>
 0003:000068c0       _CANAC2_1_receivemaxindex_mb3 1007c8c0     <common>
 0003:000068e0       _CANAC2_1_sendindex_mb3    1007c8e0     <common>
 0003:00006c00       _CANAC2_1_sendmaxindex_mb3 1007cc00     <common>
 0003:00006c20       _CANAC2_2_receive_mb3      1007cc20     <common>
 0003:00006f40       _CANAC2_2_send_mb3         1007cf40     <common>
 0003:00007260       _CANAC2_1_receive_mb3      1007d260     <common>
 0003:00007580       _CANAC2_1_send_mb3         1007d580     <common>
 0003:000078a0       _CANAC2_2_receiveindex_mb2 1007d8a0     <common>
 0003:00007bc0       _CANAC2_2_receivemaxindex_mb2 1007dbc0     <common>
 0003:00007be0       _CANAC2_2_sendindex_mb2    1007dbe0     <common>
 0003:00007f00       _CANAC2_2_sendmaxindex_mb2 1007df00     <common>
 0003:00007f20       _CANAC2_1_receiveindex_mb2 1007df20     <common>
 0003:00008240       _CANAC2_1_receivemaxindex_mb2 1007e240     <common>
 0003:00008260       _CANAC2_1_sendindex_mb2    1007e260     <common>
 0003:00008580       _CANAC2_1_sendmaxindex_mb2 1007e580     <common>
 0003:000085a0       _CANAC2_2_receive_mb2      1007e5a0     <common>
 0003:000088c0       _CANAC2_2_send_mb2         1007e8c0     <common>
 0003:00008be0       _CANAC2_1_receive_mb2      1007ebe0     <common>
 0003:00008f00       _CANAC2_1_send_mb2         1007ef00     <common>
 0003:00009220       _CANAC2_2_receiveindex_mb1 1007f220     <common>
 0003:00009540       _CANAC2_2_receivemaxindex_mb1 1007f540     <common>
 0003:00009560       _CANAC2_2_sendindex_mb1    1007f560     <common>
 0003:00009880       _CANAC2_2_sendmaxindex_mb1 1007f880     <common>
 0003:000098a0       _CANAC2_1_receiveindex_mb1 1007f8a0     <common>
 0003:00009bc0       _CANAC2_1_receivemaxindex_mb1 1007fbc0     <common>
 0003:00009be0       _CANAC2_1_sendindex_mb1    1007fbe0     <common>
 0003:00009f00       _CANAC2_1_sendmaxindex_mb1 1007ff00     <common>
 0003:00009f20       _CANAC2_2_receive_mb1      1007ff20     <common>
 0003:0000a240       _CANAC2_2_send_mb1         10080240     <common>
 0003:0000a560       _CANAC2_1_receive_mb1      10080560     <common>
 0003:0000a880       _CANAC2_1_send_mb1         10080880     <common>
 0003:0000aba0       _CANAC2_2_receiveindex     10080ba0     <common>
 0003:0000aec0       _CANAC2_2_receivemaxindex  10080ec0     <common>
 0003:0000aee0       _CANAC2_2_sendindex        10080ee0     <common>
 0003:0000b200       _CANAC2_2_sendmaxindex     10081200     <common>
 0003:0000b220       _CANAC2_1_receiveindex     10081220     <common>
 0003:0000b540       _CANAC2_1_receivemaxindex  10081540     <common>
 0003:0000b560       _CANAC2_1_sendindex        10081560     <common>
 0003:0000b880       _CANAC2_1_sendmaxindex     10081880     <common>
 0003:0000b8a0       _CANAC2_2_receive          100818a0     <common>
 0003:0000bbc0       _CANAC2_2_send             10081bc0     <common>
 0003:0000bee0       _CANAC2_1_receive          10081ee0     <common>
 0003:0000c200       _CANAC2_1_send             10082200     <common>
 0003:0000c520       _siepowercan_can_object_buffer_port2 10082520     <common>
 0003:00010540       _siepowercan_can_object_buffer_port1 10086540     <common>
 0003:00014540       _rtNaNF                    1008a540     <common>
 0003:00014554       _rtMinusInfF               1008a554     <common>
 0003:00014558       _rtInfF                    1008a558     <common>
 0003:00014560       _rtNaN                     1008a560     <common>
 0003:00014568       _rtMinusInf                1008a568     <common>
 0003:00014570       _rtInf                     1008a570     <common>
 0003:00014578       ?_OptionsStorage@?1??__local_stdio_printf_options@@9@9 1008a578     <common>
 0003:00014960       _PID_LoadCell_Magnet_M_    1008a960     <common>
 0003:00015a60       _PID_LoadCell_Magnet_Y     1008ba60     <common>
 0003:00015a80       _PID_LoadCell_Magnet_DW    1008ba80     <common>
 0003:00015b50       _PID_LoadCell_Magnet_X     1008bb50     <common>
 0003:00015b60       _PID_LoadCell_Magnet_B     1008bb60     <common>
 0003:00015c10       _CloseClientSocket         1008bc10     <common>
 0003:00015c78       _ConnectClientSocket       1008bc78     <common>
 0003:00015c7c       _BindClientSocket          1008bc7c     <common>
 0003:00015c80       _CreateClientSocket        1008bc80     <common>
 0003:00015c84       _CloseServerSocket         1008bc84     <common>
 0003:00015c88       _ConnectServerSocket       1008bc88     <common>
 0003:00015c8c       _OpenServerListen          1008bc8c     <common>
 0003:00015c90       _CreateServerSocket        1008bc90     <common>
 0003:00015c94       _SocketReceive             1008bc94     <common>
 0003:00015c98       _SocketSend                1008bc98     <common>
 0003:00015c9c       _GetSocketState            1008bc9c     <common>
 0003:00015ca0       _GetSocket                 1008bca0     <common>
 0003:00015ca4       _socket                    1008bca4     <common>
 0003:00015ca8       _inet_addr                 1008bca8     <common>
 0003:00015cac       _sendto                    1008bcac     <common>
 0003:00015cb0       _recvfrom                  1008bcb0     <common>
 0003:00015cb4       _listen                    1008bcb4     <common>
 0003:00015cb8       _ioctlsocket               1008bcb8     <common>
 0003:00015cbc       _connect                   1008bcbc     <common>
 0003:00015cc0       _closesocket               1008bcc0     <common>
 0003:00015cc4       _setsockopt                1008bcc4     <common>
 0003:00015cc8       _bind                      1008bcc8     <common>
 0003:00015ccc       _accept                    1008bccc     <common>
 0003:00015cd0       _GetHostTarIPAdd           1008bcd0     <common>
 0003:00015cd4       _GetDCUUsage               1008bcd4     <common>
 0003:00015cd8       _DeleteRoute               1008bcd8     <common>
 0003:00015cdc       _AddGatewayRoute           1008bcdc     <common>
 0003:00015ce0       _SetIP                     1008bce0     <common>
 0003:00015ce4       _CloseInterface            1008bce4     <common>
 0003:00015ce8       _OpenInterface             1008bce8     <common>
 0003:00015cec       _SetIPTASKPriority         1008bcec     <common>
 0003:00015cf0       _isUsedByRTIP              1008bcf0     <common>
 0003:00015cf4       _slrtWarning               1008bcf4     <common>
 0003:00015cf8       _slrtGetCPUTCelsius        1008bcf8     <common>
 0003:00015cfc       _geterrorstring            1008bcfc     <common>
 0003:00015d00       _getlasterror              1008bd00     <common>
 0003:00015d04       _slrtLogEvent              1008bd04     <common>
 0003:00015d08       _slrtGetDefaultDrive       1008bd08     <common>
 0003:00015d0c       _slrtfsFread               1008bd0c     <common>
 0003:00015d10       _slrtfsGetFileStatus       1008bd10     <common>
 0003:00015d14       _slrtfsOpenFileAsync       1008bd14     <common>
 0003:00015d18       _slrtfsCloseFileAsync      1008bd18     <common>
 0003:00015d1c       _slrtfsGetFileErrorMessage 1008bd1c     <common>
 0003:00015d20       _slrtfsGetFileError        1008bd20     <common>
 0003:00015d24       _slrtfsWriteToFile         1008bd24     <common>
 0003:00015d28       _slrtfsCloseFile           1008bd28     <common>
 0003:00015d2c       _slrtfsOpenFile            1008bd2c     <common>
 0003:00015d30       _slrtGetSgCRBSpace         1008bd30     <common>
 0003:00015d34       _slrtGetCRBScratchSpace    1008bd34     <common>
 0003:00015d38       _slrteSetupMSI             1008bd38     <common>
 0003:00015d3c       _slTestRegAssessment       1008bd3c     <common>
 0003:00015d40       _slTestTerminate           1008bd40     <common>
 0003:00015d44       _slTestEvalOnFail          1008bd44     <common>
 0003:00015d48       _slTestLogAssessments      1008bd48     <common>
 0003:00015d4c       _slTestInitialize          1008bd4c     <common>
 0003:00015d50       _unRegisterPTPTimeRead     1008bd50     <common>
 0003:00015d54       _registerPTPTimeRead       1008bd54     <common>
 0003:00015d58       _slrteGetCurrentStepSize   1008bd58     <common>
 0003:00015d5c       _slrteSetStepSizeDelta     1008bd5c     <common>
 0003:00015d60       _xpceGetIntTimerGranularityNS 1008bd60     <common>
 0003:00015d64       _xpceDAQUpdateTimeStamp    1008bd64     <common>
 0003:00015d68       _xpceDAQPostEvent          1008bd68     <common>
 0003:00015d6c       _StreamVideo               1008bd6c     <common>
 0003:00015d70       _StopVideoDisplay          1008bd70     <common>
 0003:00015d74       _StartVideoDisplay         1008bd74     <common>
 0003:00015d78       _DestroyVideoDisplay       1008bd78     <common>
 0003:00015d7c       _CreateVideoDisplay        1008bd7c     <common>
 0003:00015d80       _ConvertUImage             1008bd80     <common>
 0003:00015d84       _StopVideo                 1008bd84     <common>
 0003:00015d88       _ReadFrameBuffer           1008bd88     <common>
 0003:00015d8c       _StartVideo                1008bd8c     <common>
 0003:00015d90       _GetVideoConfigs           1008bd90     <common>
 0003:00015d94       _FindUsbVideoDevice        1008bd94     <common>
 0003:00015d98       _xpceDeleteSemaphore       1008bd98     <common>
 0003:00015d9c       _xpceSignalSemaphore       1008bd9c     <common>
 0003:00015da0       _xpceWaitSemaphore         1008bda0     <common>
 0003:00015da4       _xpceCreateSemaphore       1008bda4     <common>
 0003:00015da8       _TBGiveSpinFast            1008bda8     <common>
 0003:00015dac       _TBTakeSpinFast            1008bdac     <common>
 0003:00015db0       _TBDeleteSpin              1008bdb0     <common>
 0003:00015db4       _TBCreateSpin              1008bdb4     <common>
 0003:00015db8       _xpceScopeAcqOK            1008bdb8     <common>
 0003:00015dbc       _rl32eRestartAcquisition   1008bdbc     <common>
 0003:00015dc0       _rl32eSetTargetScopeSigFt  1008bdc0     <common>
 0003:00015dc4       _rl32eSetTargetScope       1008bdc4     <common>
 0003:00015dc8       _xpceFSScopeSet            1008bdc8     <common>
 0003:00015dcc       _rl32eSetScope             1008bdcc     <common>
 0003:00015dd0       _rl32eAddSignal            1008bdd0     <common>
 0003:00015dd4       _rl32eGetSignalNo          1008bdd4     <common>
 0003:00015dd8       _rl32eDefScope             1008bdd8     <common>
 0003:00015ddc       _rl32eScopeExists          1008bddc     <common>
 0003:00015de0       _xpceGetParamDims          1008bde0     <common>
 0003:00015de4       _xpceGetParameter          1008bde4     <common>
 0003:00015de8       _xpceSetParameter          1008bde8     <common>
 0003:00015dec       _xpceGetSignalValue        1008bdec     <common>
 0003:00015df0       _xpceAssignPCIInterrupt    1008bdf0     <common>
 0003:00015df4       _rl32eGetPCIInfoAtSlot     1008bdf4     <common>
 0003:00015df8       _rl32eGetPCIInfo           1008bdf8     <common>
 0003:00015dfc       _rl32eShowPCIInfo          1008bdfc     <common>
 0003:00015e00       _rl32eShowPCIDev           1008be00     <common>
 0003:00015e04       _xpceGetTET                1008be04     <common>
 0003:00015e08       _xpceaddEvent              1008be08     <common>
 0003:00015e0c       _xpceDeRegisterISR         1008be0c     <common>
 0003:00015e10       _xpceRegisterISR           1008be10     <common>
 0003:00015e14       _xpcIsModelInit            1008be14     <common>
 0003:00015e18       _xpcGetElapsedTime         1008be18     <common>
 0003:00015e1c       _xpcBusyWait               1008be1c     <common>
 0003:00015e20       _xpcFreePhysicalMemory     1008be20     <common>
 0003:00015e24       _xpcAllocPhysicalMemory    1008be24     <common>
 0003:00015e28       _xpcReserveMemoryRegion    1008be28     <common>
 0003:00015e2c       _xpcOutpB                  1008be2c     <common>
 0003:00015e30       _xpcOutpW                  1008be30     <common>
 0003:00015e34       _xpcOutpDW                 1008be34     <common>
 0003:00015e38       _xpcInpB                   1008be38     <common>
 0003:00015e3c       _xpcInpW                   1008be3c     <common>
 0003:00015e40       _xpcInpDW                  1008be40     <common>
 0003:00015e44       ___scrt_ucrt_dll_is_in_use 1008be44     <common>
 0003:00015e50       ___dyn_tls_init_callback   1008be50     <common>
 0003:00015e5c       __pDestructExceptionObject 1008be5c     <common>
 0003:00015e68       __pmatherr                 1008be68     <common>
 0003:00015e74       ___use_sse2_mathfcns       1008be74     <common>
 0004:00000000       __imp__GetModuleHandleA@4  1008c000     kernel32:KERNEL32.dll
 0004:00000004       __imp__GetProcAddress@8    1008c004     kernel32:KERNEL32.dll
 0004:00000008       __imp__UnhandledExceptionFilter@4 1008c008     kernel32:KERNEL32.dll
 0004:0000000c       __imp__SetUnhandledExceptionFilter@4 1008c00c     kernel32:KERNEL32.dll
 0004:00000010       __imp__GetCurrentProcess@0 1008c010     kernel32:KERNEL32.dll
 0004:00000014       __imp__TerminateProcess@8  1008c014     kernel32:KERNEL32.dll
 0004:00000018       __imp__IsProcessorFeaturePresent@4 1008c018     kernel32:KERNEL32.dll
 0004:0000001c       __imp__QueryPerformanceCounter@4 1008c01c     kernel32:KERNEL32.dll
 0004:00000020       __imp__GetCurrentProcessId@0 1008c020     kernel32:KERNEL32.dll
 0004:00000024       __imp__GetCurrentThreadId@0 1008c024     kernel32:KERNEL32.dll
 0004:00000028       __imp__GetSystemTimeAsFileTime@4 1008c028     kernel32:KERNEL32.dll
 0004:0000002c       __imp__InitializeSListHead@4 1008c02c     kernel32:KERNEL32.dll
 0004:00000030       __imp__IsDebuggerPresent@0 1008c030     kernel32:KERNEL32.dll
 0004:00000034       __imp__GetStartupInfoW@4   1008c034     kernel32:KERNEL32.dll
 0004:00000038       __imp__GetModuleHandleW@4  1008c038     kernel32:KERNEL32.dll
 0004:0000003c       __imp__InterlockedPushEntrySList@8 1008c03c     kernel32:KERNEL32.dll
 0004:00000040       __imp__InterlockedFlushSList@4 1008c040     kernel32:KERNEL32.dll
 0004:00000044       __imp__RtlUnwind@16        1008c044     kernel32:KERNEL32.dll
 0004:00000048       __imp__GetLastError@0      1008c048     kernel32:KERNEL32.dll
 0004:0000004c       __imp__SetLastError@4      1008c04c     kernel32:KERNEL32.dll
 0004:00000050       __imp__EnterCriticalSection@4 1008c050     kernel32:KERNEL32.dll
 0004:00000054       __imp__LeaveCriticalSection@4 1008c054     kernel32:KERNEL32.dll
 0004:00000058       __imp__DeleteCriticalSection@4 1008c058     kernel32:KERNEL32.dll
 0004:0000005c       __imp__InitializeCriticalSectionAndSpinCount@8 1008c05c     kernel32:KERNEL32.dll
 0004:00000060       __imp__TlsAlloc@0          1008c060     kernel32:KERNEL32.dll
 0004:00000064       __imp__TlsGetValue@4       1008c064     kernel32:KERNEL32.dll
 0004:00000068       __imp__TlsSetValue@8       1008c068     kernel32:KERNEL32.dll
 0004:0000006c       __imp__TlsFree@4           1008c06c     kernel32:KERNEL32.dll
 0004:00000070       __imp__FreeLibrary@4       1008c070     kernel32:KERNEL32.dll
 0004:00000074       __imp__LoadLibraryExW@12   1008c074     kernel32:KERNEL32.dll
 0004:00000078       __imp__GetStdHandle@4      1008c078     kernel32:KERNEL32.dll
 0004:0000007c       __imp__GetFileType@4       1008c07c     kernel32:KERNEL32.dll
 0004:00000080       __imp__GetModuleFileNameA@12 1008c080     kernel32:KERNEL32.dll
 0004:00000084       __imp__GetModuleFileNameW@12 1008c084     kernel32:KERNEL32.dll
 0004:00000088       __imp__GetModuleHandleExW@12 1008c088     kernel32:KERNEL32.dll
 0004:0000008c       __imp__WriteConsoleW@20    1008c08c     kernel32:KERNEL32.dll
 0004:00000090       __imp__ExitProcess@4       1008c090     kernel32:KERNEL32.dll
 0004:00000094       __imp__RaiseException@16   1008c094     kernel32:KERNEL32.dll
 0004:00000098       __imp__MultiByteToWideChar@24 1008c098     kernel32:KERNEL32.dll
 0004:0000009c       __imp__WideCharToMultiByte@32 1008c09c     kernel32:KERNEL32.dll
 0004:000000a0       __imp__HeapFree@12         1008c0a0     kernel32:KERNEL32.dll
 0004:000000a4       __imp__HeapAlloc@12        1008c0a4     kernel32:KERNEL32.dll
 0004:000000a8       __imp__GetDateFormatW@24   1008c0a8     kernel32:KERNEL32.dll
 0004:000000ac       __imp__GetTimeFormatW@24   1008c0ac     kernel32:KERNEL32.dll
 0004:000000b0       __imp__CompareStringW@24   1008c0b0     kernel32:KERNEL32.dll
 0004:000000b4       __imp__LCMapStringW@24     1008c0b4     kernel32:KERNEL32.dll
 0004:000000b8       __imp__GetLocaleInfoW@16   1008c0b8     kernel32:KERNEL32.dll
 0004:000000bc       __imp__IsValidLocale@8     1008c0bc     kernel32:KERNEL32.dll
 0004:000000c0       __imp__GetUserDefaultLCID@0 1008c0c0     kernel32:KERNEL32.dll
 0004:000000c4       __imp__EnumSystemLocalesW@8 1008c0c4     kernel32:KERNEL32.dll
 0004:000000c8       __imp__GetCurrentThread@0  1008c0c8     kernel32:KERNEL32.dll
 0004:000000cc       __imp__GetACP@0            1008c0cc     kernel32:KERNEL32.dll
 0004:000000d0       __imp__WriteFile@20        1008c0d0     kernel32:KERNEL32.dll
 0004:000000d4       __imp__OutputDebugStringA@4 1008c0d4     kernel32:KERNEL32.dll
 0004:000000d8       __imp__OutputDebugStringW@4 1008c0d8     kernel32:KERNEL32.dll
 0004:000000dc       __imp__CloseHandle@4       1008c0dc     kernel32:KERNEL32.dll
 0004:000000e0       __imp__WaitForSingleObjectEx@12 1008c0e0     kernel32:KERNEL32.dll
 0004:000000e4       __imp__CreateThread@24     1008c0e4     kernel32:KERNEL32.dll
 0004:000000e8       __imp__SetConsoleCtrlHandler@8 1008c0e8     kernel32:KERNEL32.dll
 0004:000000ec       __imp__HeapReAlloc@16      1008c0ec     kernel32:KERNEL32.dll
 0004:000000f0       __imp__ReadFile@20         1008c0f0     kernel32:KERNEL32.dll
 0004:000000f4       __imp__GetConsoleMode@8    1008c0f4     kernel32:KERNEL32.dll
 0004:000000f8       __imp__ReadConsoleW@20     1008c0f8     kernel32:KERNEL32.dll
 0004:000000fc       __imp__GetConsoleCP@0      1008c0fc     kernel32:KERNEL32.dll
 0004:00000100       __imp__DeleteFileW@4       1008c100     kernel32:KERNEL32.dll
 0004:00000104       __imp__SetFilePointerEx@20 1008c104     kernel32:KERNEL32.dll
 0004:00000108       __imp__FindClose@4         1008c108     kernel32:KERNEL32.dll
 0004:0000010c       __imp__FindFirstFileExA@24 1008c10c     kernel32:KERNEL32.dll
 0004:00000110       __imp__FindFirstFileExW@24 1008c110     kernel32:KERNEL32.dll
 0004:00000114       __imp__FindNextFileA@8     1008c114     kernel32:KERNEL32.dll
 0004:00000118       __imp__FindNextFileW@8     1008c118     kernel32:KERNEL32.dll
 0004:0000011c       __imp__IsValidCodePage@4   1008c11c     kernel32:KERNEL32.dll
 0004:00000120       __imp__GetOEMCP@0          1008c120     kernel32:KERNEL32.dll
 0004:00000124       __imp__GetCPInfo@8         1008c124     kernel32:KERNEL32.dll
 0004:00000128       __imp__GetCommandLineA@0   1008c128     kernel32:KERNEL32.dll
 0004:0000012c       __imp__GetCommandLineW@0   1008c12c     kernel32:KERNEL32.dll
 0004:00000130       __imp__GetEnvironmentStringsW@0 1008c130     kernel32:KERNEL32.dll
 0004:00000134       __imp__FreeEnvironmentStringsW@4 1008c134     kernel32:KERNEL32.dll
 0004:00000138       __imp__SetEnvironmentVariableA@8 1008c138     kernel32:KERNEL32.dll
 0004:0000013c       __imp__SetEnvironmentVariableW@8 1008c13c     kernel32:KERNEL32.dll
 0004:00000140       __imp__GetProcessHeap@0    1008c140     kernel32:KERNEL32.dll
 0004:00000144       __imp__GetStringTypeW@16   1008c144     kernel32:KERNEL32.dll
 0004:00000148       __imp__FlushFileBuffers@4  1008c148     kernel32:KERNEL32.dll
 0004:0000014c       __imp__SetStdHandle@8      1008c14c     kernel32:KERNEL32.dll
 0004:00000150       __imp__CreateFileW@28      1008c150     kernel32:KERNEL32.dll
 0004:00000154       __imp__HeapSize@12         1008c154     kernel32:KERNEL32.dll
 0004:00000158       __imp__SetEndOfFile@4      1008c158     kernel32:KERNEL32.dll
 0004:0000015c       __imp__EncodePointer@4     1008c15c     kernel32:KERNEL32.dll
 0004:00000160       __imp__DecodePointer@4     1008c160     kernel32:KERNEL32.dll
 0004:00000164       \177KERNEL32_NULL_THUNK_DATA 1008c164     kernel32:KERNEL32.dll
 0004:000001d4       __IMPORT_DESCRIPTOR_KERNEL32 1008c1d4     kernel32:KERNEL32.dll
 0004:000001e8       __NULL_IMPORT_DESCRIPTOR   1008c1e8     kernel32:KERNEL32.dll
 0006:00000000       ___guard_check_icall_fptr  1008e000     LIBCMT:guard_support.obj
