 PID_LoadCell_Magnet_slrt

 Timestamp is 5ad69b27 (Tue Apr 17 21:11:03 2018)

 Preferred load address is 10000000

 Start         Length     Name                   Class
 0001:00000000 00063c28H .text$mn                CODE
 0002:00000000 00000104H .CRT$XCA                DATA
 0002:00000104 00000104H .CRT$XCZ                DATA
 0002:00000208 00000104H .CRT$XIA                DATA
 0002:0000030c 00000110H .CRT$XIC                DATA
 0002:0000041c 00000104H .CRT$XIZ                DATA
 0002:00000520 00000104H .CRT$XPA                DATA
 0002:00000624 0000010cH .CRT$XPX                DATA
 0002:00000730 00000104H .CRT$XPXA               DATA
 0002:00000834 00000104H .CRT$XPZ                DATA
 0002:00000938 00000104H .CRT$XTA                DATA
 0002:00000a3c 00000104H .CRT$XTZ                DATA
 0002:00000b40 0000ddb0H .rdata                  DATA
 0002:0000e8f0 00000390H .rdata$r                DATA
 0002:0000ec80 00000110H .rdata$sxdata           DATA
 0002:0000ed90 000001ccH .rdata$zzzdbg           DATA
 0002:0000ef5c 00000104H .rtc$IAA                DATA
 0002:0000f060 00000104H .rtc$IZZ                DATA
 0002:0000f164 00000104H .rtc$TAA                DATA
 0002:0000f268 00000108H .rtc$TZZ                DATA
 0002:0000f370 00000ac0H .xdata$x                DATA
 0002:0000fe30 000001eeH .edata                  DATA
 0003:00000000 000014c0H .data                   DATA
 0003:000014c0 000001e0H .data$r                 DATA
 0003:000016a0 00014868H .bss                    DATA
 0004:00000000 000001d4H .idata$5                DATA
 0004:000001d4 00000014H .idata$2                DATA
 0004:000001e8 00000014H .idata$3                DATA
 0004:000001fc 000001d4H .idata$4                DATA
 0004:000003d0 00000843H .idata$6                DATA
 0005:00000000 00000224H .gfids$x                DATA
 0005:00000224 000001a5H .gfids$y                DATA
 0006:00000000 00000104H .00cfg                  DATA

  Address         Publics by Value              Rva+Base       Lib:Object

 0000:00000000       __except_list              00000000     <absolute>
 0000:00000000       ___guard_iat_table         00000000     <absolute>
 0000:00000000       ___guard_iat_count         00000000     <absolute>
 0000:00000000       ___guard_longjmp_count     00000000     <absolute>
 0000:00000000       ___guard_longjmp_table     00000000     <absolute>
 0000:00000000       ___dynamic_value_reloc_table 00000000     <absolute>
 0000:00000000       ___guard_fids_table        00000000     <absolute>
 0000:00000000       ___guard_fids_count        00000000     <absolute>
 0000:00000003       ___safe_se_handler_count   00000003     <absolute>
 0000:00000100       ___guard_flags             00000100     <absolute>
 0000:00000000       ___ImageBase               10000000     <linker-defined>
 0001:00005f30       _MdlInitialize             10006f30 f   PID_LoadCell_Magnet.obj
 0001:00005f40       _MdlInitializeSampleTimes  10006f40 f   PID_LoadCell_Magnet.obj
 0001:00005f50       _MdlInitializeSizes        10006f50 f   PID_LoadCell_Magnet.obj
 0001:00005f60       _MdlOutputs                10006f60 f   PID_LoadCell_Magnet.obj
 0001:00005f70       _MdlStart                  10006f70 f   PID_LoadCell_Magnet.obj
 0001:00005f80       _MdlTerminate              10006f80 f   PID_LoadCell_Magnet.obj
 0001:00005fd0       _MdlUpdate                 10006fd0 f   PID_LoadCell_Magnet.obj
 0001:00005fe0       _PID_LoadCell_Magnet       10006fe0 f   PID_LoadCell_Magnet.obj
 0001:00006d80       _PID_LoadCell_Magnet_IfSubsystem 10007d80 f   PID_LoadCell_Magnet.obj
 0001:00006da0       _PID_LoadCell_Magnet_derivatives 10007da0 f   PID_LoadCell_Magnet.obj
 0001:00006e40       _PID_LoadCell_Magnet_initialize 10007e40 f   PID_LoadCell_Magnet.obj
 0001:00007760       _PID_LoadCell_Magnet_output 10008760 f   PID_LoadCell_Magnet.obj
 0001:00007d10       _PID_LoadCell_Magnet_terminate 10008d10 f   PID_LoadCell_Magnet.obj
 0001:00007d60       _PID_LoadCell_Magnet_update 10008d60 f   PID_LoadCell_Magnet.obj
 0001:00007eb0       ___local_stdio_printf_options 10008eb0 f i PID_LoadCell_Magnet.obj
 0001:00007ec0       __vfprintf_l               10008ec0 f i PID_LoadCell_Magnet.obj
 0001:00007ef0       _printf                    10008ef0 f i PID_LoadCell_Magnet.obj
 0001:00007f30       _rt_ODECreateIntegrationData 10008f30 f   PID_LoadCell_Magnet.obj
 0001:00007f40       _rt_ODEDestroyIntegrationData 10008f40 f   PID_LoadCell_Magnet.obj
 0001:00007f50       _rt_ODEUpdateContinuousStates 10008f50 f   PID_LoadCell_Magnet.obj
 0001:000083f0       _rt_mxCreateCharMatrixFromStrings 100093f0 f   rt_matrx.obj
 0001:00008550       _rt_mxCreateDoubleMatrix   10009550 f   rt_matrx.obj
 0001:000085b0       _rt_mxCreateNumericArray   100095b0 f   rt_matrx.obj
 0001:00008630       _rt_mxCreateString         10009630 f   rt_matrx.obj
 0001:000086c0       _rt_mxDuplicateArray       100096c0 f   rt_matrx.obj
 0001:00008720       _rt_mxGetDimensions        10009720 f   rt_matrx.obj
 0001:00008760       _rt_mxGetEps               10009760 f   rt_matrx.obj
 0001:00008770       _rt_mxGetString            10009770 f   rt_matrx.obj
 0001:000087f0       _rtPrintfNoOp              100097f0 f   rt_printf.obj
 0001:00008800       _PID_LoadCell_Magnet_GetCAPIStaticMap 10009800 f   PID_LoadCell_Magnet_capi.obj
 0001:00008810       _PID_LoadCell_Magnet_InitializeDataMapInfo 10009810 f   PID_LoadCell_Magnet_capi.obj
 0001:000088a0       _rtGetInf                  100098a0 f   rtGetInf.obj
 0001:000088d0       _rtGetInfF                 100098d0 f   rtGetInf.obj
 0001:000088f0       _rtGetMinusInf             100098f0 f   rtGetInf.obj
 0001:00008920       _rtGetMinusInfF            10009920 f   rtGetInf.obj
 0001:00008940       _rtGetNaN                  10009940 f   rtGetNaN.obj
 0001:00008970       _rtGetNaNF                 10009970 f   rtGetNaN.obj
 0001:00008990       _rtIsInf                   10009990 f   rt_nonfinite.obj
 0001:000089d0       _rtIsInfF                  100099d0 f   rt_nonfinite.obj
 0001:00008a10       _rtIsNaN                   10009a10 f   rt_nonfinite.obj
 0001:00008a30       _rtIsNaNF                  10009a30 f   rt_nonfinite.obj
 0001:00008a50       _rt_InitInfAndNaN          10009a50 f   rt_nonfinite.obj
 0001:00008ab0       _rt_CleanUpForStateLogWithMMI 10009ab0 f   rt_logging_mmi.obj
 0001:00008bc0       _rt_FillStateSigInfoFromMMI 10009bc0 f   rt_logging_mmi.obj
 0001:00008f60       _rtwCAPI_CountSysRan       10009f60 f   rtw_modelmap_utils.obj
 0001:00009000       _rtwCAPI_EncodePath        1000a000 f   rtw_modelmap_utils.obj
 0001:00009100       _rtwCAPI_FillSysRan        1000a100 f   rtw_modelmap_utils.obj
 0001:000091f0       _rtwCAPI_FreeFullPaths     1000a1f0 f   rtw_modelmap_utils.obj
 0001:00009280       _rtwCAPI_GetFullStateBlockPath 1000a280 f   rtw_modelmap_utils.obj
 0001:00009430       _rtwCAPI_GetNumContStateRecords 1000a430 f   rtw_modelmap_utils.obj
 0001:000094f0       _rtwCAPI_GetNumSigLogRecords 1000a4f0 f   rtw_modelmap_utils.obj
 0001:00009540       _rtwCAPI_GetNumSigLogRecordsForRTWLogging 1000a540 f   rtw_modelmap_utils.obj
 0001:000095e0       _rtwCAPI_GetNumStateRecords 1000a5e0 f   rtw_modelmap_utils.obj
 0001:00009630       _rtwCAPI_GetNumStateRecordsForRTWLogging 1000a630 f   rtw_modelmap_utils.obj
 0001:000096d0       _rtwCAPI_GetSigAddrFromMap 1000a6d0 f   rtw_modelmap_utils.obj
 0001:00009790       _rtwCAPI_GetSigLogRecordInfo 1000a790 f   rtw_modelmap_utils.obj
 0001:00009bc0       _rtwCAPI_GetStateRecordInfo 1000abc0 f   rtw_modelmap_utils.obj
 0001:0000a070       _rtwCAPI_GetStateWidth     1000b070 f   rtw_modelmap_utils.obj
 0001:0000a0d0       _rtwCAPI_HasStates         1000b0d0 f   rtw_modelmap_utils.obj
 0001:0000a140       _rtwCAPI_UpdateFullPaths   1000b140 f   rtw_modelmap_utils.obj
 0001:0000a320       __vsnprintf_l              1000b320 f i rt_logging.obj
 0001:0000a360       __vsprintf_l               1000b360 f i rt_logging.obj
 0001:0000a3a0       _fprintf                   1000b3a0 f i rt_logging.obj
 0001:0000acb0       _rt_CreateLogVar           1000bcb0 f   rt_logging.obj
 0001:0000ad40       _rt_CreateLogVarWithConvert 1000bd40 f   rt_logging.obj
 0001:0000b6c0       _rt_CreateStructLogVar     1000c6c0 f   rt_logging.obj
 0001:0000c420       _rt_GetMxIdFromDTypeId     1000d420 f   rt_logging.obj
 0001:0000c450       _rt_GetMxIdFromDTypeIdForRSim 1000d450 f   rt_logging.obj
 0001:0000ed20       _rt_StartDataLogging       1000fd20 f   rt_logging.obj
 0001:0000f1e0       _rt_StartDataLoggingWithStartTime 100101e0 f   rt_logging.obj
 0001:0000fb40       _rt_StopDataLogging        10010b40 f   rt_logging.obj
 0001:0000fb60       _rt_StopDataLoggingImpl    10010b60 f   rt_logging.obj
 0001:0000fe90       _rt_UpdateLogVar           10010e90 f   rt_logging.obj
 0001:00010fb0       _rt_UpdateStructLogVar     10011fb0 f   rt_logging.obj
 0001:00011040       _rt_UpdateTXXFYLogVars     10012040 f   rt_logging.obj
 0001:00011370       _rt_UpdateTXYLogVars       10012370 f   rt_logging.obj
 0001:000115c0       _sprintf                   100125c0 f i rt_logging.obj
 0001:00011600       _DllMain@12                10012600 f   xpctarget.obj
 0001:00011610       _PID_LoadCell_Magnet_ChangeStepSize 10012610 f   xpctarget.obj
 0001:00011680       _SLRTSetErrorStatus        10012680 f   xpctarget.obj
 0001:000116a0       _changeStepSize            100126a0 f   xpctarget.obj
 0001:00011710       _getDLMVersion             10012710 f   xpctarget.obj
 0001:00011720       _getRefMdlPath             10012720 f   xpctarget.obj
 0001:000117a0       _getRefMdlSignalNumber     100127a0 f   xpctarget.obj
 0001:00011850       _getrlmdlinfo              10012850 f   xpctarget.obj
 0001:00011a30       _updateDiscreteEvents      10012a30 f   xpctarget.obj
 0001:00011a40       _getNumRef                 10012a40 f   appmappingData.obj
 0001:00011a50       _vprintf                   10012a50 f i legacy_stdio.obj
 0001:00011a90       _adquanserq8               10012a90 f   adquanserq8.obj
 0001:000121b0       _daquanserq8               100131b0 f   daquanserq8.obj
 0001:00012b20       _encquanserq8              10013b20 f   encquanserq8.obj
 0001:00013660       _GetPCIDeviceFull          10014660 f   xpcruntime:xpcimports.obj
 0001:000136a0       _ShowPCIDevice             100146a0 f   xpcruntime:xpcimports.obj
 0001:00013e60       _xpcGetPciConfigAtSlot     10014e60 f   xpcruntime:xpcimports.obj
 0001:00014170       _xpcInitProcs              10015170 f   xpcruntime:xpcimports.obj
 0001:000154d0       _xpceuploadevent           100164d0 f   xpcruntime:xpcimports.obj
 0001:000154e0       __ftoui3                   100164e0 f   LIBCMT:_ftol3_.obj
 0001:000154ef       __ftoul3                   100164ef f   LIBCMT:_ftol3_.obj
 0001:000154fe       __ftol3                    100164fe f   LIBCMT:_ftol3_.obj
 0001:0001550b       __ftol3_NaN                1001650b f   LIBCMT:_ftol3_.obj
 0001:00015523       __ftol3_work               10016523 f   LIBCMT:_ftol3_.obj
 0001:000155a9       __ftol3_common             100165a9 f   LIBCMT:_ftol3_.obj
 0001:0001566b       __ftol3_arg_error          1001666b f   LIBCMT:_ftol3_.obj
 0001:0001567d       __ftol3_except             1001667d f   LIBCMT:_ftol3_.obj
 0001:000156c1       __dtoui3                   100166c1 f   LIBCMT:_ftol3_.obj
 0001:000156d0       __dtoul3                   100166d0 f   LIBCMT:_ftol3_.obj
 0001:000156df       __dtol3                    100166df f   LIBCMT:_ftol3_.obj
 0001:000156ec       __dtol3_NaN                100166ec f   LIBCMT:_ftol3_.obj
 0001:00015709       __dtol3_work               10016709 f   LIBCMT:_ftol3_.obj
 0001:000157f0       __ultod3                   100167f0 f   LIBCMT:_ftol3_.obj
 0001:00015830       __ltod3                    10016830 f   LIBCMT:_ftol3_.obj
 0001:00015934       ___raise_securityfailure   10016934 f   LIBCMT:gs_report.obj
 0001:00015966       ___report_gsfailure        10016966 f   LIBCMT:gs_report.obj
 0001:00015a9f       ___report_rangecheckfailure 10016a9f f   LIBCMT:gs_report.obj
 0001:00015aae       ___report_securityfailure  10016aae f   LIBCMT:gs_report.obj
 0001:00015bb2       ___report_securityfailureEx 10016bb2 f   LIBCMT:gs_report.obj
 0001:00015d0d       @__security_check_cookie@4 10016d0d f   LIBCMT:_secchk_.obj
 0001:00015d22       ___isa_available_init      10016d22 f   LIBCMT:_cpu_disp_.obj
 0001:000162ea       __CRT_INIT@12              100172ea f   LIBCMT:dll_dllmain.obj
 0001:000162f5       __DllMainCRTStartup@12     100172f5 f   LIBCMT:dll_dllmain.obj
 0001:00016320       ??$__crt_fast_decode_pointer@PAP6AXXZ@@YAPAP6AXXZQAP6AXXZ@Z 10017320 f i LIBCMT:utility.obj
 0001:00016339       ??$__crt_fast_encode_pointer@PAP6AXXZ@@YAPAP6AXXZQAP6AXXZ@Z 10017339 f i LIBCMT:utility.obj
 0001:0001635d       ?__crt_rotate_pointer_value@@YAIIH@Z 1001735d f i LIBCMT:utility.obj
 0001:0001636d       ?configure_argv@__scrt_narrow_argv_policy@@SAHXZ 1001736d f i LIBCMT:utility.obj
 0001:00016411       _NtCurrentTeb              10017411 f i LIBCMT:utility.obj
 0001:00016418       ___scrt_acquire_startup_lock 10017418 f   LIBCMT:utility.obj
 0001:0001645a       ___scrt_dllmain_after_initialize_c 1001745a f   LIBCMT:utility.obj
 0001:0001648f       ___scrt_dllmain_before_initialize_c 1001748f f   LIBCMT:utility.obj
 0001:000164a0       ___scrt_dllmain_crt_thread_attach 100174a0 f   LIBCMT:utility.obj
 0001:000164c6       ___scrt_dllmain_crt_thread_detach 100174c6 f   LIBCMT:utility.obj
 0001:000164d6       ___scrt_dllmain_exception_filter 100174d6 f   LIBCMT:utility.obj
 0001:00016515       ___scrt_dllmain_uninitialize_c 10017515 f   LIBCMT:utility.obj
 0001:00016540       ___scrt_dllmain_uninitialize_critical 10017540 f   LIBCMT:utility.obj
 0001:00016550       ___scrt_initialize_crt     10017550 f   LIBCMT:utility.obj
 0001:00016597       ___scrt_initialize_onexit_tables 10017597 f   LIBCMT:utility.obj
 0001:00016653       ___scrt_is_nonwritable_in_current_image 10017653 f   LIBCMT:utility.obj
 0001:000166ff       ___scrt_release_startup_lock 100176ff f   LIBCMT:utility.obj
 0001:00016723       ___scrt_uninitialize_crt   10017723 f   LIBCMT:utility.obj
 0001:00016755       __onexit                   10017755 f   LIBCMT:utility.obj
 0001:0001679e       _at_quick_exit             1001779e f   LIBCMT:utility.obj
 0001:000167db       _atexit                    100177db f   LIBCMT:utility.obj
 0001:000167f5       ___security_init_cookie    100177f5 f   LIBCMT:gs_support.obj
 0001:000168b8       ?__scrt_initialize_type_info@@YAXXZ 100178b8 f   LIBCMT:tncleanup.obj
 0001:000168c7       ?__scrt_uninitialize_type_info@@YAXXZ 100178c7 f   LIBCMT:tncleanup.obj
 0001:000168d6       ___local_stdio_scanf_options 100178d6 f i LIBCMT:default_local_stdio_options.obj
 0001:000168dc       ___scrt_initialize_default_local_stdio_options 100178dc f   LIBCMT:default_local_stdio_options.obj
 0001:00016900       ___scrt_get_dyn_tls_init_callback 10017900 f   LIBCMT:dyn_tls_init.obj
 0001:00016906       ___scrt_fastfail           10017906 f   LIBCMT:utility_desktop.obj
 0001:00016a67       ___scrt_get_show_window_mode 10017a67 f   LIBCMT:utility_desktop.obj
 0001:00016aa6       ___scrt_initialize_winrt   10017aa6 f   LIBCMT:utility_desktop.obj
 0001:00016aa9       ___scrt_is_managed_app     10017aa9 f   LIBCMT:utility_desktop.obj
 0001:00016afe       ___scrt_set_unhandled_exception_filter 10017afe f   LIBCMT:utility_desktop.obj
 0001:00016b0d       ___scrt_unhandled_exception_filter@4 10017b0d f   LIBCMT:utility_desktop.obj
 0001:00016b5e       __crt_debugger_hook        10017b5e f   LIBCMT:utility_desktop.obj
 0001:00016b68       __RTC_Initialize           10017b68 f   LIBCMT:_initsect_.obj
 0001:00016b9d       __RTC_Terminate            10017b9d f   LIBCMT:_initsect_.obj
 0001:00016bd2       @_guard_check_icall@4      10017bd2 f i LIBCMT:checkcfg.obj
 0001:00016be0       __SEH_prolog4              10017be0 f   LIBCMT:_sehprolg4_.obj
 0001:00016c26       __SEH_epilog4              10017c26 f   LIBCMT:_sehprolg4_.obj
 0001:00016c51       __get_startup_argv_mode    10017c51 f   LIBCMT:argv_mode.obj
 0001:00016c55       ___scrt_is_ucrt_dll_in_use 10017c55 f   LIBCMT:ucrt_detection.obj
 0001:00016c64       @_guard_check_icall_nop@4  10017c64 f i LIBCMT:guard_support.obj
 0001:00016c65       __guard_icall_checks_enforced 10017c65 f i LIBCMT:guard_support.obj
 0001:00016c7c       _GetModuleHandleA@4        10017c7c f   kernel32:KERNEL32.dll
 0001:00016c82       _GetProcAddress@8          10017c82 f   kernel32:KERNEL32.dll
 0001:00016c88       _UnhandledExceptionFilter@4 10017c88 f   kernel32:KERNEL32.dll
 0001:00016c8e       _SetUnhandledExceptionFilter@4 10017c8e f   kernel32:KERNEL32.dll
 0001:00016c94       _GetCurrentProcess@0       10017c94 f   kernel32:KERNEL32.dll
 0001:00016c9a       _TerminateProcess@8        10017c9a f   kernel32:KERNEL32.dll
 0001:00016ca0       _IsProcessorFeaturePresent@4 10017ca0 f   kernel32:KERNEL32.dll
 0001:00016ca6       _QueryPerformanceCounter@4 10017ca6 f   kernel32:KERNEL32.dll
 0001:00016cac       _GetCurrentProcessId@0     10017cac f   kernel32:KERNEL32.dll
 0001:00016cb2       _GetCurrentThreadId@0      10017cb2 f   kernel32:KERNEL32.dll
 0001:00016cb8       _GetSystemTimeAsFileTime@4 10017cb8 f   kernel32:KERNEL32.dll
 0001:00016cbe       _InitializeSListHead@4     10017cbe f   kernel32:KERNEL32.dll
 0001:00016cc4       _IsDebuggerPresent@0       10017cc4 f   kernel32:KERNEL32.dll
 0001:00016cca       _GetStartupInfoW@4         10017cca f   kernel32:KERNEL32.dll
 0001:00016cd0       _GetModuleHandleW@4        10017cd0 f   kernel32:KERNEL32.dll
 0001:00016ce0       _memset                    10017ce0 f   libvcruntime:memset.obj
 0001:00016e90       _memcpy                    10017e90 f   libvcruntime:memcpy.obj
 0001:00017570       _memmove                   10018570 f   libvcruntime:memmove.obj
 0001:00017c50       _strchr                    10018c50 f   libvcruntime:strchr.obj
 0001:00017cbe       ___from_strstr_to_strchr   10018cbe     libvcruntime:strchr.obj
 0001:00017e10       __except_handler4          10018e10 f   libvcruntime:_chandler4_.obj
 0001:00017fcf       ___vcrt_initialize         10018fcf f   libvcruntime:initialization.obj
 0001:00018002       ___vcrt_thread_attach      10019002 f   libvcruntime:initialization.obj
 0001:0001800f       ___vcrt_thread_detach      1001900f f   libvcruntime:initialization.obj
 0001:0001801c       ___vcrt_uninitialize       1001901c f   libvcruntime:initialization.obj
 0001:00018042       ___vcrt_uninitialize_critical 10019042 f   libvcruntime:initialization.obj
 0001:0001805d       ??$?RD@__crt_internal_free_policy@@QBEXQBD@Z 1001905d f i libvcruntime:std_type_info.obj
 0001:00018071       ??$?RX@__crt_internal_free_policy@@QBEXQBX@Z 10019071 f i libvcruntime:std_type_info.obj
 0001:00018085       ??$__crt_interlocked_compare_exchange_pointer@$$CBD$$T$$T@@YAPBDPDSBD$$T1@Z 10019085 f i libvcruntime:std_type_info.obj
 0001:0001809b       ??$__crt_interlocked_compare_exchange_pointer@$$CBDPAD$$T@@YAPBDPDSBDQAD$$T@Z 1001909b f i libvcruntime:std_type_info.obj
 0001:000180b1       ??$__crt_interlocked_read_pointer@$$CBD@@YAPBDPDSBD@Z 100190b1 f i libvcruntime:std_type_info.obj
 0001:000180c5       ??0?$__crt_unique_heap_ptr@DU__crt_internal_free_policy@@@@QAE@QAD@Z 100190c5 f i libvcruntime:std_type_info.obj
 0001:000180d6       ??0?$__crt_unique_heap_ptr@XU__crt_internal_free_policy@@@@QAE@QAX@Z 100190d6 f i libvcruntime:std_type_info.obj
 0001:000180e7       ??1?$__crt_unique_heap_ptr@DU__crt_internal_free_policy@@@@QAE@XZ 100190e7 f i libvcruntime:std_type_info.obj
 0001:000180fb       ??1?$__crt_unique_heap_ptr@XU__crt_internal_free_policy@@@@QAE@XZ 100190fb f i libvcruntime:std_type_info.obj
 0001:0001811b       ??B?$__crt_unique_heap_ptr@DU__crt_internal_free_policy@@@@QBE_NXZ 1001911b f i libvcruntime:std_type_info.obj
 0001:00018122       ??B?$__crt_unique_heap_ptr@XU__crt_internal_free_policy@@@@QBE_NXZ 10019122 f i libvcruntime:std_type_info.obj
 0001:00018151       ?detach@?$__crt_unique_heap_ptr@XU__crt_internal_free_policy@@@@QAEPAXXZ 10019151 f i libvcruntime:std_type_info.obj
 0001:00018157       ?get@?$__crt_unique_heap_ptr@DU__crt_internal_free_policy@@@@QBEPADXZ 10019157 f i libvcruntime:std_type_info.obj
 0001:0001815a       ?get@?$__crt_unique_heap_ptr@XU__crt_internal_free_policy@@@@QBEPAXXZ 1001915a f i libvcruntime:std_type_info.obj
 0001:0001815d       ?is_valid@?$__crt_unique_heap_ptr@DU__crt_internal_free_policy@@@@QBE_NXZ 1001915d f i libvcruntime:std_type_info.obj
 0001:00018164       ?is_valid@?$__crt_unique_heap_ptr@XU__crt_internal_free_policy@@@@QBE_NXZ 10019164 f i libvcruntime:std_type_info.obj
 0001:0001816b       ?release@?$__crt_unique_heap_ptr@DU__crt_internal_free_policy@@@@QAEXXZ 1001916b f i libvcruntime:std_type_info.obj
 0001:0001817f       ?release@?$__crt_unique_heap_ptr@XU__crt_internal_free_policy@@@@QAEXXZ 1001917f f i libvcruntime:std_type_info.obj
 0001:00018193       ___std_type_info_compare   10019193 f   libvcruntime:std_type_info.obj
 0001:000181de       ___std_type_info_destroy_list 100191de f   libvcruntime:std_type_info.obj
 0001:00018209       ___std_type_info_hash      10019209 f   libvcruntime:std_type_info.obj
 0001:00018238       ___std_type_info_name      10019238 f   libvcruntime:std_type_info.obj
 0001:00018340       __local_unwind4            10019340 f   libvcruntime:_exsup4_.obj
 0001:00018416       __seh_longjmp_unwind4@4    10019416 f   libvcruntime:_exsup4_.obj
 0001:0001843e       @_EH4_CallFilterFunc@8     1001943e f   libvcruntime:_exsup4_.obj
 0001:00018455       @_EH4_TransferToHandler@8  10019455 f   libvcruntime:_exsup4_.obj
 0001:0001846e       @_EH4_GlobalUnwind2@8      1001946e f   libvcruntime:_exsup4_.obj
 0001:00018487       @_EH4_LocalUnwind@16       10019487 f   libvcruntime:_exsup4_.obj
 0001:000184f5       ___except_validate_context_record 100194f5 f   libvcruntime:jbcxrval.obj
 0001:000184f6       ___except_validate_jump_buffer 100194f6 f   libvcruntime:jbcxrval.obj
 0001:000184f7       ??$?RU__vcrt_ptd@@@__crt_internal_free_policy@@QBEXQBU__vcrt_ptd@@@Z 100194f7 f i libvcruntime:per_thread_data.obj
 0001:0001850b       ??0?$__crt_unique_heap_ptr@U__vcrt_ptd@@U__crt_internal_free_policy@@@@QAE@QAU__vcrt_ptd@@@Z 1001950b f i libvcruntime:per_thread_data.obj
 0001:0001852e       ??1?$__crt_unique_heap_ptr@U__vcrt_ptd@@U__crt_internal_free_policy@@@@QAE@XZ 1001952e f i libvcruntime:per_thread_data.obj
 0001:0001854d       ??B?$__crt_unique_heap_ptr@U__vcrt_ptd@@U__crt_internal_free_policy@@@@QBE_NXZ 1001954d f i libvcruntime:per_thread_data.obj
 0001:00018554       ?detach@?$__crt_unique_heap_ptr@U__vcrt_ptd@@U__crt_internal_free_policy@@@@QAEPAU__vcrt_ptd@@XZ 10019554 f i libvcruntime:per_thread_data.obj
 0001:0001855a       ?get@?$__crt_unique_heap_ptr@U__vcrt_ptd@@U__crt_internal_free_policy@@@@QBEPAU__vcrt_ptd@@XZ 1001955a f i libvcruntime:per_thread_data.obj
 0001:0001855d       ?is_valid@?$__crt_unique_heap_ptr@U__vcrt_ptd@@U__crt_internal_free_policy@@@@QBE_NXZ 1001955d f i libvcruntime:per_thread_data.obj
 0001:00018564       ?release@?$__crt_unique_heap_ptr@U__vcrt_ptd@@U__crt_internal_free_policy@@@@QAEXXZ 10019564 f i libvcruntime:per_thread_data.obj
 0001:00018598       ___vcrt_freefls@4          10019598 f   libvcruntime:per_thread_data.obj
 0001:000185bb       ___vcrt_freeptd            100195bb f   libvcruntime:per_thread_data.obj
 0001:000185fe       ___vcrt_getptd             100195fe f   libvcruntime:per_thread_data.obj
 0001:0001860f       ___vcrt_getptd_noexit      1001960f f   libvcruntime:per_thread_data.obj
 0001:000186c5       ___vcrt_initialize_ptd     100196c5 f   libvcruntime:per_thread_data.obj
 0001:00018704       ___vcrt_uninitialize_ptd   10019704 f   libvcruntime:per_thread_data.obj
 0001:00018725       ___vcrt_initialize_locks   10019725 f   libvcruntime:locks.obj
 0001:00018770       ___vcrt_lock               10019770 f   libvcruntime:locks.obj
 0001:0001878a       ___vcrt_uninitialize_locks 1001978a f   libvcruntime:locks.obj
 0001:000187c4       ___vcrt_unlock             100197c4 f   libvcruntime:locks.obj
 0001:000187de       ??$?BX@__crt_fast_encoded_nullptr_t@@QBEPAXXZ 100197de f i libvcruntime:winapi_downlevel.obj
 0001:000187fc       ??$__crt_fast_decode_pointer@PAX@@YAPAXQAX@Z 100197fc f i libvcruntime:winapi_downlevel.obj
 0001:00018815       ??$__crt_fast_encode_pointer@PAX@@YAPAXQAX@Z 10019815 f i libvcruntime:winapi_downlevel.obj
 0001:00018839       ??$__crt_interlocked_compare_exchange_pointer@UHINSTANCE__@@$$T$$T@@YAPAUHINSTANCE__@@PDSAU0@$$T1@Z 10019839 f i libvcruntime:winapi_downlevel.obj
 0001:0001884f       ??$__crt_interlocked_compare_exchange_pointer@X$$T$$T@@YAPAXPDSAX$$T1@Z 1001984f f i libvcruntime:winapi_downlevel.obj
 0001:00018865       ??$__crt_interlocked_exchange_pointer@UHINSTANCE__@@PAU1@@@YAPAUHINSTANCE__@@PDSAU0@QAU0@@Z 10019865 f i libvcruntime:winapi_downlevel.obj
 0001:00018875       ??$__crt_interlocked_exchange_pointer@UHINSTANCE__@@PAX@@YAPAUHINSTANCE__@@PDSAU0@QAX@Z 10019875 f i libvcruntime:winapi_downlevel.obj
 0001:00018885       ??$__crt_interlocked_exchange_pointer@XPAX@@YAPAXPDSAXQAX@Z 10019885 f i libvcruntime:winapi_downlevel.obj
 0001:00018895       ??$__crt_interlocked_read_pointer@UHINSTANCE__@@@@YAPAUHINSTANCE__@@PDSAU0@@Z 10019895 f i libvcruntime:winapi_downlevel.obj
 0001:000188a9       ??$__crt_interlocked_read_pointer@X@@YAPAXPDSAX@Z 100198a9 f i libvcruntime:winapi_downlevel.obj
 0001:000188bd       ?__crt_fast_encode_pointer@@YA?AU__crt_fast_encoded_nullptr_t@@$$T@Z 100198bd f i libvcruntime:winapi_downlevel.obj
 0001:00018c01       ___vcrt_EventRegister      10019c01 f   libvcruntime:winapi_downlevel.obj
 0001:00018c51       ___vcrt_EventSetInformation 10019c51 f   libvcruntime:winapi_downlevel.obj
 0001:00018ca4       ___vcrt_EventUnregister    10019ca4 f   libvcruntime:winapi_downlevel.obj
 0001:00018cec       ___vcrt_EventWriteTransfer 10019cec f   libvcruntime:winapi_downlevel.obj
 0001:00018d47       ___vcrt_FlsAlloc           10019d47 f   libvcruntime:winapi_downlevel.obj
 0001:00018d8f       ___vcrt_FlsFree            10019d8f f   libvcruntime:winapi_downlevel.obj
 0001:00018dd7       ___vcrt_FlsGetValue        10019dd7 f   libvcruntime:winapi_downlevel.obj
 0001:00018e1f       ___vcrt_FlsSetValue        10019e1f f   libvcruntime:winapi_downlevel.obj
 0001:00018e6b       ___vcrt_InitializeCriticalSectionEx 10019e6b f   libvcruntime:winapi_downlevel.obj
 0001:00018ec2       ___vcrt_initialize_winapi_thunks 10019ec2 f   libvcruntime:winapi_downlevel.obj
 0001:00018f0a       ___vcrt_uninitialize_winapi_thunks 10019f0a f   libvcruntime:winapi_downlevel.obj
 0001:00018f48       ??$?B$$A6AXXZ@__crt_fast_encoded_nullptr_t@@QBEP6AXXZXZ 10019f48 f i libvcruntime:purevirt_data.obj
 0001:00018f66       ??$__crt_fast_encode_pointer@P6AXXZ@@YAP6AXXZQ6AXXZ@Z 10019f66 f i libvcruntime:purevirt_data.obj
 0001:00018f8a       ___vcrt_initialize_pure_virtual_call_handler 10019f8a f   libvcruntime:purevirt_data.obj
 0001:00018fae       ??$__vcrt_va_start_verify_argument_type@QBD@@YAXXZ 10019fae f i libvcruntime:undname.obj
 0001:00018faf       ??0Block@_HeapManager@@QAE@XZ 10019faf f i libvcruntime:undname.obj
 0001:00018fb5       ??0DName@@QAE@AAPBDD@Z     10019fb5 f   libvcruntime:undname.obj
 0001:0001909c       ??0DName@@QAE@ABV0@@Z      1001a09c f i libvcruntime:undname.obj
 0001:000190b7       ??0DName@@QAE@D@Z          1001a0b7 f   libvcruntime:undname.obj
 0001:000190ee       ??0DName@@QAE@PAV0@@Z      1001a0ee f   libvcruntime:undname.obj
 0001:0001914e       ??0DName@@QAE@PBD@Z        1001a14e f   libvcruntime:undname.obj
 0001:00019196       ??0DName@@QAE@W4DNameStatus@@@Z 1001a196 f   libvcruntime:undname.obj
 0001:000191e9       ??0DName@@QAE@XZ           1001a1e9 f i libvcruntime:undname.obj
 0001:000191fe       ??0DName@@QAE@_J@Z         1001a1fe f   libvcruntime:undname.obj
 0001:000192b8       ??0DName@@QAE@_K@Z         1001a2b8 f   libvcruntime:undname.obj
 0001:00019342       ??0DNameNode@@IAE@XZ       1001a342 f   libvcruntime:undname.obj
 0001:0001934d       ??0DNameStatusNode@@AAE@W4DNameStatus@@@Z 1001a34d f   libvcruntime:undname.obj
 0001:00019378       ??0Replicator@@QAE@XZ      1001a378 f i libvcruntime:undname.obj
 0001:0001937e       ??0UnDecorator@@QAE@PADPBDHP6APADJ@ZK@Z 1001a37e f i libvcruntime:undname.obj
 0001:00019401       ??0charNode@@QAE@D@Z       1001a401 f   libvcruntime:undname.obj
 0001:0001941b       ??0pDNameNode@@QAE@PAVDName@@@Z 1001a41b f   libvcruntime:undname.obj
 0001:0001944d       ??0pairNode@@QAE@PAVDNameNode@@0@Z 1001a44d f   libvcruntime:undname.obj
 0001:00019473       ??0pcharNode@@QAE@PBDH@Z   1001a473 f   libvcruntime:undname.obj
 0001:000194e2       ??2@YAPAXIAAV_HeapManager@@H@Z 1001a4e2 f i libvcruntime:undname.obj
 0001:000194fc       ??4DName@@QAEAAV0@ABV0@@Z  1001a4fc f   libvcruntime:undname.obj
 0001:00019517       ??4DName@@QAEAAV0@D@Z      1001a517 f i libvcruntime:undname.obj
 0001:0001954e       ??4DName@@QAEAAV0@PAV0@@Z  1001a54e f   libvcruntime:undname.obj
 0001:000195a9       ??4DName@@QAEAAV0@PBD@Z    1001a5a9 f   libvcruntime:undname.obj
 0001:000195e7       ??4DName@@QAEAAV0@W4DNameStatus@@@Z 1001a5e7 f   libvcruntime:undname.obj
 0001:00019629       ??AReplicator@@QBE?AVDName@@H@Z 1001a629 f   libvcruntime:undname.obj
 0001:00019674       ??BUnDecorator@@QAEPADXZ   1001a674 f i libvcruntime:undname.obj
 0001:0001984b       ??H@YA?AVDName@@DABV0@@Z   1001a84b f i libvcruntime:undname.obj
 0001:00019878       ??H@YA?AVDName@@PBDABV0@@Z 1001a878 f i libvcruntime:undname.obj
 0001:000198a5       ??H@YA?AVDName@@W4DNameStatus@@ABV0@@Z 1001a8a5 f i libvcruntime:undname.obj
 0001:000198d2       ??HDName@@QBE?AV0@ABV0@@Z  1001a8d2 f   libvcruntime:undname.obj
 0001:000198fc       ??HDName@@QBE?AV0@D@Z      1001a8fc f   libvcruntime:undname.obj
 0001:00019926       ??HDName@@QBE?AV0@PAV0@@Z  1001a926 f   libvcruntime:undname.obj
 0001:00019950       ??HDName@@QBE?AV0@PBD@Z    1001a950 f   libvcruntime:undname.obj
 0001:0001997a       ??HDName@@QBE?AV0@W4DNameStatus@@@Z 1001a97a f   libvcruntime:undname.obj
 0001:000199a4       ??YDName@@QAEAAV0@ABV0@@Z  1001a9a4 f   libvcruntime:undname.obj
 0001:000199f7       ??YDName@@QAEAAV0@D@Z      1001a9f7 f   libvcruntime:undname.obj
 0001:00019a5b       ??YDName@@QAEAAV0@PAV0@@Z  1001aa5b f   libvcruntime:undname.obj
 0001:00019ad9       ??YDName@@QAEAAV0@PBD@Z    1001aad9 f   libvcruntime:undname.obj
 0001:00019b52       ??YDName@@QAEAAV0@W4DNameStatus@@@Z 1001ab52 f   libvcruntime:undname.obj
 0001:00019ba2       ??YReplicator@@QAEAAV0@ABVDName@@@Z 1001aba2 f   libvcruntime:undname.obj
 0001:00019bfe       ??_5DName@@QAEAAV0@ABV0@@Z 1001abfe f   libvcruntime:undname.obj
 0001:00019c21       ?Constructor@_HeapManager@@QAEXP6APAXI@ZP6AXPAX@Z@Z 1001ac21 f i libvcruntime:undname.obj
 0001:00019c45       ?Destructor@_HeapManager@@QAEXXZ 1001ac45 f i libvcruntime:undname.obj
 0001:00019c8c       ?UScore@UnDecorator@@SAPBDW4Tokens@@@Z 1001ac8c f   libvcruntime:undname.obj
 0001:00019cb0       ?append@DName@@AAEXPAVDNameNode@@@Z 1001acb0 f   libvcruntime:undname.obj
 0001:00019d07       ?composeDeclaration@UnDecorator@@CA?AVDName@@ABV2@@Z 1001ad07 f i libvcruntime:undname.obj
 0001:0001ad42       ?doAccessSpecifiers@UnDecorator@@SAHXZ 1001bd42 f i libvcruntime:undname.obj
 0001:0001ad53       ?doAllocationLanguage@UnDecorator@@SAHXZ 1001bd53 f i libvcruntime:undname.obj
 0001:0001ad64       ?doAllocationModel@UnDecorator@@SAHXZ 1001bd64 f i libvcruntime:undname.obj
 0001:0001ad75       ?doEcsu@UnDecorator@@SAHXZ 1001bd75 f i libvcruntime:undname.obj
 0001:0001ad86       ?doEllipsis@UnDecorator@@SAHXZ 1001bd86 f i libvcruntime:undname.obj
 0001:0001ad97       ?doFunctionReturns@UnDecorator@@SAHXZ 1001bd97 f i libvcruntime:undname.obj
 0001:0001ada8       ?doMSKeywords@UnDecorator@@SAHXZ 1001bda8 f i libvcruntime:undname.obj
 0001:0001adb8       ?doMemberTypes@UnDecorator@@SAHXZ 1001bdb8 f i libvcruntime:undname.obj
 0001:0001adc9       ?doNameOnly@UnDecorator@@SAHXZ 1001bdc9 f i libvcruntime:undname.obj
 0001:0001add6       ?doNoIdentCharCheck@UnDecorator@@SAHXZ 1001bdd6 f i libvcruntime:undname.obj
 0001:0001ade3       ?doPchar@DName@@AAEXPBDH@Z 1001bde3 f   libvcruntime:undname.obj
 0001:0001ae8f       ?doPtr64@UnDecorator@@SAHXZ 1001be8f f i libvcruntime:undname.obj
 0001:0001aea0       ?doRestrictionSpec@UnDecorator@@SAHXZ 1001bea0 f i libvcruntime:undname.obj
 0001:0001aeb1       ?doThisTypes@UnDecorator@@SAHXZ 1001beb1 f i libvcruntime:undname.obj
 0001:0001aec7       ?doThrowTypes@UnDecorator@@SAHXZ 1001bec7 f i libvcruntime:undname.obj
 0001:0001aed8       ?doTypeOnly@UnDecorator@@SAHXZ 1001bed8 f i libvcruntime:undname.obj
 0001:0001aee5       ?doUnderScore@UnDecorator@@SAHXZ 1001bee5 f i libvcruntime:undname.obj
 0001:0001aef2       ?getArgumentList@UnDecorator@@CA?AVDName@@XZ 1001bef2 f   libvcruntime:undname.obj
 0001:0001b041       ?getArgumentTypes@UnDecorator@@CA?AVDName@@XZ 1001c041 f   libvcruntime:undname.obj
 0001:0001b159       ?getArrayType@UnDecorator@@CA?AVDName@@ABV2@@Z 1001c159 f i libvcruntime:undname.obj
 0001:0001b3db       ?getBasedType@UnDecorator@@CA?AVDName@@XZ 1001c3db f   libvcruntime:undname.obj
 0001:0001b49a       ?getBasicDataType@UnDecorator@@CA?AVDName@@ABV2@@Z 1001c49a f   libvcruntime:undname.obj
 0001:0001b984       ?getCallIndex@UnDecorator@@CA?AVDName@@XZ 1001c984 f i libvcruntime:undname.obj
 0001:0001b99d       ?getCallingConvention@UnDecorator@@CA?AVDName@@XZ 1001c99d f   libvcruntime:undname.obj
 0001:0001ba8b       ?getDataIndirectType@UnDecorator@@CA?AVDName@@ABV2@PBD0H@Z 1001ca8b f   libvcruntime:undname.obj
 0001:0001c236       ?getDataIndirectType@UnDecorator@@CA?AVDName@@XZ 1001d236 f i libvcruntime:undname.obj
 0001:0001c27d       ?getDataType@UnDecorator@@CA?AVDName@@PAV2@@Z 1001d27d f   libvcruntime:undname.obj
 0001:0001c383       ?getDecoratedName@UnDecorator@@CA?AVDName@@XZ 1001d383 f   libvcruntime:undname.obj
 0001:0001c662       ?getDimension@UnDecorator@@CA?AVDName@@_N@Z 1001d662 f   libvcruntime:undname.obj
 0001:0001c7e6       ?getDispatchTarget@UnDecorator@@CA?AVDName@@XZ 1001d7e6 f   libvcruntime:undname.obj
 0001:0001c857       ?getDisplacement@UnDecorator@@CA?AVDName@@XZ 1001d857 f i libvcruntime:undname.obj
 0001:0001c870       ?getECSUDataType@UnDecorator@@CA?AVDName@@XZ 1001d870 f   libvcruntime:undname.obj
 0001:0001c9d4       ?getECSUName@UnDecorator@@CA?AVDName@@XZ 1001d9d4 f i libvcruntime:undname.obj
 0001:0001c9e9       ?getEnumType@UnDecorator@@CA?AVDName@@XZ 1001d9e9 f i libvcruntime:undname.obj
 0001:0001cb10       ?getExtendedDataIndirectType@UnDecorator@@CA?AVDName@@AAPBDAA_NH@Z 1001db10 f   libvcruntime:undname.obj
 0001:0001cd23       ?getExternalDataType@UnDecorator@@CA?AVDName@@ABV2@@Z 1001dd23 f i libvcruntime:undname.obj
 0001:0001cdba       ?getFunctionIndirectType@UnDecorator@@CA?AVDName@@ABV2@@Z 1001ddba f   libvcruntime:undname.obj
 0001:0001d2c5       ?getGuardNumber@UnDecorator@@CA?AVDName@@XZ 1001e2c5 f i libvcruntime:undname.obj
 0001:0001d2de       ?getLastChar@DName@@QBEDXZ 1001e2de f i libvcruntime:undname.obj
 0001:0001d304       ?getLastChar@DNameStatusNode@@UBEDXZ 1001e304 f i libvcruntime:undname.obj
 0001:0001d313       ?getLastChar@charNode@@UBEDXZ 1001e313 f i libvcruntime:undname.obj
 0001:0001d317       ?getLastChar@pDNameNode@@UBEDXZ 1001e317 f i libvcruntime:undname.obj
 0001:0001d328       ?getLastChar@pairNode@@UBEDXZ 1001e328 f i libvcruntime:undname.obj
 0001:0001d367       ?getLastChar@pcharNode@@UBEDXZ 1001e367 f i libvcruntime:undname.obj
 0001:0001d37d       ?getLexicalFrame@UnDecorator@@CA?AVDName@@XZ 1001e37d f i libvcruntime:undname.obj
 0001:0001d3c9       ?getMemory@_HeapManager@@QAEPAXIH@Z 1001e3c9 f   libvcruntime:undname.obj
 0001:0001d47a       ?getNumberOfDimensions@UnDecorator@@CAHXZ 1001e47a f   libvcruntime:undname.obj
 0001:0001d4f3       ?getOperatorName@UnDecorator@@CA?AVDName@@_NPA_N@Z 1001e4f3 f i libvcruntime:undname.obj
 0001:0001dca3       ?getPointerType@UnDecorator@@CA?AVDName@@ABV2@0@Z 1001eca3 f i libvcruntime:undname.obj
 0001:0001dcc8       ?getPointerTypeArray@UnDecorator@@CA?AVDName@@ABV2@0@Z 1001ecc8 f i libvcruntime:undname.obj
 0001:0001dced       ?getPrimaryDataType@UnDecorator@@CA?AVDName@@ABV2@@Z 1001eced f   libvcruntime:undname.obj
 0001:0001df5e       ?getPtrRefDataType@UnDecorator@@CA?AVDName@@ABV2@H@Z 1001ef5e f   libvcruntime:undname.obj
 0001:0001e0a0       ?getPtrRefType@UnDecorator@@CA?AVDName@@ABV2@0PBD@Z 1001f0a0 f   libvcruntime:undname.obj
 0001:0001e1db       ?getReferenceType@UnDecorator@@CA?AVDName@@ABV2@0PBD@Z 1001f1db f i libvcruntime:undname.obj
 0001:0001e1fe       ?getRestrictionSpec@UnDecorator@@CA?AVDName@@XZ 1001f1fe f   libvcruntime:undname.obj
 0001:0001e32c       ?getReturnType@UnDecorator@@CA?AVDName@@PAV2@@Z 1001f32c f   libvcruntime:undname.obj
 0001:0001e366       ?getScope@UnDecorator@@CA?AVDName@@XZ 1001f366 f   libvcruntime:undname.obj
 0001:0001e83b       ?getScopedName@UnDecorator@@CA?AVDName@@XZ 1001f83b f   libvcruntime:undname.obj
 0001:0001e974       ?getSignedDimension@UnDecorator@@CA?AVDName@@XZ 1001f974 f   libvcruntime:undname.obj
 0001:0001e9db       ?getStorageConvention@UnDecorator@@CA?AVDName@@XZ 1001f9db f i libvcruntime:undname.obj
 0001:0001e9f0       ?getString@DName@@QBEPADPAD0@Z 1001f9f0 f i libvcruntime:undname.obj
 0001:0001ea27       ?getString@DName@@QBEPADPADH@Z 1001fa27 f i libvcruntime:undname.obj
 0001:0001ea92       ?getString@DNameStatusNode@@UBEPADPAD0@Z 1001fa92 f i libvcruntime:undname.obj
 0001:0001eac2       ?getString@charNode@@UBEPADPAD0@Z 1001fac2 f i libvcruntime:undname.obj
 0001:0001eadc       ?getString@pDNameNode@@UBEPADPAD0@Z 1001fadc f i libvcruntime:undname.obj
 0001:0001eaf8       ?getString@pairNode@@UBEPADPAD0@Z 1001faf8 f i libvcruntime:undname.obj
 0001:0001eb4d       ?getString@pcharNode@@UBEPADPAD0@Z 1001fb4d f i libvcruntime:undname.obj
 0001:0001eb6e       ?getStringEncoding@UnDecorator@@CA?AVDName@@PADH@Z 1001fb6e f   libvcruntime:undname.obj
 0001:0001ec39       ?getStringHelper@@YAPADPAD00H@Z 1001fc39 f i libvcruntime:undname.obj
 0001:0001ec7d       ?getSymbolName@UnDecorator@@CA?AVDName@@XZ 1001fc7d f i libvcruntime:undname.obj
 0001:0001ecd7       ?getTemplateArgumentList@UnDecorator@@CA?AVDName@@XZ 1001fcd7 f   libvcruntime:undname.obj
 0001:0001f024       ?getTemplateConstant@UnDecorator@@CA?AVDName@@XZ 10020024 f   libvcruntime:undname.obj
 0001:0001f439       ?getTemplateName@UnDecorator@@CA?AVDName@@_N@Z 10020439 f   libvcruntime:undname.obj
 0001:0001f5e4       ?getThisType@UnDecorator@@CA?AVDName@@XZ 100205e4 f i libvcruntime:undname.obj
 0001:0001f62c       ?getThrowTypes@UnDecorator@@CA?AVDName@@XZ 1002062c f   libvcruntime:undname.obj
 0001:0001f6d8       ?getTypeEncoding@UnDecorator@@CAHXZ 100206d8 f i libvcruntime:undname.obj
 0001:0001fad4       ?getVCallThunkType@UnDecorator@@CA?AVDName@@XZ 10020ad4 f i libvcruntime:undname.obj
 0001:0001fb1d       ?getVbTableType@UnDecorator@@CA?AVDName@@ABV2@@Z 10020b1d f i libvcruntime:undname.obj
 0001:0001fb37       ?getVdispMapType@UnDecorator@@CA?AVDName@@ABV2@@Z 10020b37 f i libvcruntime:undname.obj
 0001:0001fba2       ?getVfTableType@UnDecorator@@CA?AVDName@@ABV2@@Z 10020ba2 f i libvcruntime:undname.obj
 0001:0001fd60       ?getZName@UnDecorator@@CA?AVDName@@_N0@Z 10020d60 f   libvcruntime:undname.obj
 0001:00020030       ?haveTemplateParameters@UnDecorator@@SAHXZ 10021030 f i libvcruntime:undname.obj
 0001:0002003d       ?isArray@DName@@QBEHXZ     1002103d f i libvcruntime:undname.obj
 0001:00020049       ?isComArray@DName@@QBEHXZ  10021049 f i libvcruntime:undname.obj
 0001:00020055       ?isEmpty@DName@@QBEHXZ     10021055 f i libvcruntime:undname.obj
 0001:0002005f       ?isFull@Replicator@@QBEHXZ 1002105f f i libvcruntime:undname.obj
 0001:0002006a       ?isNoTE@DName@@QBEHXZ      1002106a f i libvcruntime:undname.obj
 0001:00020076       ?isPinPtr@DName@@QBEHXZ    10021076 f i libvcruntime:undname.obj
 0001:00020082       ?isPtrRef@DName@@QBEHXZ    10021082 f i libvcruntime:undname.obj
 0001:0002008e       ?isUDC@DName@@QBEHXZ       1002108e f i libvcruntime:undname.obj
 0001:000200a3       ?isUDTThunk@DName@@QBEHXZ  100210a3 f i libvcruntime:undname.obj
 0001:000200b8       ?isVCallThunk@DName@@QBEHXZ 100210b8 f i libvcruntime:undname.obj
 0001:000200c4       ?isValid@DName@@QBEHXZ     100210c4 f i libvcruntime:undname.obj
 0001:000200d0       ?length@DName@@QBEHXZ      100210d0 f i libvcruntime:undname.obj
 0001:000200f5       ?length@DNameStatusNode@@UBEHXZ 100210f5 f i libvcruntime:undname.obj
 0001:000200f9       ?length@charNode@@UBEHXZ   100210f9 f i libvcruntime:undname.obj
 0001:000200fd       ?length@pDNameNode@@UBEHXZ 100210fd f i libvcruntime:undname.obj
 0001:0002010e       ?length@pairNode@@UBEHXZ   1002110e f i libvcruntime:undname.obj
 0001:0002016a       ?length@pcharNode@@UBEHXZ  1002116a f i libvcruntime:undname.obj
 0001:0002016e       ?make@DNameStatusNode@@SAPAV1@W4DNameStatus@@@Z 1002116e f i libvcruntime:undname.obj
 0001:00020215       ?setIsArray@DName@@QAEXXZ  10021215 f i libvcruntime:undname.obj
 0001:0002021f       ?setIsComArray@DName@@QAEXXZ 1002121f f i libvcruntime:undname.obj
 0001:00020229       ?setIsNoTE@DName@@QAEXXZ   10021229 f i libvcruntime:undname.obj
 0001:00020233       ?setIsPinPtr@DName@@QAEXXZ 10021233 f i libvcruntime:undname.obj
 0001:0002023d       ?setIsUDC@DName@@QAEXXZ    1002123d f i libvcruntime:undname.obj
 0001:0002024d       ?setIsVCallThunk@DName@@QAEXXZ 1002124d f i libvcruntime:undname.obj
 0001:00020257       ?setPtrRef@DName@@QAEAAV1@XZ 10021257 f i libvcruntime:undname.obj
 0001:00020263       ?status@DName@@QBE?AW4DNameStatus@@XZ 10021263 f i libvcruntime:undname.obj
 0001:000202e8       ___unDName                 100212e8 f   libvcruntime:undname.obj
 0001:000203a2       ___unDNameEx               100213a2 f   libvcruntime:undname.obj
 0001:0002045c       __vsprintf_s_l             1002145c f i libvcruntime:undname.obj
 0001:00020494       _sprintf_s                 10021494 f i libvcruntime:undname.obj
 0001:000204c0       __global_unwind2           100214c0 f   libvcruntime:_exsup_.obj
 0001:00020525       __local_unwind2            10021525 f   libvcruntime:_exsup_.obj
 0001:000205a9       __abnormal_termination     100215a9 f   libvcruntime:_exsup_.obj
 0001:000205cc       __NLG_Notify1              100215cc f   libvcruntime:_exsup_.obj
 0001:000205d5       __NLG_Notify               100215d5 f   libvcruntime:_exsup_.obj
 0001:000205ec       __NLG_Dispatch             100215ec     libvcruntime:_exsup_.obj
 0001:000205ec       __NLG_Dispatch2            100215ec     libvcruntime:_exsup_.obj
 0001:000205f4       __NLG_Call                 100215f4 f   libvcruntime:_exsup_.obj
 0001:000205f6       __NLG_Return2              100215f6     libvcruntime:_exsup_.obj
 0001:00020644       ??$__crt_fast_decode_pointer@P6AXXZ@@YAP6AXXZQ6AXXZ@Z 10021644 f i libvcruntime:purevirt.obj
 0001:0002065d       ??$__crt_interlocked_compare_exchange_pointer@$$A6AXXZ$$T$$T@@YAP6AXXZPDS6AXXZ$$T1@Z 1002165d f i libvcruntime:purevirt.obj
 0001:00020673       ??$__crt_interlocked_exchange_pointer@$$A6AXXZP6AXXZ@@YAP6AXXZPDS6AXXZQ6AXXZ@Z 10021673 f i libvcruntime:purevirt.obj
 0001:00020683       ??$__crt_interlocked_read_pointer@$$A6AXXZ@@YAP6AXXZPDS6AXXZ@Z 10021683 f i libvcruntime:purevirt.obj
 0001:00020697       __get_purecall_handler     10021697 f   libvcruntime:purevirt.obj
 0001:000206bd       __purecall                 100216bd f   libvcruntime:purevirt.obj
 0001:000206de       __set_purecall_handler     100216de f   libvcruntime:purevirt.obj
 0001:0002070c       _malloc                    1002170c f   libucrt:malloc.obj
 0001:00020719       ??$?RPAU__crt_stdio_stream_data@@@__crt_internal_free_policy@@QBEXQBQAU__crt_stdio_stream_data@@@Z 10021719 f i libucrt:_file.obj
 0001:0002072f       ??0?$__crt_unique_heap_ptr@PAU__crt_stdio_stream_data@@U__crt_internal_free_policy@@@@QAE@QAPAU__crt_stdio_stream_data@@@Z 1002172f f i libucrt:_file.obj
 0001:00020743       ??0__crt_stdio_stream@@QAE@QAU_iobuf@@@Z 10021743 f i libucrt:_file.obj
 0001:00020757       ??1?$__crt_unique_heap_ptr@PAU__crt_stdio_stream_data@@U__crt_internal_free_policy@@@@QAE@XZ 10021757 f i libucrt:_file.obj
 0001:0002076d       ??C__crt_stdio_stream@@QBEPAU__crt_stdio_stream_data@@XZ 1002176d f i libucrt:_file.obj
 0001:00020770       ?detach@?$__crt_unique_heap_ptr@PAU__crt_stdio_stream_data@@U__crt_internal_free_policy@@@@QAEPAPAU__crt_stdio_stream_data@@XZ 10021770 f i libucrt:_file.obj
 0001:00020776       ?release@?$__crt_unique_heap_ptr@PAU__crt_stdio_stream_data@@U__crt_internal_free_policy@@@@QAEXXZ 10021776 f i libucrt:_file.obj
 0001:0002078c       ___acrt_initialize_stdio   1002178c f   libucrt:_file.obj
 0001:00020886       ___acrt_iob_func           10021886 f   libucrt:_file.obj
 0001:0002089a       ___acrt_uninitialize_stdio 1002189a f   libucrt:_file.obj
 0001:000208f9       __get_stream_buffer_pointers 100218f9 f   libucrt:_file.obj
 0001:00020950       __lock_file                10021950 f   libucrt:_file.obj
 0001:00020969       __unlock_file              10021969 f   libucrt:_file.obj
 0001:00020982       ??$?0ABV?$stream_output_adapter@D@__crt_stdio_output@@AB_KABQBDABQAU__crt_locale_pointers@@ABQAD@?$format_validation_base@DV?$stream_output_adapter@D@__crt_stdio_output@@@__crt_stdio_output@@IAE@ABV?$stream_output_adapter@D@1@AB_KABQBDABQAU__crt_locale_pointers@@ABQAD@Z 10021982 f i libucrt:output.obj
 0001:000209ad       ??$?0ABV?$stream_output_adapter@D@__crt_stdio_output@@AB_KABQBDABQAU__crt_locale_pointers@@ABQAD@?$positional_parameter_base@DV?$stream_output_adapter@D@__crt_stdio_output@@@__crt_stdio_output@@IAE@ABV?$stream_output_adapter@D@1@AB_KABQBDABQAU__crt_locale_pointers@@ABQAD@Z 100219ad f i libucrt:output.obj
 0001:00020a07       ??$?0ABV?$stream_output_adapter@D@__crt_stdio_output@@AB_KABQBDABQAU__crt_locale_pointers@@ABQAD@?$standard_base@DV?$stream_output_adapter@D@__crt_stdio_output@@@__crt_stdio_output@@IAE@ABV?$stream_output_adapter@D@1@AB_KABQBDABQAU__crt_locale_pointers@@ABQAD@Z 10021a07 f i libucrt:output.obj
 0001:00020a49       ??$?0ABV?$stream_output_adapter@_W@__crt_stdio_output@@AB_KABQB_WABQAU__crt_locale_pointers@@ABQAD@?$format_validation_base@_WV?$stream_output_adapter@_W@__crt_stdio_output@@@__crt_stdio_output@@IAE@ABV?$stream_output_adapter@_W@1@AB_KABQB_WABQAU__crt_locale_pointers@@ABQAD@Z 10021a49 f i libucrt:output.obj
 0001:00020a74       ??$?0ABV?$stream_output_adapter@_W@__crt_stdio_output@@AB_KABQB_WABQAU__crt_locale_pointers@@ABQAD@?$positional_parameter_base@_WV?$stream_output_adapter@_W@__crt_stdio_output@@@__crt_stdio_output@@IAE@ABV?$stream_output_adapter@_W@1@AB_KABQB_WABQAU__crt_locale_pointers@@ABQAD@Z 10021a74 f i libucrt:output.obj
 0001:00020ace       ??$?0ABV?$stream_output_adapter@_W@__crt_stdio_output@@AB_KABQB_WABQAU__crt_locale_pointers@@ABQAD@?$standard_base@_WV?$stream_output_adapter@_W@__crt_stdio_output@@@__crt_stdio_output@@IAE@ABV?$stream_output_adapter@_W@1@AB_KABQB_WABQAU__crt_locale_pointers@@ABQAD@Z 10021ace f i libucrt:output.obj
 0001:00020b10       ??$?0ABV?$string_output_adapter@D@__crt_stdio_output@@AB_KABQBDABQAU__crt_locale_pointers@@ABQAD@?$format_validation_base@DV?$string_output_adapter@D@__crt_stdio_output@@@__crt_stdio_output@@IAE@ABV?$string_output_adapter@D@1@AB_KABQBDABQAU__crt_locale_pointers@@ABQAD@Z 10021b10 f i libucrt:output.obj
 0001:00020b3b       ??$?0ABV?$string_output_adapter@D@__crt_stdio_output@@AB_KABQBDABQAU__crt_locale_pointers@@ABQAD@?$positional_parameter_base@DV?$string_output_adapter@D@__crt_stdio_output@@@__crt_stdio_output@@IAE@ABV?$string_output_adapter@D@1@AB_KABQBDABQAU__crt_locale_pointers@@ABQAD@Z 10021b3b f i libucrt:output.obj
 0001:00020b95       ??$?0ABV?$string_output_adapter@D@__crt_stdio_output@@AB_KABQBDABQAU__crt_locale_pointers@@ABQAD@?$standard_base@DV?$string_output_adapter@D@__crt_stdio_output@@@__crt_stdio_output@@IAE@ABV?$string_output_adapter@D@1@AB_KABQBDABQAU__crt_locale_pointers@@ABQAD@Z 10021b95 f i libucrt:output.obj
 0001:00020bd7       ??$?0ABV?$string_output_adapter@_W@__crt_stdio_output@@AB_KABQB_WABQAU__crt_locale_pointers@@ABQAD@?$format_validation_base@_WV?$string_output_adapter@_W@__crt_stdio_output@@@__crt_stdio_output@@IAE@ABV?$string_output_adapter@_W@1@AB_KABQB_WABQAU__crt_locale_pointers@@ABQAD@Z 10021bd7 f i libucrt:output.obj
 0001:00020c02       ??$?0ABV?$string_output_adapter@_W@__crt_stdio_output@@AB_KABQB_WABQAU__crt_locale_pointers@@ABQAD@?$positional_parameter_base@_WV?$string_output_adapter@_W@__crt_stdio_output@@@__crt_stdio_output@@IAE@ABV?$string_output_adapter@_W@1@AB_KABQB_WABQAU__crt_locale_pointers@@ABQAD@Z 10021c02 f i libucrt:output.obj
 0001:00020c5c       ??$?0ABV?$string_output_adapter@_W@__crt_stdio_output@@AB_KABQB_WABQAU__crt_locale_pointers@@ABQAD@?$standard_base@_WV?$string_output_adapter@_W@__crt_stdio_output@@@__crt_stdio_output@@IAE@ABV?$string_output_adapter@_W@1@AB_KABQB_WABQAU__crt_locale_pointers@@ABQAD@Z 10021c5c f i libucrt:output.obj
 0001:00020c9e       ??$?RV<lambda_2293f24e3ce1ad6fe22ccfb9dec07671>@@AAV<lambda_2565fc715a641e539f44ad02d6823606>@@V<lambda_d3217f279b832965d9ca670dc2993570>@@@?$__crt_seh_guarded_call@H@@QAEH$$QAV<lambda_2293f24e3ce1ad6fe22ccfb9dec07671>@@AAV<lambda_2565fc715a641e539f44ad02d6823606>@@$$QAV<lambda_d3217f279b832965d9ca670dc2993570>@@@Z 10021c9e f i libucrt:output.obj
 0001:00020d03       ??$?RV<lambda_4d4ac866be0fa3c441830420fabdd2cb>@@AAV<lambda_63a10c2dc8dbb9e4dd1890be52af7c93>@@V<lambda_002af9fa0f8fe472b648c51882d4fc32>@@@?$__crt_seh_guarded_call@H@@QAEH$$QAV<lambda_4d4ac866be0fa3c441830420fabdd2cb>@@AAV<lambda_63a10c2dc8dbb9e4dd1890be52af7c93>@@$$QAV<lambda_002af9fa0f8fe472b648c51882d4fc32>@@@Z 10021d03 f i libucrt:output.obj
 0001:00020d68       ??$?RV<lambda_5be909dfbae0a631386585770cd7b676>@@AAV<lambda_e516058a9c289d98c8ca9fea99247804>@@V<lambda_afe2e0cdc5e0ecf6f0d6f5e2f8985e38>@@@?$__crt_seh_guarded_call@H@@QAEH$$QAV<lambda_5be909dfbae0a631386585770cd7b676>@@AAV<lambda_e516058a9c289d98c8ca9fea99247804>@@$$QAV<lambda_afe2e0cdc5e0ecf6f0d6f5e2f8985e38>@@@Z 10021d68 f i libucrt:output.obj
 0001:00020dcd       ??$?RV<lambda_823d65812123d985753d53e2a8c25d20>@@AAV<lambda_0a97c9e57da7be065955385c79108ff2>@@V<lambda_4d2973f3ad2d226f00468307185dca1b>@@@?$__crt_seh_guarded_call@H@@QAEH$$QAV<lambda_823d65812123d985753d53e2a8c25d20>@@AAV<lambda_0a97c9e57da7be065955385c79108ff2>@@$$QAV<lambda_4d2973f3ad2d226f00468307185dca1b>@@@Z 10021dcd f i libucrt:output.obj
 0001:00020e32       ??$?RV<lambda_ab9923ffb5d694ec0d78876dd103e44f>@@AAV<lambda_481dd5778c961fbcd3b60b650e9b9dc4>@@V<lambda_7923d86c9e3f319b415918ec4b39749c>@@@?$__crt_seh_guarded_call@H@@QAEH$$QAV<lambda_ab9923ffb5d694ec0d78876dd103e44f>@@AAV<lambda_481dd5778c961fbcd3b60b650e9b9dc4>@@$$QAV<lambda_7923d86c9e3f319b415918ec4b39749c>@@@Z 10021e32 f i libucrt:output.obj
 0001:00020e97       ??$?RV<lambda_db08b09ef7aa9d4f8620ce68402612bc>@@AAV<lambda_4f2c1eaeead2a5fc776db5b62ea0fb9b>@@V<lambda_3ae262bc35d4ba6a3825c4f6bcaaf95c>@@@?$__crt_seh_guarded_call@H@@QAEH$$QAV<lambda_db08b09ef7aa9d4f8620ce68402612bc>@@AAV<lambda_4f2c1eaeead2a5fc776db5b62ea0fb9b>@@$$QAV<lambda_3ae262bc35d4ba6a3825c4f6bcaaf95c>@@@Z 10021e97 f i libucrt:output.obj
 0001:00020efc       ??$__acrt_lock_stream_and_call@V<lambda_0a97c9e57da7be065955385c79108ff2>@@@@YAHQAU_iobuf@@$$QAV<lambda_0a97c9e57da7be065955385c79108ff2>@@@Z 10021efc f i libucrt:output.obj
 0001:00020f2e       ??$__acrt_lock_stream_and_call@V<lambda_2565fc715a641e539f44ad02d6823606>@@@@YAHQAU_iobuf@@$$QAV<lambda_2565fc715a641e539f44ad02d6823606>@@@Z 10021f2e f i libucrt:output.obj
 0001:00020f60       ??$__acrt_lock_stream_and_call@V<lambda_481dd5778c961fbcd3b60b650e9b9dc4>@@@@YAHQAU_iobuf@@$$QAV<lambda_481dd5778c961fbcd3b60b650e9b9dc4>@@@Z 10021f60 f i libucrt:output.obj
 0001:00020f92       ??$__acrt_lock_stream_and_call@V<lambda_4f2c1eaeead2a5fc776db5b62ea0fb9b>@@@@YAHQAU_iobuf@@$$QAV<lambda_4f2c1eaeead2a5fc776db5b62ea0fb9b>@@@Z 10021f92 f i libucrt:output.obj
 0001:00020fc4       ??$__acrt_lock_stream_and_call@V<lambda_63a10c2dc8dbb9e4dd1890be52af7c93>@@@@YAHQAU_iobuf@@$$QAV<lambda_63a10c2dc8dbb9e4dd1890be52af7c93>@@@Z 10021fc4 f i libucrt:output.obj
 0001:00020ff6       ??$__acrt_lock_stream_and_call@V<lambda_e516058a9c289d98c8ca9fea99247804>@@@@YAHQAU_iobuf@@$$QAV<lambda_e516058a9c289d98c8ca9fea99247804>@@@Z 10021ff6 f i libucrt:output.obj
 0001:00021028       ??$__crt_interlocked_read@J@@YAJPDJ@Z 10022028 f i libucrt:output.obj
 0001:00022273       ??$count@D@formatting_buffer@__crt_stdio_output@@QBEIXZ 10023273 f i libucrt:output.obj
 0001:00022291       ??$data@D@formatting_buffer@__crt_stdio_output@@QAEPADXZ 10023291 f i libucrt:output.obj
 0001:000222a1       ??$data@_W@formatting_buffer@__crt_stdio_output@@QAEPA_WXZ 100232a1 f i libucrt:output.obj
 0001:000222b1       ??$ensure_buffer_is_big_enough@D@formatting_buffer@__crt_stdio_output@@QAE_NI@Z 100232b1 f i libucrt:output.obj
 0001:00022358       ??$extract_argument_from_va_list@C_J@?$positional_parameter_base@DV?$stream_output_adapter@D@__crt_stdio_output@@@__crt_stdio_output@@IAE_NAA_J@Z 10023358 f i libucrt:output.obj
 0001:000223f6       ??$extract_argument_from_va_list@C_J@?$positional_parameter_base@DV?$string_output_adapter@D@__crt_stdio_output@@@__crt_stdio_output@@IAE_NAA_J@Z 100233f6 f i libucrt:output.obj
 0001:00022494       ??$extract_argument_from_va_list@C_J@?$positional_parameter_base@_WV?$stream_output_adapter@_W@__crt_stdio_output@@@__crt_stdio_output@@IAE_NAA_J@Z 10023494 f i libucrt:output.obj
 0001:00022532       ??$extract_argument_from_va_list@C_J@?$positional_parameter_base@_WV?$string_output_adapter@_W@__crt_stdio_output@@@__crt_stdio_output@@IAE_NAA_J@Z 10023532 f i libucrt:output.obj
 0001:000225d0       ??$extract_argument_from_va_list@C_J@?$standard_base@DV?$stream_output_adapter@D@__crt_stdio_output@@@__crt_stdio_output@@IAE_NAA_J@Z 100235d0 f i libucrt:output.obj
 0001:000225f6       ??$extract_argument_from_va_list@C_J@?$standard_base@DV?$string_output_adapter@D@__crt_stdio_output@@@__crt_stdio_output@@IAE_NAA_J@Z 100235f6 f i libucrt:output.obj
 0001:0002261c       ??$extract_argument_from_va_list@C_J@?$standard_base@_WV?$stream_output_adapter@_W@__crt_stdio_output@@@__crt_stdio_output@@IAE_NAA_J@Z 1002361c f i libucrt:output.obj
 0001:00022642       ??$extract_argument_from_va_list@C_J@?$standard_base@_WV?$string_output_adapter@_W@__crt_stdio_output@@@__crt_stdio_output@@IAE_NAA_J@Z 10023642 f i libucrt:output.obj
 0001:00022668       ??$extract_argument_from_va_list@E_J@?$positional_parameter_base@DV?$stream_output_adapter@D@__crt_stdio_output@@@__crt_stdio_output@@IAE_NAA_J@Z 10023668 f i libucrt:output.obj
 0001:00022706       ??$extract_argument_from_va_list@E_J@?$positional_parameter_base@DV?$string_output_adapter@D@__crt_stdio_output@@@__crt_stdio_output@@IAE_NAA_J@Z 10023706 f i libucrt:output.obj
 0001:000227a4       ??$extract_argument_from_va_list@E_J@?$positional_parameter_base@_WV?$stream_output_adapter@_W@__crt_stdio_output@@@__crt_stdio_output@@IAE_NAA_J@Z 100237a4 f i libucrt:output.obj
 0001:00022842       ??$extract_argument_from_va_list@E_J@?$positional_parameter_base@_WV?$string_output_adapter@_W@__crt_stdio_output@@@__crt_stdio_output@@IAE_NAA_J@Z 10023842 f i libucrt:output.obj
 0001:000228e0       ??$extract_argument_from_va_list@E_J@?$standard_base@DV?$stream_output_adapter@D@__crt_stdio_output@@@__crt_stdio_output@@IAE_NAA_J@Z 100238e0 f i libucrt:output.obj
 0001:00022906       ??$extract_argument_from_va_list@E_J@?$standard_base@DV?$string_output_adapter@D@__crt_stdio_output@@@__crt_stdio_output@@IAE_NAA_J@Z 10023906 f i libucrt:output.obj
 0001:0002292c       ??$extract_argument_from_va_list@E_J@?$standard_base@_WV?$stream_output_adapter@_W@__crt_stdio_output@@@__crt_stdio_output@@IAE_NAA_J@Z 1002392c f i libucrt:output.obj
 0001:00022952       ??$extract_argument_from_va_list@E_J@?$standard_base@_WV?$string_output_adapter@_W@__crt_stdio_output@@@__crt_stdio_output@@IAE_NAA_J@Z 10023952 f i libucrt:output.obj
 0001:00022978       ??$extract_argument_from_va_list@F_J@?$positional_parameter_base@DV?$stream_output_adapter@D@__crt_stdio_output@@@__crt_stdio_output@@IAE_NAA_J@Z 10023978 f i libucrt:output.obj
 0001:00022a16       ??$extract_argument_from_va_list@F_J@?$positional_parameter_base@DV?$string_output_adapter@D@__crt_stdio_output@@@__crt_stdio_output@@IAE_NAA_J@Z 10023a16 f i libucrt:output.obj
 0001:00022ab4       ??$extract_argument_from_va_list@F_J@?$positional_parameter_base@_WV?$stream_output_adapter@_W@__crt_stdio_output@@@__crt_stdio_output@@IAE_NAA_J@Z 10023ab4 f i libucrt:output.obj
 0001:00022b52       ??$extract_argument_from_va_list@F_J@?$positional_parameter_base@_WV?$string_output_adapter@_W@__crt_stdio_output@@@__crt_stdio_output@@IAE_NAA_J@Z 10023b52 f i libucrt:output.obj
 0001:00022bf0       ??$extract_argument_from_va_list@F_J@?$standard_base@DV?$stream_output_adapter@D@__crt_stdio_output@@@__crt_stdio_output@@IAE_NAA_J@Z 10023bf0 f i libucrt:output.obj
 0001:00022c16       ??$extract_argument_from_va_list@F_J@?$standard_base@DV?$string_output_adapter@D@__crt_stdio_output@@@__crt_stdio_output@@IAE_NAA_J@Z 10023c16 f i libucrt:output.obj
 0001:00022c3c       ??$extract_argument_from_va_list@F_J@?$standard_base@_WV?$stream_output_adapter@_W@__crt_stdio_output@@@__crt_stdio_output@@IAE_NAA_J@Z 10023c3c f i libucrt:output.obj
 0001:00022c62       ??$extract_argument_from_va_list@F_J@?$standard_base@_WV?$string_output_adapter@_W@__crt_stdio_output@@@__crt_stdio_output@@IAE_NAA_J@Z 10023c62 f i libucrt:output.obj
 0001:00022c88       ??$extract_argument_from_va_list@GD@?$positional_parameter_base@DV?$stream_output_adapter@D@__crt_stdio_output@@@__crt_stdio_output@@IAE_NAAD@Z 10023c88 f i libucrt:output.obj
 0001:00022d25       ??$extract_argument_from_va_list@GD@?$positional_parameter_base@DV?$string_output_adapter@D@__crt_stdio_output@@@__crt_stdio_output@@IAE_NAAD@Z 10023d25 f i libucrt:output.obj
 0001:00022dc2       ??$extract_argument_from_va_list@GD@?$standard_base@DV?$stream_output_adapter@D@__crt_stdio_output@@@__crt_stdio_output@@IAE_NAAD@Z 10023dc2 f i libucrt:output.obj
 0001:00022de2       ??$extract_argument_from_va_list@GD@?$standard_base@DV?$string_output_adapter@D@__crt_stdio_output@@@__crt_stdio_output@@IAE_NAAD@Z 10023de2 f i libucrt:output.obj
 0001:00022e02       ??$extract_argument_from_va_list@G_J@?$positional_parameter_base@DV?$stream_output_adapter@D@__crt_stdio_output@@@__crt_stdio_output@@IAE_NAA_J@Z 10023e02 f i libucrt:output.obj
 0001:00022ea0       ??$extract_argument_from_va_list@G_J@?$positional_parameter_base@DV?$string_output_adapter@D@__crt_stdio_output@@@__crt_stdio_output@@IAE_NAA_J@Z 10023ea0 f i libucrt:output.obj
 0001:00022f3e       ??$extract_argument_from_va_list@G_J@?$positional_parameter_base@_WV?$stream_output_adapter@_W@__crt_stdio_output@@@__crt_stdio_output@@IAE_NAA_J@Z 10023f3e f i libucrt:output.obj
 0001:00022fdc       ??$extract_argument_from_va_list@G_J@?$positional_parameter_base@_WV?$string_output_adapter@_W@__crt_stdio_output@@@__crt_stdio_output@@IAE_NAA_J@Z 10023fdc f i libucrt:output.obj
 0001:0002307a       ??$extract_argument_from_va_list@G_J@?$standard_base@DV?$stream_output_adapter@D@__crt_stdio_output@@@__crt_stdio_output@@IAE_NAA_J@Z 1002407a f i libucrt:output.obj
 0001:000230a0       ??$extract_argument_from_va_list@G_J@?$standard_base@DV?$string_output_adapter@D@__crt_stdio_output@@@__crt_stdio_output@@IAE_NAA_J@Z 100240a0 f i libucrt:output.obj
 0001:000230c6       ??$extract_argument_from_va_list@G_J@?$standard_base@_WV?$stream_output_adapter@_W@__crt_stdio_output@@@__crt_stdio_output@@IAE_NAA_J@Z 100240c6 f i libucrt:output.obj
 0001:000230ec       ??$extract_argument_from_va_list@G_J@?$standard_base@_WV?$string_output_adapter@_W@__crt_stdio_output@@@__crt_stdio_output@@IAE_NAA_J@Z 100240ec f i libucrt:output.obj
 0001:00023112       ??$extract_argument_from_va_list@H_J@?$positional_parameter_base@DV?$stream_output_adapter@D@__crt_stdio_output@@@__crt_stdio_output@@IAE_NAA_J@Z 10024112 f i libucrt:output.obj
 0001:000231ae       ??$extract_argument_from_va_list@H_J@?$positional_parameter_base@DV?$string_output_adapter@D@__crt_stdio_output@@@__crt_stdio_output@@IAE_NAA_J@Z 100241ae f i libucrt:output.obj
 0001:0002324a       ??$extract_argument_from_va_list@H_J@?$positional_parameter_base@_WV?$stream_output_adapter@_W@__crt_stdio_output@@@__crt_stdio_output@@IAE_NAA_J@Z 1002424a f i libucrt:output.obj
 0001:000232e6       ??$extract_argument_from_va_list@H_J@?$positional_parameter_base@_WV?$string_output_adapter@_W@__crt_stdio_output@@@__crt_stdio_output@@IAE_NAA_J@Z 100242e6 f i libucrt:output.obj
 0001:00023382       ??$extract_argument_from_va_list@H_J@?$standard_base@DV?$stream_output_adapter@D@__crt_stdio_output@@@__crt_stdio_output@@IAE_NAA_J@Z 10024382 f i libucrt:output.obj
 0001:000233a7       ??$extract_argument_from_va_list@H_J@?$standard_base@DV?$string_output_adapter@D@__crt_stdio_output@@@__crt_stdio_output@@IAE_NAA_J@Z 100243a7 f i libucrt:output.obj
 0001:000233cc       ??$extract_argument_from_va_list@H_J@?$standard_base@_WV?$stream_output_adapter@_W@__crt_stdio_output@@@__crt_stdio_output@@IAE_NAA_J@Z 100243cc f i libucrt:output.obj
 0001:000233f1       ??$extract_argument_from_va_list@H_J@?$standard_base@_WV?$string_output_adapter@_W@__crt_stdio_output@@@__crt_stdio_output@@IAE_NAA_J@Z 100243f1 f i libucrt:output.obj
 0001:00023416       ??$extract_argument_from_va_list@I_J@?$positional_parameter_base@DV?$stream_output_adapter@D@__crt_stdio_output@@@__crt_stdio_output@@IAE_NAA_J@Z 10024416 f i libucrt:output.obj
 0001:000234bd       ??$extract_argument_from_va_list@I_J@?$positional_parameter_base@DV?$string_output_adapter@D@__crt_stdio_output@@@__crt_stdio_output@@IAE_NAA_J@Z 100244bd f i libucrt:output.obj
 0001:00023564       ??$extract_argument_from_va_list@I_J@?$positional_parameter_base@_WV?$stream_output_adapter@_W@__crt_stdio_output@@@__crt_stdio_output@@IAE_NAA_J@Z 10024564 f i libucrt:output.obj
 0001:0002360b       ??$extract_argument_from_va_list@I_J@?$positional_parameter_base@_WV?$string_output_adapter@_W@__crt_stdio_output@@@__crt_stdio_output@@IAE_NAA_J@Z 1002460b f i libucrt:output.obj
 0001:000236b2       ??$extract_argument_from_va_list@I_J@?$standard_base@DV?$stream_output_adapter@D@__crt_stdio_output@@@__crt_stdio_output@@IAE_NAA_J@Z 100246b2 f i libucrt:output.obj
 0001:000236d7       ??$extract_argument_from_va_list@I_J@?$standard_base@DV?$string_output_adapter@D@__crt_stdio_output@@@__crt_stdio_output@@IAE_NAA_J@Z 100246d7 f i libucrt:output.obj
 0001:000236fc       ??$extract_argument_from_va_list@I_J@?$standard_base@_WV?$stream_output_adapter@_W@__crt_stdio_output@@@__crt_stdio_output@@IAE_NAA_J@Z 100246fc f i libucrt:output.obj
 0001:00023721       ??$extract_argument_from_va_list@I_J@?$standard_base@_WV?$string_output_adapter@_W@__crt_stdio_output@@@__crt_stdio_output@@IAE_NAA_J@Z 10024721 f i libucrt:output.obj
 0001:00023746       ??$extract_argument_from_va_list@PADPAD@?$positional_parameter_base@DV?$stream_output_adapter@D@__crt_stdio_output@@@__crt_stdio_output@@IAE_NAAPAD@Z 10024746 f i libucrt:output.obj
 0001:000237e3       ??$extract_argument_from_va_list@PADPAD@?$positional_parameter_base@DV?$string_output_adapter@D@__crt_stdio_output@@@__crt_stdio_output@@IAE_NAAPAD@Z 100247e3 f i libucrt:output.obj
 0001:00023880       ??$extract_argument_from_va_list@PADPAD@?$positional_parameter_base@_WV?$stream_output_adapter@_W@__crt_stdio_output@@@__crt_stdio_output@@IAE_NAAPAD@Z 10024880 f i libucrt:output.obj
 0001:0002391d       ??$extract_argument_from_va_list@PADPAD@?$positional_parameter_base@_WV?$string_output_adapter@_W@__crt_stdio_output@@@__crt_stdio_output@@IAE_NAAPAD@Z 1002491d f i libucrt:output.obj
 0001:000239ba       ??$extract_argument_from_va_list@PADPAD@?$standard_base@DV?$stream_output_adapter@D@__crt_stdio_output@@@__crt_stdio_output@@IAE_NAAPAD@Z 100249ba f i libucrt:output.obj
 0001:000239da       ??$extract_argument_from_va_list@PADPAD@?$standard_base@DV?$string_output_adapter@D@__crt_stdio_output@@@__crt_stdio_output@@IAE_NAAPAD@Z 100249da f i libucrt:output.obj
 0001:000239fa       ??$extract_argument_from_va_list@PADPAD@?$standard_base@_WV?$stream_output_adapter@_W@__crt_stdio_output@@@__crt_stdio_output@@IAE_NAAPAD@Z 100249fa f i libucrt:output.obj
 0001:00023a1a       ??$extract_argument_from_va_list@PADPAD@?$standard_base@_WV?$string_output_adapter@_W@__crt_stdio_output@@@__crt_stdio_output@@IAE_NAAPAD@Z 10024a1a f i libucrt:output.obj
 0001:00023a3a       ??$extract_argument_from_va_list@PAUansi_string@?1??type_case_Z@?$output_processor@DV?$stream_output_adapter@D@__crt_stdio_output@@V?$format_validation_base@DV?$stream_output_adapter@D@__crt_stdio_output@@@2@@__crt_stdio_output@@AAE_NXZ@PAU1?1??234@AAE_NXZ@@?$standard_base@DV?$stream_output_adapter@D@__crt_stdio_output@@@__crt_stdio_output@@IAE_NAAPAUansi_string@?1??type_case_Z@?$output_processor@DV?$stream_output_adapter@D@__crt_stdio_output@@V?$format_validation_base@DV?$stream_output_adapter@D@__crt_stdio_output@@@2@@1@AAE_NXZ@@Z 10024a3a f i libucrt:output.obj
 0001:00023a5a       ??$extract_argument_from_va_list@PAUansi_string@?1??type_case_Z@?$output_processor@DV?$stream_output_adapter@D@__crt_stdio_output@@V?$positional_parameter_base@DV?$stream_output_adapter@D@__crt_stdio_output@@@2@@__crt_stdio_output@@AAE_NXZ@PAU1?1??234@AAE_NXZ@@?$positional_parameter_base@DV?$stream_output_adapter@D@__crt_stdio_output@@@__crt_stdio_output@@IAE_NAAPAUansi_string@?1??type_case_Z@?$output_processor@DV?$stream_output_adapter@D@__crt_stdio_output@@V?$positional_parameter_base@DV?$stream_output_adapter@D@__crt_stdio_output@@@2@@1@AAE_NXZ@@Z 10024a5a f i libucrt:output.obj
 0001:00023af7       ??$extract_argument_from_va_list@PAUansi_string@?1??type_case_Z@?$output_processor@DV?$stream_output_adapter@D@__crt_stdio_output@@V?$positional_parameter_base@DV?$stream_output_adapter@D@__crt_stdio_output@@@2@@__crt_stdio_output@@AAE_NXZ@PAU1?1??234@AAE_NXZ@@?$standard_base@DV?$stream_output_adapter@D@__crt_stdio_output@@@__crt_stdio_output@@IAE_NAAPAUansi_string@?1??type_case_Z@?$output_processor@DV?$stream_output_adapter@D@__crt_stdio_output@@V?$positional_parameter_base@DV?$stream_output_adapter@D@__crt_stdio_output@@@2@@1@AAE_NXZ@@Z 10024af7 f i libucrt:output.obj
 0001:00023b17       ??$extract_argument_from_va_list@PAUansi_string@?1??type_case_Z@?$output_processor@DV?$stream_output_adapter@D@__crt_stdio_output@@V?$standard_base@DV?$stream_output_adapter@D@__crt_stdio_output@@@2@@__crt_stdio_output@@AAE_NXZ@PAU1?1??234@AAE_NXZ@@?$standard_base@DV?$stream_output_adapter@D@__crt_stdio_output@@@__crt_stdio_output@@IAE_NAAPAUansi_string@?1??type_case_Z@?$output_processor@DV?$stream_output_adapter@D@__crt_stdio_output@@V?$standard_base@DV?$stream_output_adapter@D@__crt_stdio_output@@@2@@1@AAE_NXZ@@Z 10024b17 f i libucrt:output.obj
 0001:00023b37       ??$extract_argument_from_va_list@PAUansi_string@?1??type_case_Z@?$output_processor@DV?$string_output_adapter@D@__crt_stdio_output@@V?$format_validation_base@DV?$string_output_adapter@D@__crt_stdio_output@@@2@@__crt_stdio_output@@AAE_NXZ@PAU1?1??234@AAE_NXZ@@?$standard_base@DV?$string_output_adapter@D@__crt_stdio_output@@@__crt_stdio_output@@IAE_NAAPAUansi_string@?1??type_case_Z@?$output_processor@DV?$string_output_adapter@D@__crt_stdio_output@@V?$format_validation_base@DV?$string_output_adapter@D@__crt_stdio_output@@@2@@1@AAE_NXZ@@Z 10024b37 f i libucrt:output.obj
 0001:00023b57       ??$extract_argument_from_va_list@PAUansi_string@?1??type_case_Z@?$output_processor@DV?$string_output_adapter@D@__crt_stdio_output@@V?$positional_parameter_base@DV?$string_output_adapter@D@__crt_stdio_output@@@2@@__crt_stdio_output@@AAE_NXZ@PAU1?1??234@AAE_NXZ@@?$positional_parameter_base@DV?$string_output_adapter@D@__crt_stdio_output@@@__crt_stdio_output@@IAE_NAAPAUansi_string@?1??type_case_Z@?$output_processor@DV?$string_output_adapter@D@__crt_stdio_output@@V?$positional_parameter_base@DV?$string_output_adapter@D@__crt_stdio_output@@@2@@1@AAE_NXZ@@Z 10024b57 f i libucrt:output.obj
 0001:00023bf4       ??$extract_argument_from_va_list@PAUansi_string@?1??type_case_Z@?$output_processor@DV?$string_output_adapter@D@__crt_stdio_output@@V?$positional_parameter_base@DV?$string_output_adapter@D@__crt_stdio_output@@@2@@__crt_stdio_output@@AAE_NXZ@PAU1?1??234@AAE_NXZ@@?$standard_base@DV?$string_output_adapter@D@__crt_stdio_output@@@__crt_stdio_output@@IAE_NAAPAUansi_string@?1??type_case_Z@?$output_processor@DV?$string_output_adapter@D@__crt_stdio_output@@V?$positional_parameter_base@DV?$string_output_adapter@D@__crt_stdio_output@@@2@@1@AAE_NXZ@@Z 10024bf4 f i libucrt:output.obj
 0001:00023c14       ??$extract_argument_from_va_list@PAUansi_string@?1??type_case_Z@?$output_processor@DV?$string_output_adapter@D@__crt_stdio_output@@V?$standard_base@DV?$string_output_adapter@D@__crt_stdio_output@@@2@@__crt_stdio_output@@AAE_NXZ@PAU1?1??234@AAE_NXZ@@?$standard_base@DV?$string_output_adapter@D@__crt_stdio_output@@@__crt_stdio_output@@IAE_NAAPAUansi_string@?1??type_case_Z@?$output_processor@DV?$string_output_adapter@D@__crt_stdio_output@@V?$standard_base@DV?$string_output_adapter@D@__crt_stdio_output@@@2@@1@AAE_NXZ@@Z 10024c14 f i libucrt:output.obj
 0001:00023c34       ??$extract_argument_from_va_list@PAUansi_string@?1??type_case_Z@?$output_processor@_WV?$stream_output_adapter@_W@__crt_stdio_output@@V?$format_validation_base@_WV?$stream_output_adapter@_W@__crt_stdio_output@@@2@@__crt_stdio_output@@AAE_NXZ@PAU1?1??234@AAE_NXZ@@?$standard_base@_WV?$stream_output_adapter@_W@__crt_stdio_output@@@__crt_stdio_output@@IAE_NAAPAUansi_string@?1??type_case_Z@?$output_processor@_WV?$stream_output_adapter@_W@__crt_stdio_output@@V?$format_validation_base@_WV?$stream_output_adapter@_W@__crt_stdio_output@@@2@@1@AAE_NXZ@@Z 10024c34 f i libucrt:output.obj
 0001:00023c54       ??$extract_argument_from_va_list@PAUansi_string@?1??type_case_Z@?$output_processor@_WV?$stream_output_adapter@_W@__crt_stdio_output@@V?$positional_parameter_base@_WV?$stream_output_adapter@_W@__crt_stdio_output@@@2@@__crt_stdio_output@@AAE_NXZ@PAU1?1??234@AAE_NXZ@@?$positional_parameter_base@_WV?$stream_output_adapter@_W@__crt_stdio_output@@@__crt_stdio_output@@IAE_NAAPAUansi_string@?1??type_case_Z@?$output_processor@_WV?$stream_output_adapter@_W@__crt_stdio_output@@V?$positional_parameter_base@_WV?$stream_output_adapter@_W@__crt_stdio_output@@@2@@1@AAE_NXZ@@Z 10024c54 f i libucrt:output.obj
 0001:00023cf1       ??$extract_argument_from_va_list@PAUansi_string@?1??type_case_Z@?$output_processor@_WV?$stream_output_adapter@_W@__crt_stdio_output@@V?$positional_parameter_base@_WV?$stream_output_adapter@_W@__crt_stdio_output@@@2@@__crt_stdio_output@@AAE_NXZ@PAU1?1??234@AAE_NXZ@@?$standard_base@_WV?$stream_output_adapter@_W@__crt_stdio_output@@@__crt_stdio_output@@IAE_NAAPAUansi_string@?1??type_case_Z@?$output_processor@_WV?$stream_output_adapter@_W@__crt_stdio_output@@V?$positional_parameter_base@_WV?$stream_output_adapter@_W@__crt_stdio_output@@@2@@1@AAE_NXZ@@Z 10024cf1 f i libucrt:output.obj
 0001:00023d11       ??$extract_argument_from_va_list@PAUansi_string@?1??type_case_Z@?$output_processor@_WV?$stream_output_adapter@_W@__crt_stdio_output@@V?$standard_base@_WV?$stream_output_adapter@_W@__crt_stdio_output@@@2@@__crt_stdio_output@@AAE_NXZ@PAU1?1??234@AAE_NXZ@@?$standard_base@_WV?$stream_output_adapter@_W@__crt_stdio_output@@@__crt_stdio_output@@IAE_NAAPAUansi_string@?1??type_case_Z@?$output_processor@_WV?$stream_output_adapter@_W@__crt_stdio_output@@V?$standard_base@_WV?$stream_output_adapter@_W@__crt_stdio_output@@@2@@1@AAE_NXZ@@Z 10024d11 f i libucrt:output.obj
 0001:00023d31       ??$extract_argument_from_va_list@PAUansi_string@?1??type_case_Z@?$output_processor@_WV?$string_output_adapter@_W@__crt_stdio_output@@V?$format_validation_base@_WV?$string_output_adapter@_W@__crt_stdio_output@@@2@@__crt_stdio_output@@AAE_NXZ@PAU1?1??234@AAE_NXZ@@?$standard_base@_WV?$string_output_adapter@_W@__crt_stdio_output@@@__crt_stdio_output@@IAE_NAAPAUansi_string@?1??type_case_Z@?$output_processor@_WV?$string_output_adapter@_W@__crt_stdio_output@@V?$format_validation_base@_WV?$string_output_adapter@_W@__crt_stdio_output@@@2@@1@AAE_NXZ@@Z 10024d31 f i libucrt:output.obj
 0001:00023d51       ??$extract_argument_from_va_list@PAUansi_string@?1??type_case_Z@?$output_processor@_WV?$string_output_adapter@_W@__crt_stdio_output@@V?$positional_parameter_base@_WV?$string_output_adapter@_W@__crt_stdio_output@@@2@@__crt_stdio_output@@AAE_NXZ@PAU1?1??234@AAE_NXZ@@?$positional_parameter_base@_WV?$string_output_adapter@_W@__crt_stdio_output@@@__crt_stdio_output@@IAE_NAAPAUansi_string@?1??type_case_Z@?$output_processor@_WV?$string_output_adapter@_W@__crt_stdio_output@@V?$positional_parameter_base@_WV?$string_output_adapter@_W@__crt_stdio_output@@@2@@1@AAE_NXZ@@Z 10024d51 f i libucrt:output.obj
 0001:00023dee       ??$extract_argument_from_va_list@PAUansi_string@?1??type_case_Z@?$output_processor@_WV?$string_output_adapter@_W@__crt_stdio_output@@V?$positional_parameter_base@_WV?$string_output_adapter@_W@__crt_stdio_output@@@2@@__crt_stdio_output@@AAE_NXZ@PAU1?1??234@AAE_NXZ@@?$standard_base@_WV?$string_output_adapter@_W@__crt_stdio_output@@@__crt_stdio_output@@IAE_NAAPAUansi_string@?1??type_case_Z@?$output_processor@_WV?$string_output_adapter@_W@__crt_stdio_output@@V?$positional_parameter_base@_WV?$string_output_adapter@_W@__crt_stdio_output@@@2@@1@AAE_NXZ@@Z 10024dee f i libucrt:output.obj
 0001:00023e0e       ??$extract_argument_from_va_list@PAUansi_string@?1??type_case_Z@?$output_processor@_WV?$string_output_adapter@_W@__crt_stdio_output@@V?$standard_base@_WV?$string_output_adapter@_W@__crt_stdio_output@@@2@@__crt_stdio_output@@AAE_NXZ@PAU1?1??234@AAE_NXZ@@?$standard_base@_WV?$string_output_adapter@_W@__crt_stdio_output@@@__crt_stdio_output@@IAE_NAAPAUansi_string@?1??type_case_Z@?$output_processor@_WV?$string_output_adapter@_W@__crt_stdio_output@@V?$standard_base@_WV?$string_output_adapter@_W@__crt_stdio_output@@@2@@1@AAE_NXZ@@Z 10024e0e f i libucrt:output.obj
 0001:00023e2e       ??$extract_argument_from_va_list@PAXPAX@?$positional_parameter_base@DV?$stream_output_adapter@D@__crt_stdio_output@@@__crt_stdio_output@@IAE_NAAPAX@Z 10024e2e f i libucrt:output.obj
 0001:00023ecb       ??$extract_argument_from_va_list@PAXPAX@?$positional_parameter_base@DV?$string_output_adapter@D@__crt_stdio_output@@@__crt_stdio_output@@IAE_NAAPAX@Z 10024ecb f i libucrt:output.obj
 0001:00023f68       ??$extract_argument_from_va_list@PAXPAX@?$positional_parameter_base@_WV?$stream_output_adapter@_W@__crt_stdio_output@@@__crt_stdio_output@@IAE_NAAPAX@Z 10024f68 f i libucrt:output.obj
 0001:00024005       ??$extract_argument_from_va_list@PAXPAX@?$positional_parameter_base@_WV?$string_output_adapter@_W@__crt_stdio_output@@@__crt_stdio_output@@IAE_NAAPAX@Z 10025005 f i libucrt:output.obj
 0001:000240a2       ??$extract_argument_from_va_list@PAXPAX@?$standard_base@DV?$stream_output_adapter@D@__crt_stdio_output@@@__crt_stdio_output@@IAE_NAAPAX@Z 100250a2 f i libucrt:output.obj
 0001:000240c2       ??$extract_argument_from_va_list@PAXPAX@?$standard_base@DV?$string_output_adapter@D@__crt_stdio_output@@@__crt_stdio_output@@IAE_NAAPAX@Z 100250c2 f i libucrt:output.obj
 0001:000240e2       ??$extract_argument_from_va_list@PAXPAX@?$standard_base@_WV?$stream_output_adapter@_W@__crt_stdio_output@@@__crt_stdio_output@@IAE_NAAPAX@Z 100250e2 f i libucrt:output.obj
 0001:00024102       ??$extract_argument_from_va_list@PAXPAX@?$standard_base@_WV?$string_output_adapter@_W@__crt_stdio_output@@@__crt_stdio_output@@IAE_NAAPAX@Z 10025102 f i libucrt:output.obj
 0001:00024122       ??$extract_argument_from_va_list@U_CRT_DOUBLE@@U1@@?$positional_parameter_base@DV?$stream_output_adapter@D@__crt_stdio_output@@@__crt_stdio_output@@IAE_NAAU_CRT_DOUBLE@@@Z 10025122 f i libucrt:output.obj
 0001:000241d3       ??$extract_argument_from_va_list@U_CRT_DOUBLE@@U1@@?$positional_parameter_base@DV?$string_output_adapter@D@__crt_stdio_output@@@__crt_stdio_output@@IAE_NAAU_CRT_DOUBLE@@@Z 100251d3 f i libucrt:output.obj
 0001:00024284       ??$extract_argument_from_va_list@U_CRT_DOUBLE@@U1@@?$positional_parameter_base@_WV?$stream_output_adapter@_W@__crt_stdio_output@@@__crt_stdio_output@@IAE_NAAU_CRT_DOUBLE@@@Z 10025284 f i libucrt:output.obj
 0001:00024335       ??$extract_argument_from_va_list@U_CRT_DOUBLE@@U1@@?$positional_parameter_base@_WV?$string_output_adapter@_W@__crt_stdio_output@@@__crt_stdio_output@@IAE_NAAU_CRT_DOUBLE@@@Z 10025335 f i libucrt:output.obj
 0001:000243e6       ??$extract_argument_from_va_list@U_CRT_DOUBLE@@U1@@?$standard_base@DV?$stream_output_adapter@D@__crt_stdio_output@@@__crt_stdio_output@@IAE_NAAU_CRT_DOUBLE@@@Z 100253e6 f i libucrt:output.obj
 0001:0002440e       ??$extract_argument_from_va_list@U_CRT_DOUBLE@@U1@@?$standard_base@DV?$string_output_adapter@D@__crt_stdio_output@@@__crt_stdio_output@@IAE_NAAU_CRT_DOUBLE@@@Z 1002540e f i libucrt:output.obj
 0001:00024436       ??$extract_argument_from_va_list@U_CRT_DOUBLE@@U1@@?$standard_base@_WV?$stream_output_adapter@_W@__crt_stdio_output@@@__crt_stdio_output@@IAE_NAAU_CRT_DOUBLE@@@Z 10025436 f i libucrt:output.obj
 0001:0002445e       ??$extract_argument_from_va_list@U_CRT_DOUBLE@@U1@@?$standard_base@_WV?$string_output_adapter@_W@__crt_stdio_output@@@__crt_stdio_output@@IAE_NAAU_CRT_DOUBLE@@@Z 1002545e f i libucrt:output.obj
 0001:00024486       ??$extract_argument_from_va_list@_J_J@?$positional_parameter_base@DV?$stream_output_adapter@D@__crt_stdio_output@@@__crt_stdio_output@@IAE_NAA_J@Z 10025486 f i libucrt:output.obj
 0001:00024537       ??$extract_argument_from_va_list@_J_J@?$positional_parameter_base@DV?$string_output_adapter@D@__crt_stdio_output@@@__crt_stdio_output@@IAE_NAA_J@Z 10025537 f i libucrt:output.obj
 0001:000245e8       ??$extract_argument_from_va_list@_J_J@?$positional_parameter_base@_WV?$stream_output_adapter@_W@__crt_stdio_output@@@__crt_stdio_output@@IAE_NAA_J@Z 100255e8 f i libucrt:output.obj
 0001:00024699       ??$extract_argument_from_va_list@_J_J@?$positional_parameter_base@_WV?$string_output_adapter@_W@__crt_stdio_output@@@__crt_stdio_output@@IAE_NAA_J@Z 10025699 f i libucrt:output.obj
 0001:0002474a       ??$extract_argument_from_va_list@_J_J@?$standard_base@DV?$stream_output_adapter@D@__crt_stdio_output@@@__crt_stdio_output@@IAE_NAA_J@Z 1002574a f i libucrt:output.obj
 0001:00024772       ??$extract_argument_from_va_list@_J_J@?$standard_base@DV?$string_output_adapter@D@__crt_stdio_output@@@__crt_stdio_output@@IAE_NAA_J@Z 10025772 f i libucrt:output.obj
 0001:0002479a       ??$extract_argument_from_va_list@_J_J@?$standard_base@_WV?$stream_output_adapter@_W@__crt_stdio_output@@@__crt_stdio_output@@IAE_NAA_J@Z 1002579a f i libucrt:output.obj
 0001:000247c2       ??$extract_argument_from_va_list@_J_J@?$standard_base@_WV?$string_output_adapter@_W@__crt_stdio_output@@@__crt_stdio_output@@IAE_NAA_J@Z 100257c2 f i libucrt:output.obj
 0001:000247ea       ??$extract_argument_from_va_list@_K_J@?$positional_parameter_base@DV?$stream_output_adapter@D@__crt_stdio_output@@@__crt_stdio_output@@IAE_NAA_J@Z 100257ea f i libucrt:output.obj
 0001:0002489b       ??$extract_argument_from_va_list@_K_J@?$positional_parameter_base@DV?$string_output_adapter@D@__crt_stdio_output@@@__crt_stdio_output@@IAE_NAA_J@Z 1002589b f i libucrt:output.obj
 0001:0002494c       ??$extract_argument_from_va_list@_K_J@?$positional_parameter_base@_WV?$stream_output_adapter@_W@__crt_stdio_output@@@__crt_stdio_output@@IAE_NAA_J@Z 1002594c f i libucrt:output.obj
 0001:000249fd       ??$extract_argument_from_va_list@_K_J@?$positional_parameter_base@_WV?$string_output_adapter@_W@__crt_stdio_output@@@__crt_stdio_output@@IAE_NAA_J@Z 100259fd f i libucrt:output.obj
 0001:00024aae       ??$extract_argument_from_va_list@_K_J@?$standard_base@DV?$stream_output_adapter@D@__crt_stdio_output@@@__crt_stdio_output@@IAE_NAA_J@Z 10025aae f i libucrt:output.obj
 0001:00024ad6       ??$extract_argument_from_va_list@_K_J@?$standard_base@DV?$string_output_adapter@D@__crt_stdio_output@@@__crt_stdio_output@@IAE_NAA_J@Z 10025ad6 f i libucrt:output.obj
 0001:00024afe       ??$extract_argument_from_va_list@_K_J@?$standard_base@_WV?$stream_output_adapter@_W@__crt_stdio_output@@@__crt_stdio_output@@IAE_NAA_J@Z 10025afe f i libucrt:output.obj
 0001:00024b26       ??$extract_argument_from_va_list@_K_J@?$standard_base@_WV?$string_output_adapter@_W@__crt_stdio_output@@@__crt_stdio_output@@IAE_NAA_J@Z 10025b26 f i libucrt:output.obj
 0001:00024b4e       ??$extract_argument_from_va_list@_W_W@?$positional_parameter_base@DV?$stream_output_adapter@D@__crt_stdio_output@@@__crt_stdio_output@@IAE_NAA_W@Z 10025b4e f i libucrt:output.obj
 0001:00024bf0       ??$extract_argument_from_va_list@_W_W@?$positional_parameter_base@DV?$string_output_adapter@D@__crt_stdio_output@@@__crt_stdio_output@@IAE_NAA_W@Z 10025bf0 f i libucrt:output.obj
 0001:00024c92       ??$extract_argument_from_va_list@_W_W@?$positional_parameter_base@_WV?$stream_output_adapter@_W@__crt_stdio_output@@@__crt_stdio_output@@IAE_NAA_W@Z 10025c92 f i libucrt:output.obj
 0001:00024d34       ??$extract_argument_from_va_list@_W_W@?$positional_parameter_base@_WV?$string_output_adapter@_W@__crt_stdio_output@@@__crt_stdio_output@@IAE_NAA_W@Z 10025d34 f i libucrt:output.obj
 0001:00024dd6       ??$extract_argument_from_va_list@_W_W@?$standard_base@DV?$stream_output_adapter@D@__crt_stdio_output@@@__crt_stdio_output@@IAE_NAA_W@Z 10025dd6 f i libucrt:output.obj
 0001:00024df9       ??$extract_argument_from_va_list@_W_W@?$standard_base@DV?$string_output_adapter@D@__crt_stdio_output@@@__crt_stdio_output@@IAE_NAA_W@Z 10025df9 f i libucrt:output.obj
 0001:00024e1c       ??$extract_argument_from_va_list@_W_W@?$standard_base@_WV?$stream_output_adapter@_W@__crt_stdio_output@@@__crt_stdio_output@@IAE_NAA_W@Z 10025e1c f i libucrt:output.obj
 0001:00024e3f       ??$extract_argument_from_va_list@_W_W@?$standard_base@_WV?$string_output_adapter@_W@__crt_stdio_output@@@__crt_stdio_output@@IAE_NAA_W@Z 10025e3f f i libucrt:output.obj
 0001:00024e62       ??$get_parameter_type@D@?$positional_parameter_base@DV?$stream_output_adapter@D@__crt_stdio_output@@@__crt_stdio_output@@CA?AW4parameter_type@01@PAD@Z 10025e62 f i libucrt:output.obj
 0001:00024e66       ??$get_parameter_type@D@?$positional_parameter_base@DV?$string_output_adapter@D@__crt_stdio_output@@@__crt_stdio_output@@CA?AW4parameter_type@01@PAD@Z 10025e66 f i libucrt:output.obj
 0001:00024e6a       ??$get_parameter_type@D@?$positional_parameter_base@_WV?$stream_output_adapter@_W@__crt_stdio_output@@@__crt_stdio_output@@CA?AW4parameter_type@01@PAD@Z 10025e6a f i libucrt:output.obj
 0001:00024e6e       ??$get_parameter_type@D@?$positional_parameter_base@_WV?$string_output_adapter@_W@__crt_stdio_output@@@__crt_stdio_output@@CA?AW4parameter_type@01@PAD@Z 10025e6e f i libucrt:output.obj
 0001:00024e72       ??$get_parameter_type@Uansi_string@?1??type_case_Z@?$output_processor@DV?$stream_output_adapter@D@__crt_stdio_output@@V?$positional_parameter_base@DV?$stream_output_adapter@D@__crt_stdio_output@@@2@@__crt_stdio_output@@AAE_NXZ@@?$positional_parameter_base@DV?$stream_output_adapter@D@__crt_stdio_output@@@__crt_stdio_output@@CA?AW4parameter_type@01@PAUansi_string@?1??type_case_Z@?$output_processor@DV?$stream_output_adapter@D@__crt_stdio_output@@V?$positional_parameter_base@DV?$stream_output_adapter@D@__crt_stdio_output@@@2@@1@AAE_NXZ@@Z 10025e72 f i libucrt:output.obj
 0001:00024e76       ??$get_parameter_type@Uansi_string@?1??type_case_Z@?$output_processor@DV?$string_output_adapter@D@__crt_stdio_output@@V?$positional_parameter_base@DV?$string_output_adapter@D@__crt_stdio_output@@@2@@__crt_stdio_output@@AAE_NXZ@@?$positional_parameter_base@DV?$string_output_adapter@D@__crt_stdio_output@@@__crt_stdio_output@@CA?AW4parameter_type@01@PAUansi_string@?1??type_case_Z@?$output_processor@DV?$string_output_adapter@D@__crt_stdio_output@@V?$positional_parameter_base@DV?$string_output_adapter@D@__crt_stdio_output@@@2@@1@AAE_NXZ@@Z 10025e76 f i libucrt:output.obj
 0001:00024e7a       ??$get_parameter_type@Uansi_string@?1??type_case_Z@?$output_processor@_WV?$stream_output_adapter@_W@__crt_stdio_output@@V?$positional_parameter_base@_WV?$stream_output_adapter@_W@__crt_stdio_output@@@2@@__crt_stdio_output@@AAE_NXZ@@?$positional_parameter_base@_WV?$stream_output_adapter@_W@__crt_stdio_output@@@__crt_stdio_output@@CA?AW4parameter_type@01@PAUansi_string@?1??type_case_Z@?$output_processor@_WV?$stream_output_adapter@_W@__crt_stdio_output@@V?$positional_parameter_base@_WV?$stream_output_adapter@_W@__crt_stdio_output@@@2@@1@AAE_NXZ@@Z 10025e7a f i libucrt:output.obj
 0001:00024e7e       ??$get_parameter_type@Uansi_string@?1??type_case_Z@?$output_processor@_WV?$string_output_adapter@_W@__crt_stdio_output@@V?$positional_parameter_base@_WV?$string_output_adapter@_W@__crt_stdio_output@@@2@@__crt_stdio_output@@AAE_NXZ@@?$positional_parameter_base@_WV?$string_output_adapter@_W@__crt_stdio_output@@@__crt_stdio_output@@CA?AW4parameter_type@01@PAUansi_string@?1??type_case_Z@?$output_processor@_WV?$string_output_adapter@_W@__crt_stdio_output@@V?$positional_parameter_base@_WV?$string_output_adapter@_W@__crt_stdio_output@@@2@@1@AAE_NXZ@@Z 10025e7e f i libucrt:output.obj
 0001:00024e82       ??$get_parameter_type@X@?$positional_parameter_base@DV?$stream_output_adapter@D@__crt_stdio_output@@@__crt_stdio_output@@CA?AW4parameter_type@01@PAX@Z 10025e82 f i libucrt:output.obj
 0001:00024e86       ??$get_parameter_type@X@?$positional_parameter_base@DV?$string_output_adapter@D@__crt_stdio_output@@@__crt_stdio_output@@CA?AW4parameter_type@01@PAX@Z 10025e86 f i libucrt:output.obj
 0001:00024e8a       ??$get_parameter_type@X@?$positional_parameter_base@_WV?$stream_output_adapter@_W@__crt_stdio_output@@@__crt_stdio_output@@CA?AW4parameter_type@01@PAX@Z 10025e8a f i libucrt:output.obj
 0001:00024e8e       ??$get_parameter_type@X@?$positional_parameter_base@_WV?$string_output_adapter@_W@__crt_stdio_output@@@__crt_stdio_output@@CA?AW4parameter_type@01@PAX@Z 10025e8e f i libucrt:output.obj
 0001:00024e92       ??$is_character_specifier@D@?$positional_parameter_base@DV?$stream_output_adapter@D@__crt_stdio_output@@@__crt_stdio_output@@CA_ND@Z 10025e92 f i libucrt:output.obj
 0001:00024eb1       ??$is_character_specifier@D@?$positional_parameter_base@DV?$string_output_adapter@D@__crt_stdio_output@@@__crt_stdio_output@@CA_ND@Z 10025eb1 f i libucrt:output.obj
 0001:00024ed0       ??$is_character_specifier@_W@?$positional_parameter_base@_WV?$stream_output_adapter@_W@__crt_stdio_output@@@__crt_stdio_output@@CA_N_W@Z 10025ed0 f i libucrt:output.obj
 0001:00024ef3       ??$is_character_specifier@_W@?$positional_parameter_base@_WV?$string_output_adapter@_W@__crt_stdio_output@@@__crt_stdio_output@@CA_N_W@Z 10025ef3 f i libucrt:output.obj
 0001:00024f16       ??$is_integral_specifier@D@?$positional_parameter_base@DV?$stream_output_adapter@D@__crt_stdio_output@@@__crt_stdio_output@@CA_ND@Z 10025f16 f i libucrt:output.obj
 0001:00024f4e       ??$is_integral_specifier@D@?$positional_parameter_base@DV?$string_output_adapter@D@__crt_stdio_output@@@__crt_stdio_output@@CA_ND@Z 10025f4e f i libucrt:output.obj
 0001:00024f86       ??$is_integral_specifier@_W@?$positional_parameter_base@_WV?$stream_output_adapter@_W@__crt_stdio_output@@@__crt_stdio_output@@CA_N_W@Z 10025f86 f i libucrt:output.obj
 0001:00024fd1       ??$is_integral_specifier@_W@?$positional_parameter_base@_WV?$string_output_adapter@_W@__crt_stdio_output@@@__crt_stdio_output@@CA_N_W@Z 10025fd1 f i libucrt:output.obj
 0001:0002501c       ??$is_pointer_specifier@D@?$positional_parameter_base@DV?$stream_output_adapter@D@__crt_stdio_output@@@__crt_stdio_output@@CA_ND@Z 1002601c f i libucrt:output.obj
 0001:00025030       ??$is_pointer_specifier@D@?$positional_parameter_base@DV?$string_output_adapter@D@__crt_stdio_output@@@__crt_stdio_output@@CA_ND@Z 10026030 f i libucrt:output.obj
 0001:00025044       ??$is_pointer_specifier@_W@?$positional_parameter_base@_WV?$stream_output_adapter@_W@__crt_stdio_output@@@__crt_stdio_output@@CA_N_W@Z 10026044 f i libucrt:output.obj
 0001:00025059       ??$is_pointer_specifier@_W@?$positional_parameter_base@_WV?$string_output_adapter@_W@__crt_stdio_output@@@__crt_stdio_output@@CA_N_W@Z 10026059 f i libucrt:output.obj
 0001:0002506e       ??$is_string_specifier@D@?$positional_parameter_base@DV?$stream_output_adapter@D@__crt_stdio_output@@@__crt_stdio_output@@CA_ND@Z 1002606e f i libucrt:output.obj
 0001:0002508d       ??$is_string_specifier@D@?$positional_parameter_base@DV?$string_output_adapter@D@__crt_stdio_output@@@__crt_stdio_output@@CA_ND@Z 1002608d f i libucrt:output.obj
 0001:000250ac       ??$is_string_specifier@_W@?$positional_parameter_base@_WV?$stream_output_adapter@_W@__crt_stdio_output@@@__crt_stdio_output@@CA_N_W@Z 100260ac f i libucrt:output.obj
 0001:000250cf       ??$is_string_specifier@_W@?$positional_parameter_base@_WV?$string_output_adapter@_W@__crt_stdio_output@@@__crt_stdio_output@@CA_N_W@Z 100260cf f i libucrt:output.obj
 0001:000250f2       ??$is_wide_character_specifier@D@__crt_stdio_output@@YA_N_KDW4length_modifier@0@@Z 100260f2 f i libucrt:output.obj
 0001:00025142       ??$is_wide_character_specifier@_W@__crt_stdio_output@@YA_N_K_WW4length_modifier@0@@Z 10026142 f i libucrt:output.obj
 0001:000251a4       ??$peek_va_arg@C@__crt_stdio_output@@YACPAD@Z 100261a4 f i libucrt:output.obj
 0001:000251b3       ??$peek_va_arg@E@__crt_stdio_output@@YAEPAD@Z 100261b3 f i libucrt:output.obj
 0001:000251c2       ??$peek_va_arg@F@__crt_stdio_output@@YAFPAD@Z 100261c2 f i libucrt:output.obj
 0001:000251d2       ??$peek_va_arg@G@__crt_stdio_output@@YAGPAD@Z 100261d2 f i libucrt:output.obj
 0001:000251e2       ??$peek_va_arg@H@__crt_stdio_output@@YAHPAD@Z 100261e2 f i libucrt:output.obj
 0001:000251f1       ??$peek_va_arg@I@__crt_stdio_output@@YAIPAD@Z 100261f1 f i libucrt:output.obj
 0001:00025200       ??$peek_va_arg@PAD@__crt_stdio_output@@YAPADPAD@Z 10026200 f i libucrt:output.obj
 0001:0002520f       ??$peek_va_arg@PAUansi_string@?1??type_case_Z@?$output_processor@DV?$stream_output_adapter@D@__crt_stdio_output@@V?$positional_parameter_base@DV?$stream_output_adapter@D@__crt_stdio_output@@@2@@__crt_stdio_output@@AAE_NXZ@@__crt_stdio_output@@YAPAUansi_string@?1??type_case_Z@?$output_processor@DV?$stream_output_adapter@D@__crt_stdio_output@@V?$positional_parameter_base@DV?$stream_output_adapter@D@__crt_stdio_output@@@2@@0@AAE_NXZ@PAD@Z 1002620f f i libucrt:output.obj
 0001:0002521e       ??$peek_va_arg@PAUansi_string@?1??type_case_Z@?$output_processor@DV?$string_output_adapter@D@__crt_stdio_output@@V?$positional_parameter_base@DV?$string_output_adapter@D@__crt_stdio_output@@@2@@__crt_stdio_output@@AAE_NXZ@@__crt_stdio_output@@YAPAUansi_string@?1??type_case_Z@?$output_processor@DV?$string_output_adapter@D@__crt_stdio_output@@V?$positional_parameter_base@DV?$string_output_adapter@D@__crt_stdio_output@@@2@@0@AAE_NXZ@PAD@Z 1002621e f i libucrt:output.obj
 0001:0002522d       ??$peek_va_arg@PAUansi_string@?1??type_case_Z@?$output_processor@_WV?$stream_output_adapter@_W@__crt_stdio_output@@V?$positional_parameter_base@_WV?$stream_output_adapter@_W@__crt_stdio_output@@@2@@__crt_stdio_output@@AAE_NXZ@@__crt_stdio_output@@YAPAUansi_string@?1??type_case_Z@?$output_processor@_WV?$stream_output_adapter@_W@__crt_stdio_output@@V?$positional_parameter_base@_WV?$stream_output_adapter@_W@__crt_stdio_output@@@2@@0@AAE_NXZ@PAD@Z 1002622d f i libucrt:output.obj
 0001:0002523c       ??$peek_va_arg@PAUansi_string@?1??type_case_Z@?$output_processor@_WV?$string_output_adapter@_W@__crt_stdio_output@@V?$positional_parameter_base@_WV?$string_output_adapter@_W@__crt_stdio_output@@@2@@__crt_stdio_output@@AAE_NXZ@@__crt_stdio_output@@YAPAUansi_string@?1??type_case_Z@?$output_processor@_WV?$string_output_adapter@_W@__crt_stdio_output@@V?$positional_parameter_base@_WV?$string_output_adapter@_W@__crt_stdio_output@@@2@@0@AAE_NXZ@PAD@Z 1002623c f i libucrt:output.obj
 0001:0002524b       ??$peek_va_arg@PAX@__crt_stdio_output@@YAPAXPAD@Z 1002624b f i libucrt:output.obj
 0001:0002525a       ??$peek_va_arg@U_CRT_DOUBLE@@@__crt_stdio_output@@YA?AU_CRT_DOUBLE@@PAD@Z 1002625a f i libucrt:output.obj
 0001:0002526c       ??$peek_va_arg@_J@__crt_stdio_output@@YA_JPAD@Z 1002626c f i libucrt:output.obj
 0001:0002527e       ??$peek_va_arg@_K@__crt_stdio_output@@YA_KPAD@Z 1002627e f i libucrt:output.obj
 0001:00025290       ??$peek_va_arg@_W@__crt_stdio_output@@YA_WPAD@Z 10026290 f i libucrt:output.obj
 0001:000252a0       ??$puttc_nolock@ABDPAU_iobuf@@@?$__crt_char_traits@D@@SAHABD$$QAPAU_iobuf@@@Z 100262a0 f i libucrt:output.obj
 0001:000252c0       ??$puttc_nolock@AB_WPAU_iobuf@@@?$__crt_char_traits@_W@@SAGAB_W$$QAPAU_iobuf@@@Z 100262c0 f i libucrt:output.obj
 0001:000252e0       ??$read_va_arg@C@__crt_stdio_output@@YACAAPAD@Z 100262e0 f i libucrt:output.obj
 0001:000252f6       ??$read_va_arg@E@__crt_stdio_output@@YAEAAPAD@Z 100262f6 f i libucrt:output.obj
 0001:0002530c       ??$read_va_arg@F@__crt_stdio_output@@YAFAAPAD@Z 1002630c f i libucrt:output.obj
 0001:00025323       ??$read_va_arg@G@__crt_stdio_output@@YAGAAPAD@Z 10026323 f i libucrt:output.obj
 0001:0002533a       ??$read_va_arg@H@__crt_stdio_output@@YAHAAPAD@Z 1002633a f i libucrt:output.obj
 0001:00025350       ??$read_va_arg@I@__crt_stdio_output@@YAIAAPAD@Z 10026350 f i libucrt:output.obj
 0001:00025366       ??$read_va_arg@PAD@__crt_stdio_output@@YAPADAAPAD@Z 10026366 f i libucrt:output.obj
 0001:0002537c       ??$read_va_arg@PAUansi_string@?1??type_case_Z@?$output_processor@DV?$stream_output_adapter@D@__crt_stdio_output@@V?$format_validation_base@DV?$stream_output_adapter@D@__crt_stdio_output@@@2@@__crt_stdio_output@@AAE_NXZ@@__crt_stdio_output@@YAPAUansi_string@?1??type_case_Z@?$output_processor@DV?$stream_output_adapter@D@__crt_stdio_output@@V?$format_validation_base@DV?$stream_output_adapter@D@__crt_stdio_output@@@2@@0@AAE_NXZ@AAPAD@Z 1002637c f i libucrt:output.obj
 0001:00025392       ??$read_va_arg@PAUansi_string@?1??type_case_Z@?$output_processor@DV?$stream_output_adapter@D@__crt_stdio_output@@V?$positional_parameter_base@DV?$stream_output_adapter@D@__crt_stdio_output@@@2@@__crt_stdio_output@@AAE_NXZ@@__crt_stdio_output@@YAPAUansi_string@?1??type_case_Z@?$output_processor@DV?$stream_output_adapter@D@__crt_stdio_output@@V?$positional_parameter_base@DV?$stream_output_adapter@D@__crt_stdio_output@@@2@@0@AAE_NXZ@AAPAD@Z 10026392 f i libucrt:output.obj
 0001:000253a8       ??$read_va_arg@PAUansi_string@?1??type_case_Z@?$output_processor@DV?$stream_output_adapter@D@__crt_stdio_output@@V?$standard_base@DV?$stream_output_adapter@D@__crt_stdio_output@@@2@@__crt_stdio_output@@AAE_NXZ@@__crt_stdio_output@@YAPAUansi_string@?1??type_case_Z@?$output_processor@DV?$stream_output_adapter@D@__crt_stdio_output@@V?$standard_base@DV?$stream_output_adapter@D@__crt_stdio_output@@@2@@0@AAE_NXZ@AAPAD@Z 100263a8 f i libucrt:output.obj
 0001:000253be       ??$read_va_arg@PAUansi_string@?1??type_case_Z@?$output_processor@DV?$string_output_adapter@D@__crt_stdio_output@@V?$format_validation_base@DV?$string_output_adapter@D@__crt_stdio_output@@@2@@__crt_stdio_output@@AAE_NXZ@@__crt_stdio_output@@YAPAUansi_string@?1??type_case_Z@?$output_processor@DV?$string_output_adapter@D@__crt_stdio_output@@V?$format_validation_base@DV?$string_output_adapter@D@__crt_stdio_output@@@2@@0@AAE_NXZ@AAPAD@Z 100263be f i libucrt:output.obj
 0001:000253d4       ??$read_va_arg@PAUansi_string@?1??type_case_Z@?$output_processor@DV?$string_output_adapter@D@__crt_stdio_output@@V?$positional_parameter_base@DV?$string_output_adapter@D@__crt_stdio_output@@@2@@__crt_stdio_output@@AAE_NXZ@@__crt_stdio_output@@YAPAUansi_string@?1??type_case_Z@?$output_processor@DV?$string_output_adapter@D@__crt_stdio_output@@V?$positional_parameter_base@DV?$string_output_adapter@D@__crt_stdio_output@@@2@@0@AAE_NXZ@AAPAD@Z 100263d4 f i libucrt:output.obj
 0001:000253ea       ??$read_va_arg@PAUansi_string@?1??type_case_Z@?$output_processor@DV?$string_output_adapter@D@__crt_stdio_output@@V?$standard_base@DV?$string_output_adapter@D@__crt_stdio_output@@@2@@__crt_stdio_output@@AAE_NXZ@@__crt_stdio_output@@YAPAUansi_string@?1??type_case_Z@?$output_processor@DV?$string_output_adapter@D@__crt_stdio_output@@V?$standard_base@DV?$string_output_adapter@D@__crt_stdio_output@@@2@@0@AAE_NXZ@AAPAD@Z 100263ea f i libucrt:output.obj
 0001:00025400       ??$read_va_arg@PAUansi_string@?1??type_case_Z@?$output_processor@_WV?$stream_output_adapter@_W@__crt_stdio_output@@V?$format_validation_base@_WV?$stream_output_adapter@_W@__crt_stdio_output@@@2@@__crt_stdio_output@@AAE_NXZ@@__crt_stdio_output@@YAPAUansi_string@?1??type_case_Z@?$output_processor@_WV?$stream_output_adapter@_W@__crt_stdio_output@@V?$format_validation_base@_WV?$stream_output_adapter@_W@__crt_stdio_output@@@2@@0@AAE_NXZ@AAPAD@Z 10026400 f i libucrt:output.obj
 0001:00025416       ??$read_va_arg@PAUansi_string@?1??type_case_Z@?$output_processor@_WV?$stream_output_adapter@_W@__crt_stdio_output@@V?$positional_parameter_base@_WV?$stream_output_adapter@_W@__crt_stdio_output@@@2@@__crt_stdio_output@@AAE_NXZ@@__crt_stdio_output@@YAPAUansi_string@?1??type_case_Z@?$output_processor@_WV?$stream_output_adapter@_W@__crt_stdio_output@@V?$positional_parameter_base@_WV?$stream_output_adapter@_W@__crt_stdio_output@@@2@@0@AAE_NXZ@AAPAD@Z 10026416 f i libucrt:output.obj
 0001:0002542c       ??$read_va_arg@PAUansi_string@?1??type_case_Z@?$output_processor@_WV?$stream_output_adapter@_W@__crt_stdio_output@@V?$standard_base@_WV?$stream_output_adapter@_W@__crt_stdio_output@@@2@@__crt_stdio_output@@AAE_NXZ@@__crt_stdio_output@@YAPAUansi_string@?1??type_case_Z@?$output_processor@_WV?$stream_output_adapter@_W@__crt_stdio_output@@V?$standard_base@_WV?$stream_output_adapter@_W@__crt_stdio_output@@@2@@0@AAE_NXZ@AAPAD@Z 1002642c f i libucrt:output.obj
 0001:00025442       ??$read_va_arg@PAUansi_string@?1??type_case_Z@?$output_processor@_WV?$string_output_adapter@_W@__crt_stdio_output@@V?$format_validation_base@_WV?$string_output_adapter@_W@__crt_stdio_output@@@2@@__crt_stdio_output@@AAE_NXZ@@__crt_stdio_output@@YAPAUansi_string@?1??type_case_Z@?$output_processor@_WV?$string_output_adapter@_W@__crt_stdio_output@@V?$format_validation_base@_WV?$string_output_adapter@_W@__crt_stdio_output@@@2@@0@AAE_NXZ@AAPAD@Z 10026442 f i libucrt:output.obj
 0001:00025458       ??$read_va_arg@PAUansi_string@?1??type_case_Z@?$output_processor@_WV?$string_output_adapter@_W@__crt_stdio_output@@V?$positional_parameter_base@_WV?$string_output_adapter@_W@__crt_stdio_output@@@2@@__crt_stdio_output@@AAE_NXZ@@__crt_stdio_output@@YAPAUansi_string@?1??type_case_Z@?$output_processor@_WV?$string_output_adapter@_W@__crt_stdio_output@@V?$positional_parameter_base@_WV?$string_output_adapter@_W@__crt_stdio_output@@@2@@0@AAE_NXZ@AAPAD@Z 10026458 f i libucrt:output.obj
 0001:0002546e       ??$read_va_arg@PAUansi_string@?1??type_case_Z@?$output_processor@_WV?$string_output_adapter@_W@__crt_stdio_output@@V?$standard_base@_WV?$string_output_adapter@_W@__crt_stdio_output@@@2@@__crt_stdio_output@@AAE_NXZ@@__crt_stdio_output@@YAPAUansi_string@?1??type_case_Z@?$output_processor@_WV?$string_output_adapter@_W@__crt_stdio_output@@V?$standard_base@_WV?$string_output_adapter@_W@__crt_stdio_output@@@2@@0@AAE_NXZ@AAPAD@Z 1002646e f i libucrt:output.obj
 0001:00025484       ??$read_va_arg@PAX@__crt_stdio_output@@YAPAXAAPAD@Z 10026484 f i libucrt:output.obj
 0001:0002549a       ??$read_va_arg@U_CRT_DOUBLE@@@__crt_stdio_output@@YA?AU_CRT_DOUBLE@@AAPAD@Z 1002649a f i libucrt:output.obj
 0001:000254b4       ??$read_va_arg@_J@__crt_stdio_output@@YA_JAAPAD@Z 100264b4 f i libucrt:output.obj
 0001:000254ce       ??$read_va_arg@_K@__crt_stdio_output@@YA_KAAPAD@Z 100264ce f i libucrt:output.obj
 0001:000254e8       ??$read_va_arg@_W@__crt_stdio_output@@YA_WAAPAD@Z 100264e8 f i libucrt:output.obj
 0001:000254ff       ??$scratch_count@D@formatting_buffer@__crt_stdio_output@@QBEIXZ 100264ff f i libucrt:output.obj
 0001:00025504       ??$scratch_data@D@formatting_buffer@__crt_stdio_output@@QAEPADXZ 10026504 f i libucrt:output.obj
 0001:00025529       ??$tcstol@AAPBDPAPADH@?$__crt_char_traits@D@@SAJAAPBD$$QAPAPAD$$QAH@Z 10026529 f i libucrt:output.obj
 0001:0002554e       ??$tcstol@AAPB_WPAPA_WH@?$__crt_char_traits@_W@@SAJAAPB_W$$QAPAPA_W$$QAH@Z 1002654e f i libucrt:output.obj
 0001:00025573       ??$tcstol@PBDPAPADH@?$__crt_char_traits@D@@SAJ$$QAPBD$$QAPAPAD$$QAH@Z 10026573 f i libucrt:output.obj
 0001:00025598       ??$tcstol@PB_WPAPA_WH@?$__crt_char_traits@_W@@SAJ$$QAPB_W$$QAPAPA_W$$QAH@Z 10026598 f i libucrt:output.obj
 0001:000255bd       ??$type_case_integer_parse_into_buffer@I@?$output_processor@DV?$stream_output_adapter@D@__crt_stdio_output@@V?$format_validation_base@DV?$stream_output_adapter@D@__crt_stdio_output@@@2@@__crt_stdio_output@@AAEXII_N@Z 100265bd f i libucrt:output.obj
 0001:0002564f       ??$type_case_integer_parse_into_buffer@I@?$output_processor@DV?$stream_output_adapter@D@__crt_stdio_output@@V?$positional_parameter_base@DV?$stream_output_adapter@D@__crt_stdio_output@@@2@@__crt_stdio_output@@AAEXII_N@Z 1002664f f i libucrt:output.obj
 0001:000256e1       ??$type_case_integer_parse_into_buffer@I@?$output_processor@DV?$stream_output_adapter@D@__crt_stdio_output@@V?$standard_base@DV?$stream_output_adapter@D@__crt_stdio_output@@@2@@__crt_stdio_output@@AAEXII_N@Z 100266e1 f i libucrt:output.obj
 0001:00025773       ??$type_case_integer_parse_into_buffer@I@?$output_processor@DV?$string_output_adapter@D@__crt_stdio_output@@V?$format_validation_base@DV?$string_output_adapter@D@__crt_stdio_output@@@2@@__crt_stdio_output@@AAEXII_N@Z 10026773 f i libucrt:output.obj
 0001:00025805       ??$type_case_integer_parse_into_buffer@I@?$output_processor@DV?$string_output_adapter@D@__crt_stdio_output@@V?$positional_parameter_base@DV?$string_output_adapter@D@__crt_stdio_output@@@2@@__crt_stdio_output@@AAEXII_N@Z 10026805 f i libucrt:output.obj
 0001:00025897       ??$type_case_integer_parse_into_buffer@I@?$output_processor@DV?$string_output_adapter@D@__crt_stdio_output@@V?$standard_base@DV?$string_output_adapter@D@__crt_stdio_output@@@2@@__crt_stdio_output@@AAEXII_N@Z 10026897 f i libucrt:output.obj
 0001:00025929       ??$type_case_integer_parse_into_buffer@I@?$output_processor@_WV?$stream_output_adapter@_W@__crt_stdio_output@@V?$format_validation_base@_WV?$stream_output_adapter@_W@__crt_stdio_output@@@2@@__crt_stdio_output@@AAEXII_N@Z 10026929 f i libucrt:output.obj
 0001:000259bb       ??$type_case_integer_parse_into_buffer@I@?$output_processor@_WV?$stream_output_adapter@_W@__crt_stdio_output@@V?$positional_parameter_base@_WV?$stream_output_adapter@_W@__crt_stdio_output@@@2@@__crt_stdio_output@@AAEXII_N@Z 100269bb f i libucrt:output.obj
 0001:00025a4d       ??$type_case_integer_parse_into_buffer@I@?$output_processor@_WV?$stream_output_adapter@_W@__crt_stdio_output@@V?$standard_base@_WV?$stream_output_adapter@_W@__crt_stdio_output@@@2@@__crt_stdio_output@@AAEXII_N@Z 10026a4d f i libucrt:output.obj
 0001:00025adf       ??$type_case_integer_parse_into_buffer@I@?$output_processor@_WV?$string_output_adapter@_W@__crt_stdio_output@@V?$format_validation_base@_WV?$string_output_adapter@_W@__crt_stdio_output@@@2@@__crt_stdio_output@@AAEXII_N@Z 10026adf f i libucrt:output.obj
 0001:00025b71       ??$type_case_integer_parse_into_buffer@I@?$output_processor@_WV?$string_output_adapter@_W@__crt_stdio_output@@V?$positional_parameter_base@_WV?$string_output_adapter@_W@__crt_stdio_output@@@2@@__crt_stdio_output@@AAEXII_N@Z 10026b71 f i libucrt:output.obj
 0001:00025c03       ??$type_case_integer_parse_into_buffer@I@?$output_processor@_WV?$string_output_adapter@_W@__crt_stdio_output@@V?$standard_base@_WV?$string_output_adapter@_W@__crt_stdio_output@@@2@@__crt_stdio_output@@AAEXII_N@Z 10026c03 f i libucrt:output.obj
 0001:00025c95       ??$type_case_integer_parse_into_buffer@_K@?$output_processor@DV?$stream_output_adapter@D@__crt_stdio_output@@V?$format_validation_base@DV?$stream_output_adapter@D@__crt_stdio_output@@@2@@__crt_stdio_output@@AAEX_KI_N@Z 10026c95 f i libucrt:output.obj
 0001:00025d3f       ??$type_case_integer_parse_into_buffer@_K@?$output_processor@DV?$stream_output_adapter@D@__crt_stdio_output@@V?$positional_parameter_base@DV?$stream_output_adapter@D@__crt_stdio_output@@@2@@__crt_stdio_output@@AAEX_KI_N@Z 10026d3f f i libucrt:output.obj
 0001:00025de9       ??$type_case_integer_parse_into_buffer@_K@?$output_processor@DV?$stream_output_adapter@D@__crt_stdio_output@@V?$standard_base@DV?$stream_output_adapter@D@__crt_stdio_output@@@2@@__crt_stdio_output@@AAEX_KI_N@Z 10026de9 f i libucrt:output.obj
 0001:00025e93       ??$type_case_integer_parse_into_buffer@_K@?$output_processor@DV?$string_output_adapter@D@__crt_stdio_output@@V?$format_validation_base@DV?$string_output_adapter@D@__crt_stdio_output@@@2@@__crt_stdio_output@@AAEX_KI_N@Z 10026e93 f i libucrt:output.obj
 0001:00025f3d       ??$type_case_integer_parse_into_buffer@_K@?$output_processor@DV?$string_output_adapter@D@__crt_stdio_output@@V?$positional_parameter_base@DV?$string_output_adapter@D@__crt_stdio_output@@@2@@__crt_stdio_output@@AAEX_KI_N@Z 10026f3d f i libucrt:output.obj
 0001:00025fe7       ??$type_case_integer_parse_into_buffer@_K@?$output_processor@DV?$string_output_adapter@D@__crt_stdio_output@@V?$standard_base@DV?$string_output_adapter@D@__crt_stdio_output@@@2@@__crt_stdio_output@@AAEX_KI_N@Z 10026fe7 f i libucrt:output.obj
 0001:00026091       ??$type_case_integer_parse_into_buffer@_K@?$output_processor@_WV?$stream_output_adapter@_W@__crt_stdio_output@@V?$format_validation_base@_WV?$stream_output_adapter@_W@__crt_stdio_output@@@2@@__crt_stdio_output@@AAEX_KI_N@Z 10027091 f i libucrt:output.obj
 0001:0002613b       ??$type_case_integer_parse_into_buffer@_K@?$output_processor@_WV?$stream_output_adapter@_W@__crt_stdio_output@@V?$positional_parameter_base@_WV?$stream_output_adapter@_W@__crt_stdio_output@@@2@@__crt_stdio_output@@AAEX_KI_N@Z 1002713b f i libucrt:output.obj
 0001:000261e5       ??$type_case_integer_parse_into_buffer@_K@?$output_processor@_WV?$stream_output_adapter@_W@__crt_stdio_output@@V?$standard_base@_WV?$stream_output_adapter@_W@__crt_stdio_output@@@2@@__crt_stdio_output@@AAEX_KI_N@Z 100271e5 f i libucrt:output.obj
 0001:0002628f       ??$type_case_integer_parse_into_buffer@_K@?$output_processor@_WV?$string_output_adapter@_W@__crt_stdio_output@@V?$format_validation_base@_WV?$string_output_adapter@_W@__crt_stdio_output@@@2@@__crt_stdio_output@@AAEX_KI_N@Z 1002728f f i libucrt:output.obj
 0001:00026339       ??$type_case_integer_parse_into_buffer@_K@?$output_processor@_WV?$string_output_adapter@_W@__crt_stdio_output@@V?$positional_parameter_base@_WV?$string_output_adapter@_W@__crt_stdio_output@@@2@@__crt_stdio_output@@AAEX_KI_N@Z 10027339 f i libucrt:output.obj
 0001:000263e3       ??$type_case_integer_parse_into_buffer@_K@?$output_processor@_WV?$string_output_adapter@_W@__crt_stdio_output@@V?$standard_base@_WV?$string_output_adapter@_W@__crt_stdio_output@@@2@@__crt_stdio_output@@AAEX_KI_N@Z 100273e3 f i libucrt:output.obj
 0001:0002648d       ??$write_multiple_characters@V?$stream_output_adapter@D@__crt_stdio_output@@D@__crt_stdio_output@@YAXABV?$stream_output_adapter@D@0@DHQAH@Z 1002748d f i libucrt:output.obj
 0001:000264c4       ??$write_multiple_characters@V?$stream_output_adapter@_W@__crt_stdio_output@@D@__crt_stdio_output@@YAXABV?$stream_output_adapter@_W@0@DHQAH@Z 100274c4 f i libucrt:output.obj
 0001:00026501       ??$write_multiple_characters@V?$string_output_adapter@D@__crt_stdio_output@@D@__crt_stdio_output@@YAXABV?$string_output_adapter@D@0@DHQAH@Z 10027501 f i libucrt:output.obj
 0001:00026538       ??$write_multiple_characters@V?$string_output_adapter@_W@__crt_stdio_output@@D@__crt_stdio_output@@YAXABV?$string_output_adapter@_W@0@DHQAH@Z 10027538 f i libucrt:output.obj
 0001:000267a9       ??0?$common_data@D@__crt_stdio_output@@IAE@XZ 100277a9 f i libucrt:output.obj
 0001:00026801       ??0?$common_data@_W@__crt_stdio_output@@IAE@XZ 10027801 f i libucrt:output.obj
 0001:00026860       ??0?$output_adapter_data@DV?$stream_output_adapter@D@__crt_stdio_output@@@__crt_stdio_output@@IAE@ABV?$stream_output_adapter@D@1@_KQBDQAU__crt_locale_pointers@@QAD@Z 10027860 f i libucrt:output.obj
 0001:000268ab       ??0?$output_adapter_data@DV?$string_output_adapter@D@__crt_stdio_output@@@__crt_stdio_output@@IAE@ABV?$string_output_adapter@D@1@_KQBDQAU__crt_locale_pointers@@QAD@Z 100278ab f i libucrt:output.obj
 0001:000268f6       ??0?$output_adapter_data@_WV?$stream_output_adapter@_W@__crt_stdio_output@@@__crt_stdio_output@@IAE@ABV?$stream_output_adapter@_W@1@_KQB_WQAU__crt_locale_pointers@@QAD@Z 100278f6 f i libucrt:output.obj
 0001:00026941       ??0?$output_adapter_data@_WV?$string_output_adapter@_W@__crt_stdio_output@@@__crt_stdio_output@@IAE@ABV?$string_output_adapter@_W@1@_KQB_WQAU__crt_locale_pointers@@QAD@Z 10027941 f i libucrt:output.obj
 0001:0002698c       ??0?$output_processor@DV?$stream_output_adapter@D@__crt_stdio_output@@V?$format_validation_base@DV?$stream_output_adapter@D@__crt_stdio_output@@@2@@__crt_stdio_output@@QAE@ABV?$stream_output_adapter@D@1@_KQBDQAU__crt_locale_pointers@@QAD@Z 1002798c f i libucrt:output.obj
 0001:000269ce       ??0?$output_processor@DV?$stream_output_adapter@D@__crt_stdio_output@@V?$positional_parameter_base@DV?$stream_output_adapter@D@__crt_stdio_output@@@2@@__crt_stdio_output@@QAE@ABV?$stream_output_adapter@D@1@_KQBDQAU__crt_locale_pointers@@QAD@Z 100279ce f i libucrt:output.obj
 0001:00026a08       ??0?$output_processor@DV?$stream_output_adapter@D@__crt_stdio_output@@V?$standard_base@DV?$stream_output_adapter@D@__crt_stdio_output@@@2@@__crt_stdio_output@@QAE@ABV?$stream_output_adapter@D@1@_KQBDQAU__crt_locale_pointers@@QAD@Z 10027a08 f i libucrt:output.obj
 0001:00026a4a       ??0?$output_processor@DV?$string_output_adapter@D@__crt_stdio_output@@V?$format_validation_base@DV?$string_output_adapter@D@__crt_stdio_output@@@2@@__crt_stdio_output@@QAE@ABV?$string_output_adapter@D@1@_KQBDQAU__crt_locale_pointers@@QAD@Z 10027a4a f i libucrt:output.obj
 0001:00026a8c       ??0?$output_processor@DV?$string_output_adapter@D@__crt_stdio_output@@V?$positional_parameter_base@DV?$string_output_adapter@D@__crt_stdio_output@@@2@@__crt_stdio_output@@QAE@ABV?$string_output_adapter@D@1@_KQBDQAU__crt_locale_pointers@@QAD@Z 10027a8c f i libucrt:output.obj
 0001:00026ac6       ??0?$output_processor@DV?$string_output_adapter@D@__crt_stdio_output@@V?$standard_base@DV?$string_output_adapter@D@__crt_stdio_output@@@2@@__crt_stdio_output@@QAE@ABV?$string_output_adapter@D@1@_KQBDQAU__crt_locale_pointers@@QAD@Z 10027ac6 f i libucrt:output.obj
 0001:00026b08       ??0?$output_processor@_WV?$stream_output_adapter@_W@__crt_stdio_output@@V?$format_validation_base@_WV?$stream_output_adapter@_W@__crt_stdio_output@@@2@@__crt_stdio_output@@QAE@ABV?$stream_output_adapter@_W@1@_KQB_WQAU__crt_locale_pointers@@QAD@Z 10027b08 f i libucrt:output.obj
 0001:00026b4a       ??0?$output_processor@_WV?$stream_output_adapter@_W@__crt_stdio_output@@V?$positional_parameter_base@_WV?$stream_output_adapter@_W@__crt_stdio_output@@@2@@__crt_stdio_output@@QAE@ABV?$stream_output_adapter@_W@1@_KQB_WQAU__crt_locale_pointers@@QAD@Z 10027b4a f i libucrt:output.obj
 0001:00026b84       ??0?$output_processor@_WV?$stream_output_adapter@_W@__crt_stdio_output@@V?$standard_base@_WV?$stream_output_adapter@_W@__crt_stdio_output@@@2@@__crt_stdio_output@@QAE@ABV?$stream_output_adapter@_W@1@_KQB_WQAU__crt_locale_pointers@@QAD@Z 10027b84 f i libucrt:output.obj
 0001:00026bc6       ??0?$output_processor@_WV?$string_output_adapter@_W@__crt_stdio_output@@V?$format_validation_base@_WV?$string_output_adapter@_W@__crt_stdio_output@@@2@@__crt_stdio_output@@QAE@ABV?$string_output_adapter@_W@1@_KQB_WQAU__crt_locale_pointers@@QAD@Z 10027bc6 f i libucrt:output.obj
 0001:00026c08       ??0?$output_processor@_WV?$string_output_adapter@_W@__crt_stdio_output@@V?$positional_parameter_base@_WV?$string_output_adapter@_W@__crt_stdio_output@@@2@@__crt_stdio_output@@QAE@ABV?$string_output_adapter@_W@1@_KQB_WQAU__crt_locale_pointers@@QAD@Z 10027c08 f i libucrt:output.obj
 0001:00026c42       ??0?$output_processor@_WV?$string_output_adapter@_W@__crt_stdio_output@@V?$standard_base@_WV?$string_output_adapter@_W@__crt_stdio_output@@@2@@__crt_stdio_output@@QAE@ABV?$string_output_adapter@_W@1@_KQB_WQAU__crt_locale_pointers@@QAD@Z 10027c42 f i libucrt:output.obj
 0001:00026c84       ??0?$stream_output_adapter@D@__crt_stdio_output@@QAE@QAU_iobuf@@@Z 10027c84 f i libucrt:output.obj
 0001:00026c98       ??0?$stream_output_adapter@_W@__crt_stdio_output@@QAE@QAU_iobuf@@@Z 10027c98 f i libucrt:output.obj
 0001:00026cac       ??0?$string_output_adapter@D@__crt_stdio_output@@QAE@QAU?$string_output_adapter_context@D@1@@Z 10027cac f i libucrt:output.obj
 0001:00026cc0       ??0?$string_output_adapter@_W@__crt_stdio_output@@QAE@QAU?$string_output_adapter_context@_W@1@@Z 10027cc0 f i libucrt:output.obj
 0001:00026cd4       ??0_LocaleUpdate@@QAE@QAU__crt_locale_pointers@@@Z 10027cd4 f i libucrt:output.obj
 0001:00026d77       ??0__acrt_stdio_temporary_buffering_guard@@QAE@QAU_iobuf@@@Z 10027d77 f i libucrt:output.obj
 0001:00026d9c       ??0__crt_errno_guard@@QAE@QAH@Z 10027d9c f i libucrt:output.obj
 0001:00026dba       ??0formatting_buffer@__crt_stdio_output@@QAE@XZ 10027dba f i libucrt:output.obj
 0001:00026dcf       ??1?$common_data@D@__crt_stdio_output@@QAE@XZ 10027dcf f i libucrt:output.obj
 0001:00026dd9       ??1?$common_data@_W@__crt_stdio_output@@QAE@XZ 10027dd9 f i libucrt:output.obj
 0001:00026de3       ??1?$format_validation_base@DV?$stream_output_adapter@D@__crt_stdio_output@@@__crt_stdio_output@@QAE@XZ 10027de3 f i libucrt:output.obj
 0001:00026ded       ??1?$format_validation_base@DV?$string_output_adapter@D@__crt_stdio_output@@@__crt_stdio_output@@QAE@XZ 10027ded f i libucrt:output.obj
 0001:00026df7       ??1?$format_validation_base@_WV?$stream_output_adapter@_W@__crt_stdio_output@@@__crt_stdio_output@@QAE@XZ 10027df7 f i libucrt:output.obj
 0001:00026e01       ??1?$format_validation_base@_WV?$string_output_adapter@_W@__crt_stdio_output@@@__crt_stdio_output@@QAE@XZ 10027e01 f i libucrt:output.obj
 0001:00026e0b       ??1?$output_adapter_data@DV?$stream_output_adapter@D@__crt_stdio_output@@@__crt_stdio_output@@QAE@XZ 10027e0b f i libucrt:output.obj
 0001:00026e15       ??1?$output_adapter_data@DV?$string_output_adapter@D@__crt_stdio_output@@@__crt_stdio_output@@QAE@XZ 10027e15 f i libucrt:output.obj
 0001:00026e1f       ??1?$output_adapter_data@_WV?$stream_output_adapter@_W@__crt_stdio_output@@@__crt_stdio_output@@QAE@XZ 10027e1f f i libucrt:output.obj
 0001:00026e29       ??1?$output_adapter_data@_WV?$string_output_adapter@_W@__crt_stdio_output@@@__crt_stdio_output@@QAE@XZ 10027e29 f i libucrt:output.obj
 0001:00026e33       ??1?$output_processor@DV?$stream_output_adapter@D@__crt_stdio_output@@V?$format_validation_base@DV?$stream_output_adapter@D@__crt_stdio_output@@@2@@__crt_stdio_output@@QAE@XZ 10027e33 f i libucrt:output.obj
 0001:00026e3d       ??1?$output_processor@DV?$stream_output_adapter@D@__crt_stdio_output@@V?$positional_parameter_base@DV?$stream_output_adapter@D@__crt_stdio_output@@@2@@__crt_stdio_output@@QAE@XZ 10027e3d f i libucrt:output.obj
 0001:00026e47       ??1?$output_processor@DV?$stream_output_adapter@D@__crt_stdio_output@@V?$standard_base@DV?$stream_output_adapter@D@__crt_stdio_output@@@2@@__crt_stdio_output@@QAE@XZ 10027e47 f i libucrt:output.obj
 0001:00026e51       ??1?$output_processor@DV?$string_output_adapter@D@__crt_stdio_output@@V?$format_validation_base@DV?$string_output_adapter@D@__crt_stdio_output@@@2@@__crt_stdio_output@@QAE@XZ 10027e51 f i libucrt:output.obj
 0001:00026e5b       ??1?$output_processor@DV?$string_output_adapter@D@__crt_stdio_output@@V?$positional_parameter_base@DV?$string_output_adapter@D@__crt_stdio_output@@@2@@__crt_stdio_output@@QAE@XZ 10027e5b f i libucrt:output.obj
 0001:00026e65       ??1?$output_processor@DV?$string_output_adapter@D@__crt_stdio_output@@V?$standard_base@DV?$string_output_adapter@D@__crt_stdio_output@@@2@@__crt_stdio_output@@QAE@XZ 10027e65 f i libucrt:output.obj
 0001:00026e6f       ??1?$output_processor@_WV?$stream_output_adapter@_W@__crt_stdio_output@@V?$format_validation_base@_WV?$stream_output_adapter@_W@__crt_stdio_output@@@2@@__crt_stdio_output@@QAE@XZ 10027e6f f i libucrt:output.obj
 0001:00026e79       ??1?$output_processor@_WV?$stream_output_adapter@_W@__crt_stdio_output@@V?$positional_parameter_base@_WV?$stream_output_adapter@_W@__crt_stdio_output@@@2@@__crt_stdio_output@@QAE@XZ 10027e79 f i libucrt:output.obj
 0001:00026e83       ??1?$output_processor@_WV?$stream_output_adapter@_W@__crt_stdio_output@@V?$standard_base@_WV?$stream_output_adapter@_W@__crt_stdio_output@@@2@@__crt_stdio_output@@QAE@XZ 10027e83 f i libucrt:output.obj
 0001:00026e8d       ??1?$output_processor@_WV?$string_output_adapter@_W@__crt_stdio_output@@V?$format_validation_base@_WV?$string_output_adapter@_W@__crt_stdio_output@@@2@@__crt_stdio_output@@QAE@XZ 10027e8d f i libucrt:output.obj
 0001:00026e97       ??1?$output_processor@_WV?$string_output_adapter@_W@__crt_stdio_output@@V?$positional_parameter_base@_WV?$string_output_adapter@_W@__crt_stdio_output@@@2@@__crt_stdio_output@@QAE@XZ 10027e97 f i libucrt:output.obj
 0001:00026ea1       ??1?$output_processor@_WV?$string_output_adapter@_W@__crt_stdio_output@@V?$standard_base@_WV?$string_output_adapter@_W@__crt_stdio_output@@@2@@__crt_stdio_output@@QAE@XZ 10027ea1 f i libucrt:output.obj
 0001:00026eab       ??1?$positional_parameter_base@DV?$stream_output_adapter@D@__crt_stdio_output@@@__crt_stdio_output@@QAE@XZ 10027eab f i libucrt:output.obj
 0001:00026eb5       ??1?$positional_parameter_base@DV?$string_output_adapter@D@__crt_stdio_output@@@__crt_stdio_output@@QAE@XZ 10027eb5 f i libucrt:output.obj
 0001:00026ebf       ??1?$positional_parameter_base@_WV?$stream_output_adapter@_W@__crt_stdio_output@@@__crt_stdio_output@@QAE@XZ 10027ebf f i libucrt:output.obj
 0001:00026ec9       ??1?$positional_parameter_base@_WV?$string_output_adapter@_W@__crt_stdio_output@@@__crt_stdio_output@@QAE@XZ 10027ec9 f i libucrt:output.obj
 0001:00026ed3       ??1?$standard_base@DV?$stream_output_adapter@D@__crt_stdio_output@@@__crt_stdio_output@@QAE@XZ 10027ed3 f i libucrt:output.obj
 0001:00026edd       ??1?$standard_base@DV?$string_output_adapter@D@__crt_stdio_output@@@__crt_stdio_output@@QAE@XZ 10027edd f i libucrt:output.obj
 0001:00026ee7       ??1?$standard_base@_WV?$stream_output_adapter@_W@__crt_stdio_output@@@__crt_stdio_output@@QAE@XZ 10027ee7 f i libucrt:output.obj
 0001:00026ef1       ??1?$standard_base@_WV?$string_output_adapter@_W@__crt_stdio_output@@@__crt_stdio_output@@QAE@XZ 10027ef1 f i libucrt:output.obj
 0001:00026efb       ??1_LocaleUpdate@@QAE@XZ   10027efb f i libucrt:output.obj
 0001:00026f0f       ??1__acrt_stdio_temporary_buffering_guard@@QAE@XZ 10027f0f f i libucrt:output.obj
 0001:00026f21       ??1__crt_errno_guard@@QAE@XZ 10027f21 f i libucrt:output.obj
 0001:00026f36       ??1formatting_buffer@__crt_stdio_output@@QAE@XZ 10027f36 f i libucrt:output.obj
 0001:00026f56       ??4?$__crt_unique_heap_ptr@DU__crt_internal_free_policy@@@@QAEAAV0@$$QAV0@@Z 10027f56 f i libucrt:output.obj
 0001:00027639       ?GetLocaleT@_LocaleUpdate@@QAEPAU__crt_locale_pointers@@XZ 10028639 f i libucrt:output.obj
 0001:0002763d       ?__crt_interlocked_read_32@@YAHPDH@Z 1002863d f i libucrt:output.obj
 0001:0002764c       ?adjust_hexit@?$output_processor@DV?$stream_output_adapter@D@__crt_stdio_output@@V?$format_validation_base@DV?$stream_output_adapter@D@__crt_stdio_output@@@2@@__crt_stdio_output@@CADH_N@Z 1002864c f i libucrt:output.obj
 0001:00027671       ?adjust_hexit@?$output_processor@DV?$stream_output_adapter@D@__crt_stdio_output@@V?$positional_parameter_base@DV?$stream_output_adapter@D@__crt_stdio_output@@@2@@__crt_stdio_output@@CADH_N@Z 10028671 f i libucrt:output.obj
 0001:00027696       ?adjust_hexit@?$output_processor@DV?$stream_output_adapter@D@__crt_stdio_output@@V?$standard_base@DV?$stream_output_adapter@D@__crt_stdio_output@@@2@@__crt_stdio_output@@CADH_N@Z 10028696 f i libucrt:output.obj
 0001:000276bb       ?adjust_hexit@?$output_processor@DV?$string_output_adapter@D@__crt_stdio_output@@V?$format_validation_base@DV?$string_output_adapter@D@__crt_stdio_output@@@2@@__crt_stdio_output@@CADH_N@Z 100286bb f i libucrt:output.obj
 0001:000276e0       ?adjust_hexit@?$output_processor@DV?$string_output_adapter@D@__crt_stdio_output@@V?$positional_parameter_base@DV?$string_output_adapter@D@__crt_stdio_output@@@2@@__crt_stdio_output@@CADH_N@Z 100286e0 f i libucrt:output.obj
 0001:00027705       ?adjust_hexit@?$output_processor@DV?$string_output_adapter@D@__crt_stdio_output@@V?$standard_base@DV?$string_output_adapter@D@__crt_stdio_output@@@2@@__crt_stdio_output@@CADH_N@Z 10028705 f i libucrt:output.obj
 0001:0002772a       ?adjust_hexit@?$output_processor@_WV?$stream_output_adapter@_W@__crt_stdio_output@@V?$format_validation_base@_WV?$stream_output_adapter@_W@__crt_stdio_output@@@2@@__crt_stdio_output@@CADH_N@Z 1002872a f i libucrt:output.obj
 0001:0002774f       ?adjust_hexit@?$output_processor@_WV?$stream_output_adapter@_W@__crt_stdio_output@@V?$positional_parameter_base@_WV?$stream_output_adapter@_W@__crt_stdio_output@@@2@@__crt_stdio_output@@CADH_N@Z 1002874f f i libucrt:output.obj
 0001:00027774       ?adjust_hexit@?$output_processor@_WV?$stream_output_adapter@_W@__crt_stdio_output@@V?$standard_base@_WV?$stream_output_adapter@_W@__crt_stdio_output@@@2@@__crt_stdio_output@@CADH_N@Z 10028774 f i libucrt:output.obj
 0001:00027799       ?adjust_hexit@?$output_processor@_WV?$string_output_adapter@_W@__crt_stdio_output@@V?$format_validation_base@_WV?$string_output_adapter@_W@__crt_stdio_output@@@2@@__crt_stdio_output@@CADH_N@Z 10028799 f i libucrt:output.obj
 0001:000277be       ?adjust_hexit@?$output_processor@_WV?$string_output_adapter@_W@__crt_stdio_output@@V?$positional_parameter_base@_WV?$string_output_adapter@_W@__crt_stdio_output@@@2@@__crt_stdio_output@@CADH_N@Z 100287be f i libucrt:output.obj
 0001:000277e3       ?adjust_hexit@?$output_processor@_WV?$string_output_adapter@_W@__crt_stdio_output@@V?$standard_base@_WV?$string_output_adapter@_W@__crt_stdio_output@@@2@@__crt_stdio_output@@CADH_N@Z 100287e3 f i libucrt:output.obj
 0001:00027808       ?advance_to_next_pass@?$positional_parameter_base@DV?$stream_output_adapter@D@__crt_stdio_output@@@__crt_stdio_output@@IAE_NXZ 10028808 f i libucrt:output.obj
 0001:00027867       ?advance_to_next_pass@?$positional_parameter_base@DV?$string_output_adapter@D@__crt_stdio_output@@@__crt_stdio_output@@IAE_NXZ 10028867 f i libucrt:output.obj
 0001:000278c6       ?advance_to_next_pass@?$positional_parameter_base@_WV?$stream_output_adapter@_W@__crt_stdio_output@@@__crt_stdio_output@@IAE_NXZ 100288c6 f i libucrt:output.obj
 0001:00027925       ?advance_to_next_pass@?$positional_parameter_base@_WV?$string_output_adapter@_W@__crt_stdio_output@@@__crt_stdio_output@@IAE_NXZ 10028925 f i libucrt:output.obj
 0001:00027984       ?advance_to_next_pass@?$standard_base@DV?$stream_output_adapter@D@__crt_stdio_output@@@__crt_stdio_output@@IAE_NXZ 10028984 f i libucrt:output.obj
 0001:0002799b       ?advance_to_next_pass@?$standard_base@DV?$string_output_adapter@D@__crt_stdio_output@@@__crt_stdio_output@@IAE_NXZ 1002899b f i libucrt:output.obj
 0001:000279b2       ?advance_to_next_pass@?$standard_base@_WV?$stream_output_adapter@_W@__crt_stdio_output@@@__crt_stdio_output@@IAE_NXZ 100289b2 f i libucrt:output.obj
 0001:000279c9       ?advance_to_next_pass@?$standard_base@_WV?$string_output_adapter@_W@__crt_stdio_output@@@__crt_stdio_output@@IAE_NXZ 100289c9 f i libucrt:output.obj
 0001:000279e0       ?crop_zeroes@__crt_stdio_output@@YAXPADQAU__crt_locale_pointers@@@Z 100289e0 f i libucrt:output.obj
 0001:00027a4c       ?find_next_state@?$output_processor@DV?$stream_output_adapter@D@__crt_stdio_output@@V?$format_validation_base@DV?$stream_output_adapter@D@__crt_stdio_output@@@2@@__crt_stdio_output@@ABE?AW4state@2@DW432@@Z 10028a4c f i libucrt:output.obj
 0001:00027a8e       ?find_next_state@?$output_processor@DV?$stream_output_adapter@D@__crt_stdio_output@@V?$positional_parameter_base@DV?$stream_output_adapter@D@__crt_stdio_output@@@2@@__crt_stdio_output@@ABE?AW4state@2@DW432@@Z 10028a8e f i libucrt:output.obj
 0001:00027ad0       ?find_next_state@?$output_processor@DV?$stream_output_adapter@D@__crt_stdio_output@@V?$standard_base@DV?$stream_output_adapter@D@__crt_stdio_output@@@2@@__crt_stdio_output@@ABE?AW4state@2@DW432@@Z 10028ad0 f i libucrt:output.obj
 0001:00027b0e       ?find_next_state@?$output_processor@DV?$string_output_adapter@D@__crt_stdio_output@@V?$format_validation_base@DV?$string_output_adapter@D@__crt_stdio_output@@@2@@__crt_stdio_output@@ABE?AW4state@2@DW432@@Z 10028b0e f i libucrt:output.obj
 0001:00027b50       ?find_next_state@?$output_processor@DV?$string_output_adapter@D@__crt_stdio_output@@V?$positional_parameter_base@DV?$string_output_adapter@D@__crt_stdio_output@@@2@@__crt_stdio_output@@ABE?AW4state@2@DW432@@Z 10028b50 f i libucrt:output.obj
 0001:00027b92       ?find_next_state@?$output_processor@DV?$string_output_adapter@D@__crt_stdio_output@@V?$standard_base@DV?$string_output_adapter@D@__crt_stdio_output@@@2@@__crt_stdio_output@@ABE?AW4state@2@DW432@@Z 10028b92 f i libucrt:output.obj
 0001:00027bd0       ?find_next_state@?$output_processor@_WV?$stream_output_adapter@_W@__crt_stdio_output@@V?$format_validation_base@_WV?$stream_output_adapter@_W@__crt_stdio_output@@@2@@__crt_stdio_output@@ABE?AW4state@2@_WW432@@Z 10028bd0 f i libucrt:output.obj
 0001:00027c14       ?find_next_state@?$output_processor@_WV?$stream_output_adapter@_W@__crt_stdio_output@@V?$positional_parameter_base@_WV?$stream_output_adapter@_W@__crt_stdio_output@@@2@@__crt_stdio_output@@ABE?AW4state@2@_WW432@@Z 10028c14 f i libucrt:output.obj
 0001:00027c58       ?find_next_state@?$output_processor@_WV?$stream_output_adapter@_W@__crt_stdio_output@@V?$standard_base@_WV?$stream_output_adapter@_W@__crt_stdio_output@@@2@@__crt_stdio_output@@ABE?AW4state@2@_WW432@@Z 10028c58 f i libucrt:output.obj
 0001:00027c99       ?find_next_state@?$output_processor@_WV?$string_output_adapter@_W@__crt_stdio_output@@V?$format_validation_base@_WV?$string_output_adapter@_W@__crt_stdio_output@@@2@@__crt_stdio_output@@ABE?AW4state@2@_WW432@@Z 10028c99 f i libucrt:output.obj
 0001:00027cdd       ?find_next_state@?$output_processor@_WV?$string_output_adapter@_W@__crt_stdio_output@@V?$positional_parameter_base@_WV?$string_output_adapter@_W@__crt_stdio_output@@@2@@__crt_stdio_output@@ABE?AW4state@2@_WW432@@Z 10028cdd f i libucrt:output.obj
 0001:00027d21       ?find_next_state@?$output_processor@_WV?$string_output_adapter@_W@__crt_stdio_output@@V?$standard_base@_WV?$string_output_adapter@_W@__crt_stdio_output@@@2@@__crt_stdio_output@@ABE?AW4state@2@_WW432@@Z 10028d21 f i libucrt:output.obj
 0001:00027d62       ?force_decimal_point@__crt_stdio_output@@YAXPADQAU__crt_locale_pointers@@@Z 10028d62 f i libucrt:output.obj
 0001:00027dd5       ?get_flags@__crt_stdio_stream@@QBEJXZ 10028dd5 f i libucrt:output.obj
 0001:00027ddb       ?get_parameter_type@?$positional_parameter_base@DV?$stream_output_adapter@D@__crt_stdio_output@@@__crt_stdio_output@@CA?AW4parameter_type@12@F@Z 10028ddb f i libucrt:output.obj
 0001:00027ddf       ?get_parameter_type@?$positional_parameter_base@DV?$stream_output_adapter@D@__crt_stdio_output@@@__crt_stdio_output@@CA?AW4parameter_type@12@G@Z 10028ddf f i libucrt:output.obj
 0001:00027de3       ?get_parameter_type@?$positional_parameter_base@DV?$stream_output_adapter@D@__crt_stdio_output@@@__crt_stdio_output@@CA?AW4parameter_type@12@H@Z 10028de3 f i libucrt:output.obj
 0001:00027de7       ?get_parameter_type@?$positional_parameter_base@DV?$stream_output_adapter@D@__crt_stdio_output@@@__crt_stdio_output@@CA?AW4parameter_type@12@I@Z 10028de7 f i libucrt:output.obj
 0001:00027deb       ?get_parameter_type@?$positional_parameter_base@DV?$stream_output_adapter@D@__crt_stdio_output@@@__crt_stdio_output@@CA?AW4parameter_type@12@U_CRT_DOUBLE@@@Z 10028deb f i libucrt:output.obj
 0001:00027def       ?get_parameter_type@?$positional_parameter_base@DV?$stream_output_adapter@D@__crt_stdio_output@@@__crt_stdio_output@@CA?AW4parameter_type@12@_J@Z 10028def f i libucrt:output.obj
 0001:00027df3       ?get_parameter_type@?$positional_parameter_base@DV?$stream_output_adapter@D@__crt_stdio_output@@@__crt_stdio_output@@CA?AW4parameter_type@12@_K@Z 10028df3 f i libucrt:output.obj
 0001:00027df7       ?get_parameter_type@?$positional_parameter_base@DV?$stream_output_adapter@D@__crt_stdio_output@@@__crt_stdio_output@@CA?AW4parameter_type@12@_W@Z 10028df7 f i libucrt:output.obj
 0001:00027dfb       ?get_parameter_type@?$positional_parameter_base@DV?$string_output_adapter@D@__crt_stdio_output@@@__crt_stdio_output@@CA?AW4parameter_type@12@F@Z 10028dfb f i libucrt:output.obj
 0001:00027dff       ?get_parameter_type@?$positional_parameter_base@DV?$string_output_adapter@D@__crt_stdio_output@@@__crt_stdio_output@@CA?AW4parameter_type@12@G@Z 10028dff f i libucrt:output.obj
 0001:00027e03       ?get_parameter_type@?$positional_parameter_base@DV?$string_output_adapter@D@__crt_stdio_output@@@__crt_stdio_output@@CA?AW4parameter_type@12@H@Z 10028e03 f i libucrt:output.obj
 0001:00027e07       ?get_parameter_type@?$positional_parameter_base@DV?$string_output_adapter@D@__crt_stdio_output@@@__crt_stdio_output@@CA?AW4parameter_type@12@I@Z 10028e07 f i libucrt:output.obj
 0001:00027e0b       ?get_parameter_type@?$positional_parameter_base@DV?$string_output_adapter@D@__crt_stdio_output@@@__crt_stdio_output@@CA?AW4parameter_type@12@U_CRT_DOUBLE@@@Z 10028e0b f i libucrt:output.obj
 0001:00027e0f       ?get_parameter_type@?$positional_parameter_base@DV?$string_output_adapter@D@__crt_stdio_output@@@__crt_stdio_output@@CA?AW4parameter_type@12@_J@Z 10028e0f f i libucrt:output.obj
 0001:00027e13       ?get_parameter_type@?$positional_parameter_base@DV?$string_output_adapter@D@__crt_stdio_output@@@__crt_stdio_output@@CA?AW4parameter_type@12@_K@Z 10028e13 f i libucrt:output.obj
 0001:00027e17       ?get_parameter_type@?$positional_parameter_base@DV?$string_output_adapter@D@__crt_stdio_output@@@__crt_stdio_output@@CA?AW4parameter_type@12@_W@Z 10028e17 f i libucrt:output.obj
 0001:00027e1b       ?get_parameter_type@?$positional_parameter_base@_WV?$stream_output_adapter@_W@__crt_stdio_output@@@__crt_stdio_output@@CA?AW4parameter_type@12@F@Z 10028e1b f i libucrt:output.obj
 0001:00027e1f       ?get_parameter_type@?$positional_parameter_base@_WV?$stream_output_adapter@_W@__crt_stdio_output@@@__crt_stdio_output@@CA?AW4parameter_type@12@G@Z 10028e1f f i libucrt:output.obj
 0001:00027e23       ?get_parameter_type@?$positional_parameter_base@_WV?$stream_output_adapter@_W@__crt_stdio_output@@@__crt_stdio_output@@CA?AW4parameter_type@12@H@Z 10028e23 f i libucrt:output.obj
 0001:00027e27       ?get_parameter_type@?$positional_parameter_base@_WV?$stream_output_adapter@_W@__crt_stdio_output@@@__crt_stdio_output@@CA?AW4parameter_type@12@I@Z 10028e27 f i libucrt:output.obj
 0001:00027e2b       ?get_parameter_type@?$positional_parameter_base@_WV?$stream_output_adapter@_W@__crt_stdio_output@@@__crt_stdio_output@@CA?AW4parameter_type@12@U_CRT_DOUBLE@@@Z 10028e2b f i libucrt:output.obj
 0001:00027e2f       ?get_parameter_type@?$positional_parameter_base@_WV?$stream_output_adapter@_W@__crt_stdio_output@@@__crt_stdio_output@@CA?AW4parameter_type@12@_J@Z 10028e2f f i libucrt:output.obj
 0001:00027e33       ?get_parameter_type@?$positional_parameter_base@_WV?$stream_output_adapter@_W@__crt_stdio_output@@@__crt_stdio_output@@CA?AW4parameter_type@12@_K@Z 10028e33 f i libucrt:output.obj
 0001:00027e37       ?get_parameter_type@?$positional_parameter_base@_WV?$stream_output_adapter@_W@__crt_stdio_output@@@__crt_stdio_output@@CA?AW4parameter_type@12@_W@Z 10028e37 f i libucrt:output.obj
 0001:00027e3b       ?get_parameter_type@?$positional_parameter_base@_WV?$string_output_adapter@_W@__crt_stdio_output@@@__crt_stdio_output@@CA?AW4parameter_type@12@F@Z 10028e3b f i libucrt:output.obj
 0001:00027e3f       ?get_parameter_type@?$positional_parameter_base@_WV?$string_output_adapter@_W@__crt_stdio_output@@@__crt_stdio_output@@CA?AW4parameter_type@12@G@Z 10028e3f f i libucrt:output.obj
 0001:00027e43       ?get_parameter_type@?$positional_parameter_base@_WV?$string_output_adapter@_W@__crt_stdio_output@@@__crt_stdio_output@@CA?AW4parameter_type@12@H@Z 10028e43 f i libucrt:output.obj
 0001:00027e47       ?get_parameter_type@?$positional_parameter_base@_WV?$string_output_adapter@_W@__crt_stdio_output@@@__crt_stdio_output@@CA?AW4parameter_type@12@I@Z 10028e47 f i libucrt:output.obj
 0001:00027e4b       ?get_parameter_type@?$positional_parameter_base@_WV?$string_output_adapter@_W@__crt_stdio_output@@@__crt_stdio_output@@CA?AW4parameter_type@12@U_CRT_DOUBLE@@@Z 10028e4b f i libucrt:output.obj
 0001:00027e4f       ?get_parameter_type@?$positional_parameter_base@_WV?$string_output_adapter@_W@__crt_stdio_output@@@__crt_stdio_output@@CA?AW4parameter_type@12@_J@Z 10028e4f f i libucrt:output.obj
 0001:00027e53       ?get_parameter_type@?$positional_parameter_base@_WV?$string_output_adapter@_W@__crt_stdio_output@@@__crt_stdio_output@@CA?AW4parameter_type@12@_K@Z 10028e53 f i libucrt:output.obj
 0001:00027e57       ?get_parameter_type@?$positional_parameter_base@_WV?$string_output_adapter@_W@__crt_stdio_output@@@__crt_stdio_output@@CA?AW4parameter_type@12@_W@Z 10028e57 f i libucrt:output.obj
 0001:00027e5b       ?has_flag@?$output_processor@DV?$stream_output_adapter@D@__crt_stdio_output@@V?$format_validation_base@DV?$stream_output_adapter@D@__crt_stdio_output@@@2@@__crt_stdio_output@@ABE_NI@Z 10028e5b f i libucrt:output.obj
 0001:00027e75       ?has_flag@?$output_processor@DV?$stream_output_adapter@D@__crt_stdio_output@@V?$positional_parameter_base@DV?$stream_output_adapter@D@__crt_stdio_output@@@2@@__crt_stdio_output@@ABE_NI@Z 10028e75 f i libucrt:output.obj
 0001:00027e8f       ?has_flag@?$output_processor@DV?$stream_output_adapter@D@__crt_stdio_output@@V?$standard_base@DV?$stream_output_adapter@D@__crt_stdio_output@@@2@@__crt_stdio_output@@ABE_NI@Z 10028e8f f i libucrt:output.obj
 0001:00027ea9       ?has_flag@?$output_processor@DV?$string_output_adapter@D@__crt_stdio_output@@V?$format_validation_base@DV?$string_output_adapter@D@__crt_stdio_output@@@2@@__crt_stdio_output@@ABE_NI@Z 10028ea9 f i libucrt:output.obj
 0001:00027ec3       ?has_flag@?$output_processor@DV?$string_output_adapter@D@__crt_stdio_output@@V?$positional_parameter_base@DV?$string_output_adapter@D@__crt_stdio_output@@@2@@__crt_stdio_output@@ABE_NI@Z 10028ec3 f i libucrt:output.obj
 0001:00027edd       ?has_flag@?$output_processor@DV?$string_output_adapter@D@__crt_stdio_output@@V?$standard_base@DV?$string_output_adapter@D@__crt_stdio_output@@@2@@__crt_stdio_output@@ABE_NI@Z 10028edd f i libucrt:output.obj
 0001:00027ef7       ?has_flag@?$output_processor@_WV?$stream_output_adapter@_W@__crt_stdio_output@@V?$format_validation_base@_WV?$stream_output_adapter@_W@__crt_stdio_output@@@2@@__crt_stdio_output@@ABE_NI@Z 10028ef7 f i libucrt:output.obj
 0001:00027f11       ?has_flag@?$output_processor@_WV?$stream_output_adapter@_W@__crt_stdio_output@@V?$positional_parameter_base@_WV?$stream_output_adapter@_W@__crt_stdio_output@@@2@@__crt_stdio_output@@ABE_NI@Z 10028f11 f i libucrt:output.obj
 0001:00027f2b       ?has_flag@?$output_processor@_WV?$stream_output_adapter@_W@__crt_stdio_output@@V?$standard_base@_WV?$stream_output_adapter@_W@__crt_stdio_output@@@2@@__crt_stdio_output@@ABE_NI@Z 10028f2b f i libucrt:output.obj
 0001:00027f45       ?has_flag@?$output_processor@_WV?$string_output_adapter@_W@__crt_stdio_output@@V?$format_validation_base@_WV?$string_output_adapter@_W@__crt_stdio_output@@@2@@__crt_stdio_output@@ABE_NI@Z 10028f45 f i libucrt:output.obj
 0001:00027f5f       ?has_flag@?$output_processor@_WV?$string_output_adapter@_W@__crt_stdio_output@@V?$positional_parameter_base@_WV?$string_output_adapter@_W@__crt_stdio_output@@@2@@__crt_stdio_output@@ABE_NI@Z 10028f5f f i libucrt:output.obj
 0001:00027f79       ?has_flag@?$output_processor@_WV?$string_output_adapter@_W@__crt_stdio_output@@V?$standard_base@_WV?$string_output_adapter@_W@__crt_stdio_output@@@2@@__crt_stdio_output@@ABE_NI@Z 10028f79 f i libucrt:output.obj
 0001:00027f93       ?is_positional_parameter_reappearance_consistent@?$positional_parameter_base@DV?$stream_output_adapter@D@__crt_stdio_output@@@__crt_stdio_output@@AAE_NABUparameter_data@12@W4parameter_type@12@DW4length_modifier@2@@Z 10028f93 f i libucrt:output.obj
 0001:0002810c       ?is_positional_parameter_reappearance_consistent@?$positional_parameter_base@DV?$string_output_adapter@D@__crt_stdio_output@@@__crt_stdio_output@@AAE_NABUparameter_data@12@W4parameter_type@12@DW4length_modifier@2@@Z 1002910c f i libucrt:output.obj
 0001:00028285       ?is_positional_parameter_reappearance_consistent@?$positional_parameter_base@_WV?$stream_output_adapter@_W@__crt_stdio_output@@@__crt_stdio_output@@AAE_NABUparameter_data@12@W4parameter_type@12@_WW4length_modifier@2@@Z 10029285 f i libucrt:output.obj
 0001:000283f0       ?is_positional_parameter_reappearance_consistent@?$positional_parameter_base@_WV?$string_output_adapter@_W@__crt_stdio_output@@@__crt_stdio_output@@AAE_NABUparameter_data@12@W4parameter_type@12@_WW4length_modifier@2@@Z 100293f0 f i libucrt:output.obj
 0001:0002855b       ?is_string_backed@__crt_stdio_stream@@QBE_NXZ 1002955b f i libucrt:output.obj
 0001:0002856a       ?narrow_null_string@?$output_processor@DV?$stream_output_adapter@D@__crt_stdio_output@@V?$format_validation_base@DV?$stream_output_adapter@D@__crt_stdio_output@@@2@@__crt_stdio_output@@CAPADXZ 1002956a f i libucrt:output.obj
 0001:00028570       ?narrow_null_string@?$output_processor@DV?$stream_output_adapter@D@__crt_stdio_output@@V?$positional_parameter_base@DV?$stream_output_adapter@D@__crt_stdio_output@@@2@@__crt_stdio_output@@CAPADXZ 10029570 f i libucrt:output.obj
 0001:00028576       ?narrow_null_string@?$output_processor@DV?$stream_output_adapter@D@__crt_stdio_output@@V?$standard_base@DV?$stream_output_adapter@D@__crt_stdio_output@@@2@@__crt_stdio_output@@CAPADXZ 10029576 f i libucrt:output.obj
 0001:0002857c       ?narrow_null_string@?$output_processor@DV?$string_output_adapter@D@__crt_stdio_output@@V?$format_validation_base@DV?$string_output_adapter@D@__crt_stdio_output@@@2@@__crt_stdio_output@@CAPADXZ 1002957c f i libucrt:output.obj
 0001:00028582       ?narrow_null_string@?$output_processor@DV?$string_output_adapter@D@__crt_stdio_output@@V?$positional_parameter_base@DV?$string_output_adapter@D@__crt_stdio_output@@@2@@__crt_stdio_output@@CAPADXZ 10029582 f i libucrt:output.obj
 0001:00028588       ?narrow_null_string@?$output_processor@DV?$string_output_adapter@D@__crt_stdio_output@@V?$standard_base@DV?$string_output_adapter@D@__crt_stdio_output@@@2@@__crt_stdio_output@@CAPADXZ 10029588 f i libucrt:output.obj
 0001:0002858e       ?narrow_null_string@?$output_processor@_WV?$stream_output_adapter@_W@__crt_stdio_output@@V?$format_validation_base@_WV?$stream_output_adapter@_W@__crt_stdio_output@@@2@@__crt_stdio_output@@CAPADXZ 1002958e f i libucrt:output.obj
 0001:00028594       ?narrow_null_string@?$output_processor@_WV?$stream_output_adapter@_W@__crt_stdio_output@@V?$positional_parameter_base@_WV?$stream_output_adapter@_W@__crt_stdio_output@@@2@@__crt_stdio_output@@CAPADXZ 10029594 f i libucrt:output.obj
 0001:0002859a       ?narrow_null_string@?$output_processor@_WV?$stream_output_adapter@_W@__crt_stdio_output@@V?$standard_base@_WV?$stream_output_adapter@_W@__crt_stdio_output@@@2@@__crt_stdio_output@@CAPADXZ 1002959a f i libucrt:output.obj
 0001:000285a0       ?narrow_null_string@?$output_processor@_WV?$string_output_adapter@_W@__crt_stdio_output@@V?$format_validation_base@_WV?$string_output_adapter@_W@__crt_stdio_output@@@2@@__crt_stdio_output@@CAPADXZ 100295a0 f i libucrt:output.obj
 0001:000285a6       ?narrow_null_string@?$output_processor@_WV?$string_output_adapter@_W@__crt_stdio_output@@V?$positional_parameter_base@_WV?$string_output_adapter@_W@__crt_stdio_output@@@2@@__crt_stdio_output@@CAPADXZ 100295a6 f i libucrt:output.obj
 0001:000285ac       ?narrow_null_string@?$output_processor@_WV?$string_output_adapter@_W@__crt_stdio_output@@V?$standard_base@_WV?$string_output_adapter@_W@__crt_stdio_output@@@2@@__crt_stdio_output@@CAPADXZ 100295ac f i libucrt:output.obj
 0001:000285b2       ?parse_int_from_format_string@?$output_processor@DV?$stream_output_adapter@D@__crt_stdio_output@@V?$format_validation_base@DV?$stream_output_adapter@D@__crt_stdio_output@@@2@@__crt_stdio_output@@AAE_NQAH@Z 100295b2 f i libucrt:output.obj
 0001:00028625       ?parse_int_from_format_string@?$output_processor@DV?$stream_output_adapter@D@__crt_stdio_output@@V?$positional_parameter_base@DV?$stream_output_adapter@D@__crt_stdio_output@@@2@@__crt_stdio_output@@AAE_NQAH@Z 10029625 f i libucrt:output.obj
 0001:00028698       ?parse_int_from_format_string@?$output_processor@DV?$stream_output_adapter@D@__crt_stdio_output@@V?$standard_base@DV?$stream_output_adapter@D@__crt_stdio_output@@@2@@__crt_stdio_output@@AAE_NQAH@Z 10029698 f i libucrt:output.obj
 0001:0002870b       ?parse_int_from_format_string@?$output_processor@DV?$string_output_adapter@D@__crt_stdio_output@@V?$format_validation_base@DV?$string_output_adapter@D@__crt_stdio_output@@@2@@__crt_stdio_output@@AAE_NQAH@Z 1002970b f i libucrt:output.obj
 0001:0002877e       ?parse_int_from_format_string@?$output_processor@DV?$string_output_adapter@D@__crt_stdio_output@@V?$positional_parameter_base@DV?$string_output_adapter@D@__crt_stdio_output@@@2@@__crt_stdio_output@@AAE_NQAH@Z 1002977e f i libucrt:output.obj
 0001:000287f1       ?parse_int_from_format_string@?$output_processor@DV?$string_output_adapter@D@__crt_stdio_output@@V?$standard_base@DV?$string_output_adapter@D@__crt_stdio_output@@@2@@__crt_stdio_output@@AAE_NQAH@Z 100297f1 f i libucrt:output.obj
 0001:00028864       ?parse_int_from_format_string@?$output_processor@_WV?$stream_output_adapter@_W@__crt_stdio_output@@V?$format_validation_base@_WV?$stream_output_adapter@_W@__crt_stdio_output@@@2@@__crt_stdio_output@@AAE_NQAH@Z 10029864 f i libucrt:output.obj
 0001:000288d9       ?parse_int_from_format_string@?$output_processor@_WV?$stream_output_adapter@_W@__crt_stdio_output@@V?$positional_parameter_base@_WV?$stream_output_adapter@_W@__crt_stdio_output@@@2@@__crt_stdio_output@@AAE_NQAH@Z 100298d9 f i libucrt:output.obj
 0001:0002894e       ?parse_int_from_format_string@?$output_processor@_WV?$stream_output_adapter@_W@__crt_stdio_output@@V?$standard_base@_WV?$stream_output_adapter@_W@__crt_stdio_output@@@2@@__crt_stdio_output@@AAE_NQAH@Z 1002994e f i libucrt:output.obj
 0001:000289c3       ?parse_int_from_format_string@?$output_processor@_WV?$string_output_adapter@_W@__crt_stdio_output@@V?$format_validation_base@_WV?$string_output_adapter@_W@__crt_stdio_output@@@2@@__crt_stdio_output@@AAE_NQAH@Z 100299c3 f i libucrt:output.obj
 0001:00028a38       ?parse_int_from_format_string@?$output_processor@_WV?$string_output_adapter@_W@__crt_stdio_output@@V?$positional_parameter_base@_WV?$string_output_adapter@_W@__crt_stdio_output@@@2@@__crt_stdio_output@@AAE_NQAH@Z 10029a38 f i libucrt:output.obj
 0001:00028aad       ?parse_int_from_format_string@?$output_processor@_WV?$string_output_adapter@_W@__crt_stdio_output@@V?$standard_base@_WV?$string_output_adapter@_W@__crt_stdio_output@@@2@@__crt_stdio_output@@AAE_NQAH@Z 10029aad f i libucrt:output.obj
 0001:00028b22       ?process@?$output_processor@DV?$stream_output_adapter@D@__crt_stdio_output@@V?$format_validation_base@DV?$stream_output_adapter@D@__crt_stdio_output@@@2@@__crt_stdio_output@@QAEHXZ 10029b22 f i libucrt:output.obj
 0001:00028c94       ?process@?$output_processor@DV?$stream_output_adapter@D@__crt_stdio_output@@V?$positional_parameter_base@DV?$stream_output_adapter@D@__crt_stdio_output@@@2@@__crt_stdio_output@@QAEHXZ 10029c94 f i libucrt:output.obj
 0001:00028e47       ?process@?$output_processor@DV?$stream_output_adapter@D@__crt_stdio_output@@V?$standard_base@DV?$stream_output_adapter@D@__crt_stdio_output@@@2@@__crt_stdio_output@@QAEHXZ 10029e47 f i libucrt:output.obj
 0001:00028faa       ?process@?$output_processor@DV?$string_output_adapter@D@__crt_stdio_output@@V?$format_validation_base@DV?$string_output_adapter@D@__crt_stdio_output@@@2@@__crt_stdio_output@@QAEHXZ 10029faa f i libucrt:output.obj
 0001:0002911c       ?process@?$output_processor@DV?$string_output_adapter@D@__crt_stdio_output@@V?$positional_parameter_base@DV?$string_output_adapter@D@__crt_stdio_output@@@2@@__crt_stdio_output@@QAEHXZ 1002a11c f i libucrt:output.obj
 0001:000292cf       ?process@?$output_processor@DV?$string_output_adapter@D@__crt_stdio_output@@V?$standard_base@DV?$string_output_adapter@D@__crt_stdio_output@@@2@@__crt_stdio_output@@QAEHXZ 1002a2cf f i libucrt:output.obj
 0001:00029432       ?process@?$output_processor@_WV?$stream_output_adapter@_W@__crt_stdio_output@@V?$format_validation_base@_WV?$stream_output_adapter@_W@__crt_stdio_output@@@2@@__crt_stdio_output@@QAEHXZ 1002a432 f i libucrt:output.obj
 0001:000295ae       ?process@?$output_processor@_WV?$stream_output_adapter@_W@__crt_stdio_output@@V?$positional_parameter_base@_WV?$stream_output_adapter@_W@__crt_stdio_output@@@2@@__crt_stdio_output@@QAEHXZ 1002a5ae f i libucrt:output.obj
 0001:00029766       ?process@?$output_processor@_WV?$stream_output_adapter@_W@__crt_stdio_output@@V?$standard_base@_WV?$stream_output_adapter@_W@__crt_stdio_output@@@2@@__crt_stdio_output@@QAEHXZ 1002a766 f i libucrt:output.obj
 0001:000298ce       ?process@?$output_processor@_WV?$string_output_adapter@_W@__crt_stdio_output@@V?$format_validation_base@_WV?$string_output_adapter@_W@__crt_stdio_output@@@2@@__crt_stdio_output@@QAEHXZ 1002a8ce f i libucrt:output.obj
 0001:00029a4a       ?process@?$output_processor@_WV?$string_output_adapter@_W@__crt_stdio_output@@V?$positional_parameter_base@_WV?$string_output_adapter@_W@__crt_stdio_output@@@2@@__crt_stdio_output@@QAEHXZ 1002aa4a f i libucrt:output.obj
 0001:00029c02       ?process@?$output_processor@_WV?$string_output_adapter@_W@__crt_stdio_output@@V?$standard_base@_WV?$string_output_adapter@_W@__crt_stdio_output@@@2@@__crt_stdio_output@@QAEHXZ 1002ac02 f i libucrt:output.obj
 0001:00029d6a       ?public_stream@__crt_stdio_stream@@QBEPAU_iobuf@@XZ 1002ad6a f i libucrt:output.obj
 0001:00029d6d       ?set_flag@?$output_processor@DV?$stream_output_adapter@D@__crt_stdio_output@@V?$format_validation_base@DV?$stream_output_adapter@D@__crt_stdio_output@@@2@@__crt_stdio_output@@AAEXI@Z 1002ad6d f i libucrt:output.obj
 0001:00029d7f       ?set_flag@?$output_processor@DV?$stream_output_adapter@D@__crt_stdio_output@@V?$positional_parameter_base@DV?$stream_output_adapter@D@__crt_stdio_output@@@2@@__crt_stdio_output@@AAEXI@Z 1002ad7f f i libucrt:output.obj
 0001:00029d91       ?set_flag@?$output_processor@DV?$stream_output_adapter@D@__crt_stdio_output@@V?$standard_base@DV?$stream_output_adapter@D@__crt_stdio_output@@@2@@__crt_stdio_output@@AAEXI@Z 1002ad91 f i libucrt:output.obj
 0001:00029da3       ?set_flag@?$output_processor@DV?$string_output_adapter@D@__crt_stdio_output@@V?$format_validation_base@DV?$string_output_adapter@D@__crt_stdio_output@@@2@@__crt_stdio_output@@AAEXI@Z 1002ada3 f i libucrt:output.obj
 0001:00029db5       ?set_flag@?$output_processor@DV?$string_output_adapter@D@__crt_stdio_output@@V?$positional_parameter_base@DV?$string_output_adapter@D@__crt_stdio_output@@@2@@__crt_stdio_output@@AAEXI@Z 1002adb5 f i libucrt:output.obj
 0001:00029dc7       ?set_flag@?$output_processor@DV?$string_output_adapter@D@__crt_stdio_output@@V?$standard_base@DV?$string_output_adapter@D@__crt_stdio_output@@@2@@__crt_stdio_output@@AAEXI@Z 1002adc7 f i libucrt:output.obj
 0001:00029dd9       ?set_flag@?$output_processor@_WV?$stream_output_adapter@_W@__crt_stdio_output@@V?$format_validation_base@_WV?$stream_output_adapter@_W@__crt_stdio_output@@@2@@__crt_stdio_output@@AAEXI@Z 1002add9 f i libucrt:output.obj
 0001:00029deb       ?set_flag@?$output_processor@_WV?$stream_output_adapter@_W@__crt_stdio_output@@V?$positional_parameter_base@_WV?$stream_output_adapter@_W@__crt_stdio_output@@@2@@__crt_stdio_output@@AAEXI@Z 1002adeb f i libucrt:output.obj
 0001:00029dfd       ?set_flag@?$output_processor@_WV?$stream_output_adapter@_W@__crt_stdio_output@@V?$standard_base@_WV?$stream_output_adapter@_W@__crt_stdio_output@@@2@@__crt_stdio_output@@AAEXI@Z 1002adfd f i libucrt:output.obj
 0001:00029e0f       ?set_flag@?$output_processor@_WV?$string_output_adapter@_W@__crt_stdio_output@@V?$format_validation_base@_WV?$string_output_adapter@_W@__crt_stdio_output@@@2@@__crt_stdio_output@@AAEXI@Z 1002ae0f f i libucrt:output.obj
 0001:00029e21       ?set_flag@?$output_processor@_WV?$string_output_adapter@_W@__crt_stdio_output@@V?$positional_parameter_base@_WV?$string_output_adapter@_W@__crt_stdio_output@@@2@@__crt_stdio_output@@AAEXI@Z 1002ae21 f i libucrt:output.obj
 0001:00029e33       ?set_flag@?$output_processor@_WV?$string_output_adapter@_W@__crt_stdio_output@@V?$standard_base@_WV?$string_output_adapter@_W@__crt_stdio_output@@@2@@__crt_stdio_output@@AAEXI@Z 1002ae33 f i libucrt:output.obj
 0001:00029e45       ?should_format@?$positional_parameter_base@DV?$stream_output_adapter@D@__crt_stdio_output@@@__crt_stdio_output@@IAE_NXZ 1002ae45 f i libucrt:output.obj
 0001:00029e60       ?should_format@?$positional_parameter_base@DV?$string_output_adapter@D@__crt_stdio_output@@@__crt_stdio_output@@IAE_NXZ 1002ae60 f i libucrt:output.obj
 0001:00029e7b       ?should_format@?$positional_parameter_base@_WV?$stream_output_adapter@_W@__crt_stdio_output@@@__crt_stdio_output@@IAE_NXZ 1002ae7b f i libucrt:output.obj
 0001:00029e96       ?should_format@?$positional_parameter_base@_WV?$string_output_adapter@_W@__crt_stdio_output@@@__crt_stdio_output@@IAE_NXZ 1002ae96 f i libucrt:output.obj
 0001:00029eb1       ?should_format@?$standard_base@DV?$stream_output_adapter@D@__crt_stdio_output@@@__crt_stdio_output@@IAE_NXZ 1002aeb1 f i libucrt:output.obj
 0001:00029eb4       ?should_format@?$standard_base@DV?$string_output_adapter@D@__crt_stdio_output@@@__crt_stdio_output@@IAE_NXZ 1002aeb4 f i libucrt:output.obj
 0001:00029eb7       ?should_format@?$standard_base@_WV?$stream_output_adapter@_W@__crt_stdio_output@@@__crt_stdio_output@@IAE_NXZ 1002aeb7 f i libucrt:output.obj
 0001:00029eba       ?should_format@?$standard_base@_WV?$string_output_adapter@_W@__crt_stdio_output@@@__crt_stdio_output@@IAE_NXZ 1002aeba f i libucrt:output.obj
 0001:00029ebd       ?should_skip_normal_state_processing@?$positional_parameter_base@DV?$stream_output_adapter@D@__crt_stdio_output@@@__crt_stdio_output@@IAE_NXZ 1002aebd f i libucrt:output.obj
 0001:00029eef       ?should_skip_normal_state_processing@?$positional_parameter_base@DV?$string_output_adapter@D@__crt_stdio_output@@@__crt_stdio_output@@IAE_NXZ 1002aeef f i libucrt:output.obj
 0001:00029f21       ?should_skip_normal_state_processing@?$positional_parameter_base@_WV?$stream_output_adapter@_W@__crt_stdio_output@@@__crt_stdio_output@@IAE_NXZ 1002af21 f i libucrt:output.obj
 0001:00029f53       ?should_skip_normal_state_processing@?$positional_parameter_base@_WV?$string_output_adapter@_W@__crt_stdio_output@@@__crt_stdio_output@@IAE_NXZ 1002af53 f i libucrt:output.obj
 0001:00029f85       ?should_skip_normal_state_processing@?$standard_base@DV?$stream_output_adapter@D@__crt_stdio_output@@@__crt_stdio_output@@IAE_NXZ 1002af85 f i libucrt:output.obj
 0001:00029f88       ?should_skip_normal_state_processing@?$standard_base@DV?$string_output_adapter@D@__crt_stdio_output@@@__crt_stdio_output@@IAE_NXZ 1002af88 f i libucrt:output.obj
 0001:00029f8b       ?should_skip_normal_state_processing@?$standard_base@_WV?$stream_output_adapter@_W@__crt_stdio_output@@@__crt_stdio_output@@IAE_NXZ 1002af8b f i libucrt:output.obj
 0001:00029f8e       ?should_skip_normal_state_processing@?$standard_base@_WV?$string_output_adapter@_W@__crt_stdio_output@@@__crt_stdio_output@@IAE_NXZ 1002af8e f i libucrt:output.obj
 0001:00029f91       ?should_skip_type_state_output@?$positional_parameter_base@DV?$stream_output_adapter@D@__crt_stdio_output@@@__crt_stdio_output@@IBE_NXZ 1002af91 f i libucrt:output.obj
 0001:00029fad       ?should_skip_type_state_output@?$positional_parameter_base@DV?$string_output_adapter@D@__crt_stdio_output@@@__crt_stdio_output@@IBE_NXZ 1002afad f i libucrt:output.obj
 0001:00029fc9       ?should_skip_type_state_output@?$positional_parameter_base@_WV?$stream_output_adapter@_W@__crt_stdio_output@@@__crt_stdio_output@@IBE_NXZ 1002afc9 f i libucrt:output.obj
 0001:00029fe5       ?should_skip_type_state_output@?$positional_parameter_base@_WV?$string_output_adapter@_W@__crt_stdio_output@@@__crt_stdio_output@@IBE_NXZ 1002afe5 f i libucrt:output.obj
 0001:0002a001       ?should_skip_type_state_output@?$standard_base@DV?$stream_output_adapter@D@__crt_stdio_output@@@__crt_stdio_output@@IBE_NXZ 1002b001 f i libucrt:output.obj
 0001:0002a004       ?should_skip_type_state_output@?$standard_base@DV?$string_output_adapter@D@__crt_stdio_output@@@__crt_stdio_output@@IBE_NXZ 1002b004 f i libucrt:output.obj
 0001:0002a007       ?should_skip_type_state_output@?$standard_base@_WV?$stream_output_adapter@_W@__crt_stdio_output@@@__crt_stdio_output@@IBE_NXZ 1002b007 f i libucrt:output.obj
 0001:0002a00a       ?should_skip_type_state_output@?$standard_base@_WV?$string_output_adapter@_W@__crt_stdio_output@@@__crt_stdio_output@@IBE_NXZ 1002b00a f i libucrt:output.obj
 0001:0002a00d       ?state_case_dot@?$output_processor@DV?$stream_output_adapter@D@__crt_stdio_output@@V?$format_validation_base@DV?$stream_output_adapter@D@__crt_stdio_output@@@2@@__crt_stdio_output@@AAE_NXZ 1002b00d f i libucrt:output.obj
 0001:0002a014       ?state_case_dot@?$output_processor@DV?$stream_output_adapter@D@__crt_stdio_output@@V?$positional_parameter_base@DV?$stream_output_adapter@D@__crt_stdio_output@@@2@@__crt_stdio_output@@AAE_NXZ 1002b014 f i libucrt:output.obj
 0001:0002a01b       ?state_case_dot@?$output_processor@DV?$stream_output_adapter@D@__crt_stdio_output@@V?$standard_base@DV?$stream_output_adapter@D@__crt_stdio_output@@@2@@__crt_stdio_output@@AAE_NXZ 1002b01b f i libucrt:output.obj
 0001:0002a022       ?state_case_dot@?$output_processor@DV?$string_output_adapter@D@__crt_stdio_output@@V?$format_validation_base@DV?$string_output_adapter@D@__crt_stdio_output@@@2@@__crt_stdio_output@@AAE_NXZ 1002b022 f i libucrt:output.obj
 0001:0002a029       ?state_case_dot@?$output_processor@DV?$string_output_adapter@D@__crt_stdio_output@@V?$positional_parameter_base@DV?$string_output_adapter@D@__crt_stdio_output@@@2@@__crt_stdio_output@@AAE_NXZ 1002b029 f i libucrt:output.obj
 0001:0002a030       ?state_case_dot@?$output_processor@DV?$string_output_adapter@D@__crt_stdio_output@@V?$standard_base@DV?$string_output_adapter@D@__crt_stdio_output@@@2@@__crt_stdio_output@@AAE_NXZ 1002b030 f i libucrt:output.obj
 0001:0002a037       ?state_case_dot@?$output_processor@_WV?$stream_output_adapter@_W@__crt_stdio_output@@V?$format_validation_base@_WV?$stream_output_adapter@_W@__crt_stdio_output@@@2@@__crt_stdio_output@@AAE_NXZ 1002b037 f i libucrt:output.obj
 0001:0002a03e       ?state_case_dot@?$output_processor@_WV?$stream_output_adapter@_W@__crt_stdio_output@@V?$positional_parameter_base@_WV?$stream_output_adapter@_W@__crt_stdio_output@@@2@@__crt_stdio_output@@AAE_NXZ 1002b03e f i libucrt:output.obj
 0001:0002a045       ?state_case_dot@?$output_processor@_WV?$stream_output_adapter@_W@__crt_stdio_output@@V?$standard_base@_WV?$stream_output_adapter@_W@__crt_stdio_output@@@2@@__crt_stdio_output@@AAE_NXZ 1002b045 f i libucrt:output.obj
 0001:0002a04c       ?state_case_dot@?$output_processor@_WV?$string_output_adapter@_W@__crt_stdio_output@@V?$format_validation_base@_WV?$string_output_adapter@_W@__crt_stdio_output@@@2@@__crt_stdio_output@@AAE_NXZ 1002b04c f i libucrt:output.obj
 0001:0002a053       ?state_case_dot@?$output_processor@_WV?$string_output_adapter@_W@__crt_stdio_output@@V?$positional_parameter_base@_WV?$string_output_adapter@_W@__crt_stdio_output@@@2@@__crt_stdio_output@@AAE_NXZ 1002b053 f i libucrt:output.obj
 0001:0002a05a       ?state_case_dot@?$output_processor@_WV?$string_output_adapter@_W@__crt_stdio_output@@V?$standard_base@_WV?$string_output_adapter@_W@__crt_stdio_output@@@2@@__crt_stdio_output@@AAE_NXZ 1002b05a f i libucrt:output.obj
 0001:0002a061       ?state_case_flag@?$output_processor@DV?$stream_output_adapter@D@__crt_stdio_output@@V?$format_validation_base@DV?$stream_output_adapter@D@__crt_stdio_output@@@2@@__crt_stdio_output@@AAE_NXZ 1002b061 f i libucrt:output.obj
 0001:0002a0ad       ?state_case_flag@?$output_processor@DV?$stream_output_adapter@D@__crt_stdio_output@@V?$positional_parameter_base@DV?$stream_output_adapter@D@__crt_stdio_output@@@2@@__crt_stdio_output@@AAE_NXZ 1002b0ad f i libucrt:output.obj
 0001:0002a0f9       ?state_case_flag@?$output_processor@DV?$stream_output_adapter@D@__crt_stdio_output@@V?$standard_base@DV?$stream_output_adapter@D@__crt_stdio_output@@@2@@__crt_stdio_output@@AAE_NXZ 1002b0f9 f i libucrt:output.obj
 0001:0002a145       ?state_case_flag@?$output_processor@DV?$string_output_adapter@D@__crt_stdio_output@@V?$format_validation_base@DV?$string_output_adapter@D@__crt_stdio_output@@@2@@__crt_stdio_output@@AAE_NXZ 1002b145 f i libucrt:output.obj
 0001:0002a191       ?state_case_flag@?$output_processor@DV?$string_output_adapter@D@__crt_stdio_output@@V?$positional_parameter_base@DV?$string_output_adapter@D@__crt_stdio_output@@@2@@__crt_stdio_output@@AAE_NXZ 1002b191 f i libucrt:output.obj
 0001:0002a1dd       ?state_case_flag@?$output_processor@DV?$string_output_adapter@D@__crt_stdio_output@@V?$standard_base@DV?$string_output_adapter@D@__crt_stdio_output@@@2@@__crt_stdio_output@@AAE_NXZ 1002b1dd f i libucrt:output.obj
 0001:0002a229       ?state_case_flag@?$output_processor@_WV?$stream_output_adapter@_W@__crt_stdio_output@@V?$format_validation_base@_WV?$stream_output_adapter@_W@__crt_stdio_output@@@2@@__crt_stdio_output@@AAE_NXZ 1002b229 f i libucrt:output.obj
 0001:0002a275       ?state_case_flag@?$output_processor@_WV?$stream_output_adapter@_W@__crt_stdio_output@@V?$positional_parameter_base@_WV?$stream_output_adapter@_W@__crt_stdio_output@@@2@@__crt_stdio_output@@AAE_NXZ 1002b275 f i libucrt:output.obj
 0001:0002a2c1       ?state_case_flag@?$output_processor@_WV?$stream_output_adapter@_W@__crt_stdio_output@@V?$standard_base@_WV?$stream_output_adapter@_W@__crt_stdio_output@@@2@@__crt_stdio_output@@AAE_NXZ 1002b2c1 f i libucrt:output.obj
 0001:0002a30d       ?state_case_flag@?$output_processor@_WV?$string_output_adapter@_W@__crt_stdio_output@@V?$format_validation_base@_WV?$string_output_adapter@_W@__crt_stdio_output@@@2@@__crt_stdio_output@@AAE_NXZ 1002b30d f i libucrt:output.obj
 0001:0002a359       ?state_case_flag@?$output_processor@_WV?$string_output_adapter@_W@__crt_stdio_output@@V?$positional_parameter_base@_WV?$string_output_adapter@_W@__crt_stdio_output@@@2@@__crt_stdio_output@@AAE_NXZ 1002b359 f i libucrt:output.obj
 0001:0002a3a5       ?state_case_flag@?$output_processor@_WV?$string_output_adapter@_W@__crt_stdio_output@@V?$standard_base@_WV?$string_output_adapter@_W@__crt_stdio_output@@@2@@__crt_stdio_output@@AAE_NXZ 1002b3a5 f i libucrt:output.obj
 0001:0002a3f1       ?state_case_normal@?$output_processor@DV?$stream_output_adapter@D@__crt_stdio_output@@V?$format_validation_base@DV?$stream_output_adapter@D@__crt_stdio_output@@@2@@__crt_stdio_output@@AAE_NXZ 1002b3f1 f i libucrt:output.obj
 0001:0002a417       ?state_case_normal@?$output_processor@DV?$stream_output_adapter@D@__crt_stdio_output@@V?$positional_parameter_base@DV?$stream_output_adapter@D@__crt_stdio_output@@@2@@__crt_stdio_output@@AAE_NXZ 1002b417 f i libucrt:output.obj
 0001:0002a454       ?state_case_normal@?$output_processor@DV?$stream_output_adapter@D@__crt_stdio_output@@V?$standard_base@DV?$stream_output_adapter@D@__crt_stdio_output@@@2@@__crt_stdio_output@@AAE_NXZ 1002b454 f i libucrt:output.obj
 0001:0002a47a       ?state_case_normal@?$output_processor@DV?$string_output_adapter@D@__crt_stdio_output@@V?$format_validation_base@DV?$string_output_adapter@D@__crt_stdio_output@@@2@@__crt_stdio_output@@AAE_NXZ 1002b47a f i libucrt:output.obj
 0001:0002a4a0       ?state_case_normal@?$output_processor@DV?$string_output_adapter@D@__crt_stdio_output@@V?$positional_parameter_base@DV?$string_output_adapter@D@__crt_stdio_output@@@2@@__crt_stdio_output@@AAE_NXZ 1002b4a0 f i libucrt:output.obj
 0001:0002a4dd       ?state_case_normal@?$output_processor@DV?$string_output_adapter@D@__crt_stdio_output@@V?$standard_base@DV?$string_output_adapter@D@__crt_stdio_output@@@2@@__crt_stdio_output@@AAE_NXZ 1002b4dd f i libucrt:output.obj
 0001:0002a503       ?state_case_normal@?$output_processor@_WV?$stream_output_adapter@_W@__crt_stdio_output@@V?$format_validation_base@_WV?$stream_output_adapter@_W@__crt_stdio_output@@@2@@__crt_stdio_output@@AAE_NXZ 1002b503 f i libucrt:output.obj
 0001:0002a529       ?state_case_normal@?$output_processor@_WV?$stream_output_adapter@_W@__crt_stdio_output@@V?$positional_parameter_base@_WV?$stream_output_adapter@_W@__crt_stdio_output@@@2@@__crt_stdio_output@@AAE_NXZ 1002b529 f i libucrt:output.obj
 0001:0002a566       ?state_case_normal@?$output_processor@_WV?$stream_output_adapter@_W@__crt_stdio_output@@V?$standard_base@_WV?$stream_output_adapter@_W@__crt_stdio_output@@@2@@__crt_stdio_output@@AAE_NXZ 1002b566 f i libucrt:output.obj
 0001:0002a58c       ?state_case_normal@?$output_processor@_WV?$string_output_adapter@_W@__crt_stdio_output@@V?$format_validation_base@_WV?$string_output_adapter@_W@__crt_stdio_output@@@2@@__crt_stdio_output@@AAE_NXZ 1002b58c f i libucrt:output.obj
 0001:0002a5b2       ?state_case_normal@?$output_processor@_WV?$string_output_adapter@_W@__crt_stdio_output@@V?$positional_parameter_base@_WV?$string_output_adapter@_W@__crt_stdio_output@@@2@@__crt_stdio_output@@AAE_NXZ 1002b5b2 f i libucrt:output.obj
 0001:0002a5ef       ?state_case_normal@?$output_processor@_WV?$string_output_adapter@_W@__crt_stdio_output@@V?$standard_base@_WV?$string_output_adapter@_W@__crt_stdio_output@@@2@@__crt_stdio_output@@AAE_NXZ 1002b5ef f i libucrt:output.obj
 0001:0002a615       ?state_case_normal_common@?$output_processor@DV?$stream_output_adapter@D@__crt_stdio_output@@V?$format_validation_base@DV?$stream_output_adapter@D@__crt_stdio_output@@@2@@__crt_stdio_output@@AAE_NXZ 1002b615 f i libucrt:output.obj
 0001:0002a649       ?state_case_normal_common@?$output_processor@DV?$stream_output_adapter@D@__crt_stdio_output@@V?$positional_parameter_base@DV?$stream_output_adapter@D@__crt_stdio_output@@@2@@__crt_stdio_output@@AAE_NXZ 1002b649 f i libucrt:output.obj
 0001:0002a67d       ?state_case_normal_common@?$output_processor@DV?$stream_output_adapter@D@__crt_stdio_output@@V?$standard_base@DV?$stream_output_adapter@D@__crt_stdio_output@@@2@@__crt_stdio_output@@AAE_NXZ 1002b67d f i libucrt:output.obj
 0001:0002a6b1       ?state_case_normal_common@?$output_processor@DV?$string_output_adapter@D@__crt_stdio_output@@V?$format_validation_base@DV?$string_output_adapter@D@__crt_stdio_output@@@2@@__crt_stdio_output@@AAE_NXZ 1002b6b1 f i libucrt:output.obj
 0001:0002a6e5       ?state_case_normal_common@?$output_processor@DV?$string_output_adapter@D@__crt_stdio_output@@V?$positional_parameter_base@DV?$string_output_adapter@D@__crt_stdio_output@@@2@@__crt_stdio_output@@AAE_NXZ 1002b6e5 f i libucrt:output.obj
 0001:0002a719       ?state_case_normal_common@?$output_processor@DV?$string_output_adapter@D@__crt_stdio_output@@V?$standard_base@DV?$string_output_adapter@D@__crt_stdio_output@@@2@@__crt_stdio_output@@AAE_NXZ 1002b719 f i libucrt:output.obj
 0001:0002a74d       ?state_case_normal_common@?$output_processor@_WV?$stream_output_adapter@_W@__crt_stdio_output@@V?$format_validation_base@_WV?$stream_output_adapter@_W@__crt_stdio_output@@@2@@__crt_stdio_output@@AAE_NXZ 1002b74d f i libucrt:output.obj
 0001:0002a76e       ?state_case_normal_common@?$output_processor@_WV?$stream_output_adapter@_W@__crt_stdio_output@@V?$positional_parameter_base@_WV?$stream_output_adapter@_W@__crt_stdio_output@@@2@@__crt_stdio_output@@AAE_NXZ 1002b76e f i libucrt:output.obj
 0001:0002a78f       ?state_case_normal_common@?$output_processor@_WV?$stream_output_adapter@_W@__crt_stdio_output@@V?$standard_base@_WV?$stream_output_adapter@_W@__crt_stdio_output@@@2@@__crt_stdio_output@@AAE_NXZ 1002b78f f i libucrt:output.obj
 0001:0002a7b0       ?state_case_normal_common@?$output_processor@_WV?$string_output_adapter@_W@__crt_stdio_output@@V?$format_validation_base@_WV?$string_output_adapter@_W@__crt_stdio_output@@@2@@__crt_stdio_output@@AAE_NXZ 1002b7b0 f i libucrt:output.obj
 0001:0002a7d1       ?state_case_normal_common@?$output_processor@_WV?$string_output_adapter@_W@__crt_stdio_output@@V?$positional_parameter_base@_WV?$string_output_adapter@_W@__crt_stdio_output@@@2@@__crt_stdio_output@@AAE_NXZ 1002b7d1 f i libucrt:output.obj
 0001:0002a7f2       ?state_case_normal_common@?$output_processor@_WV?$string_output_adapter@_W@__crt_stdio_output@@V?$standard_base@_WV?$string_output_adapter@_W@__crt_stdio_output@@@2@@__crt_stdio_output@@AAE_NXZ 1002b7f2 f i libucrt:output.obj
 0001:0002a813       ?state_case_normal_tchar@?$output_processor@DV?$stream_output_adapter@D@__crt_stdio_output@@V?$format_validation_base@DV?$stream_output_adapter@D@__crt_stdio_output@@@2@@__crt_stdio_output@@AAE_ND@Z 1002b813 f i libucrt:output.obj
 0001:0002a88c       ?state_case_normal_tchar@?$output_processor@DV?$stream_output_adapter@D@__crt_stdio_output@@V?$positional_parameter_base@DV?$stream_output_adapter@D@__crt_stdio_output@@@2@@__crt_stdio_output@@AAE_ND@Z 1002b88c f i libucrt:output.obj
 0001:0002a905       ?state_case_normal_tchar@?$output_processor@DV?$stream_output_adapter@D@__crt_stdio_output@@V?$standard_base@DV?$stream_output_adapter@D@__crt_stdio_output@@@2@@__crt_stdio_output@@AAE_ND@Z 1002b905 f i libucrt:output.obj
 0001:0002a97e       ?state_case_normal_tchar@?$output_processor@DV?$string_output_adapter@D@__crt_stdio_output@@V?$format_validation_base@DV?$string_output_adapter@D@__crt_stdio_output@@@2@@__crt_stdio_output@@AAE_ND@Z 1002b97e f i libucrt:output.obj
 0001:0002a9f7       ?state_case_normal_tchar@?$output_processor@DV?$string_output_adapter@D@__crt_stdio_output@@V?$positional_parameter_base@DV?$string_output_adapter@D@__crt_stdio_output@@@2@@__crt_stdio_output@@AAE_ND@Z 1002b9f7 f i libucrt:output.obj
 0001:0002aa70       ?state_case_normal_tchar@?$output_processor@DV?$string_output_adapter@D@__crt_stdio_output@@V?$standard_base@DV?$string_output_adapter@D@__crt_stdio_output@@@2@@__crt_stdio_output@@AAE_ND@Z 1002ba70 f i libucrt:output.obj
 0001:0002aae9       ?state_case_normal_tchar@?$output_processor@_WV?$stream_output_adapter@_W@__crt_stdio_output@@V?$format_validation_base@_WV?$stream_output_adapter@_W@__crt_stdio_output@@@2@@__crt_stdio_output@@AAE_N_W@Z 1002bae9 f i libucrt:output.obj
 0001:0002aaf4       ?state_case_normal_tchar@?$output_processor@_WV?$stream_output_adapter@_W@__crt_stdio_output@@V?$positional_parameter_base@_WV?$stream_output_adapter@_W@__crt_stdio_output@@@2@@__crt_stdio_output@@AAE_N_W@Z 1002baf4 f i libucrt:output.obj
 0001:0002aaff       ?state_case_normal_tchar@?$output_processor@_WV?$stream_output_adapter@_W@__crt_stdio_output@@V?$standard_base@_WV?$stream_output_adapter@_W@__crt_stdio_output@@@2@@__crt_stdio_output@@AAE_N_W@Z 1002baff f i libucrt:output.obj
 0001:0002ab0a       ?state_case_normal_tchar@?$output_processor@_WV?$string_output_adapter@_W@__crt_stdio_output@@V?$format_validation_base@_WV?$string_output_adapter@_W@__crt_stdio_output@@@2@@__crt_stdio_output@@AAE_N_W@Z 1002bb0a f i libucrt:output.obj
 0001:0002ab15       ?state_case_normal_tchar@?$output_processor@_WV?$string_output_adapter@_W@__crt_stdio_output@@V?$positional_parameter_base@_WV?$string_output_adapter@_W@__crt_stdio_output@@@2@@__crt_stdio_output@@AAE_N_W@Z 1002bb15 f i libucrt:output.obj
 0001:0002ab20       ?state_case_normal_tchar@?$output_processor@_WV?$string_output_adapter@_W@__crt_stdio_output@@V?$standard_base@_WV?$string_output_adapter@_W@__crt_stdio_output@@@2@@__crt_stdio_output@@AAE_N_W@Z 1002bb20 f i libucrt:output.obj
 0001:0002ab2b       ?state_case_percent@?$output_processor@DV?$stream_output_adapter@D@__crt_stdio_output@@V?$format_validation_base@DV?$stream_output_adapter@D@__crt_stdio_output@@@2@@__crt_stdio_output@@AAE_NXZ 1002bb2b f i libucrt:output.obj
 0001:0002ab49       ?state_case_percent@?$output_processor@DV?$stream_output_adapter@D@__crt_stdio_output@@V?$positional_parameter_base@DV?$stream_output_adapter@D@__crt_stdio_output@@@2@@__crt_stdio_output@@AAE_NXZ 1002bb49 f i libucrt:output.obj
 0001:0002ab67       ?state_case_percent@?$output_processor@DV?$stream_output_adapter@D@__crt_stdio_output@@V?$standard_base@DV?$stream_output_adapter@D@__crt_stdio_output@@@2@@__crt_stdio_output@@AAE_NXZ 1002bb67 f i libucrt:output.obj
 0001:0002ab85       ?state_case_percent@?$output_processor@DV?$string_output_adapter@D@__crt_stdio_output@@V?$format_validation_base@DV?$string_output_adapter@D@__crt_stdio_output@@@2@@__crt_stdio_output@@AAE_NXZ 1002bb85 f i libucrt:output.obj
 0001:0002aba3       ?state_case_percent@?$output_processor@DV?$string_output_adapter@D@__crt_stdio_output@@V?$positional_parameter_base@DV?$string_output_adapter@D@__crt_stdio_output@@@2@@__crt_stdio_output@@AAE_NXZ 1002bba3 f i libucrt:output.obj
 0001:0002abc1       ?state_case_percent@?$output_processor@DV?$string_output_adapter@D@__crt_stdio_output@@V?$standard_base@DV?$string_output_adapter@D@__crt_stdio_output@@@2@@__crt_stdio_output@@AAE_NXZ 1002bbc1 f i libucrt:output.obj
 0001:0002abdf       ?state_case_percent@?$output_processor@_WV?$stream_output_adapter@_W@__crt_stdio_output@@V?$format_validation_base@_WV?$stream_output_adapter@_W@__crt_stdio_output@@@2@@__crt_stdio_output@@AAE_NXZ 1002bbdf f i libucrt:output.obj
 0001:0002abfd       ?state_case_percent@?$output_processor@_WV?$stream_output_adapter@_W@__crt_stdio_output@@V?$positional_parameter_base@_WV?$stream_output_adapter@_W@__crt_stdio_output@@@2@@__crt_stdio_output@@AAE_NXZ 1002bbfd f i libucrt:output.obj
 0001:0002ac1b       ?state_case_percent@?$output_processor@_WV?$stream_output_adapter@_W@__crt_stdio_output@@V?$standard_base@_WV?$stream_output_adapter@_W@__crt_stdio_output@@@2@@__crt_stdio_output@@AAE_NXZ 1002bc1b f i libucrt:output.obj
 0001:0002ac39       ?state_case_percent@?$output_processor@_WV?$string_output_adapter@_W@__crt_stdio_output@@V?$format_validation_base@_WV?$string_output_adapter@_W@__crt_stdio_output@@@2@@__crt_stdio_output@@AAE_NXZ 1002bc39 f i libucrt:output.obj
 0001:0002ac57       ?state_case_percent@?$output_processor@_WV?$string_output_adapter@_W@__crt_stdio_output@@V?$positional_parameter_base@_WV?$string_output_adapter@_W@__crt_stdio_output@@@2@@__crt_stdio_output@@AAE_NXZ 1002bc57 f i libucrt:output.obj
 0001:0002ac75       ?state_case_percent@?$output_processor@_WV?$string_output_adapter@_W@__crt_stdio_output@@V?$standard_base@_WV?$string_output_adapter@_W@__crt_stdio_output@@@2@@__crt_stdio_output@@AAE_NXZ 1002bc75 f i libucrt:output.obj
 0001:0002ac93       ?state_case_precision@?$output_processor@DV?$stream_output_adapter@D@__crt_stdio_output@@V?$format_validation_base@DV?$stream_output_adapter@D@__crt_stdio_output@@@2@@__crt_stdio_output@@AAE_NXZ 1002bc93 f i libucrt:output.obj
 0001:0002acc5       ?state_case_precision@?$output_processor@DV?$stream_output_adapter@D@__crt_stdio_output@@V?$positional_parameter_base@DV?$stream_output_adapter@D@__crt_stdio_output@@@2@@__crt_stdio_output@@AAE_NXZ 1002bcc5 f i libucrt:output.obj
 0001:0002ad0d       ?state_case_precision@?$output_processor@DV?$stream_output_adapter@D@__crt_stdio_output@@V?$standard_base@DV?$stream_output_adapter@D@__crt_stdio_output@@@2@@__crt_stdio_output@@AAE_NXZ 1002bd0d f i libucrt:output.obj
 0001:0002ad3f       ?state_case_precision@?$output_processor@DV?$string_output_adapter@D@__crt_stdio_output@@V?$format_validation_base@DV?$string_output_adapter@D@__crt_stdio_output@@@2@@__crt_stdio_output@@AAE_NXZ 1002bd3f f i libucrt:output.obj
 0001:0002ad71       ?state_case_precision@?$output_processor@DV?$string_output_adapter@D@__crt_stdio_output@@V?$positional_parameter_base@DV?$string_output_adapter@D@__crt_stdio_output@@@2@@__crt_stdio_output@@AAE_NXZ 1002bd71 f i libucrt:output.obj
 0001:0002adb9       ?state_case_precision@?$output_processor@DV?$string_output_adapter@D@__crt_stdio_output@@V?$standard_base@DV?$string_output_adapter@D@__crt_stdio_output@@@2@@__crt_stdio_output@@AAE_NXZ 1002bdb9 f i libucrt:output.obj
 0001:0002adeb       ?state_case_precision@?$output_processor@_WV?$stream_output_adapter@_W@__crt_stdio_output@@V?$format_validation_base@_WV?$stream_output_adapter@_W@__crt_stdio_output@@@2@@__crt_stdio_output@@AAE_NXZ 1002bdeb f i libucrt:output.obj
 0001:0002ae1e       ?state_case_precision@?$output_processor@_WV?$stream_output_adapter@_W@__crt_stdio_output@@V?$positional_parameter_base@_WV?$stream_output_adapter@_W@__crt_stdio_output@@@2@@__crt_stdio_output@@AAE_NXZ 1002be1e f i libucrt:output.obj
 0001:0002ae67       ?state_case_precision@?$output_processor@_WV?$stream_output_adapter@_W@__crt_stdio_output@@V?$standard_base@_WV?$stream_output_adapter@_W@__crt_stdio_output@@@2@@__crt_stdio_output@@AAE_NXZ 1002be67 f i libucrt:output.obj
 0001:0002ae9a       ?state_case_precision@?$output_processor@_WV?$string_output_adapter@_W@__crt_stdio_output@@V?$format_validation_base@_WV?$string_output_adapter@_W@__crt_stdio_output@@@2@@__crt_stdio_output@@AAE_NXZ 1002be9a f i libucrt:output.obj
 0001:0002aecd       ?state_case_precision@?$output_processor@_WV?$string_output_adapter@_W@__crt_stdio_output@@V?$positional_parameter_base@_WV?$string_output_adapter@_W@__crt_stdio_output@@@2@@__crt_stdio_output@@AAE_NXZ 1002becd f i libucrt:output.obj
 0001:0002af16       ?state_case_precision@?$output_processor@_WV?$string_output_adapter@_W@__crt_stdio_output@@V?$standard_base@_WV?$string_output_adapter@_W@__crt_stdio_output@@@2@@__crt_stdio_output@@AAE_NXZ 1002bf16 f i libucrt:output.obj
 0001:0002af49       ?state_case_size@?$output_processor@DV?$stream_output_adapter@D@__crt_stdio_output@@V?$format_validation_base@DV?$stream_output_adapter@D@__crt_stdio_output@@@2@@__crt_stdio_output@@AAE_NXZ 1002bf49 f i libucrt:output.obj
 0001:0002b10c       ?state_case_size@?$output_processor@DV?$stream_output_adapter@D@__crt_stdio_output@@V?$positional_parameter_base@DV?$stream_output_adapter@D@__crt_stdio_output@@@2@@__crt_stdio_output@@AAE_NXZ 1002c10c f i libucrt:output.obj
 0001:0002b2cf       ?state_case_size@?$output_processor@DV?$stream_output_adapter@D@__crt_stdio_output@@V?$standard_base@DV?$stream_output_adapter@D@__crt_stdio_output@@@2@@__crt_stdio_output@@AAE_NXZ 1002c2cf f i libucrt:output.obj
 0001:0002b492       ?state_case_size@?$output_processor@DV?$string_output_adapter@D@__crt_stdio_output@@V?$format_validation_base@DV?$string_output_adapter@D@__crt_stdio_output@@@2@@__crt_stdio_output@@AAE_NXZ 1002c492 f i libucrt:output.obj
 0001:0002b655       ?state_case_size@?$output_processor@DV?$string_output_adapter@D@__crt_stdio_output@@V?$positional_parameter_base@DV?$string_output_adapter@D@__crt_stdio_output@@@2@@__crt_stdio_output@@AAE_NXZ 1002c655 f i libucrt:output.obj
 0001:0002b818       ?state_case_size@?$output_processor@DV?$string_output_adapter@D@__crt_stdio_output@@V?$standard_base@DV?$string_output_adapter@D@__crt_stdio_output@@@2@@__crt_stdio_output@@AAE_NXZ 1002c818 f i libucrt:output.obj
 0001:0002b9db       ?state_case_size@?$output_processor@_WV?$stream_output_adapter@_W@__crt_stdio_output@@V?$format_validation_base@_WV?$stream_output_adapter@_W@__crt_stdio_output@@@2@@__crt_stdio_output@@AAE_NXZ 1002c9db f i libucrt:output.obj
 0001:0002bbb6       ?state_case_size@?$output_processor@_WV?$stream_output_adapter@_W@__crt_stdio_output@@V?$positional_parameter_base@_WV?$stream_output_adapter@_W@__crt_stdio_output@@@2@@__crt_stdio_output@@AAE_NXZ 1002cbb6 f i libucrt:output.obj
 0001:0002bd91       ?state_case_size@?$output_processor@_WV?$stream_output_adapter@_W@__crt_stdio_output@@V?$standard_base@_WV?$stream_output_adapter@_W@__crt_stdio_output@@@2@@__crt_stdio_output@@AAE_NXZ 1002cd91 f i libucrt:output.obj
 0001:0002bf6c       ?state_case_size@?$output_processor@_WV?$string_output_adapter@_W@__crt_stdio_output@@V?$format_validation_base@_WV?$string_output_adapter@_W@__crt_stdio_output@@@2@@__crt_stdio_output@@AAE_NXZ 1002cf6c f i libucrt:output.obj
 0001:0002c147       ?state_case_size@?$output_processor@_WV?$string_output_adapter@_W@__crt_stdio_output@@V?$positional_parameter_base@_WV?$string_output_adapter@_W@__crt_stdio_output@@@2@@__crt_stdio_output@@AAE_NXZ 1002d147 f i libucrt:output.obj
 0001:0002c322       ?state_case_size@?$output_processor@_WV?$string_output_adapter@_W@__crt_stdio_output@@V?$standard_base@_WV?$string_output_adapter@_W@__crt_stdio_output@@@2@@__crt_stdio_output@@AAE_NXZ 1002d322 f i libucrt:output.obj
 0001:0002c4fd       ?state_case_type@?$output_processor@DV?$stream_output_adapter@D@__crt_stdio_output@@V?$format_validation_base@DV?$stream_output_adapter@D@__crt_stdio_output@@@2@@__crt_stdio_output@@AAE_NXZ 1002d4fd f i libucrt:output.obj
 0001:0002c7b7       ?state_case_type@?$output_processor@DV?$stream_output_adapter@D@__crt_stdio_output@@V?$positional_parameter_base@DV?$stream_output_adapter@D@__crt_stdio_output@@@2@@__crt_stdio_output@@AAE_NXZ 1002d7b7 f i libucrt:output.obj
 0001:0002ca7f       ?state_case_type@?$output_processor@DV?$stream_output_adapter@D@__crt_stdio_output@@V?$standard_base@DV?$stream_output_adapter@D@__crt_stdio_output@@@2@@__crt_stdio_output@@AAE_NXZ 1002da7f f i libucrt:output.obj
 0001:0002cd39       ?state_case_type@?$output_processor@DV?$string_output_adapter@D@__crt_stdio_output@@V?$format_validation_base@DV?$string_output_adapter@D@__crt_stdio_output@@@2@@__crt_stdio_output@@AAE_NXZ 1002dd39 f i libucrt:output.obj
 0001:0002cff3       ?state_case_type@?$output_processor@DV?$string_output_adapter@D@__crt_stdio_output@@V?$positional_parameter_base@DV?$string_output_adapter@D@__crt_stdio_output@@@2@@__crt_stdio_output@@AAE_NXZ 1002dff3 f i libucrt:output.obj
 0001:0002d2bb       ?state_case_type@?$output_processor@DV?$string_output_adapter@D@__crt_stdio_output@@V?$standard_base@DV?$string_output_adapter@D@__crt_stdio_output@@@2@@__crt_stdio_output@@AAE_NXZ 1002e2bb f i libucrt:output.obj
 0001:0002d575       ?state_case_type@?$output_processor@_WV?$stream_output_adapter@_W@__crt_stdio_output@@V?$format_validation_base@_WV?$stream_output_adapter@_W@__crt_stdio_output@@@2@@__crt_stdio_output@@AAE_NXZ 1002e575 f i libucrt:output.obj
 0001:0002d869       ?state_case_type@?$output_processor@_WV?$stream_output_adapter@_W@__crt_stdio_output@@V?$positional_parameter_base@_WV?$stream_output_adapter@_W@__crt_stdio_output@@@2@@__crt_stdio_output@@AAE_NXZ 1002e869 f i libucrt:output.obj
 0001:0002db70       ?state_case_type@?$output_processor@_WV?$stream_output_adapter@_W@__crt_stdio_output@@V?$standard_base@_WV?$stream_output_adapter@_W@__crt_stdio_output@@@2@@__crt_stdio_output@@AAE_NXZ 1002eb70 f i libucrt:output.obj
 0001:0002de64       ?state_case_type@?$output_processor@_WV?$string_output_adapter@_W@__crt_stdio_output@@V?$format_validation_base@_WV?$string_output_adapter@_W@__crt_stdio_output@@@2@@__crt_stdio_output@@AAE_NXZ 1002ee64 f i libucrt:output.obj
 0001:0002e158       ?state_case_type@?$output_processor@_WV?$string_output_adapter@_W@__crt_stdio_output@@V?$positional_parameter_base@_WV?$string_output_adapter@_W@__crt_stdio_output@@@2@@__crt_stdio_output@@AAE_NXZ 1002f158 f i libucrt:output.obj
 0001:0002e45f       ?state_case_type@?$output_processor@_WV?$string_output_adapter@_W@__crt_stdio_output@@V?$standard_base@_WV?$string_output_adapter@_W@__crt_stdio_output@@@2@@__crt_stdio_output@@AAE_NXZ 1002f45f f i libucrt:output.obj
 0001:0002e753       ?state_case_width@?$output_processor@DV?$stream_output_adapter@D@__crt_stdio_output@@V?$format_validation_base@DV?$stream_output_adapter@D@__crt_stdio_output@@@2@@__crt_stdio_output@@AAE_NXZ 1002f753 f i libucrt:output.obj
 0001:0002e788       ?state_case_width@?$output_processor@DV?$stream_output_adapter@D@__crt_stdio_output@@V?$positional_parameter_base@DV?$stream_output_adapter@D@__crt_stdio_output@@@2@@__crt_stdio_output@@AAE_NXZ 1002f788 f i libucrt:output.obj
 0001:0002e7d8       ?state_case_width@?$output_processor@DV?$stream_output_adapter@D@__crt_stdio_output@@V?$standard_base@DV?$stream_output_adapter@D@__crt_stdio_output@@@2@@__crt_stdio_output@@AAE_NXZ 1002f7d8 f i libucrt:output.obj
 0001:0002e80d       ?state_case_width@?$output_processor@DV?$string_output_adapter@D@__crt_stdio_output@@V?$format_validation_base@DV?$string_output_adapter@D@__crt_stdio_output@@@2@@__crt_stdio_output@@AAE_NXZ 1002f80d f i libucrt:output.obj
 0001:0002e842       ?state_case_width@?$output_processor@DV?$string_output_adapter@D@__crt_stdio_output@@V?$positional_parameter_base@DV?$string_output_adapter@D@__crt_stdio_output@@@2@@__crt_stdio_output@@AAE_NXZ 1002f842 f i libucrt:output.obj
 0001:0002e892       ?state_case_width@?$output_processor@DV?$string_output_adapter@D@__crt_stdio_output@@V?$standard_base@DV?$string_output_adapter@D@__crt_stdio_output@@@2@@__crt_stdio_output@@AAE_NXZ 1002f892 f i libucrt:output.obj
 0001:0002e8c7       ?state_case_width@?$output_processor@_WV?$stream_output_adapter@_W@__crt_stdio_output@@V?$format_validation_base@_WV?$stream_output_adapter@_W@__crt_stdio_output@@@2@@__crt_stdio_output@@AAE_NXZ 1002f8c7 f i libucrt:output.obj
 0001:0002e8fe       ?state_case_width@?$output_processor@_WV?$stream_output_adapter@_W@__crt_stdio_output@@V?$positional_parameter_base@_WV?$stream_output_adapter@_W@__crt_stdio_output@@@2@@__crt_stdio_output@@AAE_NXZ 1002f8fe f i libucrt:output.obj
 0001:0002e94f       ?state_case_width@?$output_processor@_WV?$stream_output_adapter@_W@__crt_stdio_output@@V?$standard_base@_WV?$stream_output_adapter@_W@__crt_stdio_output@@@2@@__crt_stdio_output@@AAE_NXZ 1002f94f f i libucrt:output.obj
 0001:0002e986       ?state_case_width@?$output_processor@_WV?$string_output_adapter@_W@__crt_stdio_output@@V?$format_validation_base@_WV?$string_output_adapter@_W@__crt_stdio_output@@@2@@__crt_stdio_output@@AAE_NXZ 1002f986 f i libucrt:output.obj
 0001:0002e9bd       ?state_case_width@?$output_processor@_WV?$string_output_adapter@_W@__crt_stdio_output@@V?$positional_parameter_base@_WV?$string_output_adapter@_W@__crt_stdio_output@@@2@@__crt_stdio_output@@AAE_NXZ 1002f9bd f i libucrt:output.obj
 0001:0002ea0e       ?state_case_width@?$output_processor@_WV?$string_output_adapter@_W@__crt_stdio_output@@V?$standard_base@_WV?$string_output_adapter@_W@__crt_stdio_output@@@2@@__crt_stdio_output@@AAE_NXZ 1002fa0e f i libucrt:output.obj
 0001:0002ea45       ?state_count@?$format_validation_base@DV?$stream_output_adapter@D@__crt_stdio_output@@@__crt_stdio_output@@KAIXZ 1002fa45 f i libucrt:output.obj
 0001:0002ea49       ?state_count@?$format_validation_base@DV?$string_output_adapter@D@__crt_stdio_output@@@__crt_stdio_output@@KAIXZ 1002fa49 f i libucrt:output.obj
 0001:0002ea4d       ?state_count@?$format_validation_base@_WV?$stream_output_adapter@_W@__crt_stdio_output@@@__crt_stdio_output@@KAIXZ 1002fa4d f i libucrt:output.obj
 0001:0002ea51       ?state_count@?$format_validation_base@_WV?$string_output_adapter@_W@__crt_stdio_output@@@__crt_stdio_output@@KAIXZ 1002fa51 f i libucrt:output.obj
 0001:0002ea55       ?state_count@?$standard_base@DV?$stream_output_adapter@D@__crt_stdio_output@@@__crt_stdio_output@@KAIXZ 1002fa55 f i libucrt:output.obj
 0001:0002ea59       ?state_count@?$standard_base@DV?$string_output_adapter@D@__crt_stdio_output@@@__crt_stdio_output@@KAIXZ 1002fa59 f i libucrt:output.obj
 0001:0002ea5d       ?state_count@?$standard_base@_WV?$stream_output_adapter@_W@__crt_stdio_output@@@__crt_stdio_output@@KAIXZ 1002fa5d f i libucrt:output.obj
 0001:0002ea61       ?state_count@?$standard_base@_WV?$string_output_adapter@_W@__crt_stdio_output@@@__crt_stdio_output@@KAIXZ 1002fa61 f i libucrt:output.obj
 0001:0002ea65       ?state_transition_table@?$format_validation_base@DV?$stream_output_adapter@D@__crt_stdio_output@@@__crt_stdio_output@@KAPBEXZ 1002fa65 f i libucrt:output.obj
 0001:0002ea6b       ?state_transition_table@?$format_validation_base@DV?$string_output_adapter@D@__crt_stdio_output@@@__crt_stdio_output@@KAPBEXZ 1002fa6b f i libucrt:output.obj
 0001:0002ea71       ?state_transition_table@?$format_validation_base@_WV?$stream_output_adapter@_W@__crt_stdio_output@@@__crt_stdio_output@@KAPBEXZ 1002fa71 f i libucrt:output.obj
 0001:0002ea77       ?state_transition_table@?$format_validation_base@_WV?$string_output_adapter@_W@__crt_stdio_output@@@__crt_stdio_output@@KAPBEXZ 1002fa77 f i libucrt:output.obj
 0001:0002ea7d       ?state_transition_table@?$standard_base@DV?$stream_output_adapter@D@__crt_stdio_output@@@__crt_stdio_output@@KAPBEXZ 1002fa7d f i libucrt:output.obj
 0001:0002ea83       ?state_transition_table@?$standard_base@DV?$string_output_adapter@D@__crt_stdio_output@@@__crt_stdio_output@@KAPBEXZ 1002fa83 f i libucrt:output.obj
 0001:0002ea89       ?state_transition_table@?$standard_base@_WV?$stream_output_adapter@_W@__crt_stdio_output@@@__crt_stdio_output@@KAPBEXZ 1002fa89 f i libucrt:output.obj
 0001:0002ea8f       ?state_transition_table@?$standard_base@_WV?$string_output_adapter@_W@__crt_stdio_output@@@__crt_stdio_output@@KAPBEXZ 1002fa8f f i libucrt:output.obj
 0001:0002ea95       ?to_integer_size@__crt_stdio_output@@YAIW4length_modifier@1@@Z 1002fa95 f i libucrt:output.obj
 0001:0002eb08       ?type_case_X@?$output_processor@DV?$stream_output_adapter@D@__crt_stdio_output@@V?$format_validation_base@DV?$stream_output_adapter@D@__crt_stdio_output@@@2@@__crt_stdio_output@@AAE_NXZ 1002fb08 f i libucrt:output.obj
 0001:0002eb14       ?type_case_X@?$output_processor@DV?$stream_output_adapter@D@__crt_stdio_output@@V?$positional_parameter_base@DV?$stream_output_adapter@D@__crt_stdio_output@@@2@@__crt_stdio_output@@AAE_NXZ 1002fb14 f i libucrt:output.obj
 0001:0002eb20       ?type_case_X@?$output_processor@DV?$stream_output_adapter@D@__crt_stdio_output@@V?$standard_base@DV?$stream_output_adapter@D@__crt_stdio_output@@@2@@__crt_stdio_output@@AAE_NXZ 1002fb20 f i libucrt:output.obj
 0001:0002eb2c       ?type_case_X@?$output_processor@DV?$string_output_adapter@D@__crt_stdio_output@@V?$format_validation_base@DV?$string_output_adapter@D@__crt_stdio_output@@@2@@__crt_stdio_output@@AAE_NXZ 1002fb2c f i libucrt:output.obj
 0001:0002eb38       ?type_case_X@?$output_processor@DV?$string_output_adapter@D@__crt_stdio_output@@V?$positional_parameter_base@DV?$string_output_adapter@D@__crt_stdio_output@@@2@@__crt_stdio_output@@AAE_NXZ 1002fb38 f i libucrt:output.obj
 0001:0002eb44       ?type_case_X@?$output_processor@DV?$string_output_adapter@D@__crt_stdio_output@@V?$standard_base@DV?$string_output_adapter@D@__crt_stdio_output@@@2@@__crt_stdio_output@@AAE_NXZ 1002fb44 f i libucrt:output.obj
 0001:0002eb50       ?type_case_X@?$output_processor@_WV?$stream_output_adapter@_W@__crt_stdio_output@@V?$format_validation_base@_WV?$stream_output_adapter@_W@__crt_stdio_output@@@2@@__crt_stdio_output@@AAE_NXZ 1002fb50 f i libucrt:output.obj
 0001:0002eb5c       ?type_case_X@?$output_processor@_WV?$stream_output_adapter@_W@__crt_stdio_output@@V?$positional_parameter_base@_WV?$stream_output_adapter@_W@__crt_stdio_output@@@2@@__crt_stdio_output@@AAE_NXZ 1002fb5c f i libucrt:output.obj
 0001:0002eb68       ?type_case_X@?$output_processor@_WV?$stream_output_adapter@_W@__crt_stdio_output@@V?$standard_base@_WV?$stream_output_adapter@_W@__crt_stdio_output@@@2@@__crt_stdio_output@@AAE_NXZ 1002fb68 f i libucrt:output.obj
 0001:0002eb74       ?type_case_X@?$output_processor@_WV?$string_output_adapter@_W@__crt_stdio_output@@V?$format_validation_base@_WV?$string_output_adapter@_W@__crt_stdio_output@@@2@@__crt_stdio_output@@AAE_NXZ 1002fb74 f i libucrt:output.obj
 0001:0002eb80       ?type_case_X@?$output_processor@_WV?$string_output_adapter@_W@__crt_stdio_output@@V?$positional_parameter_base@_WV?$string_output_adapter@_W@__crt_stdio_output@@@2@@__crt_stdio_output@@AAE_NXZ 1002fb80 f i libucrt:output.obj
 0001:0002eb8c       ?type_case_X@?$output_processor@_WV?$string_output_adapter@_W@__crt_stdio_output@@V?$standard_base@_WV?$string_output_adapter@_W@__crt_stdio_output@@@2@@__crt_stdio_output@@AAE_NXZ 1002fb8c f i libucrt:output.obj
 0001:0002eb98       ?type_case_Z@?$output_processor@DV?$stream_output_adapter@D@__crt_stdio_output@@V?$format_validation_base@DV?$stream_output_adapter@D@__crt_stdio_output@@@2@@__crt_stdio_output@@AAE_NXZ 1002fb98 f i libucrt:output.obj
 0001:0002ec13       ?type_case_Z@?$output_processor@DV?$stream_output_adapter@D@__crt_stdio_output@@V?$positional_parameter_base@DV?$stream_output_adapter@D@__crt_stdio_output@@@2@@__crt_stdio_output@@AAE_NXZ 1002fc13 f i libucrt:output.obj
 0001:0002ecb1       ?type_case_Z@?$output_processor@DV?$stream_output_adapter@D@__crt_stdio_output@@V?$standard_base@DV?$stream_output_adapter@D@__crt_stdio_output@@@2@@__crt_stdio_output@@AAE_NXZ 1002fcb1 f i libucrt:output.obj
 0001:0002ed2c       ?type_case_Z@?$output_processor@DV?$string_output_adapter@D@__crt_stdio_output@@V?$format_validation_base@DV?$string_output_adapter@D@__crt_stdio_output@@@2@@__crt_stdio_output@@AAE_NXZ 1002fd2c f i libucrt:output.obj
 0001:0002eda7       ?type_case_Z@?$output_processor@DV?$string_output_adapter@D@__crt_stdio_output@@V?$positional_parameter_base@DV?$string_output_adapter@D@__crt_stdio_output@@@2@@__crt_stdio_output@@AAE_NXZ 1002fda7 f i libucrt:output.obj
 0001:0002ee45       ?type_case_Z@?$output_processor@DV?$string_output_adapter@D@__crt_stdio_output@@V?$standard_base@DV?$string_output_adapter@D@__crt_stdio_output@@@2@@__crt_stdio_output@@AAE_NXZ 1002fe45 f i libucrt:output.obj
 0001:0002eec0       ?type_case_Z@?$output_processor@_WV?$stream_output_adapter@_W@__crt_stdio_output@@V?$format_validation_base@_WV?$stream_output_adapter@_W@__crt_stdio_output@@@2@@__crt_stdio_output@@AAE_NXZ 1002fec0 f i libucrt:output.obj
 0001:0002ef3b       ?type_case_Z@?$output_processor@_WV?$stream_output_adapter@_W@__crt_stdio_output@@V?$positional_parameter_base@_WV?$stream_output_adapter@_W@__crt_stdio_output@@@2@@__crt_stdio_output@@AAE_NXZ 1002ff3b f i libucrt:output.obj
 0001:0002efd9       ?type_case_Z@?$output_processor@_WV?$stream_output_adapter@_W@__crt_stdio_output@@V?$standard_base@_WV?$stream_output_adapter@_W@__crt_stdio_output@@@2@@__crt_stdio_output@@AAE_NXZ 1002ffd9 f i libucrt:output.obj
 0001:0002f054       ?type_case_Z@?$output_processor@_WV?$string_output_adapter@_W@__crt_stdio_output@@V?$format_validation_base@_WV?$string_output_adapter@_W@__crt_stdio_output@@@2@@__crt_stdio_output@@AAE_NXZ 10030054 f i libucrt:output.obj
 0001:0002f0cf       ?type_case_Z@?$output_processor@_WV?$string_output_adapter@_W@__crt_stdio_output@@V?$positional_parameter_base@_WV?$string_output_adapter@_W@__crt_stdio_output@@@2@@__crt_stdio_output@@AAE_NXZ 100300cf f i libucrt:output.obj
 0001:0002f16d       ?type_case_Z@?$output_processor@_WV?$string_output_adapter@_W@__crt_stdio_output@@V?$standard_base@_WV?$string_output_adapter@_W@__crt_stdio_output@@@2@@__crt_stdio_output@@AAE_NXZ 1003016d f i libucrt:output.obj
 0001:0002f1e8       ?type_case_a@?$output_processor@DV?$stream_output_adapter@D@__crt_stdio_output@@V?$format_validation_base@DV?$stream_output_adapter@D@__crt_stdio_output@@@2@@__crt_stdio_output@@AAE_NXZ 100301e8 f i libucrt:output.obj
 0001:0002f398       ?type_case_a@?$output_processor@DV?$stream_output_adapter@D@__crt_stdio_output@@V?$positional_parameter_base@DV?$stream_output_adapter@D@__crt_stdio_output@@@2@@__crt_stdio_output@@AAE_NXZ 10030398 f i libucrt:output.obj
 0001:0002f56f       ?type_case_a@?$output_processor@DV?$stream_output_adapter@D@__crt_stdio_output@@V?$standard_base@DV?$stream_output_adapter@D@__crt_stdio_output@@@2@@__crt_stdio_output@@AAE_NXZ 1003056f f i libucrt:output.obj
 0001:0002f71f       ?type_case_a@?$output_processor@DV?$string_output_adapter@D@__crt_stdio_output@@V?$format_validation_base@DV?$string_output_adapter@D@__crt_stdio_output@@@2@@__crt_stdio_output@@AAE_NXZ 1003071f f i libucrt:output.obj
 0001:0002f8cf       ?type_case_a@?$output_processor@DV?$string_output_adapter@D@__crt_stdio_output@@V?$positional_parameter_base@DV?$string_output_adapter@D@__crt_stdio_output@@@2@@__crt_stdio_output@@AAE_NXZ 100308cf f i libucrt:output.obj
 0001:0002faa6       ?type_case_a@?$output_processor@DV?$string_output_adapter@D@__crt_stdio_output@@V?$standard_base@DV?$string_output_adapter@D@__crt_stdio_output@@@2@@__crt_stdio_output@@AAE_NXZ 10030aa6 f i libucrt:output.obj
 0001:0002fc56       ?type_case_a@?$output_processor@_WV?$stream_output_adapter@_W@__crt_stdio_output@@V?$format_validation_base@_WV?$stream_output_adapter@_W@__crt_stdio_output@@@2@@__crt_stdio_output@@AAE_NXZ 10030c56 f i libucrt:output.obj
 0001:0002fe24       ?type_case_a@?$output_processor@_WV?$stream_output_adapter@_W@__crt_stdio_output@@V?$positional_parameter_base@_WV?$stream_output_adapter@_W@__crt_stdio_output@@@2@@__crt_stdio_output@@AAE_NXZ 10030e24 f i libucrt:output.obj
 0001:00030019       ?type_case_a@?$output_processor@_WV?$stream_output_adapter@_W@__crt_stdio_output@@V?$standard_base@_WV?$stream_output_adapter@_W@__crt_stdio_output@@@2@@__crt_stdio_output@@AAE_NXZ 10031019 f i libucrt:output.obj
 0001:000301e7       ?type_case_a@?$output_processor@_WV?$string_output_adapter@_W@__crt_stdio_output@@V?$format_validation_base@_WV?$string_output_adapter@_W@__crt_stdio_output@@@2@@__crt_stdio_output@@AAE_NXZ 100311e7 f i libucrt:output.obj
 0001:000303b5       ?type_case_a@?$output_processor@_WV?$string_output_adapter@_W@__crt_stdio_output@@V?$positional_parameter_base@_WV?$string_output_adapter@_W@__crt_stdio_output@@@2@@__crt_stdio_output@@AAE_NXZ 100313b5 f i libucrt:output.obj
 0001:000305aa       ?type_case_a@?$output_processor@_WV?$string_output_adapter@_W@__crt_stdio_output@@V?$standard_base@_WV?$string_output_adapter@_W@__crt_stdio_output@@@2@@__crt_stdio_output@@AAE_NXZ 100315aa f i libucrt:output.obj
 0001:00030778       ?type_case_c@?$output_processor@DV?$stream_output_adapter@D@__crt_stdio_output@@V?$format_validation_base@DV?$stream_output_adapter@D@__crt_stdio_output@@@2@@__crt_stdio_output@@AAE_NXZ 10031778 f i libucrt:output.obj
 0001:00030782       ?type_case_c@?$output_processor@DV?$stream_output_adapter@D@__crt_stdio_output@@V?$positional_parameter_base@DV?$stream_output_adapter@D@__crt_stdio_output@@@2@@__crt_stdio_output@@AAE_NXZ 10031782 f i libucrt:output.obj
 0001:0003078c       ?type_case_c@?$output_processor@DV?$stream_output_adapter@D@__crt_stdio_output@@V?$standard_base@DV?$stream_output_adapter@D@__crt_stdio_output@@@2@@__crt_stdio_output@@AAE_NXZ 1003178c f i libucrt:output.obj
 0001:00030796       ?type_case_c@?$output_processor@DV?$string_output_adapter@D@__crt_stdio_output@@V?$format_validation_base@DV?$string_output_adapter@D@__crt_stdio_output@@@2@@__crt_stdio_output@@AAE_NXZ 10031796 f i libucrt:output.obj
 0001:000307a0       ?type_case_c@?$output_processor@DV?$string_output_adapter@D@__crt_stdio_output@@V?$positional_parameter_base@DV?$string_output_adapter@D@__crt_stdio_output@@@2@@__crt_stdio_output@@AAE_NXZ 100317a0 f i libucrt:output.obj
 0001:000307aa       ?type_case_c@?$output_processor@DV?$string_output_adapter@D@__crt_stdio_output@@V?$standard_base@DV?$string_output_adapter@D@__crt_stdio_output@@@2@@__crt_stdio_output@@AAE_NXZ 100317aa f i libucrt:output.obj
 0001:000307b4       ?type_case_c@?$output_processor@_WV?$stream_output_adapter@_W@__crt_stdio_output@@V?$format_validation_base@_WV?$stream_output_adapter@_W@__crt_stdio_output@@@2@@__crt_stdio_output@@AAE_NXZ 100317b4 f i libucrt:output.obj
 0001:000307be       ?type_case_c@?$output_processor@_WV?$stream_output_adapter@_W@__crt_stdio_output@@V?$positional_parameter_base@_WV?$stream_output_adapter@_W@__crt_stdio_output@@@2@@__crt_stdio_output@@AAE_NXZ 100317be f i libucrt:output.obj
 0001:000307c8       ?type_case_c@?$output_processor@_WV?$stream_output_adapter@_W@__crt_stdio_output@@V?$standard_base@_WV?$stream_output_adapter@_W@__crt_stdio_output@@@2@@__crt_stdio_output@@AAE_NXZ 100317c8 f i libucrt:output.obj
 0001:000307d2       ?type_case_c@?$output_processor@_WV?$string_output_adapter@_W@__crt_stdio_output@@V?$format_validation_base@_WV?$string_output_adapter@_W@__crt_stdio_output@@@2@@__crt_stdio_output@@AAE_NXZ 100317d2 f i libucrt:output.obj
 0001:000307dc       ?type_case_c@?$output_processor@_WV?$string_output_adapter@_W@__crt_stdio_output@@V?$positional_parameter_base@_WV?$string_output_adapter@_W@__crt_stdio_output@@@2@@__crt_stdio_output@@AAE_NXZ 100317dc f i libucrt:output.obj
 0001:000307e6       ?type_case_c@?$output_processor@_WV?$string_output_adapter@_W@__crt_stdio_output@@V?$standard_base@_WV?$string_output_adapter@_W@__crt_stdio_output@@@2@@__crt_stdio_output@@AAE_NXZ 100317e6 f i libucrt:output.obj
 0001:000307f0       ?type_case_c_tchar@?$output_processor@DV?$stream_output_adapter@D@__crt_stdio_output@@V?$format_validation_base@DV?$stream_output_adapter@D@__crt_stdio_output@@@2@@__crt_stdio_output@@AAE_ND@Z 100317f0 f i libucrt:output.obj
 0001:000308a4       ?type_case_c_tchar@?$output_processor@DV?$stream_output_adapter@D@__crt_stdio_output@@V?$positional_parameter_base@DV?$stream_output_adapter@D@__crt_stdio_output@@@2@@__crt_stdio_output@@AAE_ND@Z 100318a4 f i libucrt:output.obj
 0001:00030994       ?type_case_c_tchar@?$output_processor@DV?$stream_output_adapter@D@__crt_stdio_output@@V?$standard_base@DV?$stream_output_adapter@D@__crt_stdio_output@@@2@@__crt_stdio_output@@AAE_ND@Z 10031994 f i libucrt:output.obj
 0001:00030a48       ?type_case_c_tchar@?$output_processor@DV?$string_output_adapter@D@__crt_stdio_output@@V?$format_validation_base@DV?$string_output_adapter@D@__crt_stdio_output@@@2@@__crt_stdio_output@@AAE_ND@Z 10031a48 f i libucrt:output.obj
 0001:00030afc       ?type_case_c_tchar@?$output_processor@DV?$string_output_adapter@D@__crt_stdio_output@@V?$positional_parameter_base@DV?$string_output_adapter@D@__crt_stdio_output@@@2@@__crt_stdio_output@@AAE_ND@Z 10031afc f i libucrt:output.obj
 0001:00030bec       ?type_case_c_tchar@?$output_processor@DV?$string_output_adapter@D@__crt_stdio_output@@V?$standard_base@DV?$string_output_adapter@D@__crt_stdio_output@@@2@@__crt_stdio_output@@AAE_ND@Z 10031bec f i libucrt:output.obj
 0001:00030ca0       ?type_case_c_tchar@?$output_processor@_WV?$stream_output_adapter@_W@__crt_stdio_output@@V?$format_validation_base@_WV?$stream_output_adapter@_W@__crt_stdio_output@@@2@@__crt_stdio_output@@AAE_N_W@Z 10031ca0 f i libucrt:output.obj
 0001:00030d5e       ?type_case_c_tchar@?$output_processor@_WV?$stream_output_adapter@_W@__crt_stdio_output@@V?$positional_parameter_base@_WV?$stream_output_adapter@_W@__crt_stdio_output@@@2@@__crt_stdio_output@@AAE_N_W@Z 10031d5e f i libucrt:output.obj
 0001:00030e38       ?type_case_c_tchar@?$output_processor@_WV?$stream_output_adapter@_W@__crt_stdio_output@@V?$standard_base@_WV?$stream_output_adapter@_W@__crt_stdio_output@@@2@@__crt_stdio_output@@AAE_N_W@Z 10031e38 f i libucrt:output.obj
 0001:00030ef6       ?type_case_c_tchar@?$output_processor@_WV?$string_output_adapter@_W@__crt_stdio_output@@V?$format_validation_base@_WV?$string_output_adapter@_W@__crt_stdio_output@@@2@@__crt_stdio_output@@AAE_N_W@Z 10031ef6 f i libucrt:output.obj
 0001:00030fb4       ?type_case_c_tchar@?$output_processor@_WV?$string_output_adapter@_W@__crt_stdio_output@@V?$positional_parameter_base@_WV?$string_output_adapter@_W@__crt_stdio_output@@@2@@__crt_stdio_output@@AAE_N_W@Z 10031fb4 f i libucrt:output.obj
 0001:0003108e       ?type_case_c_tchar@?$output_processor@_WV?$string_output_adapter@_W@__crt_stdio_output@@V?$standard_base@_WV?$string_output_adapter@_W@__crt_stdio_output@@@2@@__crt_stdio_output@@AAE_N_W@Z 1003208e f i libucrt:output.obj
 0001:0003114c       ?type_case_d@?$output_processor@DV?$stream_output_adapter@D@__crt_stdio_output@@V?$format_validation_base@DV?$stream_output_adapter@D@__crt_stdio_output@@@2@@__crt_stdio_output@@AAE_NXZ 1003214c f i libucrt:output.obj
 0001:0003115d       ?type_case_d@?$output_processor@DV?$stream_output_adapter@D@__crt_stdio_output@@V?$positional_parameter_base@DV?$stream_output_adapter@D@__crt_stdio_output@@@2@@__crt_stdio_output@@AAE_NXZ 1003215d f i libucrt:output.obj
 0001:0003116e       ?type_case_d@?$output_processor@DV?$stream_output_adapter@D@__crt_stdio_output@@V?$standard_base@DV?$stream_output_adapter@D@__crt_stdio_output@@@2@@__crt_stdio_output@@AAE_NXZ 1003216e f i libucrt:output.obj
 0001:0003117f       ?type_case_d@?$output_processor@DV?$string_output_adapter@D@__crt_stdio_output@@V?$format_validation_base@DV?$string_output_adapter@D@__crt_stdio_output@@@2@@__crt_stdio_output@@AAE_NXZ 1003217f f i libucrt:output.obj
 0001:00031190       ?type_case_d@?$output_processor@DV?$string_output_adapter@D@__crt_stdio_output@@V?$positional_parameter_base@DV?$string_output_adapter@D@__crt_stdio_output@@@2@@__crt_stdio_output@@AAE_NXZ 10032190 f i libucrt:output.obj
 0001:000311a1       ?type_case_d@?$output_processor@DV?$string_output_adapter@D@__crt_stdio_output@@V?$standard_base@DV?$string_output_adapter@D@__crt_stdio_output@@@2@@__crt_stdio_output@@AAE_NXZ 100321a1 f i libucrt:output.obj
 0001:000311b2       ?type_case_d@?$output_processor@_WV?$stream_output_adapter@_W@__crt_stdio_output@@V?$format_validation_base@_WV?$stream_output_adapter@_W@__crt_stdio_output@@@2@@__crt_stdio_output@@AAE_NXZ 100321b2 f i libucrt:output.obj
 0001:000311c3       ?type_case_d@?$output_processor@_WV?$stream_output_adapter@_W@__crt_stdio_output@@V?$positional_parameter_base@_WV?$stream_output_adapter@_W@__crt_stdio_output@@@2@@__crt_stdio_output@@AAE_NXZ 100321c3 f i libucrt:output.obj
 0001:000311d4       ?type_case_d@?$output_processor@_WV?$stream_output_adapter@_W@__crt_stdio_output@@V?$standard_base@_WV?$stream_output_adapter@_W@__crt_stdio_output@@@2@@__crt_stdio_output@@AAE_NXZ 100321d4 f i libucrt:output.obj
 0001:000311e5       ?type_case_d@?$output_processor@_WV?$string_output_adapter@_W@__crt_stdio_output@@V?$format_validation_base@_WV?$string_output_adapter@_W@__crt_stdio_output@@@2@@__crt_stdio_output@@AAE_NXZ 100321e5 f i libucrt:output.obj
 0001:000311f6       ?type_case_d@?$output_processor@_WV?$string_output_adapter@_W@__crt_stdio_output@@V?$positional_parameter_base@_WV?$string_output_adapter@_W@__crt_stdio_output@@@2@@__crt_stdio_output@@AAE_NXZ 100321f6 f i libucrt:output.obj
 0001:00031207       ?type_case_d@?$output_processor@_WV?$string_output_adapter@_W@__crt_stdio_output@@V?$standard_base@_WV?$string_output_adapter@_W@__crt_stdio_output@@@2@@__crt_stdio_output@@AAE_NXZ 10032207 f i libucrt:output.obj
 0001:00031218       ?type_case_integer@?$output_processor@DV?$stream_output_adapter@D@__crt_stdio_output@@V?$format_validation_base@DV?$stream_output_adapter@D@__crt_stdio_output@@@2@@__crt_stdio_output@@AAE_NI_N@Z 10032218 f i libucrt:output.obj
 0001:000313b4       ?type_case_integer@?$output_processor@DV?$stream_output_adapter@D@__crt_stdio_output@@V?$positional_parameter_base@DV?$stream_output_adapter@D@__crt_stdio_output@@@2@@__crt_stdio_output@@AAE_NI_N@Z 100323b4 f i libucrt:output.obj
 0001:00031591       ?type_case_integer@?$output_processor@DV?$stream_output_adapter@D@__crt_stdio_output@@V?$standard_base@DV?$stream_output_adapter@D@__crt_stdio_output@@@2@@__crt_stdio_output@@AAE_NI_N@Z 10032591 f i libucrt:output.obj
 0001:0003172d       ?type_case_integer@?$output_processor@DV?$string_output_adapter@D@__crt_stdio_output@@V?$format_validation_base@DV?$string_output_adapter@D@__crt_stdio_output@@@2@@__crt_stdio_output@@AAE_NI_N@Z 1003272d f i libucrt:output.obj
 0001:000318c9       ?type_case_integer@?$output_processor@DV?$string_output_adapter@D@__crt_stdio_output@@V?$positional_parameter_base@DV?$string_output_adapter@D@__crt_stdio_output@@@2@@__crt_stdio_output@@AAE_NI_N@Z 100328c9 f i libucrt:output.obj
 0001:00031aa6       ?type_case_integer@?$output_processor@DV?$string_output_adapter@D@__crt_stdio_output@@V?$standard_base@DV?$string_output_adapter@D@__crt_stdio_output@@@2@@__crt_stdio_output@@AAE_NI_N@Z 10032aa6 f i libucrt:output.obj
 0001:00031c42       ?type_case_integer@?$output_processor@_WV?$stream_output_adapter@_W@__crt_stdio_output@@V?$format_validation_base@_WV?$stream_output_adapter@_W@__crt_stdio_output@@@2@@__crt_stdio_output@@AAE_NI_N@Z 10032c42 f i libucrt:output.obj
 0001:00031dde       ?type_case_integer@?$output_processor@_WV?$stream_output_adapter@_W@__crt_stdio_output@@V?$positional_parameter_base@_WV?$stream_output_adapter@_W@__crt_stdio_output@@@2@@__crt_stdio_output@@AAE_NI_N@Z 10032dde f i libucrt:output.obj
 0001:00031fbb       ?type_case_integer@?$output_processor@_WV?$stream_output_adapter@_W@__crt_stdio_output@@V?$standard_base@_WV?$stream_output_adapter@_W@__crt_stdio_output@@@2@@__crt_stdio_output@@AAE_NI_N@Z 10032fbb f i libucrt:output.obj
 0001:00032157       ?type_case_integer@?$output_processor@_WV?$string_output_adapter@_W@__crt_stdio_output@@V?$format_validation_base@_WV?$string_output_adapter@_W@__crt_stdio_output@@@2@@__crt_stdio_output@@AAE_NI_N@Z 10033157 f i libucrt:output.obj
 0001:000322f3       ?type_case_integer@?$output_processor@_WV?$string_output_adapter@_W@__crt_stdio_output@@V?$positional_parameter_base@_WV?$string_output_adapter@_W@__crt_stdio_output@@@2@@__crt_stdio_output@@AAE_NI_N@Z 100332f3 f i libucrt:output.obj
 0001:000324d0       ?type_case_integer@?$output_processor@_WV?$string_output_adapter@_W@__crt_stdio_output@@V?$standard_base@_WV?$string_output_adapter@_W@__crt_stdio_output@@@2@@__crt_stdio_output@@AAE_NI_N@Z 100334d0 f i libucrt:output.obj
 0001:0003266c       ?type_case_n@?$output_processor@DV?$stream_output_adapter@D@__crt_stdio_output@@V?$format_validation_base@DV?$stream_output_adapter@D@__crt_stdio_output@@@2@@__crt_stdio_output@@AAE_NXZ 1003366c f i libucrt:output.obj
 0001:000326fd       ?type_case_n@?$output_processor@DV?$stream_output_adapter@D@__crt_stdio_output@@V?$positional_parameter_base@DV?$stream_output_adapter@D@__crt_stdio_output@@@2@@__crt_stdio_output@@AAE_NXZ 100336fd f i libucrt:output.obj
 0001:000327bc       ?type_case_n@?$output_processor@DV?$stream_output_adapter@D@__crt_stdio_output@@V?$standard_base@DV?$stream_output_adapter@D@__crt_stdio_output@@@2@@__crt_stdio_output@@AAE_NXZ 100337bc f i libucrt:output.obj
 0001:0003284d       ?type_case_n@?$output_processor@DV?$string_output_adapter@D@__crt_stdio_output@@V?$format_validation_base@DV?$string_output_adapter@D@__crt_stdio_output@@@2@@__crt_stdio_output@@AAE_NXZ 1003384d f i libucrt:output.obj
 0001:000328de       ?type_case_n@?$output_processor@DV?$string_output_adapter@D@__crt_stdio_output@@V?$positional_parameter_base@DV?$string_output_adapter@D@__crt_stdio_output@@@2@@__crt_stdio_output@@AAE_NXZ 100338de f i libucrt:output.obj
 0001:0003299d       ?type_case_n@?$output_processor@DV?$string_output_adapter@D@__crt_stdio_output@@V?$standard_base@DV?$string_output_adapter@D@__crt_stdio_output@@@2@@__crt_stdio_output@@AAE_NXZ 1003399d f i libucrt:output.obj
 0001:00032a2e       ?type_case_n@?$output_processor@_WV?$stream_output_adapter@_W@__crt_stdio_output@@V?$format_validation_base@_WV?$stream_output_adapter@_W@__crt_stdio_output@@@2@@__crt_stdio_output@@AAE_NXZ 10033a2e f i libucrt:output.obj
 0001:00032abf       ?type_case_n@?$output_processor@_WV?$stream_output_adapter@_W@__crt_stdio_output@@V?$positional_parameter_base@_WV?$stream_output_adapter@_W@__crt_stdio_output@@@2@@__crt_stdio_output@@AAE_NXZ 10033abf f i libucrt:output.obj
 0001:00032b7e       ?type_case_n@?$output_processor@_WV?$stream_output_adapter@_W@__crt_stdio_output@@V?$standard_base@_WV?$stream_output_adapter@_W@__crt_stdio_output@@@2@@__crt_stdio_output@@AAE_NXZ 10033b7e f i libucrt:output.obj
 0001:00032c0f       ?type_case_n@?$output_processor@_WV?$string_output_adapter@_W@__crt_stdio_output@@V?$format_validation_base@_WV?$string_output_adapter@_W@__crt_stdio_output@@@2@@__crt_stdio_output@@AAE_NXZ 10033c0f f i libucrt:output.obj
 0001:00032ca0       ?type_case_n@?$output_processor@_WV?$string_output_adapter@_W@__crt_stdio_output@@V?$positional_parameter_base@_WV?$string_output_adapter@_W@__crt_stdio_output@@@2@@__crt_stdio_output@@AAE_NXZ 10033ca0 f i libucrt:output.obj
 0001:00032d5f       ?type_case_n@?$output_processor@_WV?$string_output_adapter@_W@__crt_stdio_output@@V?$standard_base@_WV?$string_output_adapter@_W@__crt_stdio_output@@@2@@__crt_stdio_output@@AAE_NXZ 10033d5f f i libucrt:output.obj
 0001:00032df0       ?type_case_o@?$output_processor@DV?$stream_output_adapter@D@__crt_stdio_output@@V?$format_validation_base@DV?$stream_output_adapter@D@__crt_stdio_output@@@2@@__crt_stdio_output@@AAE_NXZ 10033df0 f i libucrt:output.obj
 0001:00032e16       ?type_case_o@?$output_processor@DV?$stream_output_adapter@D@__crt_stdio_output@@V?$positional_parameter_base@DV?$stream_output_adapter@D@__crt_stdio_output@@@2@@__crt_stdio_output@@AAE_NXZ 10033e16 f i libucrt:output.obj
 0001:00032e3c       ?type_case_o@?$output_processor@DV?$stream_output_adapter@D@__crt_stdio_output@@V?$standard_base@DV?$stream_output_adapter@D@__crt_stdio_output@@@2@@__crt_stdio_output@@AAE_NXZ 10033e3c f i libucrt:output.obj
 0001:00032e62       ?type_case_o@?$output_processor@DV?$string_output_adapter@D@__crt_stdio_output@@V?$format_validation_base@DV?$string_output_adapter@D@__crt_stdio_output@@@2@@__crt_stdio_output@@AAE_NXZ 10033e62 f i libucrt:output.obj
 0001:00032e88       ?type_case_o@?$output_processor@DV?$string_output_adapter@D@__crt_stdio_output@@V?$positional_parameter_base@DV?$string_output_adapter@D@__crt_stdio_output@@@2@@__crt_stdio_output@@AAE_NXZ 10033e88 f i libucrt:output.obj
 0001:00032eae       ?type_case_o@?$output_processor@DV?$string_output_adapter@D@__crt_stdio_output@@V?$standard_base@DV?$string_output_adapter@D@__crt_stdio_output@@@2@@__crt_stdio_output@@AAE_NXZ 10033eae f i libucrt:output.obj
 0001:00032ed4       ?type_case_o@?$output_processor@_WV?$stream_output_adapter@_W@__crt_stdio_output@@V?$format_validation_base@_WV?$stream_output_adapter@_W@__crt_stdio_output@@@2@@__crt_stdio_output@@AAE_NXZ 10033ed4 f i libucrt:output.obj
 0001:00032efa       ?type_case_o@?$output_processor@_WV?$stream_output_adapter@_W@__crt_stdio_output@@V?$positional_parameter_base@_WV?$stream_output_adapter@_W@__crt_stdio_output@@@2@@__crt_stdio_output@@AAE_NXZ 10033efa f i libucrt:output.obj
 0001:00032f20       ?type_case_o@?$output_processor@_WV?$stream_output_adapter@_W@__crt_stdio_output@@V?$standard_base@_WV?$stream_output_adapter@_W@__crt_stdio_output@@@2@@__crt_stdio_output@@AAE_NXZ 10033f20 f i libucrt:output.obj
 0001:00032f46       ?type_case_o@?$output_processor@_WV?$string_output_adapter@_W@__crt_stdio_output@@V?$format_validation_base@_WV?$string_output_adapter@_W@__crt_stdio_output@@@2@@__crt_stdio_output@@AAE_NXZ 10033f46 f i libucrt:output.obj
 0001:00032f6c       ?type_case_o@?$output_processor@_WV?$string_output_adapter@_W@__crt_stdio_output@@V?$positional_parameter_base@_WV?$string_output_adapter@_W@__crt_stdio_output@@@2@@__crt_stdio_output@@AAE_NXZ 10033f6c f i libucrt:output.obj
 0001:00032f92       ?type_case_o@?$output_processor@_WV?$string_output_adapter@_W@__crt_stdio_output@@V?$standard_base@_WV?$string_output_adapter@_W@__crt_stdio_output@@@2@@__crt_stdio_output@@AAE_NXZ 10033f92 f i libucrt:output.obj
 0001:00032fb8       ?type_case_p@?$output_processor@DV?$stream_output_adapter@D@__crt_stdio_output@@V?$format_validation_base@DV?$stream_output_adapter@D@__crt_stdio_output@@@2@@__crt_stdio_output@@AAE_NXZ 10033fb8 f i libucrt:output.obj
 0001:00032fd6       ?type_case_p@?$output_processor@DV?$stream_output_adapter@D@__crt_stdio_output@@V?$positional_parameter_base@DV?$stream_output_adapter@D@__crt_stdio_output@@@2@@__crt_stdio_output@@AAE_NXZ 10033fd6 f i libucrt:output.obj
 0001:00032ff4       ?type_case_p@?$output_processor@DV?$stream_output_adapter@D@__crt_stdio_output@@V?$standard_base@DV?$stream_output_adapter@D@__crt_stdio_output@@@2@@__crt_stdio_output@@AAE_NXZ 10033ff4 f i libucrt:output.obj
 0001:00033012       ?type_case_p@?$output_processor@DV?$string_output_adapter@D@__crt_stdio_output@@V?$format_validation_base@DV?$string_output_adapter@D@__crt_stdio_output@@@2@@__crt_stdio_output@@AAE_NXZ 10034012 f i libucrt:output.obj
 0001:00033030       ?type_case_p@?$output_processor@DV?$string_output_adapter@D@__crt_stdio_output@@V?$positional_parameter_base@DV?$string_output_adapter@D@__crt_stdio_output@@@2@@__crt_stdio_output@@AAE_NXZ 10034030 f i libucrt:output.obj
 0001:0003304e       ?type_case_p@?$output_processor@DV?$string_output_adapter@D@__crt_stdio_output@@V?$standard_base@DV?$string_output_adapter@D@__crt_stdio_output@@@2@@__crt_stdio_output@@AAE_NXZ 1003404e f i libucrt:output.obj
 0001:0003306c       ?type_case_p@?$output_processor@_WV?$stream_output_adapter@_W@__crt_stdio_output@@V?$format_validation_base@_WV?$stream_output_adapter@_W@__crt_stdio_output@@@2@@__crt_stdio_output@@AAE_NXZ 1003406c f i libucrt:output.obj
 0001:0003308a       ?type_case_p@?$output_processor@_WV?$stream_output_adapter@_W@__crt_stdio_output@@V?$positional_parameter_base@_WV?$stream_output_adapter@_W@__crt_stdio_output@@@2@@__crt_stdio_output@@AAE_NXZ 1003408a f i libucrt:output.obj
 0001:000330a8       ?type_case_p@?$output_processor@_WV?$stream_output_adapter@_W@__crt_stdio_output@@V?$standard_base@_WV?$stream_output_adapter@_W@__crt_stdio_output@@@2@@__crt_stdio_output@@AAE_NXZ 100340a8 f i libucrt:output.obj
 0001:000330c6       ?type_case_p@?$output_processor@_WV?$string_output_adapter@_W@__crt_stdio_output@@V?$format_validation_base@_WV?$string_output_adapter@_W@__crt_stdio_output@@@2@@__crt_stdio_output@@AAE_NXZ 100340c6 f i libucrt:output.obj
 0001:000330e4       ?type_case_p@?$output_processor@_WV?$string_output_adapter@_W@__crt_stdio_output@@V?$positional_parameter_base@_WV?$string_output_adapter@_W@__crt_stdio_output@@@2@@__crt_stdio_output@@AAE_NXZ 100340e4 f i libucrt:output.obj
 0001:00033102       ?type_case_p@?$output_processor@_WV?$string_output_adapter@_W@__crt_stdio_output@@V?$standard_base@_WV?$string_output_adapter@_W@__crt_stdio_output@@@2@@__crt_stdio_output@@AAE_NXZ 10034102 f i libucrt:output.obj
 0001:00033120       ?type_case_s@?$output_processor@DV?$stream_output_adapter@D@__crt_stdio_output@@V?$format_validation_base@DV?$stream_output_adapter@D@__crt_stdio_output@@@2@@__crt_stdio_output@@AAE_NXZ 10034120 f i libucrt:output.obj
 0001:000331af       ?type_case_s@?$output_processor@DV?$stream_output_adapter@D@__crt_stdio_output@@V?$positional_parameter_base@DV?$stream_output_adapter@D@__crt_stdio_output@@@2@@__crt_stdio_output@@AAE_NXZ 100341af f i libucrt:output.obj
 0001:0003324a       ?type_case_s@?$output_processor@DV?$stream_output_adapter@D@__crt_stdio_output@@V?$standard_base@DV?$stream_output_adapter@D@__crt_stdio_output@@@2@@__crt_stdio_output@@AAE_NXZ 1003424a f i libucrt:output.obj
 0001:000332d9       ?type_case_s@?$output_processor@DV?$string_output_adapter@D@__crt_stdio_output@@V?$format_validation_base@DV?$string_output_adapter@D@__crt_stdio_output@@@2@@__crt_stdio_output@@AAE_NXZ 100342d9 f i libucrt:output.obj
 0001:00033368       ?type_case_s@?$output_processor@DV?$string_output_adapter@D@__crt_stdio_output@@V?$positional_parameter_base@DV?$string_output_adapter@D@__crt_stdio_output@@@2@@__crt_stdio_output@@AAE_NXZ 10034368 f i libucrt:output.obj
 0001:00033403       ?type_case_s@?$output_processor@DV?$string_output_adapter@D@__crt_stdio_output@@V?$standard_base@DV?$string_output_adapter@D@__crt_stdio_output@@@2@@__crt_stdio_output@@AAE_NXZ 10034403 f i libucrt:output.obj
 0001:00033492       ?type_case_s@?$output_processor@_WV?$stream_output_adapter@_W@__crt_stdio_output@@V?$format_validation_base@_WV?$stream_output_adapter@_W@__crt_stdio_output@@@2@@__crt_stdio_output@@AAE_NXZ 10034492 f i libucrt:output.obj
 0001:00033523       ?type_case_s@?$output_processor@_WV?$stream_output_adapter@_W@__crt_stdio_output@@V?$positional_parameter_base@_WV?$stream_output_adapter@_W@__crt_stdio_output@@@2@@__crt_stdio_output@@AAE_NXZ 10034523 f i libucrt:output.obj
 0001:000335c0       ?type_case_s@?$output_processor@_WV?$stream_output_adapter@_W@__crt_stdio_output@@V?$standard_base@_WV?$stream_output_adapter@_W@__crt_stdio_output@@@2@@__crt_stdio_output@@AAE_NXZ 100345c0 f i libucrt:output.obj
 0001:00033651       ?type_case_s@?$output_processor@_WV?$string_output_adapter@_W@__crt_stdio_output@@V?$format_validation_base@_WV?$string_output_adapter@_W@__crt_stdio_output@@@2@@__crt_stdio_output@@AAE_NXZ 10034651 f i libucrt:output.obj
 0001:000336e2       ?type_case_s@?$output_processor@_WV?$string_output_adapter@_W@__crt_stdio_output@@V?$positional_parameter_base@_WV?$string_output_adapter@_W@__crt_stdio_output@@@2@@__crt_stdio_output@@AAE_NXZ 100346e2 f i libucrt:output.obj
 0001:0003377f       ?type_case_s@?$output_processor@_WV?$string_output_adapter@_W@__crt_stdio_output@@V?$standard_base@_WV?$string_output_adapter@_W@__crt_stdio_output@@@2@@__crt_stdio_output@@AAE_NXZ 1003477f f i libucrt:output.obj
 0001:00033810       ?type_case_s_compute_narrow_string_length@?$output_processor@DV?$stream_output_adapter@D@__crt_stdio_output@@V?$format_validation_base@DV?$stream_output_adapter@D@__crt_stdio_output@@@2@@__crt_stdio_output@@ABEHHD@Z 10034810 f i libucrt:output.obj
 0001:0003382b       ?type_case_s_compute_narrow_string_length@?$output_processor@DV?$stream_output_adapter@D@__crt_stdio_output@@V?$positional_parameter_base@DV?$stream_output_adapter@D@__crt_stdio_output@@@2@@__crt_stdio_output@@ABEHHD@Z 1003482b f i libucrt:output.obj
 0001:00033846       ?type_case_s_compute_narrow_string_length@?$output_processor@DV?$stream_output_adapter@D@__crt_stdio_output@@V?$standard_base@DV?$stream_output_adapter@D@__crt_stdio_output@@@2@@__crt_stdio_output@@ABEHHD@Z 10034846 f i libucrt:output.obj
 0001:00033861       ?type_case_s_compute_narrow_string_length@?$output_processor@DV?$string_output_adapter@D@__crt_stdio_output@@V?$format_validation_base@DV?$string_output_adapter@D@__crt_stdio_output@@@2@@__crt_stdio_output@@ABEHHD@Z 10034861 f i libucrt:output.obj
 0001:0003387c       ?type_case_s_compute_narrow_string_length@?$output_processor@DV?$string_output_adapter@D@__crt_stdio_output@@V?$positional_parameter_base@DV?$string_output_adapter@D@__crt_stdio_output@@@2@@__crt_stdio_output@@ABEHHD@Z 1003487c f i libucrt:output.obj
 0001:00033897       ?type_case_s_compute_narrow_string_length@?$output_processor@DV?$string_output_adapter@D@__crt_stdio_output@@V?$standard_base@DV?$string_output_adapter@D@__crt_stdio_output@@@2@@__crt_stdio_output@@ABEHHD@Z 10034897 f i libucrt:output.obj
 0001:000338b2       ?type_case_s_compute_narrow_string_length@?$output_processor@_WV?$stream_output_adapter@_W@__crt_stdio_output@@V?$format_validation_base@_WV?$stream_output_adapter@_W@__crt_stdio_output@@@2@@__crt_stdio_output@@ABEHH_W@Z 100348b2 f i libucrt:output.obj
 0001:00033902       ?type_case_s_compute_narrow_string_length@?$output_processor@_WV?$stream_output_adapter@_W@__crt_stdio_output@@V?$positional_parameter_base@_WV?$stream_output_adapter@_W@__crt_stdio_output@@@2@@__crt_stdio_output@@ABEHH_W@Z 10034902 f i libucrt:output.obj
 0001:00033952       ?type_case_s_compute_narrow_string_length@?$output_processor@_WV?$stream_output_adapter@_W@__crt_stdio_output@@V?$standard_base@_WV?$stream_output_adapter@_W@__crt_stdio_output@@@2@@__crt_stdio_output@@ABEHH_W@Z 10034952 f i libucrt:output.obj
 0001:000339a2       ?type_case_s_compute_narrow_string_length@?$output_processor@_WV?$string_output_adapter@_W@__crt_stdio_output@@V?$format_validation_base@_WV?$string_output_adapter@_W@__crt_stdio_output@@@2@@__crt_stdio_output@@ABEHH_W@Z 100349a2 f i libucrt:output.obj
 0001:000339f2       ?type_case_s_compute_narrow_string_length@?$output_processor@_WV?$string_output_adapter@_W@__crt_stdio_output@@V?$positional_parameter_base@_WV?$string_output_adapter@_W@__crt_stdio_output@@@2@@__crt_stdio_output@@ABEHH_W@Z 100349f2 f i libucrt:output.obj
 0001:00033a42       ?type_case_s_compute_narrow_string_length@?$output_processor@_WV?$string_output_adapter@_W@__crt_stdio_output@@V?$standard_base@_WV?$string_output_adapter@_W@__crt_stdio_output@@@2@@__crt_stdio_output@@ABEHH_W@Z 10034a42 f i libucrt:output.obj
 0001:00033a92       ?type_case_u@?$output_processor@DV?$stream_output_adapter@D@__crt_stdio_output@@V?$format_validation_base@DV?$stream_output_adapter@D@__crt_stdio_output@@@2@@__crt_stdio_output@@AAE_NXZ 10034a92 f i libucrt:output.obj
 0001:00033a9e       ?type_case_u@?$output_processor@DV?$stream_output_adapter@D@__crt_stdio_output@@V?$positional_parameter_base@DV?$stream_output_adapter@D@__crt_stdio_output@@@2@@__crt_stdio_output@@AAE_NXZ 10034a9e f i libucrt:output.obj
 0001:00033aaa       ?type_case_u@?$output_processor@DV?$stream_output_adapter@D@__crt_stdio_output@@V?$standard_base@DV?$stream_output_adapter@D@__crt_stdio_output@@@2@@__crt_stdio_output@@AAE_NXZ 10034aaa f i libucrt:output.obj
 0001:00033ab6       ?type_case_u@?$output_processor@DV?$string_output_adapter@D@__crt_stdio_output@@V?$format_validation_base@DV?$string_output_adapter@D@__crt_stdio_output@@@2@@__crt_stdio_output@@AAE_NXZ 10034ab6 f i libucrt:output.obj
 0001:00033ac2       ?type_case_u@?$output_processor@DV?$string_output_adapter@D@__crt_stdio_output@@V?$positional_parameter_base@DV?$string_output_adapter@D@__crt_stdio_output@@@2@@__crt_stdio_output@@AAE_NXZ 10034ac2 f i libucrt:output.obj
 0001:00033ace       ?type_case_u@?$output_processor@DV?$string_output_adapter@D@__crt_stdio_output@@V?$standard_base@DV?$string_output_adapter@D@__crt_stdio_output@@@2@@__crt_stdio_output@@AAE_NXZ 10034ace f i libucrt:output.obj
 0001:00033ada       ?type_case_u@?$output_processor@_WV?$stream_output_adapter@_W@__crt_stdio_output@@V?$format_validation_base@_WV?$stream_output_adapter@_W@__crt_stdio_output@@@2@@__crt_stdio_output@@AAE_NXZ 10034ada f i libucrt:output.obj
 0001:00033ae6       ?type_case_u@?$output_processor@_WV?$stream_output_adapter@_W@__crt_stdio_output@@V?$positional_parameter_base@_WV?$stream_output_adapter@_W@__crt_stdio_output@@@2@@__crt_stdio_output@@AAE_NXZ 10034ae6 f i libucrt:output.obj
 0001:00033af2       ?type_case_u@?$output_processor@_WV?$stream_output_adapter@_W@__crt_stdio_output@@V?$standard_base@_WV?$stream_output_adapter@_W@__crt_stdio_output@@@2@@__crt_stdio_output@@AAE_NXZ 10034af2 f i libucrt:output.obj
 0001:00033afe       ?type_case_u@?$output_processor@_WV?$string_output_adapter@_W@__crt_stdio_output@@V?$format_validation_base@_WV?$string_output_adapter@_W@__crt_stdio_output@@@2@@__crt_stdio_output@@AAE_NXZ 10034afe f i libucrt:output.obj
 0001:00033b0a       ?type_case_u@?$output_processor@_WV?$string_output_adapter@_W@__crt_stdio_output@@V?$positional_parameter_base@_WV?$string_output_adapter@_W@__crt_stdio_output@@@2@@__crt_stdio_output@@AAE_NXZ 10034b0a f i libucrt:output.obj
 0001:00033b16       ?type_case_u@?$output_processor@_WV?$string_output_adapter@_W@__crt_stdio_output@@V?$standard_base@_WV?$string_output_adapter@_W@__crt_stdio_output@@@2@@__crt_stdio_output@@AAE_NXZ 10034b16 f i libucrt:output.obj
 0001:00033b22       ?type_case_x@?$output_processor@DV?$stream_output_adapter@D@__crt_stdio_output@@V?$format_validation_base@DV?$stream_output_adapter@D@__crt_stdio_output@@@2@@__crt_stdio_output@@AAE_NXZ 10034b22 f i libucrt:output.obj
 0001:00033b2e       ?type_case_x@?$output_processor@DV?$stream_output_adapter@D@__crt_stdio_output@@V?$positional_parameter_base@DV?$stream_output_adapter@D@__crt_stdio_output@@@2@@__crt_stdio_output@@AAE_NXZ 10034b2e f i libucrt:output.obj
 0001:00033b3a       ?type_case_x@?$output_processor@DV?$stream_output_adapter@D@__crt_stdio_output@@V?$standard_base@DV?$stream_output_adapter@D@__crt_stdio_output@@@2@@__crt_stdio_output@@AAE_NXZ 10034b3a f i libucrt:output.obj
 0001:00033b46       ?type_case_x@?$output_processor@DV?$string_output_adapter@D@__crt_stdio_output@@V?$format_validation_base@DV?$string_output_adapter@D@__crt_stdio_output@@@2@@__crt_stdio_output@@AAE_NXZ 10034b46 f i libucrt:output.obj
 0001:00033b52       ?type_case_x@?$output_processor@DV?$string_output_adapter@D@__crt_stdio_output@@V?$positional_parameter_base@DV?$string_output_adapter@D@__crt_stdio_output@@@2@@__crt_stdio_output@@AAE_NXZ 10034b52 f i libucrt:output.obj
 0001:00033b5e       ?type_case_x@?$output_processor@DV?$string_output_adapter@D@__crt_stdio_output@@V?$standard_base@DV?$string_output_adapter@D@__crt_stdio_output@@@2@@__crt_stdio_output@@AAE_NXZ 10034b5e f i libucrt:output.obj
 0001:00033b6a       ?type_case_x@?$output_processor@_WV?$stream_output_adapter@_W@__crt_stdio_output@@V?$format_validation_base@_WV?$stream_output_adapter@_W@__crt_stdio_output@@@2@@__crt_stdio_output@@AAE_NXZ 10034b6a f i libucrt:output.obj
 0001:00033b76       ?type_case_x@?$output_processor@_WV?$stream_output_adapter@_W@__crt_stdio_output@@V?$positional_parameter_base@_WV?$stream_output_adapter@_W@__crt_stdio_output@@@2@@__crt_stdio_output@@AAE_NXZ 10034b76 f i libucrt:output.obj
 0001:00033b82       ?type_case_x@?$output_processor@_WV?$stream_output_adapter@_W@__crt_stdio_output@@V?$standard_base@_WV?$stream_output_adapter@_W@__crt_stdio_output@@@2@@__crt_stdio_output@@AAE_NXZ 10034b82 f i libucrt:output.obj
 0001:00033b8e       ?type_case_x@?$output_processor@_WV?$string_output_adapter@_W@__crt_stdio_output@@V?$format_validation_base@_WV?$string_output_adapter@_W@__crt_stdio_output@@@2@@__crt_stdio_output@@AAE_NXZ 10034b8e f i libucrt:output.obj
 0001:00033b9a       ?type_case_x@?$output_processor@_WV?$string_output_adapter@_W@__crt_stdio_output@@V?$positional_parameter_base@_WV?$string_output_adapter@_W@__crt_stdio_output@@@2@@__crt_stdio_output@@AAE_NXZ 10034b9a f i libucrt:output.obj
 0001:00033ba6       ?type_case_x@?$output_processor@_WV?$string_output_adapter@_W@__crt_stdio_output@@V?$standard_base@_WV?$string_output_adapter@_W@__crt_stdio_output@@@2@@__crt_stdio_output@@AAE_NXZ 10034ba6 f i libucrt:output.obj
 0001:00033bb2       ?unset_flag@?$output_processor@DV?$stream_output_adapter@D@__crt_stdio_output@@V?$format_validation_base@DV?$stream_output_adapter@D@__crt_stdio_output@@@2@@__crt_stdio_output@@AAEXI@Z 10034bb2 f i libucrt:output.obj
 0001:00033bc7       ?unset_flag@?$output_processor@DV?$stream_output_adapter@D@__crt_stdio_output@@V?$positional_parameter_base@DV?$stream_output_adapter@D@__crt_stdio_output@@@2@@__crt_stdio_output@@AAEXI@Z 10034bc7 f i libucrt:output.obj
 0001:00033bdc       ?unset_flag@?$output_processor@DV?$stream_output_adapter@D@__crt_stdio_output@@V?$standard_base@DV?$stream_output_adapter@D@__crt_stdio_output@@@2@@__crt_stdio_output@@AAEXI@Z 10034bdc f i libucrt:output.obj
 0001:00033bf1       ?unset_flag@?$output_processor@DV?$string_output_adapter@D@__crt_stdio_output@@V?$format_validation_base@DV?$string_output_adapter@D@__crt_stdio_output@@@2@@__crt_stdio_output@@AAEXI@Z 10034bf1 f i libucrt:output.obj
 0001:00033c06       ?unset_flag@?$output_processor@DV?$string_output_adapter@D@__crt_stdio_output@@V?$positional_parameter_base@DV?$string_output_adapter@D@__crt_stdio_output@@@2@@__crt_stdio_output@@AAEXI@Z 10034c06 f i libucrt:output.obj
 0001:00033c1b       ?unset_flag@?$output_processor@DV?$string_output_adapter@D@__crt_stdio_output@@V?$standard_base@DV?$string_output_adapter@D@__crt_stdio_output@@@2@@__crt_stdio_output@@AAEXI@Z 10034c1b f i libucrt:output.obj
 0001:00033c30       ?unset_flag@?$output_processor@_WV?$stream_output_adapter@_W@__crt_stdio_output@@V?$format_validation_base@_WV?$stream_output_adapter@_W@__crt_stdio_output@@@2@@__crt_stdio_output@@AAEXI@Z 10034c30 f i libucrt:output.obj
 0001:00033c45       ?unset_flag@?$output_processor@_WV?$stream_output_adapter@_W@__crt_stdio_output@@V?$positional_parameter_base@_WV?$stream_output_adapter@_W@__crt_stdio_output@@@2@@__crt_stdio_output@@AAEXI@Z 10034c45 f i libucrt:output.obj
 0001:00033c5a       ?unset_flag@?$output_processor@_WV?$stream_output_adapter@_W@__crt_stdio_output@@V?$standard_base@_WV?$stream_output_adapter@_W@__crt_stdio_output@@@2@@__crt_stdio_output@@AAEXI@Z 10034c5a f i libucrt:output.obj
 0001:00033c6f       ?unset_flag@?$output_processor@_WV?$string_output_adapter@_W@__crt_stdio_output@@V?$format_validation_base@_WV?$string_output_adapter@_W@__crt_stdio_output@@@2@@__crt_stdio_output@@AAEXI@Z 10034c6f f i libucrt:output.obj
 0001:00033c84       ?unset_flag@?$output_processor@_WV?$string_output_adapter@_W@__crt_stdio_output@@V?$positional_parameter_base@_WV?$string_output_adapter@_W@__crt_stdio_output@@@2@@__crt_stdio_output@@AAEXI@Z 10034c84 f i libucrt:output.obj
 0001:00033c99       ?unset_flag@?$output_processor@_WV?$string_output_adapter@_W@__crt_stdio_output@@V?$standard_base@_WV?$string_output_adapter@_W@__crt_stdio_output@@@2@@__crt_stdio_output@@AAEXI@Z 10034c99 f i libucrt:output.obj
 0001:00033cae       ?update_field_width@?$positional_parameter_base@DV?$stream_output_adapter@D@__crt_stdio_output@@@__crt_stdio_output@@IAE_NXZ 10034cae f i libucrt:output.obj
 0001:00033d91       ?update_field_width@?$positional_parameter_base@DV?$string_output_adapter@D@__crt_stdio_output@@@__crt_stdio_output@@IAE_NXZ 10034d91 f i libucrt:output.obj
 0001:00033e74       ?update_field_width@?$positional_parameter_base@_WV?$stream_output_adapter@_W@__crt_stdio_output@@@__crt_stdio_output@@IAE_NXZ 10034e74 f i libucrt:output.obj
 0001:00033f58       ?update_field_width@?$positional_parameter_base@_WV?$string_output_adapter@_W@__crt_stdio_output@@@__crt_stdio_output@@IAE_NXZ 10034f58 f i libucrt:output.obj
 0001:0003403c       ?update_field_width@?$standard_base@DV?$stream_output_adapter@D@__crt_stdio_output@@@__crt_stdio_output@@IAE_NXZ 1003503c f i libucrt:output.obj
 0001:00034050       ?update_field_width@?$standard_base@DV?$string_output_adapter@D@__crt_stdio_output@@@__crt_stdio_output@@IAE_NXZ 10035050 f i libucrt:output.obj
 0001:00034064       ?update_field_width@?$standard_base@_WV?$stream_output_adapter@_W@__crt_stdio_output@@@__crt_stdio_output@@IAE_NXZ 10035064 f i libucrt:output.obj
 0001:00034078       ?update_field_width@?$standard_base@_WV?$string_output_adapter@_W@__crt_stdio_output@@@__crt_stdio_output@@IAE_NXZ 10035078 f i libucrt:output.obj
 0001:0003408c       ?update_precision@?$positional_parameter_base@DV?$stream_output_adapter@D@__crt_stdio_output@@@__crt_stdio_output@@IAE_NXZ 1003508c f i libucrt:output.obj
 0001:0003416f       ?update_precision@?$positional_parameter_base@DV?$string_output_adapter@D@__crt_stdio_output@@@__crt_stdio_output@@IAE_NXZ 1003516f f i libucrt:output.obj
 0001:00034252       ?update_precision@?$positional_parameter_base@_WV?$stream_output_adapter@_W@__crt_stdio_output@@@__crt_stdio_output@@IAE_NXZ 10035252 f i libucrt:output.obj
 0001:00034336       ?update_precision@?$positional_parameter_base@_WV?$string_output_adapter@_W@__crt_stdio_output@@@__crt_stdio_output@@IAE_NXZ 10035336 f i libucrt:output.obj
 0001:0003441a       ?update_precision@?$standard_base@DV?$stream_output_adapter@D@__crt_stdio_output@@@__crt_stdio_output@@IAE_NXZ 1003541a f i libucrt:output.obj
 0001:0003442e       ?update_precision@?$standard_base@DV?$string_output_adapter@D@__crt_stdio_output@@@__crt_stdio_output@@IAE_NXZ 1003542e f i libucrt:output.obj
 0001:00034442       ?update_precision@?$standard_base@_WV?$stream_output_adapter@_W@__crt_stdio_output@@@__crt_stdio_output@@IAE_NXZ 10035442 f i libucrt:output.obj
 0001:00034456       ?update_precision@?$standard_base@_WV?$string_output_adapter@_W@__crt_stdio_output@@@__crt_stdio_output@@IAE_NXZ 10035456 f i libucrt:output.obj
 0001:0003446a       ?valid@__crt_stdio_stream@@QBE_NXZ 1003546a f i libucrt:output.obj
 0001:00034474       ?validate@?$stream_output_adapter@D@__crt_stdio_output@@QBE_NXZ 10035474 f i libucrt:output.obj
 0001:0003449d       ?validate@?$stream_output_adapter@_W@__crt_stdio_output@@QBE_NXZ 1003549d f i libucrt:output.obj
 0001:000344be       ?validate@?$string_output_adapter@D@__crt_stdio_output@@QBE_NXZ 100354be f i libucrt:output.obj
 0001:000344df       ?validate@?$string_output_adapter@_W@__crt_stdio_output@@QBE_NXZ 100354df f i libucrt:output.obj
 0001:00034500       ?validate_and_store_parameter_data@?$positional_parameter_base@DV?$stream_output_adapter@D@__crt_stdio_output@@@__crt_stdio_output@@AAE_NAAUparameter_data@12@W4parameter_type@12@DW4length_modifier@2@@Z 10035500 f i libucrt:output.obj
 0001:0003455d       ?validate_and_store_parameter_data@?$positional_parameter_base@DV?$string_output_adapter@D@__crt_stdio_output@@@__crt_stdio_output@@AAE_NAAUparameter_data@12@W4parameter_type@12@DW4length_modifier@2@@Z 1003555d f i libucrt:output.obj
 0001:000345ba       ?validate_and_store_parameter_data@?$positional_parameter_base@_WV?$stream_output_adapter@_W@__crt_stdio_output@@@__crt_stdio_output@@AAE_NAAUparameter_data@12@W4parameter_type@12@_WW4length_modifier@2@@Z 100355ba f i libucrt:output.obj
 0001:0003461a       ?validate_and_store_parameter_data@?$positional_parameter_base@_WV?$string_output_adapter@_W@__crt_stdio_output@@@__crt_stdio_output@@AAE_NAAUparameter_data@12@W4parameter_type@12@_WW4length_modifier@2@@Z 1003561a f i libucrt:output.obj
 0001:0003467a       ?validate_and_update_state_at_beginning_of_format_character@?$positional_parameter_base@DV?$stream_output_adapter@D@__crt_stdio_output@@@__crt_stdio_output@@IAE_NXZ 1003567a f i libucrt:output.obj
 0001:000347b0       ?validate_and_update_state_at_beginning_of_format_character@?$positional_parameter_base@DV?$string_output_adapter@D@__crt_stdio_output@@@__crt_stdio_output@@IAE_NXZ 100357b0 f i libucrt:output.obj
 0001:000348e6       ?validate_and_update_state_at_beginning_of_format_character@?$positional_parameter_base@_WV?$stream_output_adapter@_W@__crt_stdio_output@@@__crt_stdio_output@@IAE_NXZ 100358e6 f i libucrt:output.obj
 0001:00034a28       ?validate_and_update_state_at_beginning_of_format_character@?$positional_parameter_base@_WV?$string_output_adapter@_W@__crt_stdio_output@@@__crt_stdio_output@@IAE_NXZ 10035a28 f i libucrt:output.obj
 0001:00034b6a       ?validate_and_update_state_at_beginning_of_format_character@?$standard_base@DV?$stream_output_adapter@D@__crt_stdio_output@@@__crt_stdio_output@@IAE_NXZ 10035b6a f i libucrt:output.obj
 0001:00034b6d       ?validate_and_update_state_at_beginning_of_format_character@?$standard_base@DV?$string_output_adapter@D@__crt_stdio_output@@@__crt_stdio_output@@IAE_NXZ 10035b6d f i libucrt:output.obj
 0001:00034b70       ?validate_and_update_state_at_beginning_of_format_character@?$standard_base@_WV?$stream_output_adapter@_W@__crt_stdio_output@@@__crt_stdio_output@@IAE_NXZ 10035b70 f i libucrt:output.obj
 0001:00034b73       ?validate_and_update_state_at_beginning_of_format_character@?$standard_base@_WV?$string_output_adapter@_W@__crt_stdio_output@@@__crt_stdio_output@@IAE_NXZ 10035b73 f i libucrt:output.obj
 0001:00034b76       ?validate_and_update_state_at_end_of_format_string@?$format_validation_base@DV?$stream_output_adapter@D@__crt_stdio_output@@@__crt_stdio_output@@IBE_NXZ 10035b76 f i libucrt:output.obj
 0001:00034ba0       ?validate_and_update_state_at_end_of_format_string@?$format_validation_base@DV?$string_output_adapter@D@__crt_stdio_output@@@__crt_stdio_output@@IBE_NXZ 10035ba0 f i libucrt:output.obj
 0001:00034bca       ?validate_and_update_state_at_end_of_format_string@?$format_validation_base@_WV?$stream_output_adapter@_W@__crt_stdio_output@@@__crt_stdio_output@@IBE_NXZ 10035bca f i libucrt:output.obj
 0001:00034bf4       ?validate_and_update_state_at_end_of_format_string@?$format_validation_base@_WV?$string_output_adapter@_W@__crt_stdio_output@@@__crt_stdio_output@@IBE_NXZ 10035bf4 f i libucrt:output.obj
 0001:00034c1e       ?validate_and_update_state_at_end_of_format_string@?$positional_parameter_base@DV?$stream_output_adapter@D@__crt_stdio_output@@@__crt_stdio_output@@IAE_NXZ 10035c1e f i libucrt:output.obj
 0001:00034cbe       ?validate_and_update_state_at_end_of_format_string@?$positional_parameter_base@DV?$string_output_adapter@D@__crt_stdio_output@@@__crt_stdio_output@@IAE_NXZ 10035cbe f i libucrt:output.obj
 0001:00034d5e       ?validate_and_update_state_at_end_of_format_string@?$positional_parameter_base@_WV?$stream_output_adapter@_W@__crt_stdio_output@@@__crt_stdio_output@@IAE_NXZ 10035d5e f i libucrt:output.obj
 0001:00034dfe       ?validate_and_update_state_at_end_of_format_string@?$positional_parameter_base@_WV?$string_output_adapter@_W@__crt_stdio_output@@@__crt_stdio_output@@IAE_NXZ 10035dfe f i libucrt:output.obj
 0001:00034e9e       ?validate_and_update_state_at_end_of_format_string@?$standard_base@DV?$stream_output_adapter@D@__crt_stdio_output@@@__crt_stdio_output@@IBE_NXZ 10035e9e f i libucrt:output.obj
 0001:00034ea1       ?validate_and_update_state_at_end_of_format_string@?$standard_base@DV?$string_output_adapter@D@__crt_stdio_output@@@__crt_stdio_output@@IBE_NXZ 10035ea1 f i libucrt:output.obj
 0001:00034ea4       ?validate_and_update_state_at_end_of_format_string@?$standard_base@_WV?$stream_output_adapter@_W@__crt_stdio_output@@@__crt_stdio_output@@IBE_NXZ 10035ea4 f i libucrt:output.obj
 0001:00034ea7       ?validate_and_update_state_at_end_of_format_string@?$standard_base@_WV?$string_output_adapter@_W@__crt_stdio_output@@@__crt_stdio_output@@IBE_NXZ 10035ea7 f i libucrt:output.obj
 0001:00034eaa       ?validate_state_for_type_case_a@?$positional_parameter_base@DV?$stream_output_adapter@D@__crt_stdio_output@@@__crt_stdio_output@@IAE_NXZ 10035eaa f i libucrt:output.obj
 0001:00034f11       ?validate_state_for_type_case_a@?$positional_parameter_base@DV?$string_output_adapter@D@__crt_stdio_output@@@__crt_stdio_output@@IAE_NXZ 10035f11 f i libucrt:output.obj
 0001:00034f78       ?validate_state_for_type_case_a@?$positional_parameter_base@_WV?$stream_output_adapter@_W@__crt_stdio_output@@@__crt_stdio_output@@IAE_NXZ 10035f78 f i libucrt:output.obj
 0001:00034fdf       ?validate_state_for_type_case_a@?$positional_parameter_base@_WV?$string_output_adapter@_W@__crt_stdio_output@@@__crt_stdio_output@@IAE_NXZ 10035fdf f i libucrt:output.obj
 0001:00035046       ?validate_state_for_type_case_a@?$standard_base@DV?$stream_output_adapter@D@__crt_stdio_output@@@__crt_stdio_output@@IBE_NXZ 10036046 f i libucrt:output.obj
 0001:00035049       ?validate_state_for_type_case_a@?$standard_base@DV?$string_output_adapter@D@__crt_stdio_output@@@__crt_stdio_output@@IBE_NXZ 10036049 f i libucrt:output.obj
 0001:0003504c       ?validate_state_for_type_case_a@?$standard_base@_WV?$stream_output_adapter@_W@__crt_stdio_output@@@__crt_stdio_output@@IBE_NXZ 1003604c f i libucrt:output.obj
 0001:0003504f       ?validate_state_for_type_case_a@?$standard_base@_WV?$string_output_adapter@_W@__crt_stdio_output@@@__crt_stdio_output@@IBE_NXZ 1003604f f i libucrt:output.obj
 0001:00035052       ?validate_stream_is_ansi_if_required@?$__acrt_stdio_char_traits@D@@SA_NQAU_iobuf@@@Z 10036052 f i libucrt:output.obj
 0001:000350f4       ?validate_stream_is_ansi_if_required@?$__acrt_stdio_char_traits@_W@@SA_NQAU_iobuf@@@Z 100360f4 f i libucrt:output.obj
 0001:000350f7       ?wide_null_string@?$output_processor@DV?$stream_output_adapter@D@__crt_stdio_output@@V?$format_validation_base@DV?$stream_output_adapter@D@__crt_stdio_output@@@2@@__crt_stdio_output@@CAPA_WXZ 100360f7 f i libucrt:output.obj
 0001:000350fd       ?wide_null_string@?$output_processor@DV?$stream_output_adapter@D@__crt_stdio_output@@V?$positional_parameter_base@DV?$stream_output_adapter@D@__crt_stdio_output@@@2@@__crt_stdio_output@@CAPA_WXZ 100360fd f i libucrt:output.obj
 0001:00035103       ?wide_null_string@?$output_processor@DV?$stream_output_adapter@D@__crt_stdio_output@@V?$standard_base@DV?$stream_output_adapter@D@__crt_stdio_output@@@2@@__crt_stdio_output@@CAPA_WXZ 10036103 f i libucrt:output.obj
 0001:00035109       ?wide_null_string@?$output_processor@DV?$string_output_adapter@D@__crt_stdio_output@@V?$format_validation_base@DV?$string_output_adapter@D@__crt_stdio_output@@@2@@__crt_stdio_output@@CAPA_WXZ 10036109 f i libucrt:output.obj
 0001:0003510f       ?wide_null_string@?$output_processor@DV?$string_output_adapter@D@__crt_stdio_output@@V?$positional_parameter_base@DV?$string_output_adapter@D@__crt_stdio_output@@@2@@__crt_stdio_output@@CAPA_WXZ 1003610f f i libucrt:output.obj
 0001:00035115       ?wide_null_string@?$output_processor@DV?$string_output_adapter@D@__crt_stdio_output@@V?$standard_base@DV?$string_output_adapter@D@__crt_stdio_output@@@2@@__crt_stdio_output@@CAPA_WXZ 10036115 f i libucrt:output.obj
 0001:0003511b       ?wide_null_string@?$output_processor@_WV?$stream_output_adapter@_W@__crt_stdio_output@@V?$format_validation_base@_WV?$stream_output_adapter@_W@__crt_stdio_output@@@2@@__crt_stdio_output@@CAPA_WXZ 1003611b f i libucrt:output.obj
 0001:00035121       ?wide_null_string@?$output_processor@_WV?$stream_output_adapter@_W@__crt_stdio_output@@V?$positional_parameter_base@_WV?$stream_output_adapter@_W@__crt_stdio_output@@@2@@__crt_stdio_output@@CAPA_WXZ 10036121 f i libucrt:output.obj
 0001:00035127       ?wide_null_string@?$output_processor@_WV?$stream_output_adapter@_W@__crt_stdio_output@@V?$standard_base@_WV?$stream_output_adapter@_W@__crt_stdio_output@@@2@@__crt_stdio_output@@CAPA_WXZ 10036127 f i libucrt:output.obj
 0001:0003512d       ?wide_null_string@?$output_processor@_WV?$string_output_adapter@_W@__crt_stdio_output@@V?$format_validation_base@_WV?$string_output_adapter@_W@__crt_stdio_output@@@2@@__crt_stdio_output@@CAPA_WXZ 1003612d f i libucrt:output.obj
 0001:00035133       ?wide_null_string@?$output_processor@_WV?$string_output_adapter@_W@__crt_stdio_output@@V?$positional_parameter_base@_WV?$string_output_adapter@_W@__crt_stdio_output@@@2@@__crt_stdio_output@@CAPA_WXZ 10036133 f i libucrt:output.obj
 0001:00035139       ?wide_null_string@?$output_processor@_WV?$string_output_adapter@_W@__crt_stdio_output@@V?$standard_base@_WV?$string_output_adapter@_W@__crt_stdio_output@@@2@@__crt_stdio_output@@CAPA_WXZ 10036139 f i libucrt:output.obj
 0001:0003513f       ?write_character@?$stream_output_adapter@D@__crt_stdio_output@@QBEXDQAH@Z 1003613f f i libucrt:output.obj
 0001:0003518b       ?write_character@?$stream_output_adapter@_W@__crt_stdio_output@@QBEX_WQAH@Z 1003618b f i libucrt:output.obj
 0001:000351db       ?write_character@?$string_output_adapter@D@__crt_stdio_output@@QBE_NDQAH@Z 100361db f i libucrt:output.obj
 0001:0003522d       ?write_character@?$string_output_adapter@_W@__crt_stdio_output@@QBE_N_WQAH@Z 1003622d f i libucrt:output.obj
 0001:00035283       ?write_stored_string_tchar@?$output_processor@DV?$stream_output_adapter@D@__crt_stdio_output@@V?$format_validation_base@DV?$stream_output_adapter@D@__crt_stdio_output@@@2@@__crt_stdio_output@@AAE_ND@Z 10036283 f i libucrt:output.obj
 0001:00035353       ?write_stored_string_tchar@?$output_processor@DV?$stream_output_adapter@D@__crt_stdio_output@@V?$positional_parameter_base@DV?$stream_output_adapter@D@__crt_stdio_output@@@2@@__crt_stdio_output@@AAE_ND@Z 10036353 f i libucrt:output.obj
 0001:00035423       ?write_stored_string_tchar@?$output_processor@DV?$stream_output_adapter@D@__crt_stdio_output@@V?$standard_base@DV?$stream_output_adapter@D@__crt_stdio_output@@@2@@__crt_stdio_output@@AAE_ND@Z 10036423 f i libucrt:output.obj
 0001:000354f3       ?write_stored_string_tchar@?$output_processor@DV?$string_output_adapter@D@__crt_stdio_output@@V?$format_validation_base@DV?$string_output_adapter@D@__crt_stdio_output@@@2@@__crt_stdio_output@@AAE_ND@Z 100364f3 f i libucrt:output.obj
 0001:000355c3       ?write_stored_string_tchar@?$output_processor@DV?$string_output_adapter@D@__crt_stdio_output@@V?$positional_parameter_base@DV?$string_output_adapter@D@__crt_stdio_output@@@2@@__crt_stdio_output@@AAE_ND@Z 100365c3 f i libucrt:output.obj
 0001:00035693       ?write_stored_string_tchar@?$output_processor@DV?$string_output_adapter@D@__crt_stdio_output@@V?$standard_base@DV?$string_output_adapter@D@__crt_stdio_output@@@2@@__crt_stdio_output@@AAE_ND@Z 10036693 f i libucrt:output.obj
 0001:00035763       ?write_stored_string_tchar@?$output_processor@_WV?$stream_output_adapter@_W@__crt_stdio_output@@V?$format_validation_base@_WV?$stream_output_adapter@_W@__crt_stdio_output@@@2@@__crt_stdio_output@@AAE_N_W@Z 10036763 f i libucrt:output.obj
 0001:00035810       ?write_stored_string_tchar@?$output_processor@_WV?$stream_output_adapter@_W@__crt_stdio_output@@V?$positional_parameter_base@_WV?$stream_output_adapter@_W@__crt_stdio_output@@@2@@__crt_stdio_output@@AAE_N_W@Z 10036810 f i libucrt:output.obj
 0001:000358bd       ?write_stored_string_tchar@?$output_processor@_WV?$stream_output_adapter@_W@__crt_stdio_output@@V?$standard_base@_WV?$stream_output_adapter@_W@__crt_stdio_output@@@2@@__crt_stdio_output@@AAE_N_W@Z 100368bd f i libucrt:output.obj
 0001:0003596a       ?write_stored_string_tchar@?$output_processor@_WV?$string_output_adapter@_W@__crt_stdio_output@@V?$format_validation_base@_WV?$string_output_adapter@_W@__crt_stdio_output@@@2@@__crt_stdio_output@@AAE_N_W@Z 1003696a f i libucrt:output.obj
 0001:00035a17       ?write_stored_string_tchar@?$output_processor@_WV?$string_output_adapter@_W@__crt_stdio_output@@V?$positional_parameter_base@_WV?$string_output_adapter@_W@__crt_stdio_output@@@2@@__crt_stdio_output@@AAE_N_W@Z 10036a17 f i libucrt:output.obj
 0001:00035ac4       ?write_stored_string_tchar@?$output_processor@_WV?$string_output_adapter@_W@__crt_stdio_output@@V?$standard_base@_WV?$string_output_adapter@_W@__crt_stdio_output@@@2@@__crt_stdio_output@@AAE_N_W@Z 10036ac4 f i libucrt:output.obj
 0001:00035b71       ?write_string@?$stream_output_adapter@D@__crt_stdio_output@@QBEXQBDHQAH1@Z 10036b71 f i libucrt:output.obj
 0001:00035c1d       ?write_string@?$stream_output_adapter@_W@__crt_stdio_output@@QBEXQB_WHQAH1@Z 10036c1d f i libucrt:output.obj
 0001:00035ccd       ?write_string@?$string_output_adapter@D@__crt_stdio_output@@QBEXQBDHQAH1@Z 10036ccd f i libucrt:output.obj
 0001:00035d84       ?write_string@?$string_output_adapter@_W@__crt_stdio_output@@QBEXQB_WHQAH1@Z 10036d84 f i libucrt:output.obj
 0001:00035e44       ___acrt_isleadbyte_l_noupdate 10036e44 f i libucrt:output.obj
 0001:00035e65       ___acrt_locale_changed     10036e65 f i libucrt:output.obj
 0001:00035e76       ___stdio_common_vfprintf   10036e76 f   libucrt:output.obj
 0001:00035f0a       ___stdio_common_vfprintf_p 10036f0a f   libucrt:output.obj
 0001:00035f9e       ___stdio_common_vfprintf_s 10036f9e f   libucrt:output.obj
 0001:00036032       ___stdio_common_vfwprintf  10037032 f   libucrt:output.obj
 0001:000360c6       ___stdio_common_vfwprintf_p 100370c6 f   libucrt:output.obj
 0001:0003615a       ___stdio_common_vfwprintf_s 1003715a f   libucrt:output.obj
 0001:000361ee       ___stdio_common_vsnprintf_s 100371ee f   libucrt:output.obj
 0001:0003621e       ___stdio_common_vsnwprintf_s 1003721e f   libucrt:output.obj
 0001:0003624e       ___stdio_common_vsprintf   1003724e f   libucrt:output.obj
 0001:0003627b       ___stdio_common_vsprintf_p 1003727b f   libucrt:output.obj
 0001:000362a8       ___stdio_common_vsprintf_s 100372a8 f   libucrt:output.obj
 0001:000362d5       ___stdio_common_vswprintf  100372d5 f   libucrt:output.obj
 0001:00036302       ___stdio_common_vswprintf_p 10037302 f   libucrt:output.obj
 0001:0003632f       ___stdio_common_vswprintf_s 1003732f f   libucrt:output.obj
 0001:0003635c       _calloc                    1003735c f   libucrt:calloc.obj
 0001:00036369       _free                      10037369 f   libucrt:free.obj
 0001:0003636e       ??$__vcrt_va_start_verify_argument_type@QB_W@@YAXXZ 1003736e f i libucrt:assert.obj
 0001:0003730b       ??$ftprintf@PAU_iobuf@@PBDABQBDABQBDABI@?$__crt_char_traits@D@@SAH$$QAPAU_iobuf@@$$QAPBDABQBD2ABI@Z 1003830b f i libucrt:assert.obj
 0001:0003733d       ??$ftprintf@PAU_iobuf@@PB_WABQB_WABQB_WABI@?$__crt_char_traits@_W@@SAH$$QAPAU_iobuf@@$$QAPB_WABQB_W2ABI@Z 1003833d f i libucrt:assert.obj
 0001:0003736f       ??$get_module_file_name@AAPAUHINSTANCE__@@AAY0BAF@DK@?$__crt_char_traits@D@@SAKAAPAUHINSTANCE__@@AAY0BAF@D$$QAK@Z 1003836f f i libucrt:assert.obj
 0001:0003738f       ??$get_module_file_name@AAPAUHINSTANCE__@@AAY0BAF@_WK@?$__crt_char_traits@_W@@SAKAAPAUHINSTANCE__@@AAY0BAF@_W$$QAK@Z 1003838f f i libucrt:assert.obj
 0001:000373af       ??$itot_s@ABIQAD$$CBIH@?$__crt_char_traits@D@@SAHABI$$QBQAD$$QBI$$QAH@Z 100383af f i libucrt:assert.obj
 0001:000373da       ??$itot_s@ABIQA_W$$CBIH@?$__crt_char_traits@_W@@SAHABI$$QBQA_W$$QBI$$QAH@Z 100383da f i libucrt:assert.obj
 0001:00037405       ??$show_message_box@AAY0CEA@DPBDJ@?$__crt_char_traits@D@@SAHAAY0CEA@D$$QAPBD$$QAJ@Z 10038405 f i libucrt:assert.obj
 0001:00037428       ??$show_message_box@AAY0CEA@_WPB_WJ@?$__crt_char_traits@_W@@SAHAAY0CEA@_W$$QAPB_W$$QAJ@Z 10038428 f i libucrt:assert.obj
 0001:0003744b       ??$tcscat_s@ABQADABIAAPAD@?$__crt_char_traits@D@@SAHABQADABIAAPAD@Z 1003844b f i libucrt:assert.obj
 0001:00037470       ??$tcscat_s@ABQADABIABQBD@?$__crt_char_traits@D@@SAHABQADABIABQBD@Z 10038470 f i libucrt:assert.obj
 0001:00037495       ??$tcscat_s@ABQADABIPBD@?$__crt_char_traits@D@@SAHABQADABI$$QAPBD@Z 10038495 f i libucrt:assert.obj
 0001:000374ba       ??$tcscat_s@ABQA_WABIAAPA_W@?$__crt_char_traits@_W@@SAHABQA_WABIAAPA_W@Z 100384ba f i libucrt:assert.obj
 0001:000374df       ??$tcscat_s@ABQA_WABIABQB_W@?$__crt_char_traits@_W@@SAHABQA_WABIABQB_W@Z 100384df f i libucrt:assert.obj
 0001:00037504       ??$tcscat_s@ABQA_WABIPB_W@?$__crt_char_traits@_W@@SAHABQA_WABI$$QAPB_W@Z 10038504 f i libucrt:assert.obj
 0001:00037529       ??$tcscpy_s@AAY0BAF@DIPBD@?$__crt_char_traits@D@@SAHAAY0BAF@D$$QAI$$QAPBD@Z 10038529 f i libucrt:assert.obj
 0001:0003754c       ??$tcscpy_s@AAY0BAF@_WIPB_W@?$__crt_char_traits@_W@@SAHAAY0BAF@_W$$QAI$$QAPB_W@Z 1003854c f i libucrt:assert.obj
 0001:0003756f       ??$tcscpy_s@ABQADABIPBD@?$__crt_char_traits@D@@SAHABQADABI$$QAPBD@Z 1003856f f i libucrt:assert.obj
 0001:00037594       ??$tcscpy_s@ABQA_WABIPB_W@?$__crt_char_traits@_W@@SAHABQA_WABI$$QAPB_W@Z 10038594 f i libucrt:assert.obj
 0001:000375b9       ??$tcslen@AAY0BAF@D@?$__crt_char_traits@D@@SAIAAY0BAF@D@Z 100385b9 f i libucrt:assert.obj
 0001:000375d4       ??$tcslen@AAY0BAF@_W@?$__crt_char_traits@_W@@SAIAAY0BAF@_W@Z 100385d4 f i libucrt:assert.obj
 0001:000375f7       ??$tcslen@ABQAD@?$__crt_char_traits@D@@SAIABQAD@Z 100385f7 f i libucrt:assert.obj
 0001:00037615       ??$tcslen@ABQA_W@?$__crt_char_traits@_W@@SAIABQA_W@Z 10038615 f i libucrt:assert.obj
 0001:0003763a       ??$tcslen@ABQBD@?$__crt_char_traits@D@@SAIABQBD@Z 1003863a f i libucrt:assert.obj
 0001:00037658       ??$tcslen@ABQB_W@?$__crt_char_traits@_W@@SAIABQB_W@Z 10038658 f i libucrt:assert.obj
 0001:0003767d       ??$tcsncat_s@ABQADABIAAPBD$$CBI@?$__crt_char_traits@D@@SAHABQADABIAAPBD$$QBI@Z 1003867d f i libucrt:assert.obj
 0001:000376a8       ??$tcsncat_s@ABQADABIABQBDABI@?$__crt_char_traits@D@@SAHABQADABIABQBD1@Z 100386a8 f i libucrt:assert.obj
 0001:000376d3       ??$tcsncat_s@ABQADABIPBD$$CBI@?$__crt_char_traits@D@@SAHABQADABI$$QAPBD$$QBI@Z 100386d3 f i libucrt:assert.obj
 0001:000376fe       ??$tcsncat_s@ABQA_WABIAAPB_W$$CBI@?$__crt_char_traits@_W@@SAHABQA_WABIAAPB_W$$QBI@Z 100386fe f i libucrt:assert.obj
 0001:00037729       ??$tcsncat_s@ABQA_WABIABQB_WABI@?$__crt_char_traits@_W@@SAHABQA_WABIABQB_W1@Z 10038729 f i libucrt:assert.obj
 0001:00037754       ??$tcsncat_s@ABQA_WABIPB_W$$CBI@?$__crt_char_traits@_W@@SAHABQA_WABI$$QAPB_W$$QBI@Z 10038754 f i libucrt:assert.obj
 0001:000378f9       ?has_any_buffer@__crt_stdio_stream@@QBE_NXZ 100388f9 f i libucrt:assert.obj
 0001:0003790e       ?has_any_of@__crt_stdio_stream@@QBE_NJ@Z 1003890e f i libucrt:assert.obj
 0001:0003792a       __assert                   1003892a f   libucrt:assert.obj
 0001:00037984       __invoke_watson_if_error   10038984 f i libucrt:assert.obj
 0001:000379ae       __vfwprintf_l              100389ae f i libucrt:assert.obj
 0001:000379dc       __vswprintf_c_l            100389dc f i libucrt:assert.obj
 0001:00037a16       __wassert                  10038a16 f   libucrt:assert.obj
 0001:00037a70       _fwprintf                  10038a70 f i libucrt:assert.obj
 0001:00037b32       _swprintf                  10038b32 f i libucrt:assert.obj
 0001:00037b57       _realloc                   10038b57 f   libucrt:realloc.obj
 0001:00037b64       ??$?B$$A6GXPAXK0@Z@__crt_fast_encoded_nullptr_t@@QBEP6GXPAXK0@ZXZ 10038b64 f i libucrt:exit.obj
 0001:00037b82       ??$__crt_fast_decode_pointer@P6GXPAXK0@Z@@YAP6GXPAXK0@ZQ6GX0K0@Z@Z 10038b82 f i libucrt:exit.obj
 0001:00037b9d       ??$__crt_fast_encode_pointer@P6GXPAXK0@Z@@YAP6GXPAXK0@ZQ6GX0K0@Z@Z 10038b9d f i libucrt:exit.obj
 0001:00037bc3       ??$__crt_get_proc_address@P6GXI@Z@@YAP6GXI@ZQAUHINSTANCE__@@QBD@Z 10038bc3 f i libucrt:exit.obj
 0001:00037bda       ??0?$__crt_unique_handle_t@U__crt_hmodule_traits@@@@QAE@QAUHINSTANCE__@@@Z 10038bda f i libucrt:exit.obj
 0001:00037bee       ??1?$__crt_unique_handle_t@U__crt_hmodule_traits@@@@QAE@XZ 10038bee f i libucrt:exit.obj
 0001:00037c21       ?close@?$__crt_unique_handle_t@U__crt_hmodule_traits@@@@QAEXXZ 10038c21 f i libucrt:exit.obj
 0001:00037c3d       ?close@__crt_hmodule_traits@@SA_NPAUHINSTANCE__@@@Z 10038c3d f i libucrt:exit.obj
 0001:00037e08       ?get@?$__crt_unique_handle_t@U__crt_hmodule_traits@@@@QBEPAUHINSTANCE__@@XZ 10038e08 f i libucrt:exit.obj
 0001:00037e0b       ?get_address_of@?$__crt_unique_handle_t@U__crt_hmodule_traits@@@@QAEPAPAUHINSTANCE__@@XZ 10038e0b f i libucrt:exit.obj
 0001:00037e0e       ?get_invalid_value@__crt_hmodule_traits@@SAPAUHINSTANCE__@@XZ 10038e0e f i libucrt:exit.obj
 0001:00037f0b       __Exit                     10038f0b f   libucrt:exit.obj
 0001:00037f26       ___acrt_initialize_thread_local_exit_callback 10038f26 f   libucrt:exit.obj
 0001:00037f38       __c_exit                   10038f38 f   libucrt:exit.obj
 0001:00037f4a       __cexit                    10038f4a f   libucrt:exit.obj
 0001:00037f5c       __exit                     10038f5c f   libucrt:exit.obj
 0001:00037f77       __is_c_termination_complete 10038f77 f   libucrt:exit.obj
 0001:00037f7d       __register_thread_local_exe_atexit_callback 10038f7d f   libucrt:exit.obj
 0001:00037fc3       _exit                      10038fc3 f   libucrt:exit.obj
 0001:00037fde       _quick_exit                10038fde f   libucrt:exit.obj
 0001:00038000       _strncat                   10039000 f   libucrt:strncat.obj
 0001:00038190       _strncpy                   10039190 f   libucrt:strncpy.obj
 0001:000382fd       ?is_in_use@__crt_stdio_stream@@QBE_NXZ 100392fd f i libucrt:fclose.obj
 0001:0003830c       __fclose_nolock            1003930c f   libucrt:fclose.obj
 0001:0003839f       _fclose                    1003939f f   libucrt:fclose.obj
 0001:000386d1       ??$open_file@ABQBDABQBDABHPAU_iobuf@@@?$__crt_char_traits@D@@SAPAU_iobuf@@ABQBD0ABH$$QAPAU1@@Z 100396d1 f i libucrt:fopen.obj
 0001:000386fc       ??$open_file@ABQB_WABQB_WABHPAU_iobuf@@@?$__crt_char_traits@_W@@SAPAU_iobuf@@ABQB_W0ABH$$QAPAU1@@Z 100396fc f i libucrt:fopen.obj
 0001:00038727       ?unlock@__crt_stdio_stream@@QBEXXZ 10039727 f i libucrt:fopen.obj
 0001:00038732       __fsopen                   10039732 f   libucrt:fopen.obj
 0001:0003873f       __wfopen                   1003973f f   libucrt:fopen.obj
 0001:0003875b       __wfopen_s                 1003975b f   libucrt:fopen.obj
 0001:000387b3       __wfsopen                  100397b3 f   libucrt:fopen.obj
 0001:000387c0       _fopen                     100397c0 f   libucrt:fopen.obj
 0001:000387dc       _fopen_s                   100397dc f   libucrt:fopen.obj
 0001:00038834       ?set_flags@__crt_stdio_stream@@QBE_NJ@Z 10039834 f i libucrt:fread.obj
 0001:00038864       __fread_nolock             10039864 f   libucrt:fread.obj
 0001:00038888       __fread_nolock_s           10039888 f   libucrt:fread.obj
 0001:00038ac7       _fread                     10039ac7 f   libucrt:fread.obj
 0001:00038aeb       _fread_s                   10039aeb f   libucrt:fread.obj
 0001:00038c43       ??$?RV<lambda_11b4f7b0d3157825a5656a18eba1ae27>@@AAV<lambda_b51c0495177f500e782686251704ae76>@@V<lambda_cf89b47920b5017557bfe891e78aca36>@@@?$__crt_seh_guarded_call@I@@QAEI$$QAV<lambda_11b4f7b0d3157825a5656a18eba1ae27>@@AAV<lambda_b51c0495177f500e782686251704ae76>@@$$QAV<lambda_cf89b47920b5017557bfe891e78aca36>@@@Z 10039c43 f i libucrt:fwrite.obj
 0001:00038ca8       ??$__acrt_lock_stream_and_call@V<lambda_b51c0495177f500e782686251704ae76>@@@@YAIQAU_iobuf@@$$QAV<lambda_b51c0495177f500e782686251704ae76>@@@Z 10039ca8 f i libucrt:fwrite.obj
 0001:00038d9d       ?has_big_buffer@__crt_stdio_stream@@QBE_NXZ 10039d9d f i libucrt:fwrite.obj
 0001:00038dae       __fwrite_nolock            10039dae f   libucrt:fwrite.obj
 0001:00038f85       _fwrite                    10039f85 f   libucrt:fwrite.obj
 0001:00038ff3       ??$?R_W@__crt_internal_free_policy@@QBEXQB_W@Z 10039ff3 f i libucrt:unlink.obj
 0001:00039009       ??0?$__crt_unique_heap_ptr@_WU__crt_internal_free_policy@@@@QAE@QA_W@Z 1003a009 f i libucrt:unlink.obj
 0001:0003901d       ??1?$__crt_unique_heap_ptr@_WU__crt_internal_free_policy@@@@QAE@XZ 1003a01d f i libucrt:unlink.obj
 0001:00039033       ?get@?$__crt_unique_heap_ptr@_WU__crt_internal_free_policy@@@@QBEPA_WXZ 1003a033 f i libucrt:unlink.obj
 0001:00039036       ?get_address_of@?$__crt_unique_heap_ptr@_WU__crt_internal_free_policy@@@@QAEPAPA_WXZ 1003a036 f i libucrt:unlink.obj
 0001:00039039       ?release@?$__crt_unique_heap_ptr@_WU__crt_internal_free_policy@@@@QAEXXZ 1003a039 f i libucrt:unlink.obj
 0001:0003904f       __unlink                   1003a04f f   libucrt:unlink.obj
 0001:0003905c       _remove                    1003a05c f   libucrt:unlink.obj
 0001:000390bc       ?__acrt_stdio_reset_buffer@@YAXV__crt_stdio_stream@@@Z 1003a0bc f i libucrt:rewind.obj
 0001:000390d7       ?has_all_of@__crt_stdio_stream@@QBE_NJ@Z 1003a0d7 f i libucrt:rewind.obj
 0001:000390f6       ?unset_flags@__crt_stdio_stream@@QBE_NJ@Z 1003a0f6 f i libucrt:rewind.obj
 0001:0003912a       _rewind                    1003a12a f   libucrt:rewind.obj
 0001:0003922b       _ldexp                     1003a22b f   libucrt:ldexp.obj
 0001:0003948b       __errcode                  1003a48b f   libucrt:fpexcept.obj
 0001:000394cc       __except1                  1003a4cc f   libucrt:fpexcept.obj
 0001:000395cd       __except2                  1003a5cd f   libucrt:fpexcept.obj
 0001:00039716       __handle_exc               1003a716 f   libucrt:fpexcept.obj
 0001:0003996e       __handle_qnan2             1003a96e f   libucrt:fpexcept.obj
 0001:0003997e       __raise_exc                1003a97e f   libucrt:fpexcept.obj
 0001:000399a9       __raise_exc_ex             1003a9a9 f   libucrt:fpexcept.obj
 0001:00039d56       __raise_excf               1003ad56 f   libucrt:fpexcept.obj
 0001:00039d81       __set_errno_from_matherr   1003ad81 f   libucrt:fpexcept.obj
 0001:00039dbb       __umatherr                 1003adbb f   libucrt:fpexcept.obj
 0001:00039e85       __initterm                 1003ae85 f   libucrt:initterm.obj
 0001:00039ef8       __initterm_e               1003aef8 f   libucrt:initterm.obj
 0001:00039f7b       __seh_filter_dll           1003af7b f   libucrt:exception_filter.obj
 0001:00039fa3       __seh_filter_exe           1003afa3 f   libucrt:exception_filter.obj
 0001:0003a172       ??$?RE@__crt_internal_free_policy@@QBEXQBE@Z 1003b172 f i libucrt:argv_parsing.obj
 0001:0003a188       ??$?RPAD@__crt_internal_free_policy@@QBEXQBQAD@Z 1003b188 f i libucrt:argv_parsing.obj
 0001:0003a19e       ??$?RPA_W@__crt_internal_free_policy@@QBEXQBQA_W@Z 1003b19e f i libucrt:argv_parsing.obj
 0001:0003a487       ??$get_module_file_name@$$TAAY0BAF@DH@?$__crt_char_traits@D@@SAK$$QA$$TAAY0BAF@D$$QAH@Z 1003b487 f i libucrt:argv_parsing.obj
 0001:0003a4a7       ??$get_module_file_name@$$TAAY0BAF@_WH@?$__crt_char_traits@_W@@SAK$$QA$$TAAY0BAF@_W$$QAH@Z 1003b4a7 f i libucrt:argv_parsing.obj
 0001:0003a880       ??$set_program_name@PAD@?$__crt_char_traits@D@@SAX$$QAPAD@Z 1003b880 f i libucrt:argv_parsing.obj
 0001:0003a895       ??$set_program_name@PA_W@?$__crt_char_traits@_W@@SAX$$QAPA_W@Z 1003b895 f i libucrt:argv_parsing.obj
 0001:0003a8d2       ??0?$__crt_unique_heap_ptr@EU__crt_internal_free_policy@@@@QAE@QAE@Z 1003b8d2 f i libucrt:argv_parsing.obj
 0001:0003a8e6       ??0?$__crt_unique_heap_ptr@PADU__crt_internal_free_policy@@@@QAE@QAPAD@Z 1003b8e6 f i libucrt:argv_parsing.obj
 0001:0003a8fa       ??0?$__crt_unique_heap_ptr@PA_WU__crt_internal_free_policy@@@@QAE@QAPA_W@Z 1003b8fa f i libucrt:argv_parsing.obj
 0001:0003a90e       ??1?$__crt_unique_heap_ptr@EU__crt_internal_free_policy@@@@QAE@XZ 1003b90e f i libucrt:argv_parsing.obj
 0001:0003a924       ??1?$__crt_unique_heap_ptr@PADU__crt_internal_free_policy@@@@QAE@XZ 1003b924 f i libucrt:argv_parsing.obj
 0001:0003a93a       ??1?$__crt_unique_heap_ptr@PA_WU__crt_internal_free_policy@@@@QAE@XZ 1003b93a f i libucrt:argv_parsing.obj
 0001:0003a950       ??B?$__crt_unique_heap_ptr@EU__crt_internal_free_policy@@@@QBE_NXZ 1003b950 f i libucrt:argv_parsing.obj
 0001:0003a990       ?detach@?$__crt_unique_heap_ptr@EU__crt_internal_free_policy@@@@QAEPAEXZ 1003b990 f i libucrt:argv_parsing.obj
 0001:0003a996       ?detach@?$__crt_unique_heap_ptr@PADU__crt_internal_free_policy@@@@QAEPAPADXZ 1003b996 f i libucrt:argv_parsing.obj
 0001:0003a99c       ?detach@?$__crt_unique_heap_ptr@PA_WU__crt_internal_free_policy@@@@QAEPAPA_WXZ 1003b99c f i libucrt:argv_parsing.obj
 0001:0003a9c2       ?get@?$__crt_unique_heap_ptr@EU__crt_internal_free_policy@@@@QBEPAEXZ 1003b9c2 f i libucrt:argv_parsing.obj
 0001:0003a9c5       ?get@?$__crt_unique_heap_ptr@PADU__crt_internal_free_policy@@@@QBEPAPADXZ 1003b9c5 f i libucrt:argv_parsing.obj
 0001:0003a9c8       ?get@?$__crt_unique_heap_ptr@PA_WU__crt_internal_free_policy@@@@QBEPAPA_WXZ 1003b9c8 f i libucrt:argv_parsing.obj
 0001:0003a9cb       ?get_address_of@?$__crt_unique_heap_ptr@PADU__crt_internal_free_policy@@@@QAEPAPAPADXZ 1003b9cb f i libucrt:argv_parsing.obj
 0001:0003a9ce       ?get_address_of@?$__crt_unique_heap_ptr@PA_WU__crt_internal_free_policy@@@@QAEPAPAPA_WXZ 1003b9ce f i libucrt:argv_parsing.obj
 0001:0003a9e9       ?is_valid@?$__crt_unique_heap_ptr@EU__crt_internal_free_policy@@@@QBE_NXZ 1003b9e9 f i libucrt:argv_parsing.obj
 0001:0003a9f3       ?release@?$__crt_unique_heap_ptr@EU__crt_internal_free_policy@@@@QAEXXZ 1003b9f3 f i libucrt:argv_parsing.obj
 0001:0003aa09       ?release@?$__crt_unique_heap_ptr@PADU__crt_internal_free_policy@@@@QAEXXZ 1003ba09 f i libucrt:argv_parsing.obj
 0001:0003aa1f       ?release@?$__crt_unique_heap_ptr@PA_WU__crt_internal_free_policy@@@@QAEXXZ 1003ba1f f i libucrt:argv_parsing.obj
 0001:0003aa56       ___acrt_allocate_buffer_for_argv 1003ba56 f   libucrt:argv_parsing.obj
 0001:0003aac0       __configure_narrow_argv    1003bac0 f   libucrt:argv_parsing.obj
 0001:0003aacd       __configure_wide_argv      1003bacd f   libucrt:argv_parsing.obj
 0001:0003aada       __set_pgmptr               1003bada f i libucrt:argv_parsing.obj
 0001:0003aaec       __set_wpgmptr              1003baec f i libucrt:argv_parsing.obj
 0001:0003afc6       ??$get_environment_from_os@$$$V@?$__crt_char_traits@D@@SAPADXZ 1003bfc6 f i libucrt:environment_initialization.obj
 0001:0003afcb       ??$get_environment_from_os@$$$V@?$__crt_char_traits@_W@@SAPA_WXZ 1003bfcb f i libucrt:environment_initialization.obj
 0001:0003b105       ??$set_variable_in_environment_nolock@PADH@?$__crt_char_traits@D@@SAH$$QAPAD$$QAH@Z 1003c105 f i libucrt:environment_initialization.obj
 0001:0003b123       ??$set_variable_in_environment_nolock@PA_WH@?$__crt_char_traits@_W@@SAH$$QAPA_W$$QAH@Z 1003c123 f i libucrt:environment_initialization.obj
 0001:0003b141       ??$tcscpy_s@PADABIAAPAD@?$__crt_char_traits@D@@SAH$$QAPADABIAAPAD@Z 1003c141 f i libucrt:environment_initialization.obj
 0001:0003b166       ??$tcscpy_s@PA_WABIAAPA_W@?$__crt_char_traits@_W@@SAH$$QAPA_WABIAAPA_W@Z 1003c166 f i libucrt:environment_initialization.obj
 0001:0003b18b       ??$tcslen@AAPAD@?$__crt_char_traits@D@@SAIAAPAD@Z 1003c18b f i libucrt:environment_initialization.obj
 0001:0003b1a9       ??$tcslen@AAPA_W@?$__crt_char_traits@_W@@SAIAAPA_W@Z 1003c1a9 f i libucrt:environment_initialization.obj
 0001:0003b1ce       ??$uninitialize@A6AXAAPAPAD@Z@?$dual_state_global@PAPAD@__crt_state_management@@QAEXA6AXAAPAPAD@Z@Z 1003c1ce f i libucrt:environment_initialization.obj
 0001:0003b21e       ??$uninitialize@A6AXAAPAPA_W@Z@?$dual_state_global@PAPA_W@__crt_state_management@@QAEXA6AXAAPAPA_W@Z@Z 1003c21e f i libucrt:environment_initialization.obj
 0001:0003b2b0       ??B?$__crt_unique_heap_ptr@PADU__crt_internal_free_policy@@@@QBE_NXZ 1003c2b0 f i libucrt:environment_initialization.obj
 0001:0003b2ba       ??B?$__crt_unique_heap_ptr@PA_WU__crt_internal_free_policy@@@@QBE_NXZ 1003c2ba f i libucrt:environment_initialization.obj
 0001:0003b2c4       ??B?$__crt_unique_heap_ptr@_WU__crt_internal_free_policy@@@@QBE_NXZ 1003c2c4 f i libucrt:environment_initialization.obj
 0001:0003b2ce       ?__crt_compute_required_transform_buffer_count@@YAIIQBD@Z 1003c2ce f i libucrt:environment_initialization.obj
 0001:0003b2ee       ?__crt_compute_required_transform_buffer_count@@YAIIQB_W@Z 1003c2ee f i libucrt:environment_initialization.obj
 0001:0003b311       ?__crt_transform_string@@YAIIQBDQA_WI@Z 1003c311 f i libucrt:environment_initialization.obj
 0001:0003b335       ?__crt_transform_string@@YAIIQB_WQADI@Z 1003c335 f i libucrt:environment_initialization.obj
 0001:0003b35d       ?detach@?$__crt_unique_heap_ptr@DU__crt_internal_free_policy@@@@QAEPADXZ 1003c35d f i libucrt:environment_initialization.obj
 0001:0003b363       ?detach@?$__crt_unique_heap_ptr@_WU__crt_internal_free_policy@@@@QAEPA_WXZ 1003c363 f i libucrt:environment_initialization.obj
 0001:0003b369       ?get_current_state_index@__crt_state_management@@YAIXZ 1003c369 f i libucrt:environment_initialization.obj
 0001:0003b390       ?initialize@?$dual_state_global@PAPAD@__crt_state_management@@QAEXQAPAD@Z 1003c390 f i libucrt:environment_initialization.obj
 0001:0003b3cd       ?initialize@?$dual_state_global@PAPA_W@__crt_state_management@@QAEXQAPA_W@Z 1003c3cd f i libucrt:environment_initialization.obj
 0001:0003b40a       ?is_valid@?$__crt_unique_heap_ptr@PADU__crt_internal_free_policy@@@@QBE_NXZ 1003c40a f i libucrt:environment_initialization.obj
 0001:0003b414       ?is_valid@?$__crt_unique_heap_ptr@PA_WU__crt_internal_free_policy@@@@QBE_NXZ 1003c414 f i libucrt:environment_initialization.obj
 0001:0003b41e       ?is_valid@?$__crt_unique_heap_ptr@_WU__crt_internal_free_policy@@@@QBE_NXZ 1003c41e f i libucrt:environment_initialization.obj
 0001:0003b42e       ?value@?$dual_state_global@PAPAD@__crt_state_management@@QAEAAPAPADXZ 1003c42e f i libucrt:environment_initialization.obj
 0001:0003b431       ?value@?$dual_state_global@PAPA_W@__crt_state_management@@QAEAAPAPA_WXZ 1003c431 f i libucrt:environment_initialization.obj
 0001:0003b434       ___dcrt_get_or_create_narrow_environment_nolock 1003c434 f   libucrt:environment_initialization.obj
 0001:0003b439       ___dcrt_get_or_create_wide_environment_nolock 1003c439 f   libucrt:environment_initialization.obj
 0001:0003b43e       ___dcrt_uninitialize_environments_nolock 1003c43e f   libucrt:environment_initialization.obj
 0001:0003b482       ___p__environ              1003c482 f   libucrt:environment_initialization.obj
 0001:0003b488       ___p__wenviron             1003c488 f   libucrt:environment_initialization.obj
 0001:0003b48e       __get_initial_narrow_environment 1003c48e f   libucrt:environment_initialization.obj
 0001:0003b4a7       __get_initial_wide_environment 1003c4a7 f   libucrt:environment_initialization.obj
 0001:0003b4c0       __initialize_narrow_environment 1003c4c0 f   libucrt:environment_initialization.obj
 0001:0003b4c5       __initialize_wide_environment 1003c4c5 f   libucrt:environment_initialization.obj
 0001:0003b4ca       ??$?BP6AXXZ@__crt_fast_encoded_nullptr_t@@QBEPAP6AXXZXZ 1003c4ca f i libucrt:onexit.obj
 0001:0003b4e8       ??$?RP6AXXZ@__crt_internal_free_policy@@QBEXQBQ6AXXZ@Z 1003c4e8 f i libucrt:onexit.obj
 0001:0003b4fe       ??$?RV<lambda_800076c951b434888f4765a74a194fcc>@@AAV<lambda_4e60a939b0d047cfe11ddc22648dfba9>@@V<lambda_6dbb1268764f43b569ce7b67e331d33a>@@@?$__crt_seh_guarded_call@H@@QAEH$$QAV<lambda_800076c951b434888f4765a74a194fcc>@@AAV<lambda_4e60a939b0d047cfe11ddc22648dfba9>@@$$QAV<lambda_6dbb1268764f43b569ce7b67e331d33a>@@@Z 1003c4fe f i libucrt:onexit.obj
 0001:0003b563       ??$?RV<lambda_995298e7d72eb4c2aab26c0585b3abe5>@@AAV<lambda_275893d493268fdec8709772e3fcec0e>@@V<lambda_293819299cbf9a7022e18b56a874bb5c>@@@?$__crt_seh_guarded_call@H@@QAEH$$QAV<lambda_995298e7d72eb4c2aab26c0585b3abe5>@@AAV<lambda_275893d493268fdec8709772e3fcec0e>@@$$QAV<lambda_293819299cbf9a7022e18b56a874bb5c>@@@Z 1003c563 f i libucrt:onexit.obj
 0001:0003b5c8       ??$__acrt_lock_and_call@V<lambda_275893d493268fdec8709772e3fcec0e>@@@@YAHW4__acrt_lock_id@@$$QAV<lambda_275893d493268fdec8709772e3fcec0e>@@@Z 1003c5c8 f i libucrt:onexit.obj
 0001:0003b5fa       ??$__acrt_lock_and_call@V<lambda_4e60a939b0d047cfe11ddc22648dfba9>@@@@YAHW4__acrt_lock_id@@$$QAV<lambda_4e60a939b0d047cfe11ddc22648dfba9>@@@Z 1003c5fa f i libucrt:onexit.obj
 0001:0003b62c       ??$__crt_fast_encode_pointer@P6AHXZ@@YAP6AHXZQ6AHXZ@Z 1003c62c f i libucrt:onexit.obj
 0001:0003b6d9       ??0?$__crt_unique_heap_ptr@P6AXXZU__crt_internal_free_policy@@@@QAE@QAP6AXXZ@Z 1003c6d9 f i libucrt:onexit.obj
 0001:0003b6ed       ??1?$__crt_unique_heap_ptr@P6AXXZU__crt_internal_free_policy@@@@QAE@XZ 1003c6ed f i libucrt:onexit.obj
 0001:0003ba28       ?detach@?$__crt_unique_heap_ptr@P6AXXZU__crt_internal_free_policy@@@@QAEPAP6AXXZXZ 1003ca28 f i libucrt:onexit.obj
 0001:0003ba2e       ?release@?$__crt_unique_heap_ptr@P6AXXZU__crt_internal_free_policy@@@@QAEXXZ 1003ca2e f i libucrt:onexit.obj
 0001:0003ba44       __crt_at_quick_exit        1003ca44 f   libucrt:onexit.obj
 0001:0003ba5f       __crt_atexit               1003ca5f f   libucrt:onexit.obj
 0001:0003ba7a       __execute_onexit_table     1003ca7a f   libucrt:onexit.obj
 0001:0003ba9e       __initialize_onexit_table  1003ca9e f   libucrt:onexit.obj
 0001:0003baea       __register_onexit_function 1003caea f   libucrt:onexit.obj
 0001:0003bc51       ?initialize@?$dual_state_global@PAU__crt_locale_data@@@__crt_state_management@@QAEXQAU__crt_locale_data@@@Z 1003cc51 f i libucrt:initialization.obj
 0001:0003bc8e       ___acrt_initialize         1003cc8e f   libucrt:initialization.obj
 0001:0003bca4       ___acrt_thread_attach      1003cca4 f   libucrt:initialization.obj
 0001:0003bcb1       ___acrt_thread_detach      1003ccb1 f   libucrt:initialization.obj
 0001:0003bcbb       ___acrt_uninitialize       1003ccbb f   libucrt:initialization.obj
 0001:0003bcd1       ___acrt_uninitialize_critical 1003ccd1 f   libucrt:initialization.obj
 0001:0003bd02       __get_terminate            1003cd02 f   libucrt:terminate.obj
 0001:0003bd18       _set_terminate             1003cd18 f   libucrt:terminate.obj
 0001:0003bd40       _terminate                 1003cd40 f   libucrt:terminate.obj
 0001:0003bd8b       ??$__crt_interlocked_exchange_pointer@X$$T@@YAPAXPDSAX$$T@Z 1003cd8b f i libucrt:free_base.obj
 0001:0003bda3       ___acrt_get_msvcrt_heap_handle 1003cda3 f   libucrt:free_base.obj
 0001:0003be34       __free_base                1003ce34 f   libucrt:free_base.obj
 0001:0003be7c       __malloc_base              1003ce7c f   libucrt:malloc_base.obj
 0001:0003bf4d       _strcpy_s                  1003cf4d f   libucrt:strcpy_s.obj
 0001:0003bfbd       __set_abort_behavior       1003cfbd f   libucrt:abort.obj
 0001:0003bfe6       _abort                     1003cfe6 f   libucrt:abort.obj
 0001:0003c039       __calloc_base              1003d039 f   libucrt:calloc_base.obj
 0001:0003c0ad       ??$is_overflow_condition@K@__crt_strtox@@YA_NIK@Z 1003d0ad f i libucrt:atox.obj
 0001:0003c0ec       ??$is_overflow_condition@_K@__crt_strtox@@YA_NI_K@Z 1003d0ec f i libucrt:atox.obj
 0001:0003c13f       ??$make_c_string_character_source@D$$T@__crt_strtox@@YA?AV?$c_string_character_source@D@0@QBD$$T@Z 1003d13f f i libucrt:atox.obj
 0001:0003c160       ??$make_c_string_character_source@_W$$T@__crt_strtox@@YA?AV?$c_string_character_source@_W@0@QB_W$$T@Z 1003d160 f i libucrt:atox.obj
 0001:0003c181       ??$parse_integer@KV?$c_string_character_source@D@__crt_strtox@@@__crt_strtox@@YAKQAU__crt_locale_pointers@@V?$c_string_character_source@D@0@H_N@Z 1003d181 f i libucrt:atox.obj
 0001:0003c433       ??$parse_integer@KV?$c_string_character_source@_W@__crt_strtox@@@__crt_strtox@@YAKQAU__crt_locale_pointers@@V?$c_string_character_source@_W@0@H_N@Z 1003d433 f i libucrt:atox.obj
 0001:0003ccd1       ??$parse_integer@_KV?$c_string_character_source@D@__crt_strtox@@@__crt_strtox@@YA_KQAU__crt_locale_pointers@@V?$c_string_character_source@D@0@H_N@Z 1003dcd1 f i libucrt:atox.obj
 0001:0003d020       ??$parse_integer@_KV?$c_string_character_source@_W@__crt_strtox@@@__crt_strtox@@YA_KQAU__crt_locale_pointers@@V?$c_string_character_source@_W@0@H_N@Z 1003e020 f i libucrt:atox.obj
 0001:0003d792       ??$parse_integer_from_string@JD$$T@__crt_strtox@@YAJQBD$$THQAU__crt_locale_pointers@@@Z 1003e792 f i libucrt:atox.obj
 0001:0003d7ca       ??$parse_integer_from_string@J_W$$T@__crt_strtox@@YAJQB_W$$THQAU__crt_locale_pointers@@@Z 1003e7ca f i libucrt:atox.obj
 0001:0003d802       ??$parse_integer_from_string@_JD$$T@__crt_strtox@@YA_JQBD$$THQAU__crt_locale_pointers@@@Z 1003e802 f i libucrt:atox.obj
 0001:0003d83a       ??$parse_integer_from_string@_J_W$$T@__crt_strtox@@YA_JQB_W$$THQAU__crt_locale_pointers@@@Z 1003e83a f i libucrt:atox.obj
 0001:0003d872       ??0?$c_string_character_source@D@__crt_strtox@@QAE@QBDQAPBD@Z 1003e872 f i libucrt:atox.obj
 0001:0003d895       ??0?$c_string_character_source@_W@__crt_strtox@@QAE@QB_WQAPB_W@Z 1003e895 f i libucrt:atox.obj
 0001:0003d8b8       ??1?$c_string_character_source@D@__crt_strtox@@QAE@XZ 1003e8b8 f i libucrt:atox.obj
 0001:0003d8c7       ??1?$c_string_character_source@_W@__crt_strtox@@QAE@XZ 1003e8c7 f i libucrt:atox.obj
 0001:0003d8d6       ?get@?$c_string_character_source@D@__crt_strtox@@QAEDXZ 1003e8d6 f i libucrt:atox.obj
 0001:0003d8e0       ?get@?$c_string_character_source@_W@__crt_strtox@@QAE_WXZ 1003e8e0 f i libucrt:atox.obj
 0001:0003d8ed       ?is_space@__crt_strtox@@YA_NDQAU__crt_locale_pointers@@@Z 1003e8ed f i libucrt:atox.obj
 0001:0003d913       ?is_space@__crt_strtox@@YA_N_WPAU__crt_locale_pointers@@@Z 1003e913 f i libucrt:atox.obj
 0001:0003d932       ?maximum_signed_value@__crt_strtox@@YAJK@Z 1003e932 f i libucrt:atox.obj
 0001:0003d938       ?maximum_signed_value@__crt_strtox@@YA_J_K@Z 1003e938 f i libucrt:atox.obj
 0001:0003d943       ?minimum_signed_value@__crt_strtox@@YAJK@Z 1003e943 f i libucrt:atox.obj
 0001:0003d949       ?minimum_signed_value@__crt_strtox@@YA_J_K@Z 1003e949 f i libucrt:atox.obj
 0001:0003d953       ?parse_digit@__crt_strtox@@YAID@Z 1003e953 f i libucrt:atox.obj
 0001:0003d99b       ?parse_digit@__crt_strtox@@YAI_W@Z 1003e99b f i libucrt:atox.obj
 0001:0003dbf8       ?restore_state@?$c_string_character_source@D@__crt_strtox@@QAE_NQBD@Z 1003ebf8 f i libucrt:atox.obj
 0001:0003dc0c       ?restore_state@?$c_string_character_source@_W@__crt_strtox@@QAE_NQB_W@Z 1003ec0c f i libucrt:atox.obj
 0001:0003dc20       ?save_state@?$c_string_character_source@D@__crt_strtox@@QBEPBDXZ 1003ec20 f i libucrt:atox.obj
 0001:0003dc23       ?save_state@?$c_string_character_source@_W@__crt_strtox@@QBEPB_WXZ 1003ec23 f i libucrt:atox.obj
 0001:0003dc26       ?unget@?$c_string_character_source@D@__crt_strtox@@QAEXD@Z 1003ec26 f i libucrt:atox.obj
 0001:0003dc58       ?unget@?$c_string_character_source@_W@__crt_strtox@@QAEX_W@Z 1003ec58 f i libucrt:atox.obj
 0001:0003dc8f       ?validate@?$c_string_character_source@D@__crt_strtox@@QBE_NXZ 1003ec8f f i libucrt:atox.obj
 0001:0003dcb0       ?validate@?$c_string_character_source@_W@__crt_strtox@@QBE_NXZ 1003ecb0 f i libucrt:atox.obj
 0001:0003dcd1       ?wide_character_to_digit@__crt_strtox@@YAH_W@Z 1003ecd1 f i libucrt:atox.obj
 0001:0003deda       ___acrt_get_locale_data_prefix 1003eeda f i libucrt:atox.obj
 0001:0003dee9       __atoi64                   1003eee9 f   libucrt:atox.obj
 0001:0003df1d       __atoi64_l                 1003ef1d f   libucrt:atox.obj
 0001:0003df52       __atoi_l                   1003ef52 f   libucrt:atox.obj
 0001:0003df87       __atol_l                   1003ef87 f   libucrt:atox.obj
 0001:0003dfbc       __atoll_l                  1003efbc f   libucrt:atox.obj
 0001:0003dff1       __chvalidchk_l             1003eff1 f i libucrt:atox.obj
 0001:0003e025       __ischartype_l             1003f025 f i libucrt:atox.obj
 0001:0003e064       __wtoi                     1003f064 f   libucrt:atox.obj
 0001:0003e098       __wtoi64                   1003f098 f   libucrt:atox.obj
 0001:0003e0cc       __wtoi64_l                 1003f0cc f   libucrt:atox.obj
 0001:0003e101       __wtoi_l                   1003f101 f   libucrt:atox.obj
 0001:0003e136       __wtol                     1003f136 f   libucrt:atox.obj
 0001:0003e16a       __wtol_l                   1003f16a f   libucrt:atox.obj
 0001:0003e19f       __wtoll                    1003f19f f   libucrt:atox.obj
 0001:0003e1d3       __wtoll_l                  1003f1d3 f   libucrt:atox.obj
 0001:0003e208       _atoi                      1003f208 f   libucrt:atox.obj
 0001:0003e23c       _atol                      1003f23c f   libucrt:atox.obj
 0001:0003e270       _atoll                     1003f270 f   libucrt:atox.obj
 0001:0003e2a4       ??$__crt_fast_decode_pointer@P6AXPB_W00II@Z@@YAP6AXPB_W00II@ZQ6AX000II@Z@Z 1003f2a4 f i libucrt:invalid_parameter.obj
 0001:0003e2bf       ??$__crt_fast_encode_pointer@P6AXPB_W00II@Z@@YAP6AXPB_W00II@ZQ6AX000II@Z@Z 1003f2bf f i libucrt:invalid_parameter.obj
 0001:0003e2e5       ?initialize@?$dual_state_global@P6AXPB_W00II@Z@__crt_state_management@@QAEXQ6AXPB_W00II@Z@Z 1003f2e5 f i libucrt:invalid_parameter.obj
 0001:0003e322       ?value@?$dual_state_global@P6AXPB_W00II@Z@__crt_state_management@@QAEAAP6AXPB_W00II@ZXZ 1003f322 f i libucrt:invalid_parameter.obj
 0001:0003e325       ___acrt_call_reportfault   1003f325 f   libucrt:invalid_parameter.obj
 0001:0003e4ae       ___acrt_initialize_invalid_parameter_handler 1003f4ae f   libucrt:invalid_parameter.obj
 0001:0003e4c7       __get_invalid_parameter_handler 1003f4c7 f   libucrt:invalid_parameter.obj
 0001:0003e4de       __get_thread_local_invalid_parameter_handler 1003f4de f   libucrt:invalid_parameter.obj
 0001:0003e4f3       __invalid_parameter        1003f4f3 f   libucrt:invalid_parameter.obj
 0001:0003e58c       __invalid_parameter_noinfo 1003f58c f   libucrt:invalid_parameter.obj
 0001:0003e5a0       __invalid_parameter_noinfo_noreturn 1003f5a0 f   libucrt:invalid_parameter.obj
 0001:0003e5c4       __invoke_watson            1003f5c4 f   libucrt:invalid_parameter.obj
 0001:0003e603       __set_invalid_parameter_handler 1003f603 f   libucrt:invalid_parameter.obj
 0001:0003e63f       __set_thread_local_invalid_parameter_handler 1003f63f f   libucrt:invalid_parameter.obj
 0001:0003e663       ___acrt_errno_from_os_error 1003f663 f   libucrt:errno.obj
 0001:0003e6b6       ___acrt_errno_map_os_error 1003f6b6 f   libucrt:errno.obj
 0001:0003e6e1       ___doserrno                1003f6e1 f   libucrt:errno.obj
 0001:0003e6f8       __errno                    1003f6f8 f   libucrt:errno.obj
 0001:0003e70f       __get_doserrno             1003f70f f   libucrt:errno.obj
 0001:0003e73d       __get_errno                1003f73d f   libucrt:errno.obj
 0001:0003e76b       __set_doserrno             1003f76b f   libucrt:errno.obj
 0001:0003e794       __set_errno                1003f794 f   libucrt:errno.obj
 0001:0003e814       ??$?B$$A6GHPA_WKJ@Z@__crt_fast_encoded_nullptr_t@@QBEP6GHPA_WKJ@ZXZ 1003f814 f i libucrt:winapi_thunks.obj
 0001:0003e832       ??$?RV<lambda_9227be29367c048ad7fd93a717dcb1a1>@@AAV<lambda_a463b7b0560cfcaf9b17f27c6ef46564>@@V<lambda_ccea11b5727ccf69be64f5f5d9a08d9f>@@@?$__crt_seh_guarded_call@H@@QAEH$$QAV<lambda_9227be29367c048ad7fd93a717dcb1a1>@@AAV<lambda_a463b7b0560cfcaf9b17f27c6ef46564>@@$$QAV<lambda_ccea11b5727ccf69be64f5f5d9a08d9f>@@@Z 1003f832 f i libucrt:winapi_thunks.obj
 0001:0003e8d7       ??$__acrt_lock_and_call@V<lambda_a463b7b0560cfcaf9b17f27c6ef46564>@@@@YAHW4__acrt_lock_id@@$$QAV<lambda_a463b7b0560cfcaf9b17f27c6ef46564>@@@Z 1003f8d7 f i libucrt:winapi_thunks.obj
 0001:0003e909       ??$__crt_fast_decode_pointer@P6GHPA_WKJ@Z@@YAP6GHPA_WKJ@ZQ6GH0KJ@Z@Z 1003f909 f i libucrt:winapi_thunks.obj
 0001:0003e924       ??$__crt_fast_encode_pointer@P6GHPA_WKJ@Z@@YAP6GHPA_WKJ@ZQ6GH0KJ@Z@Z 1003f924 f i libucrt:winapi_thunks.obj
 0001:0003f051       ___acrt_AreFileApisANSI@0  10040051 f   libucrt:winapi_thunks.obj
 0001:0003f0b2       ___acrt_CompareStringEx@36 100400b2 f   libucrt:winapi_thunks.obj
 0001:0003f143       ___acrt_EnumSystemLocalesEx@16 10040143 f   libucrt:winapi_thunks.obj
 0001:0003f1cb       ___acrt_FlsAlloc@4         100401cb f   libucrt:winapi_thunks.obj
 0001:0003f236       ___acrt_FlsFree@4          10040236 f   libucrt:winapi_thunks.obj
 0001:0003f2a1       ___acrt_FlsGetValue@4      100402a1 f   libucrt:winapi_thunks.obj
 0001:0003f30c       ___acrt_FlsSetValue@8      1004030c f   libucrt:winapi_thunks.obj
 0001:0003f37b       ___acrt_GetDateFormatEx@28 1004037b f   libucrt:winapi_thunks.obj
 0001:0003f41d       ___acrt_GetEnabledXStateFeatures@0 1004041d f   libucrt:winapi_thunks.obj
 0001:0003f47f       ___acrt_GetFileInformationByHandleEx@16 1004047f f   libucrt:winapi_thunks.obj
 0001:0003f4fa       ___acrt_GetLocaleInfoEx@16 100404fa f   libucrt:winapi_thunks.obj
 0001:0003f57e       ___acrt_GetSystemTimePreciseAsFileTime@4 1004057e f   libucrt:winapi_thunks.obj
 0001:0003f5e9       ___acrt_GetTimeFormatEx@24 100405e9 f   libucrt:winapi_thunks.obj
 0001:0003f675       ___acrt_GetUserDefaultLocaleName@8 10040675 f   libucrt:winapi_thunks.obj
 0001:0003f6f5       ___acrt_GetXStateFeaturesMask@8 100406f5 f   libucrt:winapi_thunks.obj
 0001:0003f761       ___acrt_InitializeCriticalSectionEx@12 10040761 f   libucrt:winapi_thunks.obj
 0001:0003f7db       ___acrt_IsValidLocaleName@4 100407db f   libucrt:winapi_thunks.obj
 0001:0003f856       ___acrt_LCIDToLocaleName@16 10040856 f   libucrt:winapi_thunks.obj
 0001:0003f8da       ___acrt_LCMapStringEx@36   100408da f   libucrt:winapi_thunks.obj
 0001:0003f984       ___acrt_LocaleNameToLCID@8 10040984 f   libucrt:winapi_thunks.obj
 0001:0003f9f7       ___acrt_LocateXStateFeature@12 100409f7 f   libucrt:winapi_thunks.obj
 0001:0003fa4e       ___acrt_MessageBoxA@16     10040a4e f   libucrt:winapi_thunks.obj
 0001:0003faa9       ___acrt_MessageBoxW@16     10040aa9 f   libucrt:winapi_thunks.obj
 0001:0003fb04       ___acrt_RoInitialize@4     10040b04 f   libucrt:winapi_thunks.obj
 0001:0003fb6a       ___acrt_RoUninitialize@0   10040b6a f   libucrt:winapi_thunks.obj
 0001:0003fbc5       ___acrt_RtlGenRandom@8     10040bc5 f   libucrt:winapi_thunks.obj
 0001:0003fc31       ___acrt_SetThreadStackGuarantee@4 10040c31 f   libucrt:winapi_thunks.obj
 0001:0003fc97       ___acrt_can_show_message_box 10040c97 f   libucrt:winapi_thunks.obj
 0001:0003fcb6       ___acrt_can_use_vista_locale_apis 10040cb6 f   libucrt:winapi_thunks.obj
 0001:0003fcc5       ___acrt_can_use_xstate_apis 10040cc5 f   libucrt:winapi_thunks.obj
 0001:0003fcd4       ___acrt_get_parent_window  10040cd4 f   libucrt:winapi_thunks.obj
 0001:0003fd72       ___acrt_initialize_winapi_thunks 10040d72 f   libucrt:winapi_thunks.obj
 0001:0003fda1       ___acrt_is_interactive     10040da1 f   libucrt:winapi_thunks.obj
 0001:0003fe70       ___acrt_is_packaged_app    10040e70 f   libucrt:winapi_thunks.obj
 0001:0003ff18       ___acrt_uninitialize_winapi_thunks 10040f18 f   libucrt:winapi_thunks.obj
 0001:0003ff5b       ??0__crt_stdio_stream@@QAE@QAU__crt_stdio_stream_data@@@Z 10040f5b f i libucrt:closeall.obj
 0001:0003ff6f       __fcloseall                10040f6f f   libucrt:closeall.obj
 0001:00040037       ___acrt_stdio_flush_nolock 10041037 f   libucrt:fflush.obj
 0001:000400b6       __fflush_nolock            100410b6 f   libucrt:fflush.obj
 0001:0004010e       __flushall                 1004110e f   libucrt:fflush.obj
 0001:00040227       _fflush                    10041227 f   libucrt:fflush.obj
 0001:00040296       ?has_crt_buffer@__crt_stdio_stream@@QBE_NXZ 10041296 f i libucrt:_freebuf.obj
 0001:000402a5       ___acrt_stdio_free_buffer_nolock 100412a5 f   libucrt:_freebuf.obj
 0001:000404e2       ___acrt_initialize_lowio   100414e2 f   libucrt:ioinit.obj
 0001:0004054d       ___acrt_uninitialize_lowio 1004154d f   libucrt:ioinit.obj
 0001:0004059f       ___isascii                 1004159f f i libucrt:_ctype.obj
 0001:000405b5       ___iscsym                  100415b5 f i libucrt:_ctype.obj
 0001:000405df       ___iscsymf                 100415df f i libucrt:_ctype.obj
 0001:00040605       ___toascii                 10041605 f i libucrt:_ctype.obj
 0001:00040615       __isalnum_l                10041615 f i libucrt:_ctype.obj
 0001:0004065e       __isalpha_l                1004165e f i libucrt:_ctype.obj
 0001:000406a7       __isblank_l                100416a7 f i libucrt:_ctype.obj
 0001:000406fa       __iscntrl_l                100416fa f i libucrt:_ctype.obj
 0001:00040740       __iscsym_l                 10041740 f i libucrt:_ctype.obj
 0001:0004076b       __iscsymf_l                1004176b f i libucrt:_ctype.obj
 0001:00040796       __isdigit_l                10041796 f i libucrt:_ctype.obj
 0001:000407dc       __isgraph_l                100417dc f i libucrt:_ctype.obj
 0001:00040825       __islower_l                10041825 f i libucrt:_ctype.obj
 0001:0004086b       __isprint_l                1004186b f i libucrt:_ctype.obj
 0001:000408b4       __ispunct_l                100418b4 f i libucrt:_ctype.obj
 0001:000408fa       __isspace_l                100418fa f i libucrt:_ctype.obj
 0001:00040940       __isupper_l                10041940 f i libucrt:_ctype.obj
 0001:00040986       __isxdigit_l               10041986 f i libucrt:_ctype.obj
 0001:000409cf       _isalnum                   100419cf f i libucrt:_ctype.obj
 0001:00040a09       _isalpha                   10041a09 f i libucrt:_ctype.obj
 0001:00040a43       _isblank                   10041a43 f i libucrt:_ctype.obj
 0001:00040a87       _iscntrl                   10041a87 f i libucrt:_ctype.obj
 0001:00040abf       _isdigit                   10041abf f i libucrt:_ctype.obj
 0001:00040af7       _isgraph                   10041af7 f i libucrt:_ctype.obj
 0001:00040b31       _islower                   10041b31 f i libucrt:_ctype.obj
 0001:00040b69       _isprint                   10041b69 f i libucrt:_ctype.obj
 0001:00040ba3       _ispunct                   10041ba3 f i libucrt:_ctype.obj
 0001:00040bdb       _isspace                   10041bdb f i libucrt:_ctype.obj
 0001:00040c13       _isupper                   10041c13 f i libucrt:_ctype.obj
 0001:00040c4b       _isxdigit                  10041c4b f i libucrt:_ctype.obj
 0001:00041043       __tolower                  10042043 f   libucrt:tolower_toupper.obj
 0001:00041053       __tolower_l                10042053 f   libucrt:tolower_toupper.obj
 0001:00041073       __toupper                  10042073 f   libucrt:tolower_toupper.obj
 0001:00041083       __toupper_l                10042083 f   libucrt:tolower_toupper.obj
 0001:000410a3       _tolower                   100420a3 f   libucrt:tolower_toupper.obj
 0001:000410df       _toupper                   100420df f   libucrt:tolower_toupper.obj
 0001:0004111b       ??$make_c_string_character_source@DPAPAD@__crt_strtox@@YA?AV?$c_string_character_source@D@0@QBDQAPAD@Z 1004211b f i libucrt:strtox.obj
 0001:0004113c       ??$make_c_string_character_source@_WPAPA_W@__crt_strtox@@YA?AV?$c_string_character_source@_W@0@QB_WQAPA_W@Z 1004213c f i libucrt:strtox.obj
 0001:0004115d       ??$parse_integer_from_string@JDPAPAD@__crt_strtox@@YAJQBDQAPADHQAU__crt_locale_pointers@@@Z 1004215d f i libucrt:strtox.obj
 0001:00041195       ??$parse_integer_from_string@J_WPAPA_W@__crt_strtox@@YAJQB_WQAPA_WHQAU__crt_locale_pointers@@@Z 10042195 f i libucrt:strtox.obj
 0001:000411cd       ??$parse_integer_from_string@KDPAPAD@__crt_strtox@@YAKQBDQAPADHQAU__crt_locale_pointers@@@Z 100421cd f i libucrt:strtox.obj
 0001:00041205       ??$parse_integer_from_string@K_WPAPA_W@__crt_strtox@@YAKQB_WQAPA_WHQAU__crt_locale_pointers@@@Z 10042205 f i libucrt:strtox.obj
 0001:0004123d       ??$parse_integer_from_string@_JDPAPAD@__crt_strtox@@YA_JQBDQAPADHQAU__crt_locale_pointers@@@Z 1004223d f i libucrt:strtox.obj
 0001:00041275       ??$parse_integer_from_string@_J_WPAPA_W@__crt_strtox@@YA_JQB_WQAPA_WHQAU__crt_locale_pointers@@@Z 10042275 f i libucrt:strtox.obj
 0001:000412ad       ??$parse_integer_from_string@_KDPAPAD@__crt_strtox@@YA_KQBDQAPADHQAU__crt_locale_pointers@@@Z 100422ad f i libucrt:strtox.obj
 0001:000412e5       ??$parse_integer_from_string@_K_WPAPA_W@__crt_strtox@@YA_KQB_WQAPA_WHQAU__crt_locale_pointers@@@Z 100422e5 f i libucrt:strtox.obj
 0001:0004131d       __strtoi64                 1004231d f   libucrt:strtox.obj
 0001:00041354       __strtoi64_l               10042354 f   libucrt:strtox.obj
 0001:0004138c       __strtoimax_l              1004238c f   libucrt:strtox.obj
 0001:000413c4       __strtol_l                 100423c4 f   libucrt:strtox.obj
 0001:000413fc       __strtoll_l                100423fc f   libucrt:strtox.obj
 0001:00041434       __strtoui64                10042434 f   libucrt:strtox.obj
 0001:0004146b       __strtoui64_l              1004246b f   libucrt:strtox.obj
 0001:000414a3       __strtoul_l                100424a3 f   libucrt:strtox.obj
 0001:000414db       __strtoull_l               100424db f   libucrt:strtox.obj
 0001:00041513       __strtoumax_l              10042513 f   libucrt:strtox.obj
 0001:0004154b       __wcstoi64                 1004254b f   libucrt:strtox.obj
 0001:00041582       __wcstoi64_l               10042582 f   libucrt:strtox.obj
 0001:000415ba       __wcstoimax_l              100425ba f   libucrt:strtox.obj
 0001:000415f2       __wcstol_l                 100425f2 f   libucrt:strtox.obj
 0001:0004162a       __wcstoll_l                1004262a f   libucrt:strtox.obj
 0001:00041662       __wcstoui64                10042662 f   libucrt:strtox.obj
 0001:00041699       __wcstoui64_l              10042699 f   libucrt:strtox.obj
 0001:000416d1       __wcstoul_l                100426d1 f   libucrt:strtox.obj
 0001:00041709       __wcstoull_l               10042709 f   libucrt:strtox.obj
 0001:00041741       __wcstoumax_l              10042741 f   libucrt:strtox.obj
 0001:00041779       _strtoimax                 10042779 f   libucrt:strtox.obj
 0001:000417b0       _strtol                    100427b0 f   libucrt:strtox.obj
 0001:000417e7       _strtoll                   100427e7 f   libucrt:strtox.obj
 0001:0004181e       _strtoul                   1004281e f   libucrt:strtox.obj
 0001:00041855       _strtoull                  10042855 f   libucrt:strtox.obj
 0001:0004188c       _strtoumax                 1004288c f   libucrt:strtox.obj
 0001:000418c3       _wcstoimax                 100428c3 f   libucrt:strtox.obj
 0001:000418fa       _wcstol                    100428fa f   libucrt:strtox.obj
 0001:00041931       _wcstoll                   10042931 f   libucrt:strtox.obj
 0001:00041968       _wcstoul                   10042968 f   libucrt:strtox.obj
 0001:0004199f       _wcstoull                  1004299f f   libucrt:strtox.obj
 0001:000419d6       _wcstoumax                 100429d6 f   libucrt:strtox.obj
 0001:00041a0d       __mbtowc_l                 10042a0d f   libucrt:mbtowc.obj
 0001:00041b45       _mbtowc                    10042b45 f   libucrt:mbtowc.obj
 0001:00041b65       __wctomb_l                 10042b65 f   libucrt:wctomb.obj
 0001:00041bcc       __wctomb_s_l               10042bcc f   libucrt:wctomb.obj
 0001:00041d35       _wctomb                    10042d35 f   libucrt:wctomb.obj
 0001:00041d76       _wctomb_s                  10042d76 f   libucrt:wctomb.obj
 0001:0004248e       ??1?$__crt_simd_cleanup_guard@$00@@QAE@XZ 1004348e f i libucrt:strnlen.obj
 0001:00042492       ??1?$__crt_simd_cleanup_guard@$0A@@@QAE@XZ 10043492 f i libucrt:strnlen.obj
 0001:00042493       ?compare_equals@?$__crt_simd_traits@$00E@@SA?AT__m256i@@T2@0@Z 10043493 f i libucrt:strnlen.obj
 0001:00042498       ?compare_equals@?$__crt_simd_traits@$00G@@SA?AT__m256i@@T2@0@Z 10043498 f i libucrt:strnlen.obj
 0001:0004249d       ?compare_equals@?$__crt_simd_traits@$0A@E@@SA?AT__m128i@@T2@0@Z 1004349d f i libucrt:strnlen.obj
 0001:000424a2       ?compare_equals@?$__crt_simd_traits@$0A@G@@SA?AT__m128i@@T2@0@Z 100434a2 f i libucrt:strnlen.obj
 0001:000424a7       ?compute_byte_mask@?$__crt_simd_pack_traits@$00@@SAHT__m256i@@@Z 100434a7 f i libucrt:strnlen.obj
 0001:000424ac       ?compute_byte_mask@?$__crt_simd_pack_traits@$0A@@@SAHT__m128i@@@Z 100434ac f i libucrt:strnlen.obj
 0001:000424b1       ?get_zero_pack@?$__crt_simd_pack_traits@$00@@SA?AT__m256i@@XZ 100434b1 f i libucrt:strnlen.obj
 0001:000424b6       ?get_zero_pack@?$__crt_simd_pack_traits@$0A@@@SA?AT__m128i@@XZ 100434b6 f i libucrt:strnlen.obj
 0001:000424bb       _strnlen                   100434bb f   libucrt:strnlen.obj
 0001:0004262b       _wcsnlen                   1004362b f   libucrt:strnlen.obj
 0001:0004284f       ??$?RU__acrt_ptd@@@__crt_internal_free_policy@@QBEXQBU__acrt_ptd@@@Z 1004384f f i libucrt:per_thread_data.obj
 0001:00042865       ??$?RV<lambda_3518db117f0e7cdb002338c5d3c47b6c>@@AAV<lambda_b2ea41f6bbb362cd97d94c6828d90b61>@@V<lambda_abdedf541bb04549bc734292b4a045d4>@@@?$__crt_seh_guarded_call@X@@QAEX$$QAV<lambda_3518db117f0e7cdb002338c5d3c47b6c>@@AAV<lambda_b2ea41f6bbb362cd97d94c6828d90b61>@@$$QAV<lambda_abdedf541bb04549bc734292b4a045d4>@@@Z 10043865 f i libucrt:per_thread_data.obj
 0001:000428c9       ??$?RV<lambda_51b6e8b1eb166f2a3faf91f424b38130>@@AAV<lambda_6250bd4b2a391816dd638c3bf72b0bcb>@@V<lambda_0b5a4a3e68152e1d9b943535f5f47bed>@@@?$__crt_seh_guarded_call@X@@QAEX$$QAV<lambda_51b6e8b1eb166f2a3faf91f424b38130>@@AAV<lambda_6250bd4b2a391816dd638c3bf72b0bcb>@@$$QAV<lambda_0b5a4a3e68152e1d9b943535f5f47bed>@@@Z 100438c9 f i libucrt:per_thread_data.obj
 0001:00042942       ??$?RV<lambda_5b71d36f03204c0beab531769a5b5694>@@AAV<lambda_be2b3da3f62db62e9dad5dc70221a656>@@V<lambda_8f9ce462984622f9bf76b59e2aaaf805>@@@?$__crt_seh_guarded_call@X@@QAEX$$QAV<lambda_5b71d36f03204c0beab531769a5b5694>@@AAV<lambda_be2b3da3f62db62e9dad5dc70221a656>@@$$QAV<lambda_8f9ce462984622f9bf76b59e2aaaf805>@@@Z 10043942 f i libucrt:per_thread_data.obj
 0001:0004299f       ??$?RV<lambda_9df27f884b057bc3edfc946cb5b7cf47>@@AAV<lambda_e69574bed617af4e071282c136b37893>@@V<lambda_cc0d902bcbbeb830f749456577db4721>@@@?$__crt_seh_guarded_call@X@@QAEX$$QAV<lambda_9df27f884b057bc3edfc946cb5b7cf47>@@AAV<lambda_e69574bed617af4e071282c136b37893>@@$$QAV<lambda_cc0d902bcbbeb830f749456577db4721>@@@Z 1004399f f i libucrt:per_thread_data.obj
 0001:000429f9       ??$__acrt_lock_and_call@V<lambda_6250bd4b2a391816dd638c3bf72b0bcb>@@@@YAXW4__acrt_lock_id@@$$QAV<lambda_6250bd4b2a391816dd638c3bf72b0bcb>@@@Z 100439f9 f i libucrt:per_thread_data.obj
 0001:00042a2b       ??$__acrt_lock_and_call@V<lambda_b2ea41f6bbb362cd97d94c6828d90b61>@@@@YAXW4__acrt_lock_id@@$$QAV<lambda_b2ea41f6bbb362cd97d94c6828d90b61>@@@Z 10043a2b f i libucrt:per_thread_data.obj
 0001:00042a5d       ??$__acrt_lock_and_call@V<lambda_be2b3da3f62db62e9dad5dc70221a656>@@@@YAXW4__acrt_lock_id@@$$QAV<lambda_be2b3da3f62db62e9dad5dc70221a656>@@@Z 10043a5d f i libucrt:per_thread_data.obj
 0001:00042a8f       ??$__acrt_lock_and_call@V<lambda_e69574bed617af4e071282c136b37893>@@@@YAXW4__acrt_lock_id@@$$QAV<lambda_e69574bed617af4e071282c136b37893>@@@Z 10043a8f f i libucrt:per_thread_data.obj
 0001:00042bc8       ??0?$__crt_unique_heap_ptr@U__acrt_ptd@@U__crt_internal_free_policy@@@@QAE@QAU__acrt_ptd@@@Z 10043bc8 f i libucrt:per_thread_data.obj
 0001:00042bdc       ??0__crt_scoped_get_last_error_reset@@QAE@XZ 10043bdc f i libucrt:per_thread_data.obj
 0001:00042bf1       ??1?$__crt_unique_heap_ptr@U__acrt_ptd@@U__crt_internal_free_policy@@@@QAE@XZ 10043bf1 f i libucrt:per_thread_data.obj
 0001:00042c07       ??1__crt_scoped_get_last_error_reset@@QAE@XZ 10043c07 f i libucrt:per_thread_data.obj
 0001:00042c12       ??B?$__crt_unique_heap_ptr@U__acrt_ptd@@U__crt_internal_free_policy@@@@QBE_NXZ 10043c12 f i libucrt:per_thread_data.obj
 0001:00042d88       ?dangerous_get_state_array@?$dual_state_global@PAU__crt_locale_data@@@__crt_state_management@@QAEPAPAU__crt_locale_data@@XZ 10043d88 f i libucrt:per_thread_data.obj
 0001:00042e8c       ?detach@?$__crt_unique_heap_ptr@U__acrt_ptd@@U__crt_internal_free_policy@@@@QAEPAU__acrt_ptd@@XZ 10043e8c f i libucrt:per_thread_data.obj
 0001:00042e92       ?get@?$__crt_unique_heap_ptr@U__acrt_ptd@@U__crt_internal_free_policy@@@@QBEPAU__acrt_ptd@@XZ 10043e92 f i libucrt:per_thread_data.obj
 0001:00042fa1       ?is_valid@?$__crt_unique_heap_ptr@U__acrt_ptd@@U__crt_internal_free_policy@@@@QBE_NXZ 10043fa1 f i libucrt:per_thread_data.obj
 0001:00042fab       ?release@?$__crt_unique_heap_ptr@U__acrt_ptd@@U__crt_internal_free_policy@@@@QAEXXZ 10043fab f i libucrt:per_thread_data.obj
 0001:00043037       ?value@?$dual_state_global@PAU__crt_locale_data@@@__crt_state_management@@QAEAAPAU__crt_locale_data@@XZ 10044037 f i libucrt:per_thread_data.obj
 0001:0004303a       ___acrt_freeptd            1004403a f   libucrt:per_thread_data.obj
 0001:00043071       ___acrt_getptd             10044071 f   libucrt:per_thread_data.obj
 0001:00043116       ___acrt_getptd_noexit      10044116 f   libucrt:per_thread_data.obj
 0001:000431bc       ___acrt_initialize_ptd     100441bc f   libucrt:per_thread_data.obj
 0001:000431f3       ___acrt_uninitialize_ptd   100441f3 f   libucrt:per_thread_data.obj
 0001:00043213       ___threadhandle            10044213 f   libucrt:per_thread_data.obj
 0001:00043219       ___threadid                10044219 f   libucrt:per_thread_data.obj
 0001:0004321f       ___acrt_update_locale_info 1004421f f   libucrt:locale_update.obj
 0001:00043257       ___acrt_update_multibyte_info 10044257 f   libucrt:locale_update.obj
 0001:0004328f       ?__acrt_fp_classify@@YA?AW4__acrt_fp_class@@ABN@Z 1004428f f i libucrt:cvt.obj
 0001:00043316       ?__acrt_fp_is_negative@@YA_NABN@Z 10044316 f i libucrt:cvt.obj
 0001:00043d89       ?strrchr@@YAPADQADH@Z      10044d89 f i libucrt:cvt.obj
 0001:00043d96       ___acrt_fp_format          10044d96 f   libucrt:cvt.obj
 0001:00043f70       __fputwc_nolock            10044f70 f   libucrt:fputwc.obj
 0001:000440df       __fputwchar                100450df f   libucrt:fputwc.obj
 0001:000440ff       __putwc_nolock             100450ff f   libucrt:fputwc.obj
 0001:0004410c       _fputwc                    1004510c f   libucrt:fputwc.obj
 0001:000441a5       _putwc                     100451a5 f   libucrt:fputwc.obj
 0001:000441b2       _putwchar                  100451b2 f   libucrt:fputwc.obj
 0001:000441bf       ?lowio_handle@__crt_stdio_stream@@QBEHXZ 100451bf f i libucrt:fileno.obj
 0001:000441c5       __fileno                   100451c5 f   libucrt:fileno.obj
 0001:000441f4       __fputc_nolock             100451f4 f   libucrt:fputc.obj
 0001:00044227       __fputchar                 10045227 f   libucrt:fputc.obj
 0001:00044247       __putc_nolock              10045247 f   libucrt:fputc.obj
 0001:00044254       _fputc                     10045254 f   libucrt:fputc.obj
 0001:00044399       _putc                      10045399 f   libucrt:fputc.obj
 0001:000443a6       _putchar                   100453a6 f   libucrt:fputc.obj
 0001:000443b3       __get_printf_count_output  100453b3 f   libucrt:printf_count_output.obj
 0001:000443cd       __set_printf_count_output  100453cd f   libucrt:printf_count_output.obj
 0001:00044401       ?has_temporary_buffer@__crt_stdio_stream@@QBE_NXZ 10045401 f i libucrt:_sftbuf.obj
 0001:00044410       ___acrt_stdio_begin_temporary_buffering_nolock 10045410 f   libucrt:_sftbuf.obj
 0001:000444f2       ___acrt_stdio_end_temporary_buffering_nolock 100454f2 f   libucrt:_sftbuf.obj
 0001:0004453c       ??$?RU__crt_locale_data@@@__crt_internal_free_policy@@QBEXQBU__crt_locale_data@@@Z 1004553c f i libucrt:wsetlocale.obj
 0001:00044552       ??$?RU__crt_locale_pointers@@@__crt_internal_free_policy@@QBEXQBU__crt_locale_pointers@@@Z 10045552 f i libucrt:wsetlocale.obj
 0001:00044568       ??$?RU__crt_multibyte_data@@@__crt_internal_free_policy@@QBEXQBU__crt_multibyte_data@@@Z 10045568 f i libucrt:wsetlocale.obj
 0001:0004457e       ??$?RV<lambda_70818de7b02deff9841e8b0962a60ed9>@@AAV<lambda_2af78c5f5901b1372d98f9ab3177dfa6>@@AAV<lambda_f51fe5fd7c79a33db34fc9310f277369>@@@?$__crt_seh_guarded_call@X@@QAEX$$QAV<lambda_70818de7b02deff9841e8b0962a60ed9>@@AAV<lambda_2af78c5f5901b1372d98f9ab3177dfa6>@@AAV<lambda_f51fe5fd7c79a33db34fc9310f277369>@@@Z 1004557e f i libucrt:wsetlocale.obj
 0001:000445c7       ??$?RV<lambda_76aaead6e312921abc834cb00a638bdd>@@AAV<lambda_176e34f99554166dd2fac165c457248c>@@V<lambda_998ee1c9f4290b119b936bcd6215875a>@@@?$__crt_seh_guarded_call@X@@QAEX$$QAV<lambda_76aaead6e312921abc834cb00a638bdd>@@AAV<lambda_176e34f99554166dd2fac165c457248c>@@$$QAV<lambda_998ee1c9f4290b119b936bcd6215875a>@@@Z 100455c7 f i libucrt:wsetlocale.obj
 0001:00044623       ??$?RV<lambda_c76fdea48760d5f9368b465f31df4405>@@AAV<lambda_e378711a6f6581bf7f0efd7cdf97f5d9>@@V<lambda_e927a58b2a85c081d733e8c6192ae2d2>@@@?$__crt_seh_guarded_call@X@@QAEX$$QAV<lambda_c76fdea48760d5f9368b465f31df4405>@@AAV<lambda_e378711a6f6581bf7f0efd7cdf97f5d9>@@$$QAV<lambda_e927a58b2a85c081d733e8c6192ae2d2>@@@Z 10045623 f i libucrt:wsetlocale.obj
 0001:00044676       ??$?RV<lambda_c9469061b39d205f0f236529d4a41659>@@AAV<lambda_b7fb1a997d3ebc0cc0186c5835178808>@@V<lambda_14b92c79d699846b5cc916cd4cf280e4>@@@?$__crt_seh_guarded_call@X@@QAEX$$QAV<lambda_c9469061b39d205f0f236529d4a41659>@@AAV<lambda_b7fb1a997d3ebc0cc0186c5835178808>@@$$QAV<lambda_14b92c79d699846b5cc916cd4cf280e4>@@@Z 10045676 f i libucrt:wsetlocale.obj
 0001:000446d0       ??$__acrt_lock_and_call@V<lambda_176e34f99554166dd2fac165c457248c>@@@@YAXW4__acrt_lock_id@@$$QAV<lambda_176e34f99554166dd2fac165c457248c>@@@Z 100456d0 f i libucrt:wsetlocale.obj
 0001:00044702       ??$__acrt_lock_and_call@V<lambda_b7fb1a997d3ebc0cc0186c5835178808>@@@@YAXW4__acrt_lock_id@@$$QAV<lambda_b7fb1a997d3ebc0cc0186c5835178808>@@@Z 10045702 f i libucrt:wsetlocale.obj
 0001:00044734       ??$__acrt_lock_and_call@V<lambda_e378711a6f6581bf7f0efd7cdf97f5d9>@@@@YAXW4__acrt_lock_id@@$$QAV<lambda_e378711a6f6581bf7f0efd7cdf97f5d9>@@@Z 10045734 f i libucrt:wsetlocale.obj
 0001:00044766       ??$__crt_call_and_cleanup@V<lambda_2af78c5f5901b1372d98f9ab3177dfa6>@@V<lambda_f51fe5fd7c79a33db34fc9310f277369>@@@@YAX$$QAV<lambda_2af78c5f5901b1372d98f9ab3177dfa6>@@$$QAV<lambda_f51fe5fd7c79a33db34fc9310f277369>@@@Z 10045766 f i libucrt:wsetlocale.obj
 0001:00044789       ??$__vcrt_va_start_verify_argument_type@H@@YAXXZ 10045789 f i libucrt:wsetlocale.obj
 0001:000448ae       ??0?$__crt_unique_heap_ptr@U__crt_locale_data@@U__crt_internal_free_policy@@@@QAE@QAU__crt_locale_data@@@Z 100458ae f i libucrt:wsetlocale.obj
 0001:000448c2       ??0?$__crt_unique_heap_ptr@U__crt_locale_pointers@@U__crt_internal_free_policy@@@@QAE@QAU__crt_locale_pointers@@@Z 100458c2 f i libucrt:wsetlocale.obj
 0001:000448d6       ??0?$__crt_unique_heap_ptr@U__crt_multibyte_data@@U__crt_internal_free_policy@@@@QAE@QAU__crt_multibyte_data@@@Z 100458d6 f i libucrt:wsetlocale.obj
 0001:000448ea       ??1?$__crt_unique_heap_ptr@U__crt_locale_data@@U__crt_internal_free_policy@@@@QAE@XZ 100458ea f i libucrt:wsetlocale.obj
 0001:00044900       ??1?$__crt_unique_heap_ptr@U__crt_locale_pointers@@U__crt_internal_free_policy@@@@QAE@XZ 10045900 f i libucrt:wsetlocale.obj
 0001:00044916       ??1?$__crt_unique_heap_ptr@U__crt_multibyte_data@@U__crt_internal_free_policy@@@@QAE@XZ 10045916 f i libucrt:wsetlocale.obj
 0001:0004492c       ??B?$__crt_unique_heap_ptr@U__crt_locale_data@@U__crt_internal_free_policy@@@@QBE_NXZ 1004592c f i libucrt:wsetlocale.obj
 0001:00044936       ??B?$__crt_unique_heap_ptr@U__crt_locale_pointers@@U__crt_internal_free_policy@@@@QBE_NXZ 10045936 f i libucrt:wsetlocale.obj
 0001:00044940       ??B?$__crt_unique_heap_ptr@U__crt_multibyte_data@@U__crt_internal_free_policy@@@@QBE_NXZ 10045940 f i libucrt:wsetlocale.obj
 0001:00044b69       ?detach@?$__crt_unique_heap_ptr@U__crt_locale_data@@U__crt_internal_free_policy@@@@QAEPAU__crt_locale_data@@XZ 10045b69 f i libucrt:wsetlocale.obj
 0001:00044b6f       ?detach@?$__crt_unique_heap_ptr@U__crt_locale_pointers@@U__crt_internal_free_policy@@@@QAEPAU__crt_locale_pointers@@XZ 10045b6f f i libucrt:wsetlocale.obj
 0001:00044b75       ?detach@?$__crt_unique_heap_ptr@U__crt_multibyte_data@@U__crt_internal_free_policy@@@@QAEPAU__crt_multibyte_data@@XZ 10045b75 f i libucrt:wsetlocale.obj
 0001:00044b7b       ?get@?$__crt_unique_heap_ptr@U__crt_locale_data@@U__crt_internal_free_policy@@@@QBEPAU__crt_locale_data@@XZ 10045b7b f i libucrt:wsetlocale.obj
 0001:00044b7e       ?get@?$__crt_unique_heap_ptr@U__crt_locale_pointers@@U__crt_internal_free_policy@@@@QBEPAU__crt_locale_pointers@@XZ 10045b7e f i libucrt:wsetlocale.obj
 0001:00044b81       ?get@?$__crt_unique_heap_ptr@U__crt_multibyte_data@@U__crt_internal_free_policy@@@@QBEPAU__crt_multibyte_data@@XZ 10045b81 f i libucrt:wsetlocale.obj
 0001:00044b84       ?is_valid@?$__crt_unique_heap_ptr@U__crt_locale_data@@U__crt_internal_free_policy@@@@QBE_NXZ 10045b84 f i libucrt:wsetlocale.obj
 0001:00044b8e       ?is_valid@?$__crt_unique_heap_ptr@U__crt_locale_pointers@@U__crt_internal_free_policy@@@@QBE_NXZ 10045b8e f i libucrt:wsetlocale.obj
 0001:00044b98       ?is_valid@?$__crt_unique_heap_ptr@U__crt_multibyte_data@@U__crt_internal_free_policy@@@@QBE_NXZ 10045b98 f i libucrt:wsetlocale.obj
 0001:00044ba2       ?release@?$__crt_unique_heap_ptr@U__crt_locale_data@@U__crt_internal_free_policy@@@@QAEXXZ 10045ba2 f i libucrt:wsetlocale.obj
 0001:00044bb8       ?release@?$__crt_unique_heap_ptr@U__crt_locale_pointers@@U__crt_internal_free_policy@@@@QAEXXZ 10045bb8 f i libucrt:wsetlocale.obj
 0001:00044bce       ?release@?$__crt_unique_heap_ptr@U__crt_multibyte_data@@U__crt_internal_free_policy@@@@QAEXXZ 10045bce f i libucrt:wsetlocale.obj
 0001:00044be4       ___acrt_copy_locale_name   10045be4 f   libucrt:wsetlocale.obj
 0001:00044c63       ___acrt_set_locale_changed 10045c63 f   libucrt:wsetlocale.obj
 0001:00044c70       ___acrt_uninitialize_locale 10045c70 f   libucrt:wsetlocale.obj
 0001:00044cd6       ___lc_lctowcs              10045cd6 f   libucrt:wsetlocale.obj
 0001:00044d62       ___lc_wcstolc              10045d62 f   libucrt:wsetlocale.obj
 0001:00044edc       __configthreadlocale       10045edc f   libucrt:wsetlocale.obj
 0001:00044f90       __create_locale            10045f90 f   libucrt:wsetlocale.obj
 0001:0004500d       __expandlocale             1004600d f   libucrt:wsetlocale.obj
 0001:00045461       __free_locale              10046461 f   libucrt:wsetlocale.obj
 0001:00045547       __get_current_locale       10046547 f   libucrt:wsetlocale.obj
 0001:000455e0       __wcreate_locale           100465e0 f   libucrt:wsetlocale.obj
 0001:0004572b       __wcscats                  1004672b f   libucrt:wsetlocale.obj
 0001:0004577c       __wsetlocale               1004677c f   libucrt:wsetlocale.obj
 0001:000462a2       ___p___mb_cur_max          100472a2 f   libucrt:nlsdata.obj
 0001:00046399       ___acrt_report_runtime_error 10047399 f   libucrt:report_runtime_error.obj
 0001:000464ff       __query_app_type           100474ff f   libucrt:report_runtime_error.obj
 0001:00046505       __set_app_type             10047505 f   libucrt:report_runtime_error.obj
 0001:000469f1       __i64toa                   100479f1 f   libucrt:xtoa.obj
 0001:00046a44       __i64toa_s                 10047a44 f   libucrt:xtoa.obj
 0001:00046a95       __i64tow                   10047a95 f   libucrt:xtoa.obj
 0001:00046ae8       __i64tow_s                 10047ae8 f   libucrt:xtoa.obj
 0001:00046b39       __itoa                     10047b39 f   libucrt:xtoa.obj
 0001:00046b7d       __itoa_s                   10047b7d f   libucrt:xtoa.obj
 0001:00046bbf       __itow                     10047bbf f   libucrt:xtoa.obj
 0001:00046c03       __itow_s                   10047c03 f   libucrt:xtoa.obj
 0001:00046c45       __ltoa                     10047c45 f   libucrt:xtoa.obj
 0001:00046c89       __ltoa_s                   10047c89 f   libucrt:xtoa.obj
 0001:00046ccb       __ltow                     10047ccb f   libucrt:xtoa.obj
 0001:00046d0f       __ltow_s                   10047d0f f   libucrt:xtoa.obj
 0001:00046d51       __ui64toa                  10047d51 f   libucrt:xtoa.obj
 0001:00046d7b       __ui64toa_s                10047d7b f   libucrt:xtoa.obj
 0001:00046da3       __ui64tow                  10047da3 f   libucrt:xtoa.obj
 0001:00046dcd       __ui64tow_s                10047dcd f   libucrt:xtoa.obj
 0001:00046df5       __ultoa                    10047df5 f   libucrt:xtoa.obj
 0001:00046e1b       __ultoa_s                  10047e1b f   libucrt:xtoa.obj
 0001:00046e3f       __ultow                    10047e3f f   libucrt:xtoa.obj
 0001:00046e65       __ultow_s                  10047e65 f   libucrt:xtoa.obj
 0001:00046e89       __set_error_mode           10047e89 f   libucrt:set_error_mode.obj
 0001:00046f65       _wcscat_s                  10047f65 f   libucrt:wcscat_s.obj
 0001:0004706f       _wcscpy_s                  1004806f f   libucrt:wcscpy_s.obj
 0001:0004720f       _wcsncat_s                 1004820f f   libucrt:wcsncat_s.obj
 0001:0004729f       _strcat_s                  1004829f f   libucrt:strcat_s.obj
 0001:00047426       _strncat_s                 10048426 f   libucrt:strncat_s.obj
 0001:00047651       ??$message_box@$$TAAPBDAAPBDAAI@?$__crt_char_traits@D@@SAH$$QA$$TAAPBD1AAI@Z 10048651 f i libucrt:crtmbox.obj
 0001:00047679       ??$message_box@$$TAAPB_WAAPB_WAAI@?$__crt_char_traits@_W@@SAH$$QA$$TAAPB_W1AAI@Z 10048679 f i libucrt:crtmbox.obj
 0001:000476a1       ??$message_box@$$TABQBDABQBDK@?$__crt_char_traits@D@@SAH$$QA$$TABQBD1$$QAK@Z 100486a1 f i libucrt:crtmbox.obj
 0001:000476c9       ??$message_box@$$TABQB_WABQB_WK@?$__crt_char_traits@_W@@SAH$$QA$$TABQB_W1$$QAK@Z 100486c9 f i libucrt:crtmbox.obj
 0001:000476f1       ??$message_box@PAUHWND__@@ABQBDABQBDABI@?$__crt_char_traits@D@@SAH$$QAPAUHWND__@@ABQBD1ABI@Z 100486f1 f i libucrt:crtmbox.obj
 0001:00047719       ??$message_box@PAUHWND__@@ABQB_WABQB_WABI@?$__crt_char_traits@_W@@SAH$$QAPAUHWND__@@ABQB_W1ABI@Z 10048719 f i libucrt:crtmbox.obj
 0001:00047795       ??$output_debug_string@ABQBD@?$__crt_char_traits@D@@SAXABQBD@Z 10048795 f i libucrt:crtmbox.obj
 0001:000477ab       ??$output_debug_string@ABQB_W@?$__crt_char_traits@_W@@SAXABQB_W@Z 100487ab f i libucrt:crtmbox.obj
 0001:000477c1       ??0?$__crt_unique_handle_t@U__crt_handle_traits@@@@QAE@QAX@Z 100487c1 f i libucrt:crtmbox.obj
 0001:000477d5       ??1?$__crt_unique_handle_t@U__crt_handle_traits@@@@QAE@XZ 100487d5 f i libucrt:crtmbox.obj
 0001:000477f1       ??B?$__crt_unique_handle_t@U__crt_handle_traits@@@@QBE_NXZ 100487f1 f i libucrt:crtmbox.obj
 0001:000477fc       ?close@?$__crt_unique_handle_t@U__crt_handle_traits@@@@QAEXXZ 100487fc f i libucrt:crtmbox.obj
 0001:00047818       ?close@__crt_handle_traits@@SA_NPAX@Z 10048818 f i libucrt:crtmbox.obj
 0001:00047833       ?get@?$__crt_unique_handle_t@U__crt_handle_traits@@@@QBEPAXXZ 10048833 f i libucrt:crtmbox.obj
 0001:00047836       ?get_invalid_value@__crt_handle_traits@@SAPAXXZ 10048836 f i libucrt:crtmbox.obj
 0001:0004783a       ?is_valid@?$__crt_unique_handle_t@U__crt_handle_traits@@@@QBE_NXZ 1004883a f i libucrt:crtmbox.obj
 0001:00047845       ___acrt_show_narrow_message_box 10048845 f   libucrt:crtmbox.obj
 0001:00047852       ___acrt_show_wide_message_box 10048852 f   libucrt:crtmbox.obj
 0001:0004785f       ??$?RV<lambda_d92cfe8357b99225085016881b624cb0>@@AAV<lambda_b721fa326cdb32351d23dfa67958c160>@@V<lambda_42d75b0848218ec137fa420c8ba9fdf9>@@@?$__crt_seh_guarded_call@H@@QAEH$$QAV<lambda_d92cfe8357b99225085016881b624cb0>@@AAV<lambda_b721fa326cdb32351d23dfa67958c160>@@$$QAV<lambda_42d75b0848218ec137fa420c8ba9fdf9>@@@Z 1004885f f i libucrt:setvbuf.obj
 0001:000478c4       ??$__acrt_lock_stream_and_call@V<lambda_b721fa326cdb32351d23dfa67958c160>@@@@YAHQAU_iobuf@@$$QAV<lambda_b721fa326cdb32351d23dfa67958c160>@@@Z 100488c4 f i libucrt:setvbuf.obj
 0001:00047a61       _setvbuf                   10048a61 f   libucrt:setvbuf.obj
 0001:00047af4       ??$?B$$A6AXH@Z@__crt_fast_encoded_nullptr_t@@QBEP6AXH@ZXZ 10048af4 f i libucrt:signal.obj
 0001:00047b12       ??$?RV<lambda_a048d3beccc847880fc8490e18b82769>@@AAV<lambda_ec61778202f4f5fc7e7711acc23c3bca>@@V<lambda_f7496a158712204296dd6628a163878e>@@@?$__crt_seh_guarded_call@P6AXH@Z@@QAEP6AXH@Z$$QAV<lambda_a048d3beccc847880fc8490e18b82769>@@AAV<lambda_ec61778202f4f5fc7e7711acc23c3bca>@@$$QAV<lambda_f7496a158712204296dd6628a163878e>@@@Z 10048b12 f i libucrt:signal.obj
 0001:00047b82       ??$__acrt_lock_and_call@V<lambda_ec61778202f4f5fc7e7711acc23c3bca>@@@@YAP6AXH@ZW4__acrt_lock_id@@$$QAV<lambda_ec61778202f4f5fc7e7711acc23c3bca>@@@Z 10048b82 f i libucrt:signal.obj
 0001:00047bb4       ??$__crt_fast_decode_pointer@P6AXH@Z@@YAP6AXH@ZQ6AXH@Z@Z 10048bb4 f i libucrt:signal.obj
 0001:00047bcf       ??$__crt_fast_encode_pointer@P6AXH@Z@@YAP6AXH@ZQ6AXH@Z@Z 10048bcf f i libucrt:signal.obj
 0001:00047d79       ?initialize@?$dual_state_global@P6AXH@Z@__crt_state_management@@QAEXQ6AXH@Z@Z 10048d79 f i libucrt:signal.obj
 0001:00047e25       ?value@?$dual_state_global@P6AXH@Z@__crt_state_management@@QAEAAP6AXH@ZXZ 10048e25 f i libucrt:signal.obj
 0001:00047e28       ___acrt_get_sigabrt_handler 10048e28 f   libucrt:signal.obj
 0001:00047e44       ___acrt_initialize_signal_handlers 10048e44 f   libucrt:signal.obj
 0001:00047e8d       ___fpecode                 10048e8d f   libucrt:signal.obj
 0001:00047e98       ___pxcptinfoptrs           10048e98 f   libucrt:signal.obj
 0001:00047ea3       _raise                     10048ea3 f   libucrt:signal.obj
 0001:0004812d       _signal                    1004912d f   libucrt:signal.obj
 0001:0004834b       __realloc_base             1004934b f   libucrt:realloc_base.obj
 0001:000483ce       ___acrt_initialize_locks   100493ce f   libucrt:locks.obj
 0001:0004841f       ___acrt_lock               1004941f f   libucrt:locks.obj
 0001:0004843b       ___acrt_uninitialize_locks 1004943b f   libucrt:locks.obj
 0001:00048478       ___acrt_unlock             10049478 f   libucrt:locks.obj
 0001:00048494       __lock_locales             10049494 f   libucrt:locks.obj
 0001:0004849f       __unlock_locales           1004949f f   libucrt:locks.obj
 0001:000484aa       ??$?RV<lambda_123407a5e2ac06da108355a851863b7a>@@AAV<lambda_2fe9b910cf3cbf4a0ab98a02ba45b3ec>@@V<lambda_ae55bdf541ad94d75914d381c370e64d>@@@?$__crt_seh_guarded_call@H@@QAEH$$QAV<lambda_123407a5e2ac06da108355a851863b7a>@@AAV<lambda_2fe9b910cf3cbf4a0ab98a02ba45b3ec>@@$$QAV<lambda_ae55bdf541ad94d75914d381c370e64d>@@@Z 100494aa f i libucrt:close.obj
 0001:0004854c       ??$__acrt_lowio_lock_fh_and_call@V<lambda_2fe9b910cf3cbf4a0ab98a02ba45b3ec>@@@@YAHH$$QAV<lambda_2fe9b910cf3cbf4a0ab98a02ba45b3ec>@@@Z 1004954c f i libucrt:close.obj
 0001:0004869f       __close                    1004969f f   libucrt:close.obj
 0001:0004873d       __close_nolock             1004973d f   libucrt:close.obj
 0001:00048800       ??$?RU__crt_stdio_stream_data@@@__crt_internal_free_policy@@QBEXQBU__crt_stdio_stream_data@@@Z 10049800 f i libucrt:stream.obj
 0001:00048816       ??0?$__crt_unique_heap_ptr@U__crt_stdio_stream_data@@U__crt_internal_free_policy@@@@QAE@QAU__crt_stdio_stream_data@@@Z 10049816 f i libucrt:stream.obj
 0001:0004882a       ??0__crt_stdio_stream@@QAE@XZ 1004982a f i libucrt:stream.obj
 0001:00048830       ??1?$__crt_unique_heap_ptr@U__crt_stdio_stream_data@@U__crt_internal_free_policy@@@@QAE@XZ 10049830 f i libucrt:stream.obj
 0001:00048846       ?__acrt_stdio_allocate_stream@@YA?AV__crt_stdio_stream@@XZ 10049846 f   libucrt:stream.obj
 0001:000488bc       ?__acrt_stdio_free_stream@@YAXV__crt_stdio_stream@@@Z 100498bc f   libucrt:stream.obj
 0001:00048905       ?deallocate@__crt_stdio_stream@@QAEXXZ 10049905 f i libucrt:stream.obj
 0001:00048911       ?detach@?$__crt_unique_heap_ptr@U__crt_stdio_stream_data@@U__crt_internal_free_policy@@@@QAEPAU__crt_stdio_stream_data@@XZ 10049911 f i libucrt:stream.obj
 0001:00048a0a       ?lock@__crt_stdio_stream@@QBEXXZ 10049a0a f i libucrt:stream.obj
 0001:00048a15       ?release@?$__crt_unique_heap_ptr@U__crt_stdio_stream_data@@U__crt_internal_free_policy@@@@QAEXXZ 10049a15 f i libucrt:stream.obj
 0001:00048a2b       ?try_allocate@__crt_stdio_stream@@QAE_NXZ 10049a2b f i libucrt:stream.obj
 0001:00048a54       ??$__acrt_stdio_parse_mode@D@@YA?AU__acrt_stdio_stream_mode@@QBD@Z 10049a54 f i libucrt:openfile.obj
 0001:00048d12       ??$__acrt_stdio_parse_mode@_W@@YA?AU__acrt_stdio_stream_mode@@QB_W@Z 10049d12 f i libucrt:openfile.obj
 0001:00049133       ??$tcsncmp@AAPBDAAY02$$CBDI@?$__crt_char_traits@D@@SAHAAPBDAAY02$$CBD$$QAI@Z 1004a133 f i libucrt:openfile.obj
 0001:00049156       ??$tcsncmp@AAPB_WAAY02$$CB_WI@?$__crt_char_traits@_W@@SAHAAPB_WAAY02$$CB_W$$QAI@Z 1004a156 f i libucrt:openfile.obj
 0001:00049179       ??$tcsnicmp@AAPBDAAY04$$CBDI@?$__crt_char_traits@D@@SAHAAPBDAAY04$$CBD$$QAI@Z 1004a179 f i libucrt:openfile.obj
 0001:0004919c       ??$tcsnicmp@AAPBDAAY06$$CBDI@?$__crt_char_traits@D@@SAHAAPBDAAY06$$CBD$$QAI@Z 1004a19c f i libucrt:openfile.obj
 0001:000491bf       ??$tcsnicmp@AAPBDAAY07$$CBDI@?$__crt_char_traits@D@@SAHAAPBDAAY07$$CBD$$QAI@Z 1004a1bf f i libucrt:openfile.obj
 0001:000491e2       ??$tcsnicmp@AAPB_WAAY04$$CB_WI@?$__crt_char_traits@_W@@SAHAAPB_WAAY04$$CB_W$$QAI@Z 1004a1e2 f i libucrt:openfile.obj
 0001:00049205       ??$tcsnicmp@AAPB_WAAY06$$CB_WI@?$__crt_char_traits@_W@@SAHAAPB_WAAY06$$CB_W$$QAI@Z 1004a205 f i libucrt:openfile.obj
 0001:00049228       ??$tcsnicmp@AAPB_WAAY07$$CB_WI@?$__crt_char_traits@_W@@SAHAAPB_WAAY07$$CB_W$$QAI@Z 1004a228 f i libucrt:openfile.obj
 0001:0004924b       ??$tsopen_s@PAHABQBDABHABHH@?$__crt_char_traits@D@@SAH$$QAPAHABQBDABH2$$QAH@Z 1004a24b f i libucrt:openfile.obj
 0001:0004927d       ??$tsopen_s@PAHABQB_WABHABHH@?$__crt_char_traits@_W@@SAH$$QAPAHABQB_WABH2$$QAH@Z 1004a27d f i libucrt:openfile.obj
 0001:000492af       ?__acrt_stdio_parse_mode_D@@YA_NAAU__acrt_stdio_stream_mode@@@Z 1004a2af f i libucrt:openfile.obj
 0001:000492d0       ?__acrt_stdio_parse_mode_N@@YA_NAAU__acrt_stdio_stream_mode@@@Z 1004a2d0 f i libucrt:openfile.obj
 0001:000492e6       ?__acrt_stdio_parse_mode_R@@YA_NAAU__acrt_stdio_stream_mode@@AA_N@Z 1004a2e6 f i libucrt:openfile.obj
 0001:0004930b       ?__acrt_stdio_parse_mode_S@@YA_NAAU__acrt_stdio_stream_mode@@AA_N@Z 1004a30b f i libucrt:openfile.obj
 0001:00049330       ?__acrt_stdio_parse_mode_T@@YA_NAAU__acrt_stdio_stream_mode@@@Z 1004a330 f i libucrt:openfile.obj
 0001:00049356       ?__acrt_stdio_parse_mode_b@@YA_NAAU__acrt_stdio_stream_mode@@@Z 1004a356 f i libucrt:openfile.obj
 0001:0004937e       ?__acrt_stdio_parse_mode_c@@YA_NAAU__acrt_stdio_stream_mode@@AA_N@Z 1004a37e f i libucrt:openfile.obj
 0001:000493a8       ?__acrt_stdio_parse_mode_n@@YA_NAAU__acrt_stdio_stream_mode@@AA_N@Z 1004a3a8 f i libucrt:openfile.obj
 0001:000493d2       ?__acrt_stdio_parse_mode_plus@@YA_NAAU__acrt_stdio_stream_mode@@AA_N@Z 1004a3d2 f i libucrt:openfile.obj
 0001:00049414       ?__acrt_stdio_parse_mode_t@@YA_NAAU__acrt_stdio_stream_mode@@@Z 1004a414 f i libucrt:openfile.obj
 0001:0004943c       __openfile                 1004a43c f   libucrt:openfile.obj
 0001:00049449       __wopenfile                1004a449 f   libucrt:openfile.obj
 0001:00049aee       __read                     1004aaee f   libucrt:read.obj
 0001:00049c45       __read_nolock              1004ac45 f   libucrt:read.obj
 0001:0004a5dd       ___acrt_stdio_refill_and_read_narrow_nolock 1004b5dd f   libucrt:_filbuf.obj
 0001:0004a5ea       ___acrt_stdio_refill_and_read_wide_nolock 1004b5ea f   libucrt:_filbuf.obj
 0001:0004ad49       __write                    1004bd49 f   libucrt:write.obj
 0001:0004ae6e       __write_nolock             1004be6e f   libucrt:write.obj
 0001:0004b5b4       ___acrt_stdio_flush_and_write_narrow_nolock 1004c5b4 f   libucrt:_flsbuf.obj
 0001:0004b5c1       ___acrt_stdio_flush_and_write_wide_nolock 1004c5c1 f   libucrt:_flsbuf.obj
 0001:0004b5ce       ___acrt_copy_path_to_wide_string 1004c5ce f   libucrt:string_utilities.obj
 0001:0004b6c6       ___acrt_copy_to_char       1004c6c6 f   libucrt:string_utilities.obj
 0001:0004b7b1       __wremove                  1004c7b1 f   libucrt:wunlink.obj
 0001:0004b7e3       __wunlink                  1004c7e3 f   libucrt:wunlink.obj
 0001:0004bc57       __lseek                    1004cc57 f   libucrt:lseek.obj
 0001:0004bc64       __lseek_nolock             1004cc64 f   libucrt:lseek.obj
 0001:0004bc71       __lseeki64                 1004cc71 f   libucrt:lseek.obj
 0001:0004bc92       __lseeki64_nolock          1004cc92 f   libucrt:lseek.obj
 0001:0004bcb3       __chgsign                  1004ccb3 f   libucrt:ieeemisc.obj
 0001:0004bced       __chgsignf                 1004cced f   libucrt:ieeemisc.obj
 0001:0004bd18       __copysign                 1004cd18 f   libucrt:ieeemisc.obj
 0001:0004bd4c       __copysignf                1004cd4c f   libucrt:ieeemisc.obj
 0001:0004bd71       __finite                   1004cd71 f   libucrt:ieeemisc.obj
 0001:0004bd91       __fpclass                  1004cd91 f   libucrt:ieeemisc.obj
 0001:0004be5e       __isnan                    1004ce5e f   libucrt:ieeemisc.obj
 0001:0004bea1       __logb                     1004cea1 f   libucrt:ieeemisc.obj
 0001:0004bfa6       __nextafter                1004cfa6 f   libucrt:ieeemisc.obj
 0001:0004bfcc       __scalb                    1004cfcc f   libucrt:ieeemisc.obj
 0001:0004bfec       __add_exp                  1004cfec f   libucrt:util.obj
 0001:0004c026       __decomp                   1004d026 f   libucrt:util.obj
 0001:0004c12f       __get_exp                  1004d12f f   libucrt:util.obj
 0001:0004c14e       __set_bexp                 1004d14e f   libucrt:util.obj
 0001:0004c181       __set_exp                  1004d181 f   libucrt:util.obj
 0001:0004c1bb       __sptype                   1004d1bb f   libucrt:util.obj
 0001:0004c230       ___clrfp_sse2              1004d230 f   libucrt:fpctrl.obj
 0001:0004c259       ___ctrlfp_sse2             1004d259 f   libucrt:fpctrl.obj
 0001:0004c2a2       ___fclrf_sse2              1004d2a2 f   libucrt:fpctrl.obj
 0001:0004c2c8       ___get_fpsr_sse2           1004d2c8 f   libucrt:fpctrl.obj
 0001:0004c2ed       ___set_fpsr_sse2           1004d2ed f   libucrt:fpctrl.obj
 0001:0004c380       ___set_statfp_sse2         1004d380 f   libucrt:fpctrl.obj
 0001:0004c3a1       ___statfp_sse2             1004d3a1 f   libucrt:fpctrl.obj
 0001:0004c3bb       __clrfp                    1004d3bb f   libucrt:fpctrl.obj
 0001:0004c3d2       __ctrlfp                   1004d3d2 f   libucrt:fpctrl.obj
 0001:0004c409       __set_statfp               1004d409 f   libucrt:fpctrl.obj
 0001:0004c47a       __statfp                   1004d47a f   libucrt:fpctrl.obj
 0001:0004c490       ??$__crt_fast_decode_pointer@P6AHPAU_exception@@@Z@@YAP6AHPAU_exception@@@ZQ6AH0@Z@Z 1004d490 f i libucrt:matherr.obj
 0001:0004c4ab       ??$__crt_fast_encode_pointer@P6AHPAU_exception@@@Z@@YAP6AHPAU_exception@@@ZQ6AH0@Z@Z 1004d4ab f i libucrt:matherr.obj
 0001:0004c4d1       ?initialize@?$dual_state_global@P6AHPAU_exception@@@Z@__crt_state_management@@QAEXQ6AHPAU_exception@@@Z@Z 1004d4d1 f i libucrt:matherr.obj
 0001:0004c50e       ?value@?$dual_state_global@P6AHPAU_exception@@@Z@__crt_state_management@@QAEAAP6AHPAU_exception@@@ZXZ 1004d50e f i libucrt:matherr.obj
 0001:0004c511       ___acrt_has_user_matherr   1004d511 f   libucrt:matherr.obj
 0001:0004c530       ___acrt_initialize_user_matherr 1004d530 f   libucrt:matherr.obj
 0001:0004c549       ___acrt_invoke_user_matherr 1004d549 f   libucrt:matherr.obj
 0001:0004c5a4       ___setusermatherr          1004d5a4 f   libucrt:matherr.obj
 0001:0004cfb6       ??$find_first_file_ex@ABQADW4_FINDEX_INFO_LEVELS@@PAU_WIN32_FIND_DATAA@@W4_FINDEX_SEARCH_OPS@@$$TH@?$__crt_char_traits@D@@SAPAXABQAD$$QAW4_FINDEX_INFO_LEVELS@@$$QAPAU_WIN32_FIND_DATAA@@$$QAW4_FINDEX_SEARCH_OPS@@$$QA$$T$$QAH@Z 1004dfb6 f i libucrt:argv_wildcards.obj
 0001:0004cfeb       ??$find_first_file_ex@ABQA_WW4_FINDEX_INFO_LEVELS@@PAU_WIN32_FIND_DATAW@@W4_FINDEX_SEARCH_OPS@@$$TH@?$__crt_char_traits@_W@@SAPAXABQA_W$$QAW4_FINDEX_INFO_LEVELS@@$$QAPAU_WIN32_FIND_DATAW@@$$QAW4_FINDEX_SEARCH_OPS@@$$QA$$T$$QAH@Z 1004dfeb f i libucrt:argv_wildcards.obj
 0001:0004d020       ??$find_next_file@PAXPAU_WIN32_FIND_DATAA@@@?$__crt_char_traits@D@@SAH$$QAPAX$$QAPAU_WIN32_FIND_DATAA@@@Z 1004e020 f i libucrt:argv_wildcards.obj
 0001:0004d03c       ??$find_next_file@PAXPAU_WIN32_FIND_DATAW@@@?$__crt_char_traits@_W@@SAH$$QAPAX$$QAPAU_WIN32_FIND_DATAW@@@Z 1004e03c f i libucrt:argv_wildcards.obj
 0001:0004d058       ??$tcsncpy_s@AAPADIAAPADABI@?$__crt_char_traits@D@@SAHAAPAD$$QAI0ABI@Z 1004e058 f i libucrt:argv_wildcards.obj
 0001:0004d083       ??$tcsncpy_s@AAPA_WIAAPA_WABI@?$__crt_char_traits@_W@@SAHAAPA_W$$QAI0ABI@Z 1004e083 f i libucrt:argv_wildcards.obj
 0001:0004d0ae       ??$tcsncpy_s@PAD$$CBIABQBDABI@?$__crt_char_traits@D@@SAH$$QAPAD$$QBIABQBDABI@Z 1004e0ae f i libucrt:argv_wildcards.obj
 0001:0004d0d9       ??$tcsncpy_s@PADABIABQBDABI@?$__crt_char_traits@D@@SAH$$QAPADABIABQBD1@Z 1004e0d9 f i libucrt:argv_wildcards.obj
 0001:0004d104       ??$tcsncpy_s@PA_W$$CBIABQB_WABI@?$__crt_char_traits@_W@@SAH$$QAPA_W$$QBIABQB_WABI@Z 1004e104 f i libucrt:argv_wildcards.obj
 0001:0004d12f       ??$tcsncpy_s@PA_WABIABQB_WABI@?$__crt_char_traits@_W@@SAH$$QAPA_WABIABQB_W1@Z 1004e12f f i libucrt:argv_wildcards.obj
 0001:0004d15a       ??$tcspbrk@AAPADAAY02$$CBD@?$__crt_char_traits@D@@SAPADAAPADAAY02$$CBD@Z 1004e15a f i libucrt:argv_wildcards.obj
 0001:0004d175       ??$tcspbrk@AAPA_WAAY02$$CB_W@?$__crt_char_traits@_W@@SAPA_WAAPA_WAAY02$$CB_W@Z 1004e175 f i libucrt:argv_wildcards.obj
 0001:0004d190       ??0?$__crt_unique_handle_t@U__crt_findfile_traits@@@@QAE@QAX@Z 1004e190 f i libucrt:argv_wildcards.obj
 0001:0004d1a4       ??0?$argument_list@D@?A0xb0e4b824@@QAE@XZ 1004e1a4 f i libucrt:argv_wildcards.obj
 0001:0004d1b4       ??0?$argument_list@_W@?A0xb0e4b824@@QAE@XZ 1004e1b4 f i libucrt:argv_wildcards.obj
 0001:0004d1c4       ??1?$__crt_unique_handle_t@U__crt_findfile_traits@@@@QAE@XZ 1004e1c4 f i libucrt:argv_wildcards.obj
 0001:0004d1e0       ??1?$argument_list@D@?A0xb0e4b824@@QAE@XZ 1004e1e0 f i libucrt:argv_wildcards.obj
 0001:0004d20e       ??1?$argument_list@_W@?A0xb0e4b824@@QAE@XZ 1004e20e f i libucrt:argv_wildcards.obj
 0001:0004d29c       ?append@?$argument_list@D@?A0xb0e4b824@@QAEHQAD@Z 1004e29c f i libucrt:argv_wildcards.obj
 0001:0004d2de       ?append@?$argument_list@_W@?A0xb0e4b824@@QAEHQA_W@Z 1004e2de f i libucrt:argv_wildcards.obj
 0001:0004d320       ?begin@?$argument_list@D@?A0xb0e4b824@@QBEPAPADXZ 1004e320 f i libucrt:argv_wildcards.obj
 0001:0004d323       ?begin@?$argument_list@_W@?A0xb0e4b824@@QBEPAPA_WXZ 1004e323 f i libucrt:argv_wildcards.obj
 0001:0004d326       ?close@?$__crt_unique_handle_t@U__crt_findfile_traits@@@@QAEXXZ 1004e326 f i libucrt:argv_wildcards.obj
 0001:0004d342       ?close@__crt_findfile_traits@@SA_NPAX@Z 1004e342 f i libucrt:argv_wildcards.obj
 0001:0004d35d       ?end@?$argument_list@D@?A0xb0e4b824@@QBEPAPADXZ 1004e35d f i libucrt:argv_wildcards.obj
 0001:0004d361       ?end@?$argument_list@_W@?A0xb0e4b824@@QBEPAPA_WXZ 1004e361 f i libucrt:argv_wildcards.obj
 0001:0004d365       ?expand_if_necessary@?$argument_list@D@?A0xb0e4b824@@AAEHXZ 1004e365 f i libucrt:argv_wildcards.obj
 0001:0004d40d       ?expand_if_necessary@?$argument_list@_W@?A0xb0e4b824@@AAEHXZ 1004e40d f i libucrt:argv_wildcards.obj
 0001:0004d4b5       ?get@?$__crt_unique_handle_t@U__crt_findfile_traits@@@@QBEPAXXZ 1004e4b5 f i libucrt:argv_wildcards.obj
 0001:0004d4b8       ?get_invalid_value@__crt_findfile_traits@@SAPAXXZ 1004e4b8 f i libucrt:argv_wildcards.obj
 0001:0004d4d9       ?size@?$argument_list@D@?A0xb0e4b824@@QBEIXZ 1004e4d9 f i libucrt:argv_wildcards.obj
 0001:0004d4e4       ?size@?$argument_list@_W@?A0xb0e4b824@@QBEIXZ 1004e4e4 f i libucrt:argv_wildcards.obj
 0001:0004d4ef       ?strpbrk@@YAPADQADQBD@Z    1004e4ef f i libucrt:argv_wildcards.obj
 0001:0004d4fc       ?wcspbrk@@YAPA_WPA_WPB_W@Z 1004e4fc f i libucrt:argv_wildcards.obj
 0001:0004d509       ___acrt_expand_narrow_argv_wildcards 1004e509 f   libucrt:argv_wildcards.obj
 0001:0004d516       ___acrt_expand_wide_argv_wildcards 1004e516 f   libucrt:argv_wildcards.obj
 0001:0004d523       ??$?RV<lambda_978dc153c237d78434369da87b74ff60>@@AAV<lambda_ad1ced32f4ac17aa236e5ef05d6b3b7c>@@V<lambda_4a8533e2866a575feecb8298ce776b0d>@@@?$__crt_seh_guarded_call@X@@QAEX$$QAV<lambda_978dc153c237d78434369da87b74ff60>@@AAV<lambda_ad1ced32f4ac17aa236e5ef05d6b3b7c>@@$$QAV<lambda_4a8533e2866a575feecb8298ce776b0d>@@@Z 1004e523 f i libucrt:mbctype.obj
 0001:0004d576       ??$__acrt_lock_and_call@V<lambda_ad1ced32f4ac17aa236e5ef05d6b3b7c>@@@@YAXW4__acrt_lock_id@@$$QAV<lambda_ad1ced32f4ac17aa236e5ef05d6b3b7c>@@@Z 1004e576 f i libucrt:mbctype.obj
 0001:0004db87       ___acrt_initialize_multibyte 1004eb87 f   libucrt:mbctype.obj
 0001:0004dbac       ___acrt_update_thread_multibyte_data 1004ebac f   libucrt:mbctype.obj
 0001:0004dc76       ___p__mbcasemap            1004ec76 f   libucrt:mbctype.obj
 0001:0004dc7c       ___p__mbctype              1004ec7c f   libucrt:mbctype.obj
 0001:0004dc82       __getmbcp                  1004ec82 f   libucrt:mbctype.obj
 0001:0004dcc5       __setmbcp                  1004ecc5 f   libucrt:mbctype.obj
 0001:0004dcdc       __setmbcp_nolock           1004ecdc f   libucrt:mbctype.obj
 0001:0004e059       __ismbbalnum               1004f059 f   libucrt:ismbbyte.obj
 0001:0004e07a       __ismbbalnum_l             1004f07a f   libucrt:ismbbyte.obj
 0001:0004e09d       __ismbbalpha               1004f09d f   libucrt:ismbbyte.obj
 0001:0004e0be       __ismbbalpha_l             1004f0be f   libucrt:ismbbyte.obj
 0001:0004e0e1       __ismbbblank               1004f0e1 f   libucrt:ismbbyte.obj
 0001:0004e10c       __ismbbblank_l             1004f10c f   libucrt:ismbbyte.obj
 0001:0004e139       __ismbbgraph               1004f139 f   libucrt:ismbbyte.obj
 0001:0004e15a       __ismbbgraph_l             1004f15a f   libucrt:ismbbyte.obj
 0001:0004e17d       __ismbbkalnum              1004f17d f   libucrt:ismbbyte.obj
 0001:0004e19b       __ismbbkalnum_l            1004f19b f   libucrt:ismbbyte.obj
 0001:0004e1ba       __ismbbkana                1004f1ba f   libucrt:ismbbyte.obj
 0001:0004e1d1       __ismbbkana_l              1004f1d1 f   libucrt:ismbbyte.obj
 0001:0004e236       __ismbbkprint              1004f236 f   libucrt:ismbbyte.obj
 0001:0004e254       __ismbbkprint_l            1004f254 f   libucrt:ismbbyte.obj
 0001:0004e273       __ismbbkpunct              1004f273 f   libucrt:ismbbyte.obj
 0001:0004e291       __ismbbkpunct_l            1004f291 f   libucrt:ismbbyte.obj
 0001:0004e2b0       __ismbblead                1004f2b0 f   libucrt:ismbbyte.obj
 0001:0004e2ce       __ismbblead_l              1004f2ce f   libucrt:ismbbyte.obj
 0001:0004e2ed       __ismbbprint               1004f2ed f   libucrt:ismbbyte.obj
 0001:0004e30e       __ismbbprint_l             1004f30e f   libucrt:ismbbyte.obj
 0001:0004e331       __ismbbpunct               1004f331 f   libucrt:ismbbyte.obj
 0001:0004e34f       __ismbbpunct_l             1004f34f f   libucrt:ismbbyte.obj
 0001:0004e36e       __ismbbtrail               1004f36e f   libucrt:ismbbyte.obj
 0001:0004e38c       __ismbbtrail_l             1004f38c f   libucrt:ismbbyte.obj
 0001:0004e3ab       ___acrt_initialize_command_line 1004f3ab f   libucrt:argv_data.obj
 0001:0004e3ca       ___acrt_uninitialize_command_line 1004f3ca f   libucrt:argv_data.obj
 0001:0004e3cd       ___p___argc                1004f3cd f   libucrt:argv_data.obj
 0001:0004e3d3       ___p___argv                1004f3d3 f   libucrt:argv_data.obj
 0001:0004e3d9       ___p___wargv               1004f3d9 f   libucrt:argv_data.obj
 0001:0004e3df       ___p__acmdln               1004f3df f   libucrt:argv_data.obj
 0001:0004e3e5       ___p__pgmptr               1004f3e5 f   libucrt:argv_data.obj
 0001:0004e3eb       ___p__wcmdln               1004f3eb f   libucrt:argv_data.obj
 0001:0004e3f1       ___p__wpgmptr              1004f3f1 f   libucrt:argv_data.obj
 0001:0004e3f7       __get_pgmptr               1004f3f7 f   libucrt:argv_data.obj
 0001:0004e434       __get_wpgmptr              1004f434 f   libucrt:argv_data.obj
 0001:0004e471       ??0?$__crt_unique_handle_t@Uenvironment_strings_traits@?A0x588e5281@@@@QAE@QA_W@Z 1004f471 f i libucrt:get_environment_from_os.obj
 0001:0004e485       ??1?$__crt_unique_handle_t@Uenvironment_strings_traits@?A0x588e5281@@@@QAE@XZ 1004f485 f i libucrt:get_environment_from_os.obj
 0001:0004e4a1       ??B?$__crt_unique_handle_t@Uenvironment_strings_traits@?A0x588e5281@@@@QBE_NXZ 1004f4a1 f i libucrt:get_environment_from_os.obj
 0001:0004e4ab       ?close@?$__crt_unique_handle_t@Uenvironment_strings_traits@?A0x588e5281@@@@QAEXXZ 1004f4ab f i libucrt:get_environment_from_os.obj
 0001:0004e4c7       ?close@environment_strings_traits@?A0x588e5281@@SA_NPA_W@Z 1004f4c7 f i libucrt:get_environment_from_os.obj
 0001:0004e521       ?get@?$__crt_unique_handle_t@Uenvironment_strings_traits@?A0x588e5281@@@@QBEPA_WXZ 1004f521 f i libucrt:get_environment_from_os.obj
 0001:0004e524       ?get_invalid_value@environment_strings_traits@?A0x588e5281@@SAPA_WXZ 1004f524 f i libucrt:get_environment_from_os.obj
 0001:0004e527       ?is_valid@?$__crt_unique_handle_t@Uenvironment_strings_traits@?A0x588e5281@@@@QBE_NXZ 1004f527 f i libucrt:get_environment_from_os.obj
 0001:0004e531       ___dcrt_get_narrow_environment_from_os 1004f531 f   libucrt:get_environment_from_os.obj
 0001:0004e5d4       ___dcrt_get_wide_environment_from_os 1004f5d4 f   libucrt:get_environment_from_os.obj
 0001:0004ee6c       ??$get_or_create_environment_nolock@$$$V@?$__crt_char_traits@D@@SAPAPADXZ 1004fe6c f i libucrt:setenv.obj
 0001:0004ee71       ??$get_or_create_environment_nolock@$$$V@?$__crt_char_traits@_W@@SAPAPA_WXZ 1004fe71 f i libucrt:setenv.obj
 0001:0004ee76       ??$set_environment_variable@ABQADQAD@?$__crt_char_traits@D@@SAHABQAD$$QBQAD@Z 1004fe76 f i libucrt:setenv.obj
 0001:0004ee92       ??$set_environment_variable@ABQA_WQA_W@?$__crt_char_traits@_W@@SAHABQA_W$$QBQA_W@Z 1004fe92 f i libucrt:setenv.obj
 0001:0004eeae       ??$tcschr@ABQADD@?$__crt_char_traits@D@@SAPADABQAD$$QAD@Z 1004feae f i libucrt:setenv.obj
 0001:0004eece       ??$tcschr@ABQA_WD@?$__crt_char_traits@_W@@SAPA_WABQA_W$$QAD@Z 1004fece f i libucrt:setenv.obj
 0001:0004eef3       ??$tcscpy_s@AAPADABIAAPAD@?$__crt_char_traits@D@@SAHAAPADABI0@Z 1004fef3 f i libucrt:setenv.obj
 0001:0004ef18       ??$tcscpy_s@AAPA_WABIAAPA_W@?$__crt_char_traits@_W@@SAHAAPA_WABI0@Z 1004ff18 f i libucrt:setenv.obj
 0001:0004ef3d       ??$tcscpy_s@ABQADABIABQAD@?$__crt_char_traits@D@@SAHABQADABI0@Z 1004ff3d f i libucrt:setenv.obj
 0001:0004ef62       ??$tcscpy_s@ABQA_WABIABQA_W@?$__crt_char_traits@_W@@SAHABQA_WABI0@Z 1004ff62 f i libucrt:setenv.obj
 0001:0004ef87       ??$tcsnicoll@ABQBDAAPADABI@?$__crt_char_traits@D@@SAHABQBDAAPADABI@Z 1004ff87 f i libucrt:setenv.obj
 0001:0004efac       ??$tcsnicoll@ABQB_WAAPA_WABI@?$__crt_char_traits@_W@@SAHABQB_WAAPA_WABI@Z 1004ffac f i libucrt:setenv.obj
 0001:0004eff5       ?strchr@@YAPADQADH@Z       1004fff5 f i libucrt:setenv.obj
 0001:0004f002       ?wcschr@@YAPA_WPA_W_W@Z    10050002 f i libucrt:setenv.obj
 0001:0004f00f       ___dcrt_set_variable_in_narrow_environment_nolock 1005000f f   libucrt:setenv.obj
 0001:0004f01c       ___dcrt_set_variable_in_wide_environment_nolock 1005001c f   libucrt:setenv.obj
 0001:0004f029       __recalloc                 10050029 f   libucrt:recalloc.obj
 0001:0004f036       __recalloc_base            10050036 f   libucrt:recalloc.obj
 0001:0004f0be       ___acrt_getheap            100500be f   libucrt:heap_handle.obj
 0001:0004f0c4       ___acrt_initialize_heap    100500c4 f   libucrt:heap_handle.obj
 0001:0004f0d9       ___acrt_uninitialize_heap  100500d9 f   libucrt:heap_handle.obj
 0001:0004f0e5       __get_heap_handle          100500e5 f   libucrt:heap_handle.obj
 0001:0004f0eb       ___acrt_execute_initializers 100500eb f   libucrt:shared_initialization.obj
 0001:0004f18e       ___acrt_execute_uninitializers 1005018e f   libucrt:shared_initialization.obj
 0001:0004f1ee       ??$?B$$A6AHI@Z@__crt_fast_encoded_nullptr_t@@QBEP6AHI@ZXZ 100501ee f i libucrt:new_handler.obj
 0001:0004f20c       ??$__crt_fast_decode_pointer@P6AHI@Z@@YAP6AHI@ZQ6AHI@Z@Z 1005020c f i libucrt:new_handler.obj
 0001:0004f227       ??$__crt_fast_encode_pointer@P6AHI@Z@@YAP6AHI@ZQ6AHI@Z@Z 10050227 f i libucrt:new_handler.obj
 0001:0004f24d       ?_set_new_handler@@YAP6AHI@ZH@Z 1005024d f   libucrt:new_handler.obj
 0001:0004f273       ?initialize@?$dual_state_global@P6AHI@Z@__crt_state_management@@QAEXQ6AHI@Z@Z 10050273 f i libucrt:new_handler.obj
 0001:0004f2b0       ?value@?$dual_state_global@P6AHI@Z@__crt_state_management@@QAEAAP6AHI@ZXZ 100502b0 f i libucrt:new_handler.obj
 0001:0004f2b3       ___acrt_initialize_new_handler 100502b3 f   libucrt:new_handler.obj
 0001:0004f2cc       __callnewh                 100502cc f   libucrt:new_handler.obj
 0001:0004f321       __query_new_handler        10050321 f   libucrt:new_handler.obj
 0001:0004f387       __set_new_handler          10050387 f   libucrt:new_handler.obj
 0001:0004f3ff       ?value@?$dual_state_global@J@__crt_state_management@@QAEAAJXZ 100503ff f i libucrt:new_mode.obj
 0001:0004f402       __query_new_mode           10050402 f   libucrt:new_mode.obj
 0001:0004f408       __set_new_mode             10050408 f   libucrt:new_mode.obj
 0001:0004f442       ___pctype_func             10050442 f   libucrt:ctype.obj
 0001:0004f471       ___pwctype_func            10050471 f   libucrt:ctype.obj
 0001:0004f477       __iswctype_l               10050477 f   libucrt:iswctype.obj
 0001:0004f490       _iswctype                  10050490 f   libucrt:iswctype.obj
 0001:0004f506       __isctype                  10050506 f   libucrt:isctype.obj
 0001:0004f543       __isctype_l                10050543 f   libucrt:isctype.obj
 0001:0004f80a       ___acrt_DownlevelLCIDToLocaleName 1005080a f   libucrt:lcidtoname_downlevel.obj
 0001:0004f8de       ___acrt_DownlevelLocaleNameToLCID 100508de f   libucrt:lcidtoname_downlevel.obj
 0001:0004f915       ??$?RV<lambda_61cee617f5178ae960314fd4d05640a0>@@AAV<lambda_6978c1fb23f02e42e1d9e99668cc68aa>@@V<lambda_9cd88cf8ad10232537feb2133f08c833>@@@?$__crt_seh_guarded_call@H@@QAEH$$QAV<lambda_61cee617f5178ae960314fd4d05640a0>@@AAV<lambda_6978c1fb23f02e42e1d9e99668cc68aa>@@$$QAV<lambda_9cd88cf8ad10232537feb2133f08c833>@@@Z 10050915 f i libucrt:commit.obj
 0001:0004f9d3       ??$__acrt_lowio_lock_fh_and_call@V<lambda_6978c1fb23f02e42e1d9e99668cc68aa>@@@@YAHH$$QAV<lambda_6978c1fb23f02e42e1d9e99668cc68aa>@@@Z 100509d3 f i libucrt:commit.obj
 0001:0004fac5       __commit                   10050ac5 f   libucrt:commit.obj
 0001:0004fb4f       ??$?RU__crt_lowio_handle_data@@@__crt_internal_free_policy@@QBEXQBU__crt_lowio_handle_data@@@Z 10050b4f f i libucrt:osfinfo.obj
 0001:0004fb65       ??0?$__crt_unique_heap_ptr@U__crt_lowio_handle_data@@U__crt_internal_free_policy@@@@QAE@QAU__crt_lowio_handle_data@@@Z 10050b65 f i libucrt:osfinfo.obj
 0001:0004fb79       ??1?$__crt_unique_heap_ptr@U__crt_lowio_handle_data@@U__crt_internal_free_policy@@@@QAE@XZ 10050b79 f i libucrt:osfinfo.obj
 0001:0004fb8f       ??B?$__crt_unique_heap_ptr@U__crt_lowio_handle_data@@U__crt_internal_free_policy@@@@QBE_NXZ 10050b8f f i libucrt:osfinfo.obj
 0001:0004fb99       ?detach@?$__crt_unique_heap_ptr@U__crt_lowio_handle_data@@U__crt_internal_free_policy@@@@QAEPAU__crt_lowio_handle_data@@XZ 10050b99 f i libucrt:osfinfo.obj
 0001:0004fb9f       ?get@?$__crt_unique_heap_ptr@U__crt_lowio_handle_data@@U__crt_internal_free_policy@@@@QBEPAU__crt_lowio_handle_data@@XZ 10050b9f f i libucrt:osfinfo.obj
 0001:0004fba2       ?is_valid@?$__crt_unique_heap_ptr@U__crt_lowio_handle_data@@U__crt_internal_free_policy@@@@QBE_NXZ 10050ba2 f i libucrt:osfinfo.obj
 0001:0004fbac       ?release@?$__crt_unique_heap_ptr@U__crt_lowio_handle_data@@U__crt_internal_free_policy@@@@QAEXXZ 10050bac f i libucrt:osfinfo.obj
 0001:0004fbc2       ___acrt_lowio_create_handle_array 10050bc2 f   libucrt:osfinfo.obj
 0001:0004fc5a       ___acrt_lowio_destroy_handle_array 10050c5a f   libucrt:osfinfo.obj
 0001:0004fc9c       ___acrt_lowio_ensure_fh_exists 10050c9c f   libucrt:osfinfo.obj
 0001:0004fd5a       ___acrt_lowio_lock_fh      10050d5a f   libucrt:osfinfo.obj
 0001:0004fd85       ___acrt_lowio_set_os_handle 10050d85 f   libucrt:osfinfo.obj
 0001:0004fe3e       ___acrt_lowio_unlock_fh    10050e3e f   libucrt:osfinfo.obj
 0001:0004fe69       __alloc_osfhnd             10050e69 f   libucrt:osfinfo.obj
 0001:0004ffbf       __free_osfhnd              10050fbf f   libucrt:osfinfo.obj
 0001:00050074       __get_osfhandle            10051074 f   libucrt:osfinfo.obj
 0001:000500f8       __open_osfhandle           100510f8 f   libucrt:osfinfo.obj
 0001:00050249       ___iswcsym                 10051249 f i libucrt:_wctype.obj
 0001:00050278       ___iswcsymf                10051278 f i libucrt:_wctype.obj
 0001:000502a7       __isleadbyte_l             100512a7 f i libucrt:_wctype.obj
 0001:000502ee       __iswalnum_l               100512ee f i libucrt:_wctype.obj
 0001:00050309       __iswalpha_l               10051309 f i libucrt:_wctype.obj
 0001:00050324       __iswblank_l               10051324 f i libucrt:_wctype.obj
 0001:00050348       __iswcntrl_l               10051348 f i libucrt:_wctype.obj
 0001:0005035f       __iswcsym_l                1005135f f i libucrt:_wctype.obj
 0001:0005038e       __iswcsymf_l               1005138e f i libucrt:_wctype.obj
 0001:000503bd       __iswdigit_l               100513bd f i libucrt:_wctype.obj
 0001:000503d4       __iswgraph_l               100513d4 f i libucrt:_wctype.obj
 0001:000503ef       __iswlower_l               100513ef f i libucrt:_wctype.obj
 0001:00050406       __iswprint_l               10051406 f i libucrt:_wctype.obj
 0001:00050421       __iswpunct_l               10051421 f i libucrt:_wctype.obj
 0001:00050438       __iswspace_l               10051438 f i libucrt:_wctype.obj
 0001:0005044f       __iswupper_l               1005144f f i libucrt:_wctype.obj
 0001:00050466       __iswxdigit_l              10051466 f i libucrt:_wctype.obj
 0001:00050481       _isleadbyte                10051481 f i libucrt:_wctype.obj
 0001:00050498       _iswalnum                  10051498 f i libucrt:_wctype.obj
 0001:000504b3       _iswalpha                  100514b3 f i libucrt:_wctype.obj
 0001:000504ce       _iswascii                  100514ce f i libucrt:_wctype.obj
 0001:000504e7       _iswblank                  100514e7 f i libucrt:_wctype.obj
 0001:0005050b       _iswcntrl                  1005150b f i libucrt:_wctype.obj
 0001:00050522       _iswdigit                  10051522 f i libucrt:_wctype.obj
 0001:00050539       _iswgraph                  10051539 f i libucrt:_wctype.obj
 0001:00050554       _iswlower                  10051554 f i libucrt:_wctype.obj
 0001:0005056b       _iswprint                  1005156b f i libucrt:_wctype.obj
 0001:00050586       _iswpunct                  10051586 f i libucrt:_wctype.obj
 0001:0005059d       _iswspace                  1005159d f i libucrt:_wctype.obj
 0001:000505b4       _iswupper                  100515b4 f i libucrt:_wctype.obj
 0001:000505cb       _iswxdigit                 100515cb f i libucrt:_wctype.obj
 0001:000505e6       ??0?$__crt_scoped_stack_ptr@_W@@QAE@U?$__crt_scoped_stack_ptr_tag@_W@@@Z 100515e6 f i libucrt:lcmapstringa.obj
 0001:000505fa       ??0?$__crt_scoped_stack_ptr_tag@_W@@QAE@QA_W@Z 100515fa f i libucrt:lcmapstringa.obj
 0001:0005060e       ??1?$__crt_scoped_stack_ptr@_W@@QAE@XZ 1005160e f i libucrt:lcmapstringa.obj
 0001:00050619       ??B?$__crt_scoped_stack_ptr@_W@@QBE_NXZ 10051619 f i libucrt:lcmapstringa.obj
 0001:000508c7       ?get@?$__crt_scoped_stack_ptr@_W@@QBEPA_WXZ 100518c7 f i libucrt:lcmapstringa.obj
 0001:000508ca       __MallocaComputeSize       100518ca f i libucrt:lcmapstringa.obj
 0001:000508e1       __MarkAllocaS              100518e1 f i libucrt:lcmapstringa.obj
 0001:000508fc       ___acrt_LCMapStringA       100518fc f   libucrt:lcmapstringa.obj
 0001:00050959       __freea_crt                10051959 f i libucrt:lcmapstringa.obj
 0001:00050981       ??$?RG@__crt_internal_free_policy@@QBEXQBG@Z 10051981 f i libucrt:initctype.obj
 0001:00050997       ??$?RJ@__crt_internal_free_policy@@QBEXQBJ@Z 10051997 f i libucrt:initctype.obj
 0001:000509ad       ??0?$__crt_unique_heap_ptr@GU__crt_internal_free_policy@@@@QAE@QAG@Z 100519ad f i libucrt:initctype.obj
 0001:000509c1       ??0?$__crt_unique_heap_ptr@JU__crt_internal_free_policy@@@@QAE@QAJ@Z 100519c1 f i libucrt:initctype.obj
 0001:000509d5       ??1?$__crt_unique_heap_ptr@GU__crt_internal_free_policy@@@@QAE@XZ 100519d5 f i libucrt:initctype.obj
 0001:000509eb       ??1?$__crt_unique_heap_ptr@JU__crt_internal_free_policy@@@@QAE@XZ 100519eb f i libucrt:initctype.obj
 0001:00050a01       ?detach@?$__crt_unique_heap_ptr@GU__crt_internal_free_policy@@@@QAEPAGXZ 10051a01 f i libucrt:initctype.obj
 0001:00050a07       ?detach@?$__crt_unique_heap_ptr@JU__crt_internal_free_policy@@@@QAEPAJXZ 10051a07 f i libucrt:initctype.obj
 0001:00050a0d       ?release@?$__crt_unique_heap_ptr@GU__crt_internal_free_policy@@@@QAEXXZ 10051a0d f i libucrt:initctype.obj
 0001:00050a23       ?release@?$__crt_unique_heap_ptr@JU__crt_internal_free_policy@@@@QAEXXZ 10051a23 f i libucrt:initctype.obj
 0001:00050a39       ____lc_codepage_func       10051a39 f   libucrt:initctype.obj
 0001:00050a69       ____lc_collate_cp_func     10051a69 f   libucrt:initctype.obj
 0001:00050a99       ____lc_locale_name_func    10051a99 f   libucrt:initctype.obj
 0001:00050acc       ____mb_cur_max_func        10051acc f   libucrt:initctype.obj
 0001:00050afc       ____mb_cur_max_l_func      10051afc f   libucrt:initctype.obj
 0001:00050b1b       ___acrt_locale_initialize_ctype 10051b1b f   libucrt:initctype.obj
 0001:00050fa0       ___acrt_add_locale_ref     10051fa0 f   libucrt:locale_refcounting.obj
 0001:0005103c       ___acrt_free_locale        1005203c f   libucrt:locale_refcounting.obj
 0001:000511d8       ___acrt_locale_add_lc_time_reference 100521d8 f   libucrt:locale_refcounting.obj
 0001:0005120b       ___acrt_locale_free_lc_time_if_unreferenced 1005220b f   libucrt:locale_refcounting.obj
 0001:00051247       ___acrt_locale_release_lc_time_reference 10052247 f   libucrt:locale_refcounting.obj
 0001:0005127a       ___acrt_release_locale_ref 1005227a f   libucrt:locale_refcounting.obj
 0001:0005131b       ___acrt_update_thread_locale_data 1005231b f   libucrt:locale_refcounting.obj
 0001:000513af       __updatetlocinfoEx_nolock  100523af f   libucrt:locale_refcounting.obj
 0001:00051413       ___acrt_fp_strflt_to_string 10052413 f   libucrt:_fptostr.obj
 0001:00052c40       ??0big_integer@__crt_strtox@@QAE@ABU01@@Z 10053c40 f i libucrt:cfout.obj
 0001:00052c80       ??0big_integer@__crt_strtox@@QAE@XZ 10053c80 f i libucrt:cfout.obj
 0001:00052c8b       ??0scoped_fp_state_reset@?A0x48fbfdd4@@QAE@XZ 10053c8b f i libucrt:cfout.obj
 0001:00052cbf       ??1scoped_fp_state_reset@?A0x48fbfdd4@@QAE@XZ 10053cbf f i libucrt:cfout.obj
 0001:00052cd0       ??4big_integer@__crt_strtox@@QAEAAU01@ABU01@@Z 10053cd0 f i libucrt:cfout.obj
 0001:00052d10       ??8__crt_strtox@@YA_NABUbig_integer@0@0@Z 10053d10 f i libucrt:cfout.obj
 0001:00052d60       ??9__crt_strtox@@YA_NABUbig_integer@0@0@Z 10053d60 f i libucrt:cfout.obj
 0001:00052dc0       ?add_carry@__crt_strtox@@YAIAAIII@Z 10053dc0 f i libucrt:cfout.obj
 0001:00052df0       ?add_multiply_carry@__crt_strtox@@YAIAAIIII@Z 10053df0 f i libucrt:cfout.obj
 0001:00052e20       ?bit_scan_reverse@__crt_strtox@@YAII@Z 10053e20 f i libucrt:cfout.obj
 0001:00052e50       ?count_sequential_high_zeroes@__crt_strtox@@YAII@Z 10053e50 f i libucrt:cfout.obj
 0001:00052e80       ?divide@__crt_strtox@@YA_KAAUbig_integer@1@ABU21@@Z 10053e80 f i libucrt:cfout.obj
 0001:00053460       ?is_zero@__crt_strtox@@YA_NABUbig_integer@1@@Z 10054460 f i libucrt:cfout.obj
 0001:00053480       ?make_big_integer@__crt_strtox@@YA?AUbig_integer@1@_K@Z 10054480 f i libucrt:cfout.obj
 0001:000534b0       ?make_big_integer_power_of_two@__crt_strtox@@YA?AUbig_integer@1@I@Z 100544b0 f i libucrt:cfout.obj
 0001:00053510       ?multiply@__crt_strtox@@YA_NAAUbig_integer@1@ABU21@@Z 10054510 f i libucrt:cfout.obj
 0001:000539c0       ?multiply@__crt_strtox@@YA_NAAUbig_integer@1@I@Z 100549c0 f i libucrt:cfout.obj
 0001:00053ac0       ?multiply_64_32@__crt_strtox@@YA_K_KI@Z 10054ac0 f i libucrt:cfout.obj
 0001:00053ae0       ?multiply_by_power_of_ten@__crt_strtox@@YA_NAAUbig_integer@1@I@Z 10054ae0 f i libucrt:cfout.obj
 0001:000541e0       ?multiply_core@__crt_strtox@@YAIQAIII@Z 100551e0 f i libucrt:cfout.obj
 0001:00054230       ?shift_left@__crt_strtox@@YA_NAAUbig_integer@1@I@Z 10055230 f i libucrt:cfout.obj
 0001:000543d2       ___acrt_fltout             100553d2 f   libucrt:cfout.obj
 0001:00055cf6       __isatty                   10056cf6 f   libucrt:isatty.obj
 0001:00055d61       ??$?RUlconv@@@__crt_internal_free_policy@@QBEXQBUlconv@@@Z 10056d61 f i libucrt:initmon.obj
 0001:00055d77       ??0?$__crt_unique_heap_ptr@Ulconv@@U__crt_internal_free_policy@@@@QAE@QAUlconv@@@Z 10056d77 f i libucrt:initmon.obj
 0001:00055d8b       ??1?$__crt_unique_heap_ptr@Ulconv@@U__crt_internal_free_policy@@@@QAE@XZ 10056d8b f i libucrt:initmon.obj
 0001:00055da1       ?detach@?$__crt_unique_heap_ptr@Ulconv@@U__crt_internal_free_policy@@@@QAEPAUlconv@@XZ 10056da1 f i libucrt:initmon.obj
 0001:00055da7       ?release@?$__crt_unique_heap_ptr@Ulconv@@U__crt_internal_free_policy@@@@QAEXXZ 10056da7 f i libucrt:initmon.obj
 0001:00055dbd       ___acrt_locale_free_monetary 10056dbd f   libucrt:initmon.obj
 0001:00055efa       ___acrt_locale_initialize_monetary 10056efa f   libucrt:initmon.obj
 0001:000563ed       ___acrt_locale_free_numeric 100573ed f   libucrt:initnum.obj
 0001:00056470       ___acrt_locale_initialize_numeric 10057470 f   libucrt:initnum.obj
 0001:0005675b       ??$?RU__crt_lc_time_data@@@__crt_internal_free_policy@@QBEXQBU__crt_lc_time_data@@@Z 1005775b f i libucrt:inittime.obj
 0001:000567fb       ??0?$__crt_unique_heap_ptr@U__crt_lc_time_data@@U__crt_internal_free_policy@@@@QAE@QAU__crt_lc_time_data@@@Z 100577fb f i libucrt:inittime.obj
 0001:0005680f       ??1?$__crt_unique_heap_ptr@U__crt_lc_time_data@@U__crt_internal_free_policy@@@@QAE@XZ 1005780f f i libucrt:inittime.obj
 0001:00056825       ??B?$__crt_unique_heap_ptr@U__crt_lc_time_data@@U__crt_internal_free_policy@@@@QBE_NXZ 10057825 f i libucrt:inittime.obj
 0001:0005682f       ?detach@?$__crt_unique_heap_ptr@U__crt_lc_time_data@@U__crt_internal_free_policy@@@@QAEPAU__crt_lc_time_data@@XZ 1005782f f i libucrt:inittime.obj
 0001:00056880       ?get@?$__crt_unique_heap_ptr@U__crt_lc_time_data@@U__crt_internal_free_policy@@@@QBEPAU__crt_lc_time_data@@XZ 10057880 f i libucrt:inittime.obj
 0001:00056c18       ?is_valid@?$__crt_unique_heap_ptr@U__crt_lc_time_data@@U__crt_internal_free_policy@@@@QBE_NXZ 10057c18 f i libucrt:inittime.obj
 0001:00056c22       ?release@?$__crt_unique_heap_ptr@U__crt_lc_time_data@@U__crt_internal_free_policy@@@@QAEXXZ 10057c22 f i libucrt:inittime.obj
 0001:00056c38       ___acrt_locale_free_time   10057c38 f   libucrt:inittime.obj
 0001:00056d55       ___acrt_locale_initialize_time 10057d55 f   libucrt:inittime.obj
 0001:00056ef3       _wcsncpy_s                 10057ef3 f   libucrt:wcsncpy_s.obj
 0001:00056f00       _wcscspn                   10057f00 f   libucrt:wcscspn.obj
 0001:00056f64       _wcsncmp                   10057f64 f   libucrt:wcsncmp.obj
 0001:00056fac       _wcspbrk                   10057fac f   libucrt:wcspbrk.obj
 0001:00057002       ___acrt_GetStringTypeA     10058002 f   libucrt:getstringtypea.obj
 0001:00057a76       ___acrt_get_qualified_locale 10058a76 f   libucrt:get_qualified_locale.obj
 0001:0005861d       ___acrt_get_qualified_locale_downlevel 1005961d f   libucrt:getqloc_downlevel.obj
 0001:000588a5       _localeconv                100598a5 f   libucrt:localeconv.obj
 0001:000588d9       __wcsnicmp                 100598d9 f   libucrt:wcsnicmp.obj
 0001:000589bf       __wcsnicmp_l               100599bf f   libucrt:wcsnicmp.obj
 0001:00058b00       _strncmp                   10059b00 f   libucrt:strncmp.obj
 0001:00058b96       __strnicmp                 10059b96 f   libucrt:strnicmp.obj
 0001:00058c1d       __strnicmp_l               10059c1d f   libucrt:strnicmp.obj
 0001:00058d01       ??$__vcrt_va_start_verify_argument_type@$$CBH@@YAXXZ 10059d01 f i libucrt:open.obj
 0001:000590b8       ??$tsopen_nolock@PAHABQAHABQBDABHABHABHABH@?$__crt_char_traits@D@@SAH$$QAPAHABQAHABQBDABH333@Z 1005a0b8 f i libucrt:open.obj
 0001:000590f6       ??$tsopen_nolock@PAHABQAHABQB_WABHABHABHABH@?$__crt_char_traits@_W@@SAH$$QAPAHABQAHABQB_WABH333@Z 1005a0f6 f i libucrt:open.obj
 0001:00059134       ??$tsopen_nolock@PAHPAHABQBDABHHABHH@?$__crt_char_traits@D@@SAH$$QAPAH0ABQBDABH$$QAH23@Z 1005a134 f i libucrt:open.obj
 0001:00059172       ??$tsopen_nolock@PAHPAHABQB_WABHHABHH@?$__crt_char_traits@_W@@SAH$$QAPAH0ABQB_WABH$$QAH23@Z 1005a172 f i libucrt:open.obj
 0001:00059940       __open                     1005a940 f   libucrt:open.obj
 0001:0005995e       __sopen                    1005a95e f   libucrt:open.obj
 0001:000599a0       __sopen_dispatch           1005a9a0 f   libucrt:open.obj
 0001:000599ad       __sopen_nolock             1005a9ad f   libucrt:open.obj
 0001:00059a12       __sopen_s                  1005aa12 f   libucrt:open.obj
 0001:00059a3a       __wopen                    1005aa3a f   libucrt:open.obj
 0001:00059a58       __wsopen                   1005aa58 f   libucrt:open.obj
 0001:00059a9a       __wsopen_dispatch          1005aa9a f   libucrt:open.obj
 0001:00059aa7       __wsopen_nolock            1005aaa7 f   libucrt:open.obj
 0001:00059e9a       __wsopen_s                 1005ae9a f   libucrt:open.obj
 0001:00059ec2       ___p__commode              1005aec2 f   libucrt:ncommode.obj
 0001:00059ec8       ___acrt_stdio_allocate_buffer_nolock 1005aec8 f   libucrt:_getbuf.obj
 0001:00059f3c       ??$?RV<lambda_4980db0136e49a56f91ef52c46ca659a>@@AAV<lambda_6e3e78bb6855d1e4040e022c1b427e22>@@V<lambda_9c074eaf62197b4fd0274ed9e7824161>@@@?$__crt_seh_guarded_call@G@@QAEG$$QAV<lambda_4980db0136e49a56f91ef52c46ca659a>@@AAV<lambda_6e3e78bb6855d1e4040e022c1b427e22>@@$$QAV<lambda_9c074eaf62197b4fd0274ed9e7824161>@@@Z 1005af3c f i libucrt:putwch.obj
 0001:00059fb1       ??$__acrt_lock_and_call@V<lambda_6e3e78bb6855d1e4040e022c1b427e22>@@@@YAGW4__acrt_lock_id@@$$QAV<lambda_6e3e78bb6855d1e4040e022c1b427e22>@@@Z 1005afb1 f i libucrt:putwch.obj
 0001:0005a049       __putwch                   1005b049 f   libucrt:putwch.obj
 0001:0005a06d       __putwch_nolock            1005b06d f   libucrt:putwch.obj
 0001:0005a0c3       _nextafter                 1005b0c3 f   libucrt:nextafter.obj
 0001:0005a0e9       ??1scoped_global_state_reset@__crt_state_management@@QAE@XZ 1005b0e9 f i libucrt:qsort.obj
 0001:0005a200       _qsort                     1005b200 f   libucrt:qsort.obj
 0001:0005a75d       _strncpy_s                 1005b75d f   libucrt:strncpy_s.obj
 0001:0005a770       _strpbrk                   1005b770 f   libucrt:strpbrk.obj
 0001:0005a7c0       __mbsdec                   1005b7c0 f   libucrt:mbsdec.obj
 0001:0005a7dc       __mbsdec_l                 1005b7dc f   libucrt:mbsdec.obj
 0001:0005a89e       __wcsnicoll                1005b89e f   libucrt:wcsnicol.obj
 0001:0005a9a2       __wcsnicoll_l              1005b9a2 f   libucrt:wcsnicol.obj
 0001:0005ab1a       __strnicoll                1005bb1a f   libucrt:strnicol.obj
 0001:0005ab4d       __strnicoll_l              1005bb4d f   libucrt:strnicol.obj
 0001:0005ac88       __msize                    1005bc88 f   libucrt:msize.obj
 0001:0005acc7       ___strncnt                 1005bcc7 f   libucrt:strncnt.obj
 0001:0005ae23       ___acrt_GetLocaleInfoA     1005be23 f   libucrt:getlocaleinfoa.obj
 0001:0005b041       _fegetenv                  1005c041 f   libucrt:fegetenv.obj
 0001:0005b065       _fesetenv                  1005c065 f   libucrt:fesetenv.obj
 0001:0005b0c0       _feholdexcept              1005c0c0 f   libucrt:feholdexcept.obj
 0001:0005b130       _log10                     1005c130 f   libucrt:log10.obj
 0001:0005b170       __CIlog10                  1005c170 f   libucrt:log10.obj
 0001:0005b1ab       __CIlog10_default          1005c1ab f   libucrt:log10.obj
 0001:0005b1bf       __log10_default            1005c1bf     libucrt:log10.obj
 0001:0005b2e0       _ceil                      1005c2e0 f   libucrt:ceil_pentium4.obj
 0001:0005b320       __ceil_pentium4            1005c320 f   libucrt:ceil_pentium4.obj
 0001:0005b444       __wcsicmp                  1005c444 f   libucrt:wcsicmp.obj
 0001:0005b4fe       __wcsicmp_l                1005c4fe f   libucrt:wcsicmp.obj
 0001:0005b616       __towlower_l               1005c616 f   libucrt:towlower.obj
 0001:0005b711       _towlower                  1005c711 f   libucrt:towlower.obj
 0001:0005b730       ___ascii_strnicmp          1005c730 f   libucrt:_strnicm.obj
 0001:0005b7a9       ??$__crt_interlocked_read@H@@YAHPDH@Z 1005c7a9 f i libucrt:setmode.obj
 0001:0005b7b8       __get_fmode                1005c7b8 f   libucrt:setmode.obj
 0001:0005b7ef       __set_fmode                1005c7ef f   libucrt:setmode.obj
 0001:0005b83b       __setmode                  1005c83b f   libucrt:setmode.obj
 0001:0005b98c       __setmode_nolock           1005c98c f   libucrt:setmode.obj
 0001:0005ba91       ??$?RV<lambda_4cfda81533ccf5a03113a1ca40a30445>@@AAV<lambda_1cffa78e445b1da5fba1a2e0e533226f>@@V<lambda_68c952aa1b860373b2109ef12d0bba9d>@@@?$__crt_seh_guarded_call@H@@QAEH$$QAV<lambda_4cfda81533ccf5a03113a1ca40a30445>@@AAV<lambda_1cffa78e445b1da5fba1a2e0e533226f>@@$$QAV<lambda_68c952aa1b860373b2109ef12d0bba9d>@@@Z 1005ca91 f i libucrt:chsize.obj
 0001:0005bb3b       ??$__acrt_lowio_lock_fh_and_call@V<lambda_1cffa78e445b1da5fba1a2e0e533226f>@@@@YAHH$$QAV<lambda_1cffa78e445b1da5fba1a2e0e533226f>@@@Z 1005cb3b f i libucrt:chsize.obj
 0001:0005bc1d       __chsize                   1005cc1d f   libucrt:chsize.obj
 0001:0005bc40       __chsize_nolock            1005cc40 f   libucrt:chsize.obj
 0001:0005be35       __chsize_s                 1005ce35 f   libucrt:chsize.obj
 0001:0005bef6       __umask                    1005cef6 f   libucrt:umask.obj
 0001:0005bf24       __umask_s                  1005cf24 f   libucrt:umask.obj
 0001:0005bf6d       ___dcrt_lowio_initialize_console_output 1005cf6d f   libucrt:initcon.obj
 0001:0005bf93       ___dcrt_terminate_console_output 1005cf93 f   libucrt:initcon.obj
 0001:0005bfaf       _nexttoward                1005cfaf f   libucrt:nexttoward.obj
 0001:0005c160       ___acrt_CompareStringW     1005d160 f   libucrt:comparestringw.obj
 0001:0005c534       ___acrt_CompareStringA     1005d534 f   libucrt:comparestringa.obj
 0001:0005c58e       ___acrt_fenv_get_fp_status_word_from_exception_mask 1005d58e f   libucrt:_fenvutils.obj
 0001:0005c9d1       __getfpcontrolword         1005d9d1 f   libucrt:_fenvutils.obj
 0001:0005ca24       __getfpstatusword          1005da24 f   libucrt:_fenvutils.obj
 0001:0005caf6       __setfpcontrolword         1005daf6 f   libucrt:_fenvutils.obj
 0001:0005cb96       __setfpstatusword          1005db96 f   libucrt:_fenvutils.obj
 0001:0005cdcc       ___control87_2             1005ddcc f   libucrt:ieee87.obj
 0001:0005d3a0       ___fpreset_sse2            1005e3a0 f   libucrt:ieee87.obj
 0001:0005d5f3       __clearfp                  1005e5f3 f   libucrt:ieee87.obj
 0001:0005d708       __control87                1005e708 f   libucrt:ieee87.obj
 0001:0005daca       __controlfp                1005eaca f   libucrt:ieee87.obj
 0001:0005daea       __fpreset                  1005eaea f   libucrt:ieee87.obj
 0001:0005dbe7       __set_controlfp            1005ebe7 f   libucrt:ieee87.obj
 0001:0005dc7d       __statusfp                 1005ec7d f   libucrt:ieee87.obj
 0001:0005dd40       __statusfp2                1005ed40 f   libucrt:ieee87.obj
 0001:0005ddbd       ___acrt_initialize_sse2    1005edbd f   libucrt:mathfcns.obj
 0001:0005ddcf       __set_SSE2_enable          1005edcf f   libucrt:mathfcns.obj
 0001:0005de00       __CIlog10_pentium4         1005ee00 f   libucrt:log10_pentium4.obj
 0001:0005de18       __log10_pentium4           1005ee18     libucrt:log10_pentium4.obj
 0001:0005e151       __fFEXP                    1005f151     libucrt:87tran.obj
 0001:0005e1a8       __rtinfpopse               1005f1a8     libucrt:87tran.obj
 0001:0005e1aa       __rtinfnpopse              1005f1aa     libucrt:87tran.obj
 0001:0005e1ba       __fFLN                     1005f1ba     libucrt:87tran.obj
 0001:0005e26f       __rtinfpop                 1005f26f     libucrt:87tran.obj
 0001:0005e271       __rtinfnpop                1005f271     libucrt:87tran.obj
 0001:0005e28e       __ffexpm1                  1005f28e     libucrt:87tran.obj
 0001:0005e3c0       __trandisp1                1005f3c0 f   libucrt:87disp.obj
 0001:0005e427       __trandisp2                1005f427 f   libucrt:87disp.obj
 0001:0005e4b3       __rttospopde               1005f4b3     libucrt:87disp.obj
 0001:0005e4b8       __rttospop                 1005f4b8     libucrt:87disp.obj
 0001:0005e4ba       __rtnospop                 1005f4ba     libucrt:87disp.obj
 0001:0005e4bc       __rttosnpop                1005f4bc     libucrt:87disp.obj
 0001:0005e4bd       __rtnospopde               1005f4bd     libucrt:87disp.obj
 0001:0005e4c4       __rtzeropop                1005f4c4     libucrt:87disp.obj
 0001:0005e4c6       __rtzeronpop               1005f4c6     libucrt:87disp.obj
 0001:0005e4cb       __rtzerospop               1005f4cb     libucrt:87disp.obj
 0001:0005e4d8       __rtonepop                 1005f4d8     libucrt:87disp.obj
 0001:0005e4da       __rtonenpop                1005f4da     libucrt:87disp.obj
 0001:0005e4df       __tosnan1                  1005f4df     libucrt:87disp.obj
 0001:0005e50a       __nosnan2                  1005f50a     libucrt:87disp.obj
 0001:0005e50c       __tosnan2                  1005f50c     libucrt:87disp.obj
 0001:0005e534       __nan2                     1005f534     libucrt:87disp.obj
 0001:0005e573       __rtindfpop                1005f573     libucrt:87disp.obj
 0001:0005e575       __rtindfnpop               1005f575     libucrt:87disp.obj
 0001:0005e586       __rttosnpopde              1005f586     libucrt:87disp.obj
 0001:0005e590       __rtatan2inf               1005f590     libucrt:87disp.obj
 0001:0005e5ad       __rtchsifneg               1005f5ad     libucrt:87disp.obj
 0001:0005e631       ___setfflag                1005f631 f   libucrt:fp_flags.obj
 0001:0005e650       __twoToTOS                 1005f650 f   libucrt:common.obj
 0001:0005e665       __load_CW                  1005f665 f   libucrt:common.obj
 0001:0005e67c       __convertTOStoQNaN         1005f67c f   libucrt:common.obj
 0001:0005e695       __fload_withFB             1005f695 f   libucrt:common.obj
 0001:0005e6d8       __checkTOS_withFB          1005f6d8 f   libucrt:common.obj
 0001:0005e6ee       __fast_exit                1005f6ee f   libucrt:common.obj
 0001:0005e6fb       __math_exit                1005f6fb f   libucrt:common.obj
 0001:0005e725       __check_overflow_exit      1005f725 f   libucrt:common.obj
 0001:0005e739       __check_range_exit         1005f739 f   libucrt:common.obj
 0001:0005e840       __startTwoArgErrorHandling 1005f840 f   libucrt:genexcep.obj
 0001:0005e857       __startOneArgErrorHandling 1005f857 f   libucrt:genexcep.obj
 0001:0005e8a7       ___libm_error_support      1005f8a7 f   libucrt:libm_error.obj
 0001:0005eb45       ___libm_setusermatherr     1005fb45 f   libucrt:libm_error.obj
 0001:0005eb7e       __ceil_default             1005fb7e f   libucrt:ceil.obj
 0001:0005ec65       ___acrt_LCMapStringW       1005fc65 f   libucrt:lcmapstringw.obj
 0001:0005ecb2       ___p__fmode                1005fcb2 f   libucrt:txtmode.obj
 0001:0005ecb8       __d_int                    1005fcb8 f   libucrt:_test.obj
 0001:0005ee00       __dtest                    1005fe00 f   libucrt:_test.obj
 0001:0005ee7d       __fd_int                   1005fe7d f   libucrt:_test.obj
 0001:0005ef7f       __fdtest                   1005ff7f f   libucrt:_test.obj
 0001:0005efe0       __fperrraise               1005ffe0 f   libucrt:_test.obj
 0001:0005f00b       __ld_int                   1006000b f   libucrt:_test.obj
 0001:0005f018       __ldtest                   10060018 f   libucrt:_test.obj
 0001:0005f0bd       __controlfp_s              100600bd f   libucrt:contrlfp.obj
 0001:0005f133       __d_inttype                10060133 f   libucrt:powhlp.obj
 0001:0005f1b7       __powhlp                   100601b7 f   libucrt:powhlp.obj
 0001:0005f32c       __87except                 1006032c f   libucrt:87except.obj
 0001:0005f479       __frnd                     10060479 f   libucrt:frnd.obj
 0001:0005f494       _fegetexceptflag           10060494 f   libucrt:fegetexceptflag.obj
 0001:0005f4d1       _fesetexceptflag           100604d1 f   libucrt:fesetexceptflag.obj
 0001:0005f532       _fetestexcept              10060532 f   libucrt:fetestexcept.obj
 0001:0005f560       __FindPESection            10060560 f   LIBCMT:pesect.obj
 0001:0005f5c0       __IsNonwritableInCurrentImage 100605c0 f   LIBCMT:pesect.obj
 0001:0005f6b0       __ValidateImageBase        100606b0 f   LIBCMT:pesect.obj
 0001:0005f6f0       __aulldvrm                 100606f0 f   LIBCMT:ulldvrm.obj
 0001:0005f7aa       ??1type_info@@UAE@XZ       100607aa f   LIBCMT:std_type_info_static.obj
 0001:0005f7b1       ??_Gtype_info@@UAEPAXI@Z   100607b1 f i LIBCMT:std_type_info_static.obj
 0001:0005f7b1       ??_Etype_info@@UAEPAXI@Z   100607b1 f i LIBCMT:std_type_info_static.obj
 0001:0005f7e0       __SEH_prolog4_GS           100607e0 f   LIBCMT:_sehprolg4gs_.obj
 0001:0005f829       __SEH_epilog4_GS           10060829 f   LIBCMT:_sehprolg4gs_.obj
 0001:0005f850       __allmul                   10060850 f   LIBCMT:llmul.obj
 0001:0005f8a0       __alldvrm                  100608a0 f   LIBCMT:lldvrm.obj
 0001:0005f9c0       __aullshr                  100609c0 f   LIBCMT:ullshr.obj
 0001:0005f9f0       __chkstk                   100609f0 f   LIBCMT:chkstk.obj
 0001:0005f9f0       __alloca_probe             100609f0 f   LIBCMT:chkstk.obj
 0001:0005fa30       __alloca_probe_16          10060a30 f   LIBCMT:alloca16.obj
 0001:0005fa46       __alloca_probe_8           10060a46     LIBCMT:alloca16.obj
 0001:0005fa70       __allshl                   10060a70 f   LIBCMT:llshl.obj
 0001:0005faa0       __ftol2_sse                10060aa0 f   LIBCMT:_ftol2_.obj
 0001:0005faa9       __ftol2_pentium4           10060aa9 f   LIBCMT:_ftol2_.obj
 0001:0005fabc       __ftol2_sse_excpt          10060abc f   LIBCMT:_ftol2_.obj
 0001:0005fae0       __ftol2                    10060ae0 f   LIBCMT:_ftol2_.obj
 0001:0005fb82       __initialize_default_precision 10060b82 f   LIBCMT:default_precision.obj
 0001:0005fbab       ??3@YAXPAXI@Z              10060bab f   LIBCMT:delete_scalar_size.obj
 0001:0005fbbc       ??3@YAXPAX@Z               10060bbc f   LIBCMT:delete_scalar.obj
 0001:0005fbc2       _InterlockedPushEntrySList@8 10060bc2 f   kernel32:KERNEL32.dll
 0001:0005fbc8       _InterlockedFlushSList@4   10060bc8 f   kernel32:KERNEL32.dll
 0001:0005fbce       _RtlUnwind@16              10060bce f   kernel32:KERNEL32.dll
 0001:0005fbd4       _GetLastError@0            10060bd4 f   kernel32:KERNEL32.dll
 0001:0005fbda       _SetLastError@4            10060bda f   kernel32:KERNEL32.dll
 0001:0005fbe0       _EnterCriticalSection@4    10060be0 f   kernel32:KERNEL32.dll
 0001:0005fbe6       _LeaveCriticalSection@4    10060be6 f   kernel32:KERNEL32.dll
 0001:0005fbec       _DeleteCriticalSection@4   10060bec f   kernel32:KERNEL32.dll
 0001:0005fbf2       _InitializeCriticalSectionAndSpinCount@8 10060bf2 f   kernel32:KERNEL32.dll
 0001:0005fbf8       _TlsAlloc@0                10060bf8 f   kernel32:KERNEL32.dll
 0001:0005fbfe       _TlsGetValue@4             10060bfe f   kernel32:KERNEL32.dll
 0001:0005fc04       _TlsSetValue@8             10060c04 f   kernel32:KERNEL32.dll
 0001:0005fc0a       _TlsFree@4                 10060c0a f   kernel32:KERNEL32.dll
 0001:0005fc10       _FreeLibrary@4             10060c10 f   kernel32:KERNEL32.dll
 0001:0005fc16       _LoadLibraryExW@12         10060c16 f   kernel32:KERNEL32.dll
 0001:0005fc1c       _GetStdHandle@4            10060c1c f   kernel32:KERNEL32.dll
 0001:0005fc22       _GetFileType@4             10060c22 f   kernel32:KERNEL32.dll
 0001:0005fc28       _GetModuleFileNameA@12     10060c28 f   kernel32:KERNEL32.dll
 0001:0005fc2e       _GetModuleFileNameW@12     10060c2e f   kernel32:KERNEL32.dll
 0001:0005fc34       _GetModuleHandleExW@12     10060c34 f   kernel32:KERNEL32.dll
 0001:0005fc3a       _WriteConsoleW@20          10060c3a f   kernel32:KERNEL32.dll
 0001:0005fc40       _ExitProcess@4             10060c40 f   kernel32:KERNEL32.dll
 0001:0005fc46       _RaiseException@16         10060c46 f   kernel32:KERNEL32.dll
 0001:0005fc4c       _MultiByteToWideChar@24    10060c4c f   kernel32:KERNEL32.dll
 0001:0005fc52       _WideCharToMultiByte@32    10060c52 f   kernel32:KERNEL32.dll
 0001:0005fc58       _HeapFree@12               10060c58 f   kernel32:KERNEL32.dll
 0001:0005fc5e       _HeapAlloc@12              10060c5e f   kernel32:KERNEL32.dll
 0001:0005fc64       _GetDateFormatW@24         10060c64 f   kernel32:KERNEL32.dll
 0001:0005fc6a       _GetTimeFormatW@24         10060c6a f   kernel32:KERNEL32.dll
 0001:0005fc70       _CompareStringW@24         10060c70 f   kernel32:KERNEL32.dll
 0001:0005fc76       _LCMapStringW@24           10060c76 f   kernel32:KERNEL32.dll
 0001:0005fc7c       _GetLocaleInfoW@16         10060c7c f   kernel32:KERNEL32.dll
 0001:0005fc82       _IsValidLocale@8           10060c82 f   kernel32:KERNEL32.dll
 0001:0005fc88       _GetUserDefaultLCID@0      10060c88 f   kernel32:KERNEL32.dll
 0001:0005fc8e       _EnumSystemLocalesW@8      10060c8e f   kernel32:KERNEL32.dll
 0001:0005fc94       _GetCurrentThread@0        10060c94 f   kernel32:KERNEL32.dll
 0001:0005fc9a       _GetACP@0                  10060c9a f   kernel32:KERNEL32.dll
 0001:0005fca0       _WriteFile@20              10060ca0 f   kernel32:KERNEL32.dll
 0001:0005fca6       _OutputDebugStringA@4      10060ca6 f   kernel32:KERNEL32.dll
 0001:0005fcac       _OutputDebugStringW@4      10060cac f   kernel32:KERNEL32.dll
 0001:0005fcb2       _CloseHandle@4             10060cb2 f   kernel32:KERNEL32.dll
 0001:0005fcb8       _WaitForSingleObjectEx@12  10060cb8 f   kernel32:KERNEL32.dll
 0001:0005fcbe       _CreateThread@24           10060cbe f   kernel32:KERNEL32.dll
 0001:0005fcc4       _SetConsoleCtrlHandler@8   10060cc4 f   kernel32:KERNEL32.dll
 0001:0005fcca       _HeapReAlloc@16            10060cca f   kernel32:KERNEL32.dll
 0001:0005fcd0       _ReadFile@20               10060cd0 f   kernel32:KERNEL32.dll
 0001:0005fcd6       _GetConsoleMode@8          10060cd6 f   kernel32:KERNEL32.dll
 0001:0005fcdc       _ReadConsoleW@20           10060cdc f   kernel32:KERNEL32.dll
 0001:0005fce2       _GetConsoleCP@0            10060ce2 f   kernel32:KERNEL32.dll
 0001:0005fce8       _DeleteFileW@4             10060ce8 f   kernel32:KERNEL32.dll
 0001:0005fcee       _SetFilePointerEx@20       10060cee f   kernel32:KERNEL32.dll
 0001:0005fcf4       _FindClose@4               10060cf4 f   kernel32:KERNEL32.dll
 0001:0005fcfa       _FindFirstFileExA@24       10060cfa f   kernel32:KERNEL32.dll
 0001:0005fd00       _FindFirstFileExW@24       10060d00 f   kernel32:KERNEL32.dll
 0001:0005fd06       _FindNextFileA@8           10060d06 f   kernel32:KERNEL32.dll
 0001:0005fd0c       _FindNextFileW@8           10060d0c f   kernel32:KERNEL32.dll
 0001:0005fd12       _IsValidCodePage@4         10060d12 f   kernel32:KERNEL32.dll
 0001:0005fd18       _GetOEMCP@0                10060d18 f   kernel32:KERNEL32.dll
 0001:0005fd1e       _GetCPInfo@8               10060d1e f   kernel32:KERNEL32.dll
 0001:0005fd24       _GetCommandLineA@0         10060d24 f   kernel32:KERNEL32.dll
 0001:0005fd2a       _GetCommandLineW@0         10060d2a f   kernel32:KERNEL32.dll
 0001:0005fd30       _GetEnvironmentStringsW@0  10060d30 f   kernel32:KERNEL32.dll
 0001:0005fd36       _FreeEnvironmentStringsW@4 10060d36 f   kernel32:KERNEL32.dll
 0001:0005fd3c       _SetEnvironmentVariableA@8 10060d3c f   kernel32:KERNEL32.dll
 0001:0005fd42       _SetEnvironmentVariableW@8 10060d42 f   kernel32:KERNEL32.dll
 0001:0005fd48       _GetProcessHeap@0          10060d48 f   kernel32:KERNEL32.dll
 0001:0005fd4e       _GetStringTypeW@16         10060d4e f   kernel32:KERNEL32.dll
 0001:0005fd54       _FlushFileBuffers@4        10060d54 f   kernel32:KERNEL32.dll
 0001:0005fd5a       _SetStdHandle@8            10060d5a f   kernel32:KERNEL32.dll
 0001:0005fd60       _CreateFileW@28            10060d60 f   kernel32:KERNEL32.dll
 0001:0005fd66       _HeapSize@12               10060d66 f   kernel32:KERNEL32.dll
 0001:0005fd6c       _SetEndOfFile@4            10060d6c f   kernel32:KERNEL32.dll
 0001:0005fd72       _EncodePointer@4           10060d72 f   kernel32:KERNEL32.dll
 0001:0005fd78       _DecodePointer@4           10060d78 f   kernel32:KERNEL32.dll
 0001:0005fd80       _strrchr                   10060d80 f   libvcruntime:strrchr.obj
 0001:00060067       _memcmp                    10061067 f   libvcruntime:_memcmp_.obj
 0001:00063b4f       _wcschr                    10064b4f f   libvcruntime:wcschr.obj
 0002:00000000       ___xc_a                    10065000     LIBCMT:initializers.obj
 0002:00000104       ___xc_z                    10065104     LIBCMT:initializers.obj
 0002:00000208       ___xi_a                    10065208     LIBCMT:initializers.obj
 0002:0000030c       ___acrt_stdio_initializer  1006530c     libucrt:stdio_initializer.obj
 0002:00000310       ___acrt_multibyte_initializer 10065310     libucrt:multibyte_initializer.obj
 0002:00000314       ___acrt_tran_sse2_initializer 10065314     libucrt:sse2_initializer.obj
 0002:0000041c       ___xi_z                    1006541c     LIBCMT:initializers.obj
 0002:00000520       ___xp_a                    10065520     LIBCMT:initializers.obj
 0002:00000624       ___acrt_locale_terminator  10065624     libucrt:locale_initializer.obj
 0002:00000628       ___dcrt_console_output_terminator 10065628     libucrt:console_output_initializer.obj
 0002:00000730       ___acrt_stdio_terminator   10065730     libucrt:stdio_initializer.obj
 0002:00000834       ___xp_z                    10065834     LIBCMT:initializers.obj
 0002:00000938       ___xt_a                    10065938     LIBCMT:initializers.obj
 0002:00000a3c       ___xt_z                    10065a3c     LIBCMT:initializers.obj
 0002:00000b40       ??_C@_00CNPNBAHC@?$AA@     10065b40     PID_LoadCell_Magnet.obj
 0002:00000b44       ??_C@_08INHBMDAJ@Setpoint?$AA@ 10065b44     PID_LoadCell_Magnet.obj
 0002:00000b50       ??_C@_0M@OCJOIDIA@Error?5Sigal?$AA@ 10065b50     PID_LoadCell_Magnet.obj
 0002:00000b60       ??_C@_0P@HGGDJAMI@Motor?5Position?$AA@ 10065b60     PID_LoadCell_Magnet.obj
 0002:00000b74       ??_C@_0CB@CNKEEOFE@PID_LoadCell_Magnet?1setpoint_Out@ 10065b74     PID_LoadCell_Magnet.obj
 0002:00000b9c       ??_C@_0CE@GEEEOEEM@PID_LoadCell_Magnet?1errorSignal_@ 10065b9c     PID_LoadCell_Magnet.obj
 0002:00000bc8       ??_C@_0CB@CDKIAAEG@PID_LoadCell_Magnet?1motorPos_Out@ 10065bc8     PID_LoadCell_Magnet.obj
 0002:00000bf0       ??_C@_0BN@PALCLIMP@PID_LoadCell_Magnet?1loadCell?$AA@ 10065bf0     PID_LoadCell_Magnet.obj
 0002:00000c18       _PID_LoadCell_Magnet_M     10065c18     PID_LoadCell_Magnet.obj
 0002:00000c94       ??_C@_0BI@PEBACBDB@Error?5creating?5scope?53?6?$AA@ 10065c94     PID_LoadCell_Magnet.obj
 0002:00000cb0       ??_C@_07PFAGFFFO@Gain?1s1?$AA@ 10065cb0     PID_LoadCell_Magnet.obj
 0002:00000cbc       ??_C@_07NOCLAGJN@Gain?1s2?$AA@ 10065cbc     PID_LoadCell_Magnet.obj
 0002:00000cc8       ??_C@_07MHDADHNM@Gain?1s3?$AA@ 10065cc8     PID_LoadCell_Magnet.obj
 0002:00000cd4       ??_C@_07IIHBKBBL@Gain?1s4?$AA@ 10065cd4     PID_LoadCell_Magnet.obj
 0002:00000ce0       ??_C@_0BG@HCGNMBDA@Setpoint?5?5?5?5?5?5?5?5?$CF3?42f?$AA@ 10065ce0     PID_LoadCell_Magnet.obj
 0002:00000cfc       ??_C@_0BG@KBNMBNLJ@Motor?5Position?5?5?$CF3?42f?$AA@ 10065cfc     PID_LoadCell_Magnet.obj
 0002:00000d18       ??_C@_0BG@OKNLFNOK@Error?5Signal?5?5?5?5?$CF3?42f?$AA@ 10065d18     PID_LoadCell_Magnet.obj
 0002:00000d34       ??_C@_0BH@EEADBKDE@Load?5Cell?5?$CIV?$CJ?5?5?5?5?$CF4?43f?$AA@ 10065d34     PID_LoadCell_Magnet.obj
 0002:00000d50       ??_C@_0BI@PFNCELAG@Error?5creating?5scope?52?6?$AA@ 10065d50     PID_LoadCell_Magnet.obj
 0002:00000d6c       ??_C@_04JMNNLCJG@Sum1?$AA@ 10065d6c     PID_LoadCell_Magnet.obj
 0002:00000d74       ??_C@_0BI@PDBJIJON@Error?5creating?5scope?57?6?$AA@ 10065d74     PID_LoadCell_Magnet.obj
 0002:00000d90       ??_C@_0EN@BAAEGADN@Real?5motor?1angular_position?5?$DN?5?5?$FL@ 10065d90     PID_LoadCell_Magnet.obj
 0002:00000dec       ??_C@_0BI@PHJEPFFP@Error?5creating?5scope?51?6?$AA@ 10065dec     PID_LoadCell_Magnet.obj
 0002:00000e08       ??_C@_04CNCNIFFP@gain?$AA@ 10065e08     PID_LoadCell_Magnet.obj
 0002:00000e10       ??_C@_04CMIMOENB@ode3?$AA@ 10065e10     PID_LoadCell_Magnet.obj
 0002:00000e18       ??_C@_04EPKDLPPB@tout?$AA@ 10065e18     PID_LoadCell_Magnet.obj
 0002:00000e20       ??_C@_03HBFGMJOD@rt_?$AA@  10065e20     PID_LoadCell_Magnet.obj
 0002:00000e24       ??_C@_04LHDDHLEA@yout?$AA@ 10065e24     PID_LoadCell_Magnet.obj
 0002:00000e2c       ??_C@_0BO@FGDALDHL@Channel?50?5of?5?6Encoder?5Inputs?5?$AA@ 10065e2c     PID_LoadCell_Magnet.obj
 0002:00000e50       ??_C@_0DN@POBJNFAH@PID_LoadCell_Magnet?1Real?5motor?1C@ 10065e50     PID_LoadCell_Magnet.obj
 0002:00000e9c       ??_C@_0DH@LFMGCAGH@Channel?50?5?9Control?5signal?5to?5?6mo@ 10065e9c     PID_LoadCell_Magnet.obj
 0002:00000ee0       ??_C@_0EL@GHHJBJML@PID_LoadCell_Magnet?1Channel?50?5?9C@ 10065ee0     PID_LoadCell_Magnet.obj
 0002:00000f3c       ??_C@_09OEBDMAHA@Load?5Cell?$AA@ 10065f3c     PID_LoadCell_Magnet.obj
 0002:00000f48       ??_C@_0BO@DANHKCDI@PID_LoadCell_Magnet?1Load?5Cell?$AA@ 10065f48     PID_LoadCell_Magnet.obj
 0002:00000f70       __real@3f50624dd2f1a9fc    10065f70     PID_LoadCell_Magnet.obj
 0002:00000f80       __real@3fcc71c71c71c71c    10065f80     PID_LoadCell_Magnet.obj
 0002:00000f90       __real@3fd5555555555555    10065f90     PID_LoadCell_Magnet.obj
 0002:00000fa0       __real@3fdc71c71c71c71c    10065fa0     PID_LoadCell_Magnet.obj
 0002:00000fb0       __real@3fe0000000000000    10065fb0     PID_LoadCell_Magnet.obj
 0002:00000fc0       __real@3fe8000000000000    10065fc0     PID_LoadCell_Magnet.obj
 0002:00000fd0       __real@4008000000000000    10065fd0     PID_LoadCell_Magnet.obj
 0002:00000fe0       __real@4024000000000000    10065fe0     PID_LoadCell_Magnet.obj
 0002:00000ff0       __real@4065400000000000    10065ff0     PID_LoadCell_Magnet.obj
 0002:00001000       __real@4066800000000000    10066000     PID_LoadCell_Magnet.obj
 0002:00001010       __real@4069000000000000    10066010     PID_LoadCell_Magnet.obj
 0002:00001020       __real@407f400000000000    10066020     PID_LoadCell_Magnet.obj
 0002:00001030       __real@41f0000000000000    10066030     PID_LoadCell_Magnet.obj
 0002:00001040       __real@bff0000000000000    10066040     PID_LoadCell_Magnet.obj
 0002:00001050       __real@c066800000000000    10066050     PID_LoadCell_Magnet.obj
 0002:00001060       __xmm@0000006f000000140000002700000002 10066060     PID_LoadCell_Magnet.obj
 0002:00001080       __xmm@3f50624dd2f1a9fc0000000000000000 10066080     PID_LoadCell_Magnet.obj
 0002:000010a0       __xmm@41f00000000000000000000000000000 100660a0     PID_LoadCell_Magnet.obj
 0002:000010c0       __xmm@7fffffffffffffff7fffffffffffffff 100660c0     PID_LoadCell_Magnet.obj
 0002:000010d8       __real@3cb0000000000000    100660d8     rt_matrx.obj
 0002:000010e8       __real@3ff0000000000000    100660e8     rt_matrx.obj
 0002:000019b4       ??_C@_09MODAECCC@AbsDError?$AA@ 100669b4     PID_LoadCell_Magnet_capi.obj
 0002:000019c0       ??_C@_08NMGCEGGL@AbsError?$AA@ 100669c0     PID_LoadCell_Magnet_capi.obj
 0002:000019cc       ??_C@_0O@KMOEPDCA@DerivativePID?$AA@ 100669cc     PID_LoadCell_Magnet_capi.obj
 0002:000019dc       ??_C@_04OMOMKKFL@Gain?$AA@ 100669dc     PID_LoadCell_Magnet_capi.obj
 0002:000019e4       ??_C@_02HNOAOKGP@Kd?$AA@   100669e4     PID_LoadCell_Magnet_capi.obj
 0002:000019e8       ??_C@_02MIEOJECC@Ki?$AA@   100669e8     PID_LoadCell_Magnet_capi.obj
 0002:000019ec       ??_C@_02FDEODNDK@Kp?$AA@   100669ec     PID_LoadCell_Magnet_capi.obj
 0002:000019f0       ??_C@_05DNKEGGFC@gain1?$AA@ 100669f0     PID_LoadCell_Magnet_capi.obj
 0002:000019f8       ??_C@_0O@IAJKEFBN@IntegratorPID?$AA@ 100669f8     PID_LoadCell_Magnet_capi.obj
 0002:00001a08       ??_C@_05DIANJFID@Merge?$AA@ 10066a08     PID_LoadCell_Magnet_capi.obj
 0002:00001a10       ??_C@_0L@EICILOBK@Saturation?$AA@ 10066a10     PID_LoadCell_Magnet_capi.obj
 0002:00001a20       ??_C@_0BF@LIOOJHEJ@Analog?5Filter?5Design?$AA@ 10066a20     PID_LoadCell_Magnet_capi.obj
 0002:00001a3c       ??_C@_0BG@MJOFBABB@Analog?5Filter?5Design1?$AA@ 10066a3c     PID_LoadCell_Magnet_capi.obj
 0002:00001a58       ??_C@_04OBKKEGND@Sum4?$AA@ 10066a58     PID_LoadCell_Magnet_capi.obj
 0002:00001a60       ??_C@_07OCBIOHEM@Switch1?$AA@ 10066a60     PID_LoadCell_Magnet_capi.obj
 0002:00001a6c       ??_C@_0BD@KJLJAFAA@Else?5Subsystem?1In1?$AA@ 10066a6c     PID_LoadCell_Magnet_capi.obj
 0002:00001a84       ??_C@_0BB@BAPICNDG@If?5Subsystem?1In1?$AA@ 10066a84     PID_LoadCell_Magnet_capi.obj
 0002:00001a98       ??_C@_0CJ@GBFCCONM@Real?5motor?1Channel?50?5of?5?5Encoder@ 10066a98     PID_LoadCell_Magnet_capi.obj
 0002:00001acc       ??_C@_02MOPPPLEE@5V?$AA@   10066acc     PID_LoadCell_Magnet_capi.obj
 0002:00001ad0       ??_C@_05LPIJGKJ@Value?$AA@ 10066ad0     PID_LoadCell_Magnet_capi.obj
 0002:00001ad8       ??_C@_06DGFMLKGB@Degree?$AA@ 10066ad8     PID_LoadCell_Magnet_capi.obj
 0002:00001ae0       ??_C@_0BC@JJDNPNE@DegreeErrorThresh?$AA@ 10066ae0     PID_LoadCell_Magnet_capi.obj
 0002:00001af8       ??_C@_0BA@JBLOPHPB@RateErrorThresh?$AA@ 10066af8     PID_LoadCell_Magnet_capi.obj
 0002:00001b0c       ??_C@_08OBEDHCOE@magnetOn?$AA@ 10066b0c     PID_LoadCell_Magnet_capi.obj
 0002:00001b18       ??_C@_0BB@CFEOEMDC@InitialCondition?$AA@ 10066b18     PID_LoadCell_Magnet_capi.obj
 0002:00001b2c       ??_C@_0L@FBCGKKEN@UpperLimit?$AA@ 10066b2c     PID_LoadCell_Magnet_capi.obj
 0002:00001b3c       ??_C@_0L@DGFJOHKP@LowerLimit?$AA@ 10066b3c     PID_LoadCell_Magnet_capi.obj
 0002:00001b4c       ??_C@_0DH@HKHAPGAF@Channel?50?5?9Control?5signal?5to?5?5mo@ 10066b4c     PID_LoadCell_Magnet_capi.obj
 0002:00001b90       ??_C@_02KKFPAPOP@P1?$AA@   10066b90     PID_LoadCell_Magnet_capi.obj
 0002:00001b94       ??_C@_02IBHCFMCM@P2?$AA@   10066b94     PID_LoadCell_Magnet_capi.obj
 0002:00001b98       ??_C@_02JIGJGNGN@P3?$AA@   10066b98     PID_LoadCell_Magnet_capi.obj
 0002:00001b9c       ??_C@_02NHCIPLKK@P4?$AA@   10066b9c     PID_LoadCell_Magnet_capi.obj
 0002:00001ba0       ??_C@_02MODDMKOL@P5?$AA@   10066ba0     PID_LoadCell_Magnet_capi.obj
 0002:00001ba4       ??_C@_02OFBOJJCI@P6?$AA@   10066ba4     PID_LoadCell_Magnet_capi.obj
 0002:00001ba8       ??_C@_02PMAFKIGJ@P7?$AA@   10066ba8     PID_LoadCell_Magnet_capi.obj
 0002:00001bac       ??_C@_02HLJNLEKG@P8?$AA@   10066bac     PID_LoadCell_Magnet_capi.obj
 0002:00001bb0       ??_C@_02GCIGIFOH@P9?$AA@   10066bb0     PID_LoadCell_Magnet_capi.obj
 0002:00001bb4       ??_C@_01FHEEJDEE@A?$AA@    10066bb4     PID_LoadCell_Magnet_capi.obj
 0002:00001bb8       ??_C@_01HMGJMAIH@B?$AA@    10066bb8     PID_LoadCell_Magnet_capi.obj
 0002:00001bbc       ??_C@_01GFHCPBMG@C?$AA@    10066bbc     PID_LoadCell_Magnet_capi.obj
 0002:00001bc0       ??_C@_02LNFHGPBG@X0?$AA@   10066bc0     PID_LoadCell_Magnet_capi.obj
 0002:00001bc4       ??_C@_09HLCHFPPJ@Threshold?$AA@ 10066bc4     PID_LoadCell_Magnet_capi.obj
 0002:00001bd0       ??_C@_03OPFJJGBF@P10?$AA@  10066bd0     PID_LoadCell_Magnet_capi.obj
 0002:00001bd4       ??_C@_03PGECKHFE@P11?$AA@  10066bd4     PID_LoadCell_Magnet_capi.obj
 0002:00001bd8       ??_C@_03NNGPPEJH@P12?$AA@  10066bd8     PID_LoadCell_Magnet_capi.obj
 0002:00001bdc       ??_C@_06BNJCAIGJ@double?$AA@ 10066bdc     PID_LoadCell_Magnet_capi.obj
 0002:00001be4       ??_C@_06CNMIJIPB@real_T?$AA@ 10066be4     PID_LoadCell_Magnet_capi.obj
 0002:00001bec       ??_C@_05KNFBNCOH@float?$AA@ 10066bec     PID_LoadCell_Magnet_capi.obj
 0002:00001bf4       _serialfifoground          10066bf4     xpc_datatype_ground.obj
 0002:00001c00       _bcmsg1553ground           10066c00     xpc_datatype_ground.obj
 0002:00001c10       _bcstatground              10066c10     xpc_datatype_ground.obj
 0002:00001c28       _bmmsg1553ground           10066c28     xpc_datatype_ground.obj
 0002:00001c64       ??_C@_0BI@INNPNFJN@Memory?5Allocation?5Error?$AA@ 10066c64     rtw_modelmap_utils.obj
 0002:00001c80       ??_C@_1HC@IFMGIDHA@?$AAC?$AA?3?$AA?2?$AAP?$AAR?$AAO?$AAG?$AAR?$AAA?$AA?$HO?$AA1?$AA?2?$AAM?$AAA?$AAT?$AAL?$AAA?$AAB?$AA?2?$AAR?$AA2?$AA0?$AA1?$AA7?$AAa?$AA?2?$AAr?$AAt?$AAw?$AA?2?$AAc?$AA?2@ 10066c80     rtw_modelmap_utils.obj
 0002:00001d08       ??_C@_1CI@OEAJCJND@?$AAj?$AA?5?$AA?$DN?$AA?$DN?$AA?5?$AAe?$AAn?$AAc?$AAo?$AAd?$AAe?$AAd?$AAP?$AAa?$AAt?$AAh?$AAL?$AAe?$AAn?$AA?$AA@ 10066d08     rtw_modelmap_utils.obj
 0002:00001d38       ??_C@_1DC@NFAOIFKB@?$AAe?$AAn?$AAc?$AAo?$AAd?$AAe?$AAd?$AAP?$AAa?$AAt?$AAh?$AA?$FL?$AAj?$AA?9?$AA1?$AA?$FN?$AA?5?$AA?$DN?$AA?$DN?$AA?5?$AA?8?$AA?2?$AA0?$AA?8?$AA?$AA@ 10066d38     rtw_modelmap_utils.obj
 0002:00001d74       ??_C@_1DI@FLNJGPEE@?$AAs?$AAi?$AAg?$AAC?$AAo?$AAm?$AAp?$AAl?$AAe?$AAx?$AAi?$AAt?$AAy?$AA?$FL?$AA?$CK?$AAs?$AAi?$AAg?$AAI?$AAd?$AAx?$AA?$FN?$AA?5?$AA?$CB?$AA?$DN?$AA?5?$AA1?$AA?$AA@ 10066d74     rtw_modelmap_utils.obj
 0002:00001db8       ??_C@_1KI@OFELMGBG@?$AA?$CI?$AA?$CI?$AA?$CI?$AAd?$AAa?$AAt?$AAa?$AAT?$AAy?$AAp?$AAe?$AAM?$AAa?$AAp?$AA?$CJ?$AA?$FL?$AA?$CI?$AA?$CI?$AA?$CI?$AAs?$AAt?$AAa?$AAt?$AAe?$AAs?$AA?$CJ?$AA?$FL?$AA?$CI?$AAi?$AA?$CJ?$AA?$FN?$AA?4@ 10066db8     rtw_modelmap_utils.obj
 0002:00001e84       ??_C@_1DA@ILCMPHNE@?$AAf?$AAu?$AAl?$AAl?$AAP?$AAa?$AAt?$AAh?$AA?5?$AA?$CB?$AA?$DN?$AA?5?$AA?$CI?$AA?$CI?$AAv?$AAo?$AAi?$AAd?$AA?5?$AA?$CK?$AA?$CJ?$AA0?$AA?$CJ?$AA?$AA@ 10066e84     rtw_modelmap_utils.obj
 0002:00001ec0       ??_C@_1CI@OEPPFCCA@?$AAp?$AAa?$AAt?$AAh?$AA?5?$AA?$CB?$AA?$DN?$AA?5?$AA?$CI?$AA?$CI?$AAv?$AAo?$AAi?$AAd?$AA?5?$AA?$CK?$AA?$CJ?$AA0?$AA?$CJ?$AA?$AA@ 10066ec0     rtw_modelmap_utils.obj
 0002:00001ef0       ??_C@_1FK@GLJIMFHB@?$AA?$CI?$AA?$CI?$AAm?$AAm?$AAi?$AA?$CJ?$AA?9?$AA?$DO?$AAI?$AAn?$AAs?$AAt?$AAa?$AAn?$AAc?$AAe?$AAM?$AAa?$AAp?$AA?4?$AAf?$AAu?$AAl?$AAl?$AAP?$AAa?$AAt?$AAh?$AA?$CJ?$AA?5?$AA?$DN?$AA?$DN@ 10066ef0     rtw_modelmap_utils.obj
 0002:00001f5c       ??_C@_1DG@HPCJGNCE@?$AAm?$AAm?$AAi?$AAP?$AAa?$AAt?$AAh?$AA?$FL?$AAp?$AAa?$AAt?$AAh?$AAL?$AAe?$AAn?$AA?9?$AA1?$AA?$FN?$AA?5?$AA?$DN?$AA?$DN?$AA?5?$AA?8?$AA?2?$AA0?$AA?8?$AA?$AA@ 10066f5c     rtw_modelmap_utils.obj
 0002:00001f9c       ??_C@_1DM@DBAOGGOO@?$AAm?$AAm?$AAi?$AAP?$AAa?$AAt?$AAh?$AA?$FL?$AAm?$AAm?$AAi?$AAP?$AAa?$AAt?$AAh?$AAL?$AAe?$AAn?$AA?9?$AA1?$AA?$FN?$AA?5?$AA?$DN?$AA?$DN?$AA?5?$AA?8?$AA?2?$AA0?$AA?8?$AA?$AA@ 10066f9c     rtw_modelmap_utils.obj
 0002:00001fe4       ??_C@_1DC@LHIAKAFE@?$AAb?$AAl?$AAo?$AAc?$AAk?$AAP?$AAa?$AAt?$AAh?$AA?5?$AA?$CB?$AA?$DN?$AA?5?$AA?$CI?$AA?$CI?$AAv?$AAo?$AAi?$AAd?$AA?5?$AA?$CK?$AA?$CJ?$AA0?$AA?$CJ?$AA?$AA@ 10066fe4     rtw_modelmap_utils.obj
 0002:00002020       ??_C@_1GI@KIEJKPGC@?$AAf?$AAu?$AAl?$AAl?$AAS?$AAt?$AAa?$AAt?$AAe?$AAB?$AAl?$AAo?$AAc?$AAk?$AAP?$AAa?$AAt?$AAh?$AA?$FL?$AAf?$AAu?$AAl?$AAl?$AAS?$AAt?$AAa?$AAt?$AAe?$AAB?$AAl?$AAo?$AAc@ 10067020     rtw_modelmap_utils.obj
 0002:000020a0       ??_C@_1EE@DNPIBJHC@?$AA?$CI?$AA?$CI?$AAd?$AAi?$AAm?$AAM?$AAa?$AAp?$AA?$CJ?$AA?$FL?$AA?$CI?$AAm?$AAa?$AAp?$AAI?$AAd?$AAx?$AA?$CJ?$AA?$FN?$AA?4?$AAn?$AAu?$AAm?$AAD?$AAi?$AAm?$AAs?$AA?$CJ?$AA?5?$AA?$DN?$AA?$DN?$AA?5@ 100670a0     rtw_modelmap_utils.obj
 0002:000020f4       ??_C@_06JFOKFOED@CSTATE?$AA@ 100670f4     rtw_modelmap_utils.obj
 0002:000020fc       ??_C@_06FAENGAMN@DSTATE?$AA@ 100670fc     rtw_modelmap_utils.obj
 0002:00002104       ??_C@_1BI@LEBJNOGG@?$AAc?$AAs?$AAv?$AAI?$AAd?$AAx?$AA?5?$AA?$DO?$AA?$DN?$AA?5?$AA0?$AA?$AA@ 10067104     rtw_modelmap_utils.obj
 0002:00002120       ??_C@_1BA@KDMGHCHP@?$AAT?$AAI?$AAD?$AA?$DN?$AA?$DN?$AA?9?$AA1?$AA?$AA@ 10067120     rtw_modelmap_utils.obj
 0002:00002134       ??_C@_1DM@DHGKBPCE@?$AAs?$AAi?$AAg?$AAP?$AAa?$AAt?$AAh?$AA?$FL?$AAs?$AAi?$AAg?$AAP?$AAa?$AAt?$AAh?$AAL?$AAe?$AAn?$AA?9?$AA1?$AA?$FN?$AA?5?$AA?$DN?$AA?$DN?$AA?5?$AA?8?$AA?2?$AA0?$AA?8?$AA?$AA@ 10067134     rtw_modelmap_utils.obj
 0002:000029e0       ??_C@_0DJ@FHKINPLE@Unexpected?5itemKind?5?$DN?5DATA_ITEM?5@ 100679e0     rt_logging.obj
 0002:00002a24       ??_C@_0DA@IEHFPFCJ@Unexpected?5itemKind?$DN?$CFd?5in?5rt_Pro@ 10067a24     rt_logging.obj
 0002:00002a60       ??_C@_0DA@IFLHJPBO@Unexpected?5itemKind?$DN?$CFd?5in?5rt_Pro@ 10067a60     rt_logging.obj
 0002:00002a9c       ??_C@_0DA@IAPIIJJL@Unexpected?5itemKind?$DN?$CFd?5in?5rt_Pro@ 10067a9c     rt_logging.obj
 0002:00002ad8       ??_C@_0BE@LCIGPJIG@MATLAB?55?40?5MAT?9file?$AA@ 10067ad8     rt_logging.obj
 0002:00002af0       ??_C@_0FB@PCJEAJIB@?$CK?$CK?$CK?5Log?5variable?5?$CFs?5has?5wrapped?5@ 10067af0     rt_logging.obj
 0002:00002b58       ??_C@_0MG@NKMLMOGF@?$CK?$CK?$CK?5To?5avoid?5wrapping?0?5explicitl@ 10067b58     rt_logging.obj
 0002:00002c48       ??_C@_0N@IPAEOLLP@_rtw_tmw?4tmw?$AA@ 10067c48     rt_logging.obj
 0002:00002c58       ??_C@_04HDOCAJNK@?$CFs?$CFs?$AA@ 10067c58     rt_logging.obj
 0002:00002c60       ??_C@_03ELIABIOC@w?$CLb?$AA@ 10067c60     rt_logging.obj
 0002:00002c64       ??_C@_0BF@JPILDDFA@?$CK?$CK?$CK?5Error?5opening?5?$CFs?$AA@ 10067c64     rt_logging.obj
 0002:00002c80       ??_C@_0BK@EEMDELA@unable?5to?5open?5data?5file?6?$AA@ 10067c80     rt_logging.obj
 0002:00002ca0       ??_C@_04CGFJFPFD@none?$AA@ 10067ca0     rt_logging.obj
 0002:00002ca8       ??_C@_0EE@LCGFPNON@?$CK?$CK?$CK?5Error?5creating?5signals?5struc@ 10067ca8     rt_logging.obj
 0002:00002cfc       ??_C@_0CE@NHECEDMK@?$CK?$CK?$CK?5Error?5creating?5log?5variable?5@ 10067cfc     rt_logging.obj
 0002:00002d28       ??_C@_0DB@IOCGKAGH@?$CK?$CK?$CK?5Errors?5occurred?5when?5startin@ 10067d28     rt_logging.obj
 0002:00002d64       ??_C@_0BO@BBLOGEBK@?$CK?$CK?$CK?5Memory?5allocation?5error?4?6?$AA@ 10067d64     rt_logging.obj
 0002:00002d88       ??_C@_0N@LGFBAGEL@?5?$CIreal?5part?$CJ?$AA@ 10067d88     rt_logging.obj
 0002:00002d98       ??_C@_0KH@CGNMHNFE@?5?5?5?5varName?5?5?5?5?5?5?5?5?5?5?$DN?5?$CFs?$CFs?6?5?5?5?5@ 10067d98     rt_logging.obj
 0002:00002e60       ??_C@_0LE@OALKKEFM@?5?5?5?5varName?5?5?5?5?5?5?5?5?5?5?$DN?5?$CFs?5?$CIcompl@ 10067e60     rt_logging.obj
 0002:00002f38       ??_C@_0KF@JDDLEOKO@?5?5?5?5varName?5?5?5?5?5?5?5?5?5?5?$DN?5?$CFs?6?5?5?5?5nR@ 10067f38     rt_logging.obj
 0002:00003000       ??_C@_0DP@HPDMIOFM@?$CK?$CK?$CK?5Using?5a?5default?5buffer?5of?5si@ 10068000     rt_logging.obj
 0002:00003050       ??_C@_0KE@JEFOLKNF@?6?$CK?$CK?$CK?5Memory?5required?5to?5log?5vari@ 10068050     rt_logging.obj
 0002:00003118       ??_C@_0JP@DKLMHCBI@?$CK?$CK?$CK?5Details?3?6?5?5?5?5?5?5?5varName?5?5?5?5?5@ 10068118     rt_logging.obj
 0002:000031d8       ??_C@_0CM@CAMILBED@?$CK?$CK?$CK?5Error?5allocating?5memory?5for?5@ 100681d8     rt_logging.obj
 0002:0000320c       ??_C@_0DF@BBCNMOPM@?$CK?$CK?$CK?5Error?5allocating?5memory?5for?5@ 1006820c     rt_logging.obj
 0002:00003250       ??_C@_0JP@DBCLPCCI@?$CK?$CK?$CK?5Details?3?6?5?5?5?5?5?5?5varName?5?5?5?5?5@ 10068250     rt_logging.obj
 0002:00003310       ??_C@_0FK@DPGAOBGA@?$CK?$CK?$CK?5Error?5allocating?5memory?5for?5@ 10068310     rt_logging.obj
 0002:0000337c       ??_C@_0BI@GGDNPHLJ@?$CK?$CK?$CK?5Error?5writing?5to?5?$CFs?$AA@ 1006837c     rt_logging.obj
 0002:00003398       ??_C@_0CB@IBGJGELG@?$CK?$CK?$CK?5Error?5writing?5?$CFs?5due?5to?3?5?$CFs?6@ 10068398     rt_logging.obj
 0002:000033c0       ??_C@_0CN@FLMCHCPB@?$CK?$CK?$CK?5Error?5writing?5log?5variable?5?$CF@ 100683c0     rt_logging.obj
 0002:000033f8       ??_C@_0DH@GAJCNOJP@?$CK?$CK?$CK?5Error?5writing?5structure?5log?5@ 100683f8     rt_logging.obj
 0002:0000343c       ??_C@_0BD@POEALECL@?$CK?$CK?5created?5?$CFs?5?$CK?$CK?6?6?$AA@ 1006843c     rt_logging.obj
 0002:00003458       __real@0000000000000000    10068458     rt_logging.obj
 0002:00003468       __real@4020000000000000    10068468     rt_logging.obj
 0002:00003478       __real@41dfffffffc00000    10068478     rt_logging.obj
 0002:00003488       __real@41efffffffe00000    10068488     rt_logging.obj
 0002:00003498       __real@4330000000000000    10068498     rt_logging.obj
 0002:000034a8       __real@8000000000000000    100684a8     rt_logging.obj
 0002:000034b8       __real@bfbf9add3afd2773    100684b8     rt_logging.obj
 0002:000034c8       __real@c000000000000000    100684c8     rt_logging.obj
 0002:000034e0       __xmm@20202020202020202020202020202020 100684e0     rt_logging.obj
 0002:000034f4       ??_C@_0BE@EDLJHFBJ@PID_LoadCell_Magnet?$AA@ 100684f4     xpctarget.obj
 0002:0000350c       _ptsetfilename             1006850c     xpctarget.obj
 0002:00003510       _xmlfile                   10068510     xpctarget.obj
 0002:00003518       ??_C@_0L@CHBJKKFC@xpceSetVar?$AA@ 10068518     xpctarget.obj
 0002:00003528       ??_C@_03LADEHNAB@6?46?$AA@ 10068528     xpctarget.obj
 0002:00003530       __real@3fb999999999999a    10068530     xpctarget.obj
 0002:00003540       __real@408f400000000000    10068540     xpctarget.obj
 0002:00003550       _PID_LoadCell_Magnet_BIOMAP 10068550     appmappingData.obj
 0002:00003664       _PID_LoadCell_Magnet_dtmap 10068664     appmappingData.obj
 0002:00003670       _PID_LoadCell_Magnet_LBLMAP 10068670     appmappingData.obj
 0002:00003788       _PID_LoadCell_Magnet_SIDMAP 10068788     appmappingData.obj
 0002:000038a0       _PID_LoadCell_Magnet_SBIO  100688a0     appmappingData.obj
 0002:00003900       _PID_LoadCell_Magnet_SLBL  10068900     appmappingData.obj
 0002:00003960       _PID_LoadCell_Magnet_PTIDSMAP 10068960     appmappingData.obj
 0002:00003b00       _PID_LoadCell_Magnet_PTNAMESMAP 10068b00     appmappingData.obj
 0002:00003ca0       _PID_LoadCell_Magnet_SPTMAP 10068ca0     appmappingData.obj
 0002:00003d70       _appInfo                   10068d70     appmappingData.obj
 0002:00003f6c       ??_C@_0CC@FIFFDAB@?$CFd?5input?5args?5expected?0?5?$CFd?5passe@ 10068f6c     adquanserq8.obj
 0002:00003f94       ??_C@_0L@GPCJJFPH@Quanser?5Q8?$AA@ 10068f94     adquanserq8.obj
 0002:00003fa4       ??_C@_0L@MDJMNKPL@Quanser?5Q4?$AA@ 10068fa4     adquanserq8.obj
 0002:00003fb4       ??_C@_0BI@IHCNPKCM@No?5?$CFs?5at?5bus?5?$CFd?5slot?5?$CFd?$AA@ 10068fb4     adquanserq8.obj
 0002:00003fd0       ??_C@_0BN@HPKICLI@?$CFs?5A?1D?5driver?5internal?5error?$AA@ 10068fd0     adquanserq8.obj
 0002:00003ff8       __real@3f54000000000000    10068ff8     adquanserq8.obj
 0002:00004004       ??_C@_0BK@DJPPGIA@Bad?5channel?5in?5?$CFs?5D?1A?3?5?$CFn?$AA@ 10069004     daquanserq8.obj
 0002:00004024       ??_C@_0BI@OLGKMIEO@Bad?5range?5in?5?$CFs?5D?1A?3?5?$CFd?$AA@ 10069024     daquanserq8.obj
 0002:00004040       __real@4014000000000000    10069040     daquanserq8.obj
 0002:00004050       __real@406999999999999a    10069050     daquanserq8.obj
 0002:00004060       __real@407999999999999a    10069060     daquanserq8.obj
 0002:0000406c       ??_C@_0BL@NBOIGMKP@Q8?1Q4?5encoder?5error?5?$CFx?5?$CFx?6?$AA@ 1006906c     encquanserq8.obj
 0002:0000408c       ??_C@_0CC@DMFKNLL@VendorId?5?$DN?50x?$CFx?0?5DeviceId?5?$DN?50x?$CFx@ 1006908c     xpcruntime:xpcimports.obj
 0002:000040b4       ??_C@_0DH@OHCBLNMG@Subsystem?5Device?5ID?5?$DN?50x?$CFx?6Subsy@ 100690b4     xpcruntime:xpcimports.obj
 0002:000040f8       ??_C@_0BD@MMMMEFCM@Class?5Code?5?$DN?50x?$CFx?6?$AA@ 100690f8     xpcruntime:xpcimports.obj
 0002:00004110       ??_C@_0BE@OLDDDNHM@InterruptLine?5?$DN?5?$CFd?6?$AA@ 10069110     xpcruntime:xpcimports.obj
 0002:00004128       ??_C@_0BF@OLKLEKBD@bus?5?$DN?5?$CFd?0?5slot?5?$DN?5?$CFd?6?$AA@ 10069128     xpcruntime:xpcimports.obj
 0002:00004144       ??_C@_0CE@DGLLGDFH@?5?5?5?5Phys?5?5?5Virtual?5?5?5Length?5IO?1M@ 10069144     xpcruntime:xpcimports.obj
 0002:00004170       ??_C@_0BI@FEOPLEMG@?$CF08x?5?$CF08x?5?$CF08x?5?5?5?5?5?5?$CFc?6?$AA@ 10069170     xpcruntime:xpcimports.obj
 0002:0000418c       ??_C@_0BB@BNNCEDPC@rl32eScopeExists?$AA@ 1006918c     xpcruntime:xpcimports.obj
 0002:000041a0       ??_C@_0BM@FJBFEGFG@rl32eScopeExists?5not?5found?6?$AA@ 100691a0     xpcruntime:xpcimports.obj
 0002:000041c4       ??_C@_0O@BNNGKJEA@rl32eDefScope?$AA@ 100691c4     xpcruntime:xpcimports.obj
 0002:000041d4       ??_C@_0BJ@CDNOENKA@rl32eDefScope?5not?5found?6?$AA@ 100691d4     xpcruntime:xpcimports.obj
 0002:000041f4       ??_C@_0P@CKNKILDP@rl32eAddSignal?$AA@ 100691f4     xpcruntime:xpcimports.obj
 0002:00004208       ??_C@_0BK@GMJAJBAI@rl32eAddSignal?5not?5found?6?$AA@ 10069208     xpcruntime:xpcimports.obj
 0002:00004228       ??_C@_0BB@LDMIHGCE@rl32eGetSignalNo?$AA@ 10069228     xpcruntime:xpcimports.obj
 0002:0000423c       ??_C@_0BM@LGAMBAID@rl32eGetSignalNo?5not?5found?6?$AA@ 1006923c     xpcruntime:xpcimports.obj
 0002:00004260       ??_C@_0O@CFDGALBP@rl32eSetScope?$AA@ 10069260     xpcruntime:xpcimports.obj
 0002:00004270       ??_C@_0BJ@JCLHHIN@rl32eSetScope?5not?5found?6?$AA@ 10069270     xpcruntime:xpcimports.obj
 0002:00004290       ??_C@_0P@IKMCBMHH@xpceFSScopeSet?$AA@ 10069290     xpcruntime:xpcimports.obj
 0002:000042a4       ??_C@_0BK@JODJPNNH@xpceFSScopeSet?5not?5found?6?$AA@ 100692a4     xpcruntime:xpcimports.obj
 0002:000042c4       ??_C@_0BE@DLACEEJM@rl32eSetTargetScope?$AA@ 100692c4     xpcruntime:xpcimports.obj
 0002:000042dc       ??_C@_0BP@JCHFMKPJ@rl32eSetTargetScope?5not?5found?6?$AA@ 100692dc     xpcruntime:xpcimports.obj
 0002:00004304       ??_C@_0BJ@LIDLNDHC@rl32eSetTargetScopeSigFt?$AA@ 10069304     xpcruntime:xpcimports.obj
 0002:00004324       ??_C@_0CE@JLGHCFHI@rl32eSetTargetScopeSigFt?5not?5fou@ 10069324     xpcruntime:xpcimports.obj
 0002:00004350       ??_C@_0BI@JAPOIDNG@rl32eRestartAcquisition?$AA@ 10069350     xpcruntime:xpcimports.obj
 0002:0000436c       ??_C@_0CD@LLBEFFBO@rl32eRestartAcquisition?5not?5foun@ 1006936c     xpcruntime:xpcimports.obj
 0002:00004398       ??_C@_0P@IEIIADJB@xpceScopeAcqOK?$AA@ 10069398     xpcruntime:xpcimports.obj
 0002:000043ac       ??_C@_0BK@NJCKNFPN@xpceScopeAcqOK?5not?5found?6?$AA@ 100693ac     xpcruntime:xpcimports.obj
 0002:000043cc       ??_C@_0BA@IJINKAHF@xpceRegisterISR?$AA@ 100693cc     xpcruntime:xpcimports.obj
 0002:000043e0       ??_C@_0BL@NNDLOEJE@xpceRegisterISR?5not?5found?6?$AA@ 100693e0     xpcruntime:xpcimports.obj
 0002:00004400       ??_C@_0BC@NLBADGKF@xpceDeRegisterISR?$AA@ 10069400     xpcruntime:xpcimports.obj
 0002:00004418       ??_C@_0BN@DCAIKFFD@xpceDeRegisterISR?5not?5found?6?$AA@ 10069418     xpcruntime:xpcimports.obj
 0002:0000443c       ??_C@_07JPMEPILD@xpcInpB?$AA@ 1006943c     xpcruntime:xpcimports.obj
 0002:00004448       ??_C@_0BD@PGABEJOL@xpcInpB?5not?5found?6?$AA@ 10069448     xpcruntime:xpcimports.obj
 0002:00004460       ??_C@_07KIHBBOKH@xpcInpW?$AA@ 10069460     xpcruntime:xpcimports.obj
 0002:0000446c       ??_C@_0BD@FPCJFMCC@xpcInpW?5not?5found?6?$AA@ 1006946c     xpcruntime:xpcimports.obj
 0002:00004484       ??_C@_08KDIAJBOP@xpcInpDW?$AA@ 10069484     xpcruntime:xpcimports.obj
 0002:00004490       ??_C@_0BE@PIELDNIL@xpcInpDW?5not?5found?6?$AA@ 10069490     xpcruntime:xpcimports.obj
 0002:000044a8       ??_C@_08PJFMOIGO@xpcOutpB?$AA@ 100694a8     xpcruntime:xpcimports.obj
 0002:000044b4       ??_C@_0BE@HCKNCEKF@xpcOutpB?5not?5found?6?$AA@ 100694b4     xpcruntime:xpcimports.obj
 0002:000044cc       ??_C@_08MOOJAOHK@xpcOutpW?$AA@ 100694cc     xpcruntime:xpcimports.obj
 0002:000044d8       ??_C@_0BE@NLIFDBGM@xpcOutpW?5not?5found?6?$AA@ 100694d8     xpcruntime:xpcimports.obj
 0002:000044f0       ??_C@_09FLIEKHJG@xpcOutpDW?$AA@ 100694f0     xpcruntime:xpcimports.obj
 0002:000044fc       ??_C@_0BF@GJKLPNHB@xpcOutpDW?5not?5found?6?$AA@ 100694fc     xpcruntime:xpcimports.obj
 0002:00004518       ??_C@_0BH@EHOLELHH@xpcReserveMemoryRegion?$AA@ 10069518     xpcruntime:xpcimports.obj
 0002:00004534       ??_C@_0CC@KAAAGPI@xpcReserveMemoryRegion?5not?5found@ 10069534     xpcruntime:xpcimports.obj
 0002:0000455c       ??_C@_0BA@JGPMHGAF@rl32eShowPCIDev?$AA@ 1006955c     xpcruntime:xpcimports.obj
 0002:00004570       ??_C@_0BL@DDFFLNHI@rl32eShowPCIDev?5not?5found?6?$AA@ 10069570     xpcruntime:xpcimports.obj
 0002:00004590       ??_C@_0BB@KBCOJPFB@rl32eShowPCIInfo?$AA@ 10069590     xpcruntime:xpcimports.obj
 0002:000045a4       ??_C@_0BM@IFDMAGLO@rl32eShowPCIInfo?5not?5found?6?$AA@ 100695a4     xpcruntime:xpcimports.obj
 0002:000045c8       ??_C@_0BA@BGPAADB@rl32eGetPCIInfo?$AA@ 100695c8     xpcruntime:xpcimports.obj
 0002:000045dc       ??_C@_0BL@IGOMLDCK@rl32eGetPCIInfo?5not?5found?6?$AA@ 100695dc     xpcruntime:xpcimports.obj
 0002:000045fc       ??_C@_0BG@NJPFKFDP@rl32eGetPCIInfoAtSlot?$AA@ 100695fc     xpcruntime:xpcimports.obj
 0002:00004618       ??_C@_0CB@BBKIPMLA@rl32eGetPCIInfoAtSlot?5not?5found?6@ 10069618     xpcruntime:xpcimports.obj
 0002:00004640       ??_C@_0BH@OKBOPNFG@xpceAssignPCIInterrupt?$AA@ 10069640     xpcruntime:xpcimports.obj
 0002:0000465c       ??_C@_0CC@CDNDNJBJ@xpceAssignPCIInterrupt?5not?5found@ 1006965c     xpcruntime:xpcimports.obj
 0002:00004684       ??_C@_0BD@PCKOKHO@xpceGetSignalValue?$AA@ 10069684     xpcruntime:xpcimports.obj
 0002:0000469c       ??_C@_0BO@GCBDJHMB@xpceGetSignalValue?5not?5found?6?$AA@ 1006969c     xpcruntime:xpcimports.obj
 0002:000046c0       ??_C@_0BB@BJONJAGA@xpceSetParameter?$AA@ 100696c0     xpcruntime:xpcimports.obj
 0002:000046d4       ??_C@_0BM@BJIKDLHA@xpceSetParameter?5not?5found?6?$AA@ 100696d4     xpcruntime:xpcimports.obj
 0002:000046f8       ??_C@_0BB@GNFDFMCM@xpceGetParameter?$AA@ 100696f8     xpcruntime:xpcimports.obj
 0002:0000470c       ??_C@_0BM@POHNKBC@xpceGetParameter?5not?5found?6?$AA@ 1006970c     xpcruntime:xpcimports.obj
 0002:00004730       ??_C@_0BB@CEIJLFCD@xpceGetParamDims?$AA@ 10069730     xpcruntime:xpcimports.obj
 0002:00004744       ??_C@_0BM@OABDBKAO@xpceGetParamDims?5not?5found?6?$AA@ 10069744     xpcruntime:xpcimports.obj
 0002:00004768       ??_C@_0L@OCBLLHBM@xpceGetTET?$AA@ 10069768     xpcruntime:xpcimports.obj
 0002:00004778       ??_C@_0BG@HNOFBOB@xpceGetTET?5not?5found?6?$AA@ 10069778     xpcruntime:xpcimports.obj
 0002:00004794       ??_C@_0P@OKGNGAGH@xpcIsModelInit?$AA@ 10069794     xpcruntime:xpcimports.obj
 0002:000047a8       ??_C@_0BK@DHEMLBIM@xpcIsModelInit?5not?5found?6?$AA@ 100697a8     xpcruntime:xpcimports.obj
 0002:000047c8       ??_C@_0BH@KJJLCAOJ@xpcAllocPhysicalMemory?$AA@ 100697c8     xpcruntime:xpcimports.obj
 0002:000047e4       ??_C@_0CC@MOJPNHKL@xpcAllocPhysicalMemory?5not?5found@ 100697e4     xpcruntime:xpcimports.obj
 0002:0000480c       ??_C@_0BG@CBNPGAEL@xpcFreePhysicalMemory?$AA@ 1006980c     xpcruntime:xpcimports.obj
 0002:00004828       ??_C@_0CB@PKJEBPOG@xpcFreePhysicalMemory?5not?5found?6@ 10069828     xpcruntime:xpcimports.obj
 0002:00004850       ??_C@_0BC@JGKNLICL@xpcGetElapsedTime?$AA@ 10069850     xpcruntime:xpcimports.obj
 0002:00004868       ??_C@_0BN@OEOAHCIO@xpcGetElapsedTime?5not?5found?6?$AA@ 10069868     xpcruntime:xpcimports.obj
 0002:0000488c       ??_C@_0M@ICBLMODA@xpcBusyWait?$AA@ 1006988c     xpcruntime:xpcimports.obj
 0002:0000489c       ??_C@_0BH@FBOPECBI@xpcBusyWait?5not?5found?6?$AA@ 1006989c     xpcruntime:xpcimports.obj
 0002:000048b8       ??_C@_0N@LKKJEKKA@TBCreateSpin?$AA@ 100698b8     xpcruntime:xpcimports.obj
 0002:000048c8       ??_C@_0BI@FHKMLKOE@TBCreateSpin?5not?5found?6?$AA@ 100698c8     xpcruntime:xpcimports.obj
 0002:000048e4       ??_C@_0N@HOAJHNBD@TBDeleteSpin?$AA@ 100698e4     xpcruntime:xpcimports.obj
 0002:000048f4       ??_C@_0BI@BKCPAAG@TBDeleteSpin?5not?5found?6?$AA@ 100698f4     xpcruntime:xpcimports.obj
 0002:00004910       ??_C@_0P@DAHDDBJG@TBTakeSpinFast?$AA@ 10069910     xpcruntime:xpcimports.obj
 0002:00004924       ??_C@_0BK@NKAIBHGB@TBTakeSpinFast?5not?5found?6?$AA@ 10069924     xpcruntime:xpcimports.obj
 0002:00004944       ??_C@_0P@FKNAAELA@TBGiveSpinFast?$AA@ 10069944     xpcruntime:xpcimports.obj
 0002:00004958       ??_C@_0BK@KGPJBJND@TBGiveSpinFast?5not?5found?6?$AA@ 10069958     xpcruntime:xpcimports.obj
 0002:00004978       ??_C@_0BE@IIGBFDHK@xpceCreateSemaphore?$AA@ 10069978     xpcruntime:xpcimports.obj
 0002:00004990       ??_C@_0BP@KFBAFFKJ@xpceCreateSemaphore?5not?5found?6?$AA@ 10069990     xpcruntime:xpcimports.obj
 0002:000049b8       ??_C@_0BC@IFNIONKJ@xpceWaitSemaphore?$AA@ 100699b8     xpcruntime:xpcimports.obj
 0002:000049d0       ??_C@_0BN@NMFAADIO@xpceWaitSemaphore?5not?5found?6?$AA@ 100699d0     xpcruntime:xpcimports.obj
 0002:000049f4       ??_C@_0BE@NNDIOBKE@xpceSignalSemaphore?$AA@ 100699f4     xpcruntime:xpcimports.obj
 0002:00004a0c       ??_C@_0BP@LBANMHJP@xpceSignalSemaphore?5not?5found?6?$AA@ 10069a0c     xpcruntime:xpcimports.obj
 0002:00004a34       ??_C@_0BE@MEBEKOIM@xpceDeleteSemaphore?$AA@ 10069a34     xpcruntime:xpcimports.obj
 0002:00004a4c       ??_C@_0BP@OFNCKOJH@xpceDeleteSemaphore?5not?5found?6?$AA@ 10069a4c     xpcruntime:xpcimports.obj
 0002:00004a74       ??_C@_0BD@MFNDMBOF@FindUsbVideoDevice?$AA@ 10069a74     xpcruntime:xpcimports.obj
 0002:00004a8c       ??_C@_0BO@POKLDHMI@FindUsbVideoDevice?5not?5found?6?$AA@ 10069a8c     xpcruntime:xpcimports.obj
 0002:00004ab0       ??_C@_0BA@PLPAPNAB@GetVideoConfigs?$AA@ 10069ab0     xpcruntime:xpcimports.obj
 0002:00004ac4       ??_C@_0BL@DALDHKHC@GetVideoConfigs?5not?5found?6?$AA@ 10069ac4     xpcruntime:xpcimports.obj
 0002:00004ae4       ??_C@_0L@GBAEMHMH@StartVideo?$AA@ 10069ae4     xpcruntime:xpcimports.obj
 0002:00004af4       ??_C@_0BG@HDCELEBP@StartVideo?5not?5found?6?$AA@ 10069af4     xpcruntime:xpcimports.obj
 0002:00004b10       ??_C@_0BA@FDNPOCLN@ReadFrameBuffer?$AA@ 10069b10     xpcruntime:xpcimports.obj
 0002:00004b24       ??_C@_0BL@JHGHPNBI@ReadFrameBuffer?5not?5found?6?$AA@ 10069b24     xpcruntime:xpcimports.obj
 0002:00004b44       ??_C@_09FAHCLKAG@StopVideo?$AA@ 10069b44     xpcruntime:xpcimports.obj
 0002:00004b50       ??_C@_0BF@NKGKKADL@StopVideo?5not?5found?6?$AA@ 10069b50     xpcruntime:xpcimports.obj
 0002:00004b6c       ??_C@_0O@MCPKDLLL@ConvertUImage?$AA@ 10069b6c     xpcruntime:xpcimports.obj
 0002:00004b7c       ??_C@_0BJ@PHJKOAFL@ConvertUImage?5not?5found?6?$AA@ 10069b7c     xpcruntime:xpcimports.obj
 0002:00004b9c       ??_C@_0BD@NKCBPBJJ@CreateVideoDisplay?$AA@ 10069b9c     xpcruntime:xpcimports.obj
 0002:00004bb4       ??_C@_0BO@HPPLLNFP@CreateVideoDisplay?5not?5found?6?$AA@ 10069bb4     xpcruntime:xpcimports.obj
 0002:00004bd8       ??_C@_0BE@KJCKGPHA@DestroyVideoDisplay?$AA@ 10069bd8     xpcruntime:xpcimports.obj
 0002:00004bf0       ??_C@_0BP@FMGLJAIJ@DestroyVideoDisplay?5not?5found?6?$AA@ 10069bf0     xpcruntime:xpcimports.obj
 0002:00004c18       ??_C@_0BC@HCMIMIDN@StartVideoDisplay?$AA@ 10069c18     xpcruntime:xpcimports.obj
 0002:00004c30       ??_C@_0BN@EFIEBGOO@StartVideoDisplay?5not?5found?6?$AA@ 10069c30     xpcruntime:xpcimports.obj
 0002:00004c54       ??_C@_0BB@JBBLMILG@StopVideoDisplay?$AA@ 10069c54     xpcruntime:xpcimports.obj
 0002:00004c68       ??_C@_0BM@DBJBPLEL@StopVideoDisplay?5not?5found?6?$AA@ 10069c68     xpcruntime:xpcimports.obj
 0002:00004c8c       ??_C@_0M@MFJEGMHC@StreamVideo?$AA@ 10069c8c     xpcruntime:xpcimports.obj
 0002:00004c9c       ??_C@_0BH@OINCDMLA@StreamVideo?5not?5found?6?$AA@ 10069c9c     xpcruntime:xpcimports.obj
 0002:00004cb8       ??_C@_0N@IGGLCIGE@xpceaddEvent?$AA@ 10069cb8     xpcruntime:xpcimports.obj
 0002:00004cc8       ??_C@_0BI@NHJNFMKH@xpceaddEvent?5not?5found?6?$AA@ 10069cc8     xpcruntime:xpcimports.obj
 0002:00004ce4       ??_C@_0BB@HDPOIJAB@xpceDAQPostEvent?$AA@ 10069ce4     xpcruntime:xpcimports.obj
 0002:00004cf8       ??_C@_0BM@IHANBKGN@xpceDAQPostEvent?5not?5found?6?$AA@ 10069cf8     xpcruntime:xpcimports.obj
 0002:00004d1c       ??_C@_0BH@MBACMOD@xpceDAQUpdateTimeStamp?$AA@ 10069d1c     xpcruntime:xpcimports.obj
 0002:00004d38       ??_C@_0CC@DAKBBINL@xpceDAQUpdateTimeStamp?5not?5found@ 10069d38     xpcruntime:xpcimports.obj
 0002:00004d60       ??_C@_0BN@HJOHIFOM@xpceGetIntTimerGranularityNS?$AA@ 10069d60     xpcruntime:xpcimports.obj
 0002:00004d84       ??_C@_0CI@OADDPMKB@xpceGetIntTimerGranularityNS?5not@ 10069d84     xpcruntime:xpcimports.obj
 0002:00004db4       ??_C@_0BG@CCHICKPN@slrteSetStepSizeDelta?$AA@ 10069db4     xpcruntime:xpcimports.obj
 0002:00004dd0       ??_C@_0CB@MKHINEIJ@slrteSetStepSizeDelta?5not?5found?6@ 10069dd0     xpcruntime:xpcimports.obj
 0002:00004df8       ??_C@_0BI@CLNBLDKJ@slrteGetCurrentStepSize?$AA@ 10069df8     xpcruntime:xpcimports.obj
 0002:00004e14       ??_C@_0CD@GIOJPGJA@slrteGetCurrentStepSize?5not?5foun@ 10069e14     xpcruntime:xpcimports.obj
 0002:00004e40       ??_C@_0BE@FCLCBOC@registerPTPTimeRead?$AA@ 10069e40     xpcruntime:xpcimports.obj
 0002:00004e58       ??_C@_0BP@LHPKAJIP@registerPTPTimeRead?5not?5found?6?$AA@ 10069e58     xpcruntime:xpcimports.obj
 0002:00004e80       ??_C@_0BG@KIGCDDJI@unRegisterPTPTimeRead?$AA@ 10069e80     xpcruntime:xpcimports.obj
 0002:00004e9c       ??_C@_0CB@MLFFBFCM@unRegisterPTPTimeRead?5not?5found?6@ 10069e9c     xpcruntime:xpcimports.obj
 0002:00004ec4       ??_C@_0BB@IPMDDBHK@slTestInitialize?$AA@ 10069ec4     xpcruntime:xpcimports.obj
 0002:00004ed8       ??_C@_0BM@LAJFCCJH@slTestInitialize?5not?5found?6?$AA@ 10069ed8     xpcruntime:xpcimports.obj
 0002:00004efc       ??_C@_0BF@OOMPMEBC@slTestLogAssessments?$AA@ 10069efc     xpcruntime:xpcimports.obj
 0002:00004f18       ??_C@_0CA@FGJCEBAG@slTestLogAssessments?5not?5found?6?$AA@ 10069f18     xpcruntime:xpcimports.obj
 0002:00004f40       ??_C@_0BB@HJHKONHO@slTestEvalOnFail?$AA@ 10069f40     xpcruntime:xpcimports.obj
 0002:00004f54       ??_C@_0BM@JIKCFFNJ@slTestEvalOnFail?5not?5found?6?$AA@ 10069f54     xpcruntime:xpcimports.obj
 0002:00004f78       ??_C@_0BA@LBHLABFP@slTestTerminate?$AA@ 10069f78     xpcruntime:xpcimports.obj
 0002:00004f8c       ??_C@_0BL@EMFGKAPA@slTestTerminate?5not?5found?6?$AA@ 10069f8c     xpcruntime:xpcimports.obj
 0002:00004fac       ??_C@_0BE@JPNPBBEO@slTestRegAssessment?$AA@ 10069fac     xpcruntime:xpcimports.obj
 0002:00004fc4       ??_C@_0BP@FBDEJJJH@slTestRegAssessment?5not?5found?6?$AA@ 10069fc4     xpcruntime:xpcimports.obj
 0002:00004fec       ??_C@_0O@NCLGDNIB@slrteSetupMSI?$AA@ 10069fec     xpcruntime:xpcimports.obj
 0002:00004ffc       ??_C@_0BJ@HEFMECLM@slrteSetupMSI?5not?5found?6?$AA@ 10069ffc     xpcruntime:xpcimports.obj
 0002:0000501c       ??_C@_0BH@BPOLALHD@slrtGetCRBScratchSpace?$AA@ 1006a01c     xpcruntime:xpcimports.obj
 0002:00005038       ??_C@_0CC@KCKAJKKJ@slrtGetCRBScratchSpace?5not?5found@ 1006a038     xpcruntime:xpcimports.obj
 0002:00005060       ??_C@_0BC@MKFDAKOL@slrtGetSgCRBSpace?$AA@ 1006a060     xpcruntime:xpcimports.obj
 0002:00005078       ??_C@_0BN@JDPHPLHL@slrtGetSgCRBSpace?5not?5found?6?$AA@ 1006a078     xpcruntime:xpcimports.obj
 0002:0000509c       ??_C@_0P@EPAPKLIF@slrtfsOpenFile?$AA@ 1006a09c     xpcruntime:xpcimports.obj
 0002:000050b0       ??_C@_0BK@FIHCBOHG@slrtfsOpenFile?5not?5found?6?$AA@ 1006a0b0     xpcruntime:xpcimports.obj
 0002:000050d0       ??_C@_0BA@LILAFDDL@slrtfsCloseFile?$AA@ 1006a0d0     xpcruntime:xpcimports.obj
 0002:000050e4       ??_C@_0BL@DEGHJFIB@slrtfsCloseFile?5not?5found?6?$AA@ 1006a0e4     xpcruntime:xpcimports.obj
 0002:00005104       ??_C@_0BC@OKMJDIEH@slrtfsWriteToFile?$AA@ 1006a104     xpcruntime:xpcimports.obj
 0002:0000511c       ??_C@_0BN@KCFLCLAH@slrtfsWriteToFile?5not?5found?6?$AA@ 1006a11c     xpcruntime:xpcimports.obj
 0002:00005140       ??_C@_0BK@GIPNFFFF@slrtfsGetFileErrorMessage?$AA@ 1006a140     xpcruntime:xpcimports.obj
 0002:00005160       ??_C@_0CF@BCBLMKLE@slrtfsGetFileErrorMessage?5not?5fo@ 1006a160     xpcruntime:xpcimports.obj
 0002:0000518c       ??_C@_0BD@ICBOKMK@slrtfsGetFileError?$AA@ 1006a18c     xpcruntime:xpcimports.obj
 0002:000051a4       ??_C@_0BO@FNBANAE@slrtfsGetFileError?5not?5found?6?$AA@ 1006a1a4     xpcruntime:xpcimports.obj
 0002:000051c8       ??_C@_0BE@PPAJMHJP@slrtfsOpenFileAsync?$AA@ 1006a1c8     xpcruntime:xpcimports.obj
 0002:000051e0       ??_C@_0BP@HKBMMJOK@slrtfsOpenFileAsync?5not?5found?6?$AA@ 1006a1e0     xpcruntime:xpcimports.obj
 0002:00005208       ??_C@_0BF@IGNDIBPF@slrtfsCloseFileAsync?$AA@ 1006a208     xpcruntime:xpcimports.obj
 0002:00005224       ??_C@_0CA@GJPFDBKN@slrtfsCloseFileAsync?5not?5found?6?$AA@ 1006a224     xpcruntime:xpcimports.obj
 0002:0000524c       ??_C@_0BE@IOLEBNB@slrtfsGetFileStatus?$AA@ 1006a24c     xpcruntime:xpcimports.obj
 0002:00005264       ??_C@_0BP@PEFHDGHL@slrtfsGetFileStatus?5not?5found?6?$AA@ 1006a264     xpcruntime:xpcimports.obj
 0002:0000528c       ??_C@_0M@HKIJIMG@slrtfsFread?$AA@ 1006a28c     xpcruntime:xpcimports.obj
 0002:0000529c       ??_C@_0BH@OOKBGONO@slrtfsFread?5not?5found?6?$AA@ 1006a29c     xpcruntime:xpcimports.obj
 0002:000052b8       ??_C@_0BE@OGCMPLAP@slrtGetDefaultDrive?$AA@ 1006a2b8     xpcruntime:xpcimports.obj
 0002:000052d0       ??_C@_0BP@HKFGLHOE@slrtGetDefaultDrive?5not?5found?6?$AA@ 1006a2d0     xpcruntime:xpcimports.obj
 0002:000052f8       ??_C@_0N@NAJIKFFI@slrtLogEvent?$AA@ 1006a2f8     xpcruntime:xpcimports.obj
 0002:00005308       ??_C@_0BI@NKCEACND@slrtLogEvent?5not?5found?6?$AA@ 1006a308     xpcruntime:xpcimports.obj
 0002:00005324       ??_C@_0N@IDKFJOHI@getlasterror?$AA@ 1006a324     xpcruntime:xpcimports.obj
 0002:00005334       ??_C@_0BI@MIHMCHGL@getlasterror?5not?5found?6?$AA@ 1006a334     xpcruntime:xpcimports.obj
 0002:00005350       ??_C@_0P@OKHGKJKN@geterrorstring?$AA@ 1006a350     xpcruntime:xpcimports.obj
 0002:00005364       ??_C@_0BK@NOHFDMLP@geterrorstring?5not?5found?6?$AA@ 1006a364     xpcruntime:xpcimports.obj
 0002:00005384       ??_C@_0BD@HNFFKMGJ@slrtGetCPUTCelsius?$AA@ 1006a384     xpcruntime:xpcimports.obj
 0002:0000539c       ??_C@_0BO@LHBFKLIH@slrtGetCPUTCelsius?5not?5found?6?$AA@ 1006a39c     xpcruntime:xpcimports.obj
 0002:000053c0       ??_C@_0M@OONCNCLM@slrtWarning?$AA@ 1006a3c0     xpcruntime:xpcimports.obj
 0002:000053d0       ??_C@_0BH@ICKGIEMB@slrtWarning?5not?5found?6?$AA@ 1006a3d0     xpcruntime:xpcimports.obj
 0002:000053ec       ??_C@_0N@EAAOMIIE@isUsedByRTIP?$AA@ 1006a3ec     xpcruntime:xpcimports.obj
 0002:000053fc       ??_C@_0BI@GNHHHICK@isUsedByRTIP?5not?5found?6?$AA@ 1006a3fc     xpcruntime:xpcimports.obj
 0002:00005418       ??_C@_0BC@HLDKJAG@SetIPTASKPriority?$AA@ 1006a418     xpcruntime:xpcimports.obj
 0002:00005430       ??_C@_0BN@OGKMHHAE@SetIPTASKPriority?5not?5found?6?$AA@ 1006a430     xpcruntime:xpcimports.obj
 0002:00005454       ??_C@_0O@LHENMBDD@OpenInterface?$AA@ 1006a454     xpcruntime:xpcimports.obj
 0002:00005464       ??_C@_0BJ@PFGDBKHB@OpenInterface?5not?5found?6?$AA@ 1006a464     xpcruntime:xpcimports.obj
 0002:00005484       ??_C@_0P@IINFELKD@CloseInterface?$AA@ 1006a484     xpcruntime:xpcimports.obj
 0002:00005498       ??_C@_0BK@PAPDNDBK@CloseInterface?5not?5found?6?$AA@ 1006a498     xpcruntime:xpcimports.obj
 0002:000054b8       ??_C@_05LEFIAAOI@SetIP?$AA@ 1006a4b8     xpcruntime:xpcimports.obj
 0002:000054c0       ??_C@_0BB@CGLIBAMM@SetIP?5not?5found?6?$AA@ 1006a4c0     xpcruntime:xpcimports.obj
 0002:000054d4       ??_C@_0BA@HIJJHHMD@AddGatewayRoute?$AA@ 1006a4d4     xpcruntime:xpcimports.obj
 0002:000054e8       ??_C@_0BL@BFCFMDMN@AddGatewayRoute?5not?5found?6?$AA@ 1006a4e8     xpcruntime:xpcimports.obj
 0002:00005508       ??_C@_0M@PHMABFPI@DeleteRoute?$AA@ 1006a508     xpcruntime:xpcimports.obj
 0002:00005518       ??_C@_0BH@JPJGLLID@DeleteRoute?5not?5found?6?$AA@ 1006a518     xpcruntime:xpcimports.obj
 0002:00005534       ??_C@_0BA@FCDIMKIJ@GetHostTarIPAdd?$AA@ 1006a534     xpcruntime:xpcimports.obj
 0002:00005548       ??_C@_0BL@MBKDGKBO@GetHostTarIPAdd?5not?5found?6?$AA@ 1006a548     xpcruntime:xpcimports.obj
 0002:00005568       ??_C@_0M@HPMIPIBI@GetDCUUsage?$AA@ 1006a568     xpcruntime:xpcimports.obj
 0002:00005578       ??_C@_0BH@EBLJKCJC@GetDCUUsage?5not?5found?6?$AA@ 1006a578     xpcruntime:xpcimports.obj
 0002:00005594       ??_C@_06MPKMECK@accept?$AA@ 1006a594     xpcruntime:xpcimports.obj
 0002:0000559c       ??_C@_0BC@GBGIEMNO@accept?5not?5found?6?$AA@ 1006a59c     xpcruntime:xpcimports.obj
 0002:000055b4       ??_C@_04NPNJNMMP@bind?$AA@ 1006a5b4     xpcruntime:xpcimports.obj
 0002:000055bc       ??_C@_0BA@DAJNENLO@bind?5not?5found?6?$AA@ 1006a5bc     xpcruntime:xpcimports.obj
 0002:000055d0       ??_C@_0L@CKHNIFCM@setsockopt?$AA@ 1006a5d0     xpcruntime:xpcimports.obj
 0002:000055e0       ??_C@_0BG@MFIIOMFE@setsockopt?5not?5found?6?$AA@ 1006a5e0     xpcruntime:xpcimports.obj
 0002:000055fc       ??_C@_0M@ODDJDCDK@closesocket?$AA@ 1006a5fc     xpcruntime:xpcimports.obj
 0002:0000560c       ??_C@_0BH@JHGHMIL@closesocket?5not?5found?6?$AA@ 1006a60c     xpcruntime:xpcimports.obj
 0002:00005628       ??_C@_07KAIBNCHO@connect?$AA@ 1006a628     xpcruntime:xpcimports.obj
 0002:00005634       ??_C@_0BD@MKLLMBM@connect?5not?5found?6?$AA@ 1006a634     xpcruntime:xpcimports.obj
 0002:0000564c       ??_C@_0M@PBPOCKDG@ioctlsocket?$AA@ 1006a64c     xpcruntime:xpcimports.obj
 0002:0000565c       ??_C@_0BH@NFCNHHIH@ioctlsocket?5not?5found?6?$AA@ 1006a65c     xpcruntime:xpcimports.obj
 0002:00005678       ??_C@_06OODDLKLE@listen?$AA@ 1006a678     xpcruntime:xpcimports.obj
 0002:00005680       ??_C@_0BC@NHBILEKI@listen?5not?5found?6?$AA@ 1006a680     xpcruntime:xpcimports.obj
 0002:00005698       ??_C@_08HMBBGFHE@recvfrom?$AA@ 1006a698     xpcruntime:xpcimports.obj
 0002:000056a4       ??_C@_0BE@BJAJFFLF@recvfrom?5not?5found?6?$AA@ 1006a6a4     xpcruntime:xpcimports.obj
 0002:000056bc       ??_C@_06MEPBGKEC@sendto?$AA@ 1006a6bc     xpcruntime:xpcimports.obj
 0002:000056c4       ??_C@_0BC@BHPIMDJO@sendto?5not?5found?6?$AA@ 1006a6c4     xpcruntime:xpcimports.obj
 0002:000056dc       ??_C@_09JKBDEEOB@inet_addr?$AA@ 1006a6dc     xpcruntime:xpcimports.obj
 0002:000056e8       ??_C@_0BF@HKJPGECN@inet_addr?5not?5found?6?$AA@ 1006a6e8     xpcruntime:xpcimports.obj
 0002:00005704       ??_C@_06HBELJPBO@socket?$AA@ 1006a704     xpcruntime:xpcimports.obj
 0002:0000570c       ??_C@_0BC@NAGFFJGA@socket?5not?5found?6?$AA@ 1006a70c     xpcruntime:xpcimports.obj
 0002:00005724       ??_C@_09ICJIFGNC@GetSocket?$AA@ 1006a724     xpcruntime:xpcimports.obj
 0002:00005730       ??_C@_0BF@KDBCKMOJ@GetSocket?5not?5found?6?$AA@ 1006a730     xpcruntime:xpcimports.obj
 0002:0000574c       ??_C@_0P@KJEGJMJI@GetSocketState?$AA@ 1006a74c     xpcruntime:xpcimports.obj
 0002:00005760       ??_C@_0BK@IALBJHEB@GetSocketState?5not?5found?6?$AA@ 1006a760     xpcruntime:xpcimports.obj
 0002:00005780       ??_C@_0L@MEAJHNHB@SocketSend?$AA@ 1006a780     xpcruntime:xpcimports.obj
 0002:00005790       ??_C@_0BG@EOCMBFJA@SocketSend?5not?5found?6?$AA@ 1006a790     xpcruntime:xpcimports.obj
 0002:000057ac       ??_C@_0O@PFPCLEMF@SocketReceive?$AA@ 1006a7ac     xpcruntime:xpcimports.obj
 0002:000057bc       ??_C@_0BJ@HIBADDFO@SocketReceive?5not?5found?6?$AA@ 1006a7bc     xpcruntime:xpcimports.obj
 0002:000057dc       ??_C@_0BD@OOGFNAIK@CreateServerSocket?$AA@ 1006a7dc     xpcruntime:xpcimports.obj
 0002:000057f4       ??_C@_0BO@GKIJHIPH@CreateServerSocket?5not?5found?6?$AA@ 1006a7f4     xpcruntime:xpcimports.obj
 0002:00005818       ??_C@_0BB@KGHJGFFO@OpenServerListen?$AA@ 1006a818     xpcruntime:xpcimports.obj
 0002:0000582c       ??_C@_0BM@NFMMLIO@OpenServerListen?5not?5found?6?$AA@ 1006a82c     xpcruntime:xpcimports.obj
 0002:00005850       ??_C@_0BE@BAJLDJAH@ConnectServerSocket?$AA@ 1006a850     xpcruntime:xpcimports.obj
 0002:00005868       ??_C@_0BP@KJNODIKE@ConnectServerSocket?5not?5found?6?$AA@ 1006a868     xpcruntime:xpcimports.obj
 0002:00005890       ??_C@_0BC@PLKKJDIM@CloseServerSocket?$AA@ 1006a890     xpcruntime:xpcimports.obj
 0002:000058a8       ??_C@_0BN@KEJEPNMB@CloseServerSocket?5not?5found?6?$AA@ 1006a8a8     xpcruntime:xpcimports.obj
 0002:000058cc       ??_C@_0BD@MCLPKCPP@CreateClientSocket?$AA@ 1006a8cc     xpcruntime:xpcimports.obj
 0002:000058e4       ??_C@_0BO@DILAGPFN@CreateClientSocket?5not?5found?6?$AA@ 1006a8e4     xpcruntime:xpcimports.obj
 0002:00005908       ??_C@_0BB@DAPKNNLG@BindClientSocket?$AA@ 1006a908     xpcruntime:xpcimports.obj
 0002:0000591c       ??_C@_0BM@LLLMMDFN@BindClientSocket?5not?5found?6?$AA@ 1006a91c     xpcruntime:xpcimports.obj
 0002:00005940       ??_C@_0BE@DMEBELHC@ConnectClientSocket?$AA@ 1006a940     xpcruntime:xpcimports.obj
 0002:00005958       ??_C@_0BP@PLOHCPAO@ConnectClientSocket?5not?5found?6?$AA@ 1006a958     xpcruntime:xpcimports.obj
 0002:00005980       ??_C@_0BC@NHHAOBPJ@CloseClientSocket?$AA@ 1006a980     xpcruntime:xpcimports.obj
 0002:00005998       ??_C@_0BN@PGKNOKGL@CloseClientSocket?5not?5found?6?$AA@ 1006a998     xpcruntime:xpcimports.obj
 0002:00005a68       __pRawDllMain              1006aa68     LIBCMT:dll_dllmain.obj
 0002:00005a68       __pDefaultRawDllMain       1006aa68     LIBCMT:dll_dllmain.obj
 0002:00005a80       ??_C@_1BC@DNHGCMLG@?$AAa?$AAd?$AAv?$AAa?$AAp?$AAi?$AA3?$AA2?$AA?$AA@ 1006aa80     libvcruntime:winapi_downlevel.obj
 0002:00005a98       ??_C@_1DM@KHCHBNEB@?$AAa?$AAp?$AAi?$AA?9?$AAm?$AAs?$AA?9?$AAw?$AAi?$AAn?$AA?9?$AAc?$AAo?$AAr?$AAe?$AA?9?$AAf?$AAi?$AAb?$AAe?$AAr?$AAs?$AA?9?$AAl?$AA1?$AA?9?$AA1?$AA?9?$AA1?$AA?$AA@ 1006aa98     libvcruntime:winapi_downlevel.obj
 0002:00005ae0       ??_C@_1DK@LPPGFMPP@?$AAa?$AAp?$AAi?$AA?9?$AAm?$AAs?$AA?9?$AAw?$AAi?$AAn?$AA?9?$AAc?$AAo?$AAr?$AAe?$AA?9?$AAs?$AAy?$AAn?$AAc?$AAh?$AA?9?$AAl?$AA1?$AA?9?$AA2?$AA?9?$AA0?$AA?$AA@ 1006aae0     libvcruntime:winapi_downlevel.obj
 0002:00005b28       ??_C@_1BC@GDMECMAK@?$AAk?$AAe?$AAr?$AAn?$AAe?$AAl?$AA3?$AA2?$AA?$AA@ 1006ab28     libvcruntime:winapi_downlevel.obj
 0002:00005b44       ??_C@_0O@BAMBGLIE@EventRegister?$AA@ 1006ab44     libvcruntime:winapi_downlevel.obj
 0002:00005b58       ??_C@_0BE@BJEEGHGK@EventSetInformation?$AA@ 1006ab58     libvcruntime:winapi_downlevel.obj
 0002:00005b74       ??_C@_0BA@FAKLIPIC@EventUnregister?$AA@ 1006ab74     libvcruntime:winapi_downlevel.obj
 0002:00005b8c       ??_C@_0BD@PKLHJPHD@EventWriteTransfer?$AA@ 1006ab8c     libvcruntime:winapi_downlevel.obj
 0002:00005bb0       ??_C@_08KNHFBNJ@FlsAlloc?$AA@ 1006abb0     libvcruntime:winapi_downlevel.obj
 0002:00005bc8       ??_C@_07PEJMOBNF@FlsFree?$AA@ 1006abc8     libvcruntime:winapi_downlevel.obj
 0002:00005be0       ??_C@_0M@GDNOONDI@FlsGetValue?$AA@ 1006abe0     libvcruntime:winapi_downlevel.obj
 0002:00005bfc       ??_C@_0M@JCPCPOEF@FlsSetValue?$AA@ 1006abfc     libvcruntime:winapi_downlevel.obj
 0002:00005c18       ??_C@_0BM@HCFOFFN@InitializeCriticalSectionEx?$AA@ 1006ac18     libvcruntime:winapi_downlevel.obj
 0002:00005e20       ??_C@_08EHJDFFNH@__based?$CI?$AA@ 1006ae20     libvcruntime:undname.obj
 0002:00005e2c       ??_C@_07KOLFKCDI@__cdecl?$AA@ 1006ae2c     libvcruntime:undname.obj
 0002:00005e38       ??_C@_08GHMPAG@__pascal?$AA@ 1006ae38     libvcruntime:undname.obj
 0002:00005e44       ??_C@_09IFJBGAPI@__stdcall?$AA@ 1006ae44     libvcruntime:undname.obj
 0002:00005e50       ??_C@_0L@NPHFGOKO@__thiscall?$AA@ 1006ae50     libvcruntime:undname.obj
 0002:00005e60       ??_C@_0L@JMKHOMEK@__fastcall?$AA@ 1006ae60     libvcruntime:undname.obj
 0002:00005e70       ??_C@_0N@BCKKPABJ@__vectorcall?$AA@ 1006ae70     libvcruntime:undname.obj
 0002:00005e80       ??_C@_09HIJEGCPM@__clrcall?$AA@ 1006ae80     libvcruntime:undname.obj
 0002:00005e8c       ??_C@_06GHPCKEAG@__eabi?$AA@ 1006ae8c     libvcruntime:undname.obj
 0002:00005e94       ??_C@_07JOMMBBKO@__ptr64?$AA@ 1006ae94     libvcruntime:undname.obj
 0002:00005ea0       ??_C@_0L@PILCLIHE@__restrict?$AA@ 1006aea0     libvcruntime:undname.obj
 0002:00005eb0       ??_C@_0M@GFIIJFMG@__unaligned?$AA@ 1006aeb0     libvcruntime:undname.obj
 0002:00005ec0       ??_C@_09DHDLOLLB@restrict?$CI?$AA@ 1006aec0     libvcruntime:undname.obj
 0002:00005ecc       ??_C@_04NIHEBCM@?5new?$AA@ 1006aecc     libvcruntime:undname.obj
 0002:00005ed4       ??_C@_07FPCDHGMM@?5delete?$AA@ 1006aed4     libvcruntime:undname.obj
 0002:00005ee0       ??_C@_01NEMOKFLO@?$DN?$AA@ 1006aee0     libvcruntime:undname.obj
 0002:00005ee4       ??_C@_02GPIOPFAK@?$DO?$DO?$AA@ 1006aee4     libvcruntime:undname.obj
 0002:00005ee8       ??_C@_02FODMEDOG@?$DM?$DM?$AA@ 1006aee8     libvcruntime:undname.obj
 0002:00005eec       ??_C@_01DCLJPIOD@?$CB?$AA@ 1006aeec     libvcruntime:undname.obj
 0002:00005ef0       ??_C@_02EGOFBIJA@?$DN?$DN?$AA@ 1006aef0     libvcruntime:undname.obj
 0002:00005ef4       ??_C@_02FDNJECIE@?$CB?$DN?$AA@ 1006aef4     libvcruntime:undname.obj
 0002:00005ef8       ??_C@_02GPECMEKF@?$FL?$FN?$AA@ 1006aef8     libvcruntime:undname.obj
 0002:00005efc       ??_C@_08LHJFAFGD@operator?$AA@ 1006aefc     libvcruntime:undname.obj
 0002:00005f08       ??_C@_02HBOOOICD@?9?$DO?$AA@ 1006af08     libvcruntime:undname.obj
 0002:00005f0c       ??_C@_01NBENCBCI@?$CK?$AA@ 1006af0c     libvcruntime:undname.obj
 0002:00005f10       ??_C@_02ECNGHCIF@?$CL?$CL?$AA@ 1006af10     libvcruntime:undname.obj
 0002:00005f14       ??_C@_02BAABKJLB@?9?9?$AA@ 1006af14     libvcruntime:undname.obj
 0002:00005f18       ??_C@_01JOAMLHOP@?9?$AA@   1006af18     libvcruntime:undname.obj
 0002:00005f1c       ??_C@_01MIFGBAGJ@?$CL?$AA@ 1006af1c     libvcruntime:undname.obj
 0002:00005f20       ??_C@_01HNPIGOCE@?$CG?$AA@ 1006af20     libvcruntime:undname.obj
 0002:00005f24       ??_C@_03MNHNFDLC@?9?$DO?$CK?$AA@ 1006af24     libvcruntime:undname.obj
 0002:00005f28       ??_C@_01KMDKNFGN@?1?$AA@   1006af28     libvcruntime:undname.obj
 0002:00005f2c       ??_C@_01FGNFDNOH@?$CF?$AA@ 1006af2c     libvcruntime:undname.obj
 0002:00005f30       ??_C@_01MNNFJEPP@?$DM?$AA@ 1006af30     libvcruntime:undname.obj
 0002:00005f34       ??_C@_02EHCHHCKH@?$DM?$DN?$AA@ 1006af34     libvcruntime:undname.obj
 0002:00005f38       ??_C@_01PPODPGHN@?$DO?$AA@ 1006af38     libvcruntime:undname.obj
 0002:00005f3c       ??_C@_02EEKDKGMJ@?$DO?$DN?$AA@ 1006af3c     libvcruntime:undname.obj
 0002:00005f40       ??_C@_01IHBHIGKO@?0?$AA@   1006af40     libvcruntime:undname.obj
 0002:00005f44       ??_C@_02HCKGKOFO@?$CI?$CJ?$AA@ 1006af44     libvcruntime:undname.obj
 0002:00005f48       ??_C@_01PJKLJHI@?$HO?$AA@  1006af48     libvcruntime:undname.obj
 0002:00005f4c       ??_C@_01JKBOJNNK@?$FO?$AA@ 1006af4c     libvcruntime:undname.obj
 0002:00005f50       ??_C@_01DNKMNLPK@?$HM?$AA@ 1006af50     libvcruntime:undname.obj
 0002:00005f54       ??_C@_02PPKAJPJL@?$CG?$CG?$AA@ 1006af54     libvcruntime:undname.obj
 0002:00005f58       ??_C@_02NONPIBCD@?$HM?$HM?$AA@ 1006af58     libvcruntime:undname.obj
 0002:00005f5c       ??_C@_02FPIMKNGF@?$CK?$DN?$AA@ 1006af5c     libvcruntime:undname.obj
 0002:00005f60       ??_C@_02FOEOMHFC@?$CL?$DN?$AA@ 1006af60     libvcruntime:undname.obj
 0002:00005f64       ??_C@_02FKMDLLOA@?9?$DN?$AA@ 1006af64     libvcruntime:undname.obj
 0002:00005f68       ??_C@_02FJEHGPIO@?1?$DN?$AA@ 1006af68     libvcruntime:undname.obj
 0002:00005f6c       ??_C@_02FENAOKFI@?$CF?$DN?$AA@ 1006af6c     libvcruntime:undname.obj
 0002:00005f70       ??_C@_03IKFCCPFF@?$DO?$DO?$DN?$AA@ 1006af70     libvcruntime:undname.obj
 0002:00005f74       ??_C@_03CDNPDDLA@?$DM?$DM?$DN?$AA@ 1006af74     libvcruntime:undname.obj
 0002:00005f78       ??_C@_02FGJGFEAB@?$CG?$DN?$AA@ 1006af78     libvcruntime:undname.obj
 0002:00005f7c       ??_C@_02DHLNPPGH@?$HM?$DN?$AA@ 1006af7c     libvcruntime:undname.obj
 0002:00005f80       ??_C@_02MHEGNOJ@?$FO?$DN?$AA@ 1006af80     libvcruntime:undname.obj
 0002:00005f84       ??_C@_09IFPLHPGF@?$GAvftable?8?$AA@ 1006af84     libvcruntime:undname.obj
 0002:00005f90       ??_C@_09BLBHBJP@?$GAvbtable?8?$AA@ 1006af90     libvcruntime:undname.obj
 0002:00005f9c       ??_C@_07FEEIOKP@?$GAvcall?8?$AA@ 1006af9c     libvcruntime:undname.obj
 0002:00005fa8       ??_C@_08LLFFHHDJ@?$GAtypeof?8?$AA@ 1006afa8     libvcruntime:undname.obj
 0002:00005fb4       ??_C@_0BF@KDPPACIK@?$GAlocal?5static?5guard?8?$AA@ 1006afb4     libvcruntime:undname.obj
 0002:00005fd0       ??_C@_08OBABFOLI@?$GAstring?8?$AA@ 1006afd0     libvcruntime:undname.obj
 0002:00005fdc       ??_C@_0BD@JDLKDPAB@?$GAvbase?5destructor?8?$AA@ 1006afdc     libvcruntime:undname.obj
 0002:00005ff4       ??_C@_0BN@DEGPLNFK@?$GAvector?5deleting?5destructor?8?$AA@ 1006aff4     libvcruntime:undname.obj
 0002:00006018       ??_C@_0BO@OBMKPJIG@?$GAdefault?5constructor?5closure?8?$AA@ 1006b018     libvcruntime:undname.obj
 0002:0000603c       ??_C@_0BN@IMDCHIKM@?$GAscalar?5deleting?5destructor?8?$AA@ 1006b03c     libvcruntime:undname.obj
 0002:00006060       ??_C@_0BO@PFGOCPJJ@?$GAvector?5constructor?5iterator?8?$AA@ 1006b060     libvcruntime:undname.obj
 0002:00006084       ??_C@_0BN@LFPFMEDL@?$GAvector?5destructor?5iterator?8?$AA@ 1006b084     libvcruntime:undname.obj
 0002:000060a8       ??_C@_0CE@IKBNEHA@?$GAvector?5vbase?5constructor?5iterat@ 1006b0a8     libvcruntime:undname.obj
 0002:000060d4       ??_C@_0BL@NILFHHPC@?$GAvirtual?5displacement?5map?8?$AA@ 1006b0d4     libvcruntime:undname.obj
 0002:000060f4       ??_C@_0CB@JONCMFFK@?$GAeh?5vector?5constructor?5iterator?8@ 1006b0f4     libvcruntime:undname.obj
 0002:0000611c       ??_C@_0CA@GCEOPDGL@?$GAeh?5vector?5destructor?5iterator?8?$AA@ 1006b11c     libvcruntime:undname.obj
 0002:00006144       ??_C@_0CH@OOJPLCPH@?$GAeh?5vector?5vbase?5constructor?5ite@ 1006b144     libvcruntime:undname.obj
 0002:00006174       ??_C@_0BL@LLKPOHJI@?$GAcopy?5constructor?5closure?8?$AA@ 1006b174     libvcruntime:undname.obj
 0002:00006194       ??_C@_0BA@KBCDOMBN@?$GAudt?5returning?8?$AA@ 1006b194     libvcruntime:undname.obj
 0002:000061a8       ??_C@_03KLGMFNMG@?$GAEH?$AA@ 1006b1a8     libvcruntime:undname.obj
 0002:000061ac       ??_C@_05KHLCHHI@?$GARTTI?$AA@ 1006b1ac     libvcruntime:undname.obj
 0002:000061b4       ??_C@_0BA@KKLDJDLB@?$GAlocal?5vftable?8?$AA@ 1006b1b4     libvcruntime:undname.obj
 0002:000061c8       ??_C@_0CE@IIHCMGGL@?$GAlocal?5vftable?5constructor?5closu@ 1006b1c8     libvcruntime:undname.obj
 0002:000061f4       ??_C@_06FHBGPFGH@?5new?$FL?$FN?$AA@ 1006b1f4     libvcruntime:undname.obj
 0002:000061fc       ??_C@_09LBNFPBCA@?5delete?$FL?$FN?$AA@ 1006b1fc     libvcruntime:undname.obj
 0002:00006208       ??_C@_0P@HJKNJFNN@?$GAomni?5callsig?8?$AA@ 1006b208     libvcruntime:undname.obj
 0002:0000621c       ??_C@_0BL@CNOONJFP@?$GAplacement?5delete?5closure?8?$AA@ 1006b21c     libvcruntime:undname.obj
 0002:0000623c       ??_C@_0BN@CKNJLHMB@?$GAplacement?5delete?$FL?$FN?5closure?8?$AA@ 1006b23c     libvcruntime:undname.obj
 0002:00006260       ??_C@_0CG@CFDHKGGD@?$GAmanaged?5vector?5constructor?5iter@ 1006b260     libvcruntime:undname.obj
 0002:00006290       ??_C@_0CF@IMGKMJNO@?$GAmanaged?5vector?5destructor?5itera@ 1006b290     libvcruntime:undname.obj
 0002:000062bc       ??_C@_0CG@HLDDJMAG@?$GAeh?5vector?5copy?5constructor?5iter@ 1006b2bc     libvcruntime:undname.obj
 0002:000062ec       ??_C@_0CM@FCBBDIGB@?$GAeh?5vector?5vbase?5copy?5constructo@ 1006b2ec     libvcruntime:undname.obj
 0002:00006320       ??_C@_0BL@CLIPGLGB@?$GAdynamic?5initializer?5for?5?8?$AA@ 1006b320     libvcruntime:undname.obj
 0002:00006340       ??_C@_0CB@PDBIFEP@?$GAdynamic?5atexit?5destructor?5for?5?8@ 1006b340     libvcruntime:undname.obj
 0002:00006368       ??_C@_0CD@CGAJBKEJ@?$GAvector?5copy?5constructor?5iterato@ 1006b368     libvcruntime:undname.obj
 0002:00006394       ??_C@_0CJ@GJELGAMM@?$GAvector?5vbase?5copy?5constructor?5i@ 1006b394     libvcruntime:undname.obj
 0002:000063c8       ??_C@_0CL@FGIJHLCE@?$GAmanaged?5vector?5copy?5constructor@ 1006b3c8     libvcruntime:undname.obj
 0002:000063fc       ??_C@_0BM@PMGGMLDN@?$GAlocal?5static?5thread?5guard?8?$AA@ 1006b3fc     libvcruntime:undname.obj
 0002:00006420       ??_C@_0N@BDNMDMOL@operator?5?$CC?$CC?5?$AA@ 1006b420     libvcruntime:undname.obj
 0002:00006430       ??_C@_0BC@DAFEJGAK@?5Type?5Descriptor?8?$AA@ 1006b430     libvcruntime:undname.obj
 0002:00006448       ??_C@_0BM@LDKODKLH@?5Base?5Class?5Descriptor?5at?5?$CI?$AA@ 1006b448     libvcruntime:undname.obj
 0002:0000646c       ??_C@_0BD@LGICGFMM@?5Base?5Class?5Array?8?$AA@ 1006b46c     libvcruntime:undname.obj
 0002:00006484       ??_C@_0BN@MECKDCOJ@?5Class?5Hierarchy?5Descriptor?8?$AA@ 1006b484     libvcruntime:undname.obj
 0002:000064a8       ??_C@_0BK@CFCOFLF@?5Complete?5Object?5Locator?8?$AA@ 1006b4a8     libvcruntime:undname.obj
 0002:000064c8       ??_C@_04HEJADOOB@CV?3?5?$AA@ 1006b4c8     libvcruntime:undname.obj
 0002:000064d0       ??_C@_02MOLJINC@?3?3?$AA@  1006b4d0     libvcruntime:undname.obj
 0002:000064d4       ??_C@_0BE@JAEOCHPE@template?9parameter?9?$AA@ 1006b4d4     libvcruntime:undname.obj
 0002:000064ec       ??_C@_0O@KHGCOMHP@generic?9type?9?$AA@ 1006b4ec     libvcruntime:undname.obj
 0002:000064fc       ??_C@_01NLNLIGKH@?$GA?$AA@ 1006b4fc     libvcruntime:undname.obj
 0002:00006500       ??_C@_01GEODFPGF@?8?$AA@   1006b500     libvcruntime:undname.obj
 0002:00006504       ??_C@_0BG@JNJLAMPM@?$GAanonymous?5namespace?8?$AA@ 1006b504     libvcruntime:undname.obj
 0002:00006520       ??_C@_02OHHJMEON@?8?8?$AA@ 1006b520     libvcruntime:undname.obj
 0002:00006524       ??_C@_0BN@IBLMMFAP@?$GAnon?9type?9template?9parameter?$AA@ 1006b524     libvcruntime:undname.obj
 0002:00006548       ??_C@_04GKJNKENE@void?$AA@ 1006b548     libvcruntime:undname.obj
 0002:00006550       ??_C@_0BE@EODMJLIF@?$GAtemplate?9parameter?$AA@ 1006b550     libvcruntime:undname.obj
 0002:00006568       ??_C@_03KHICJKCI@?4?4?4?$AA@ 1006b568     libvcruntime:undname.obj
 0002:0000656c       ??_C@_04HIBGFPH@NULL?$AA@  1006b56c     libvcruntime:undname.obj
 0002:00006574       ??_C@_02DPKJAMEF@?$CFd?$AA@ 1006b574     libvcruntime:undname.obj
 0002:00006578       ??_C@_0BK@IHCCFNEL@?$GAtemplate?9type?9parameter?9?$AA@ 1006b578     libvcruntime:undname.obj
 0002:00006598       ??_C@_0BK@OFCNNNKO@?$GAgeneric?9class?9parameter?9?$AA@ 1006b598     libvcruntime:undname.obj
 0002:000065b8       ??_C@_0BL@NGJBLFIL@?$GAgeneric?9method?9parameter?9?$AA@ 1006b5b8     libvcruntime:undname.obj
 0002:000065d8       ??_C@_03OPGICMGF@?$HN?8?5?$AA@ 1006b5d8     libvcruntime:undname.obj
 0002:000065dc       ??_C@_02IGFCGPIL@?$HN?8?$AA@ 1006b5dc     libvcruntime:undname.obj
 0002:000065e0       ??_C@_01CLKCMJKC@?5?$AA@   1006b5e0     libvcruntime:undname.obj
 0002:000065e4       ??_C@_0N@CBHHHENL@?$GAvtordispex?$HL?$AA@ 1006b5e4     libvcruntime:undname.obj
 0002:000065f4       ??_C@_0L@GHPFDFH@?$GAvtordisp?$HL?$AA@ 1006b5f4     libvcruntime:undname.obj
 0002:00006604       ??_C@_0L@HNGCOGAE@?$GAadjustor?$HL?$AA@ 1006b604     libvcruntime:undname.obj
 0002:00006614       ??_C@_0CB@KJDOOODE@?$GAlocal?5static?5destructor?5helper?8@ 1006b614     libvcruntime:undname.obj
 0002:0000663c       ??_C@_0DB@ILEFOCIJ@?$GAtemplate?5static?5data?5member?5con@ 1006b63c     libvcruntime:undname.obj
 0002:00006678       ??_C@_0DA@HGFJFBBE@?$GAtemplate?5static?5data?5member?5des@ 1006b678     libvcruntime:undname.obj
 0002:000066b4       ??_C@_07PGOEDBHP@static?5?$AA@ 1006b6b4     libvcruntime:undname.obj
 0002:000066c0       ??_C@_08NIEOINHE@virtual?5?$AA@ 1006b6c0     libvcruntime:undname.obj
 0002:000066cc       ??_C@_09LAPHOOG@private?3?5?$AA@ 1006b6cc     libvcruntime:undname.obj
 0002:000066d8       ??_C@_0M@GAIFPFIP@protected?3?5?$AA@ 1006b6d8     libvcruntime:undname.obj
 0002:000066e8       ??_C@_08GPDDCMKI@public?3?5?$AA@ 1006b6e8     libvcruntime:undname.obj
 0002:000066f4       ??_C@_08KJLFOPNE@?$FLthunk?$FN?3?$AA@ 1006b6f4     libvcruntime:undname.obj
 0002:00006700       ??_C@_0M@DHNBOJMP@extern?5?$CCC?$CC?5?$AA@ 1006b700     libvcruntime:undname.obj
 0002:00006710       ??_C@_02KCKGHPCA@?$CJ?5?$AA@ 1006b710     libvcruntime:undname.obj
 0002:00006714       ??_C@_05CIHEBHNO@char?5?$AA@ 1006b714     libvcruntime:undname.obj
 0002:0000671c       ??_C@_06EHJMALKF@short?5?$AA@ 1006b71c     libvcruntime:undname.obj
 0002:00006724       ??_C@_04LAHKHJMA@int?5?$AA@ 1006b724     libvcruntime:undname.obj
 0002:0000672c       ??_C@_05CJIMAING@long?5?$AA@ 1006b72c     libvcruntime:undname.obj
 0002:00006734       ??_C@_09EBBEKKIH@unsigned?5?$AA@ 1006b734     libvcruntime:undname.obj
 0002:00006740       ??_C@_05BEFAKPML@void?5?$AA@ 1006b740     libvcruntime:undname.obj
 0002:00006748       ??_C@_08PABEKFH@volatile?$AA@ 1006b748     libvcruntime:undname.obj
 0002:00006754       ??_C@_0BA@LKIJLKPP@std?3?3nullptr_t?5?$AA@ 1006b754     libvcruntime:undname.obj
 0002:00006768       ??_C@_0P@GCOCNKDM@std?3?3nullptr_t?$AA@ 1006b768     libvcruntime:undname.obj
 0002:0000677c       ??_C@_0L@EGPHHEKN@?$DMellipsis?$DO?$AA@ 1006b77c     libvcruntime:undname.obj
 0002:0000678c       ??_C@_04EENFHACM@?0?4?4?4?$AA@ 1006b78c     libvcruntime:undname.obj
 0002:00006794       ??_C@_0M@ELJOJFFH@?0?$DMellipsis?$DO?$AA@ 1006b794     libvcruntime:undname.obj
 0002:000067a4       ??_C@_07HDJPLPEK@?5throw?$CI?$AA@ 1006b7a4     libvcruntime:undname.obj
 0002:000067b0       ??_C@_03PBJBJNON@cpu?$AA@  1006b7b0     libvcruntime:undname.obj
 0002:000067b4       ??_C@_03DCBBJBAA@amp?$AA@  1006b7b4     libvcruntime:undname.obj
 0002:000067b8       ??_C@_02KEGNLNML@?0?5?$AA@ 1006b7b8     libvcruntime:undname.obj
 0002:000067bc       ??_C@_04ENMBGAPA@char?$AA@ 1006b7bc     libvcruntime:undname.obj
 0002:000067c4       ??_C@_05BFKKPKCG@short?$AA@ 1006b7c4     libvcruntime:undname.obj
 0002:000067cc       ??_C@_03JBIPMCLC@int?$AA@  1006b7cc     libvcruntime:undname.obj
 0002:000067d0       ??_C@_04GOKPGOLB@long?$AA@ 1006b7d0     libvcruntime:undname.obj
 0002:000067d8       ??_C@_04DDKJGDCM@bool?$AA@ 1006b7d8     libvcruntime:undname.obj
 0002:000067e0       ??_C@_06EBGKOKIG@__int8?$AA@ 1006b7e0     libvcruntime:undname.obj
 0002:000067e8       ??_C@_07ICFHOGAF@__int16?$AA@ 1006b7e8     libvcruntime:undname.obj
 0002:000067f4       ??_C@_07OFLPPHGP@__int32?$AA@ 1006b7f4     libvcruntime:undname.obj
 0002:00006800       ??_C@_07LFCOJCAC@__int64?$AA@ 1006b800     libvcruntime:undname.obj
 0002:0000680c       ??_C@_08GAHOLHEO@__int128?$AA@ 1006b80c     libvcruntime:undname.obj
 0002:00006818       ??_C@_09EEKGDCPH@?$DMunknown?$DO?$AA@ 1006b818     libvcruntime:undname.obj
 0002:00006824       ??_C@_08HBIPOFJB@char16_t?$AA@ 1006b824     libvcruntime:undname.obj
 0002:00006830       ??_C@_08IECNCBKG@char32_t?$AA@ 1006b830     libvcruntime:undname.obj
 0002:0000683c       ??_C@_07CLGGIAMF@wchar_t?$AA@ 1006b83c     libvcruntime:undname.obj
 0002:00006848       ??_C@_06GCICPBLB@__w64?5?$AA@ 1006b848     libvcruntime:undname.obj
 0002:00006850       ??_C@_07NFANNNEC@UNKNOWN?$AA@ 1006b850     libvcruntime:undname.obj
 0002:0000685c       ??_C@_07EDHNAJHC@signed?5?$AA@ 1006b85c     libvcruntime:undname.obj
 0002:00006868       ??_C@_05BNCCCJPP@const?$AA@ 1006b868     libvcruntime:undname.obj
 0002:00006870       ??_C@_09EFNPDFFP@?5volatile?$AA@ 1006b870     libvcruntime:undname.obj
 0002:0000687c       ??_C@_0P@GCIFDJCJ@?$GAunknown?5ecsu?8?$AA@ 1006b87c     libvcruntime:undname.obj
 0002:00006890       ??_C@_06MOJHIBMG@union?5?$AA@ 1006b890     libvcruntime:undname.obj
 0002:00006898       ??_C@_07DIBCDNGL@struct?5?$AA@ 1006b898     libvcruntime:undname.obj
 0002:000068a4       ??_C@_06LJBABKPM@class?5?$AA@ 1006b8a4     libvcruntime:undname.obj
 0002:000068ac       ??_C@_08KOFANOFK@coclass?5?$AA@ 1006b8ac     libvcruntime:undname.obj
 0002:000068b8       ??_C@_0N@DLIEFKNA@cointerface?5?$AA@ 1006b8b8     libvcruntime:undname.obj
 0002:000068c8       ??_C@_05LJGMCFOG@enum?5?$AA@ 1006b8c8     libvcruntime:undname.obj
 0002:000068d0       ??_C@_09GAIEOBLP@volatile?5?$AA@ 1006b8d0     libvcruntime:undname.obj
 0002:000068dc       ??_C@_06LIJLOJAG@const?5?$AA@ 1006b8dc     libvcruntime:undname.obj
 0002:000068e4       ??_C@_02KJPKDIBN@?$CG?5?$AA@ 1006b8e4     libvcruntime:undname.obj
 0002:000068e8       ??_C@_03PCKGMOPB@?$CG?$CG?5?$AA@ 1006b8e8     libvcruntime:undname.obj
 0002:000068ec       ??_C@_0M@EALIELKG@cli?3?3array?$DM?$AA@ 1006b8ec     libvcruntime:undname.obj
 0002:000068fc       ??_C@_0O@GKABPPIF@cli?3?3pin_ptr?$DM?$AA@ 1006b8fc     libvcruntime:undname.obj
 0002:0000690c       ??_C@_02GOGNNPBN@?$CJ?$FL?$AA@ 1006b90c     libvcruntime:undname.obj
 0002:00006910       ??_C@_06EEGAIFAK@?$HLflat?$HN?$AA@ 1006b910     libvcruntime:undname.obj
 0002:00006918       ??_C@_05JIBOFOHK@?$HLfor?5?$AA@ 1006b918     libvcruntime:undname.obj
 0002:00006920       ??_C@_02MDINNEEG@s?5?$AA@  1006b920     libvcruntime:undname.obj
 0002:00006928       ??_7DNameNode@@6B@         1006b928     libvcruntime:undname.obj
 0002:0000693c       ??_7charNode@@6B@          1006b93c     libvcruntime:undname.obj
 0002:00006950       ??_7pcharNode@@6B@         1006b950     libvcruntime:undname.obj
 0002:00006964       ??_7pDNameNode@@6B@        1006b964     libvcruntime:undname.obj
 0002:00006978       ??_7DNameStatusNode@@6B@   1006b978     libvcruntime:undname.obj
 0002:0000698c       ??_7pairNode@@6B@          1006b98c     libvcruntime:undname.obj
 0002:0000699c       ??_C@_04OKOHEJBO@?5?$DP?$DP?5?$AA@ 1006b99c     libvcruntime:undname.obj
 0002:000069a8       _standard_lookup_table     1006b9a8     libucrt:output.obj
 0002:00006a18       _format_validation_lookup_table 1006ba18     libucrt:output.obj
 0002:00006a88       ??_C@_06OJHGLDPL@?$CInull?$CJ?$AA@ 1006ba88     libucrt:output.obj
 0002:00006a90       ??_C@_1O@CEDCILHN@?$AA?$CI?$AAn?$AAu?$AAl?$AAl?$AA?$CJ?$AA?$AA@ 1006ba90     libucrt:output.obj
 0002:00006aa0       ??_C@_0CF@GOGNBNAK@Microsoft?5Visual?5C?$CL?$CL?5Runtime?5Lib@ 1006baa0     libucrt:assert.obj
 0002:00006ad0       ??_C@_1EK@MBDPDCGA@?$AAM?$AAi?$AAc?$AAr?$AAo?$AAs?$AAo?$AAf?$AAt?$AA?5?$AAV?$AAi?$AAs?$AAu?$AAa?$AAl?$AA?5?$AAC?$AA?$CL?$AA?$CL?$AA?5?$AAR?$AAu?$AAn?$AAt?$AAi?$AAm?$AAe?$AA?5?$AAL?$AAi?$AAb@ 1006bad0     libucrt:assert.obj
 0002:00006b28       ??_C@_0CK@CFPGFGGO@Assertion?5failed?3?5?$CFTs?0?5file?5?$CFTs?0@ 1006bb28     libucrt:assert.obj
 0002:00006b60       ??_C@_1FE@LHBLIKM@?$AAA?$AAs?$AAs?$AAe?$AAr?$AAt?$AAi?$AAo?$AAn?$AA?5?$AAf?$AAa?$AAi?$AAl?$AAe?$AAd?$AA?3?$AA?5?$AA?$CF?$AAT?$AAs?$AA?0?$AA?5?$AAf?$AAi?$AAl?$AAe?$AA?5?$AA?$CF?$AAT?$AAs?$AA?0@ 1006bb60     libucrt:assert.obj
 0002:00006bc4       ??_C@_0BC@LAIDCHCH@Assertion?5failed?$CB?$AA@ 1006bbc4     libucrt:assert.obj
 0002:00006bdc       ??_C@_1CE@OJBNHDMO@?$AAA?$AAs?$AAs?$AAe?$AAr?$AAt?$AAi?$AAo?$AAn?$AA?5?$AAf?$AAa?$AAi?$AAl?$AAe?$AAd?$AA?$CB?$AA?$AA@ 1006bbdc     libucrt:assert.obj
 0002:00006c08       ??_C@_09KLGCKDOD@Program?3?5?$AA@ 1006bc08     libucrt:assert.obj
 0002:00006c14       ??_C@_1BE@PHKBBGE@?$AAP?$AAr?$AAo?$AAg?$AAr?$AAa?$AAm?$AA?3?$AA?5?$AA?$AA@ 1006bc14     libucrt:assert.obj
 0002:00006c2c       ??_C@_06IGPBOHMJ@File?3?5?$AA@ 1006bc2c     libucrt:assert.obj
 0002:00006c34       ??_C@_1O@HEMHKNDC@?$AAF?$AAi?$AAl?$AAe?$AA?3?$AA?5?$AA?$AA@ 1006bc34     libucrt:assert.obj
 0002:00006c44       ??_C@_06FIEBOLOH@Line?3?5?$AA@ 1006bc44     libucrt:assert.obj
 0002:00006c4c       ??_C@_1O@KCAFKHJE@?$AAL?$AAi?$AAn?$AAe?$AA?3?$AA?5?$AA?$AA@ 1006bc4c     libucrt:assert.obj
 0002:00006c5c       ??_C@_0N@MEECIJGN@Expression?3?5?$AA@ 1006bc5c     libucrt:assert.obj
 0002:00006c6c       ??_C@_1BK@PEDCIPMA@?$AAE?$AAx?$AAp?$AAr?$AAe?$AAs?$AAs?$AAi?$AAo?$AAn?$AA?3?$AA?5?$AA?$AA@ 1006bc6c     libucrt:assert.obj
 0002:00006c90       ??_C@_0HA@OJHAGA@For?5information?5on?5how?5your?5prog@ 1006bc90     libucrt:assert.obj
 0002:00006d18       ??_C@_1OA@EGMLFBHJ@?$AAF?$AAo?$AAr?$AA?5?$AAi?$AAn?$AAf?$AAo?$AAr?$AAm?$AAa?$AAt?$AAi?$AAo?$AAn?$AA?5?$AAo?$AAn?$AA?5?$AAh?$AAo?$AAw?$AA?5?$AAy?$AAo?$AAu?$AAr?$AA?5?$AAp?$AAr?$AAo?$AAg@ 1006bd18     libucrt:assert.obj
 0002:00006e24       ??_C@_0DN@EBBNMLME@?$CIPress?5Retry?5to?5debug?5the?5applic@ 1006be24     libucrt:assert.obj
 0002:00006e70       ??_C@_1HK@POCJMFGK@?$AA?$CI?$AAP?$AAr?$AAe?$AAs?$AAs?$AA?5?$AAR?$AAe?$AAt?$AAr?$AAy?$AA?5?$AAt?$AAo?$AA?5?$AAd?$AAe?$AAb?$AAu?$AAg?$AA?5?$AAt?$AAh?$AAe?$AA?5?$AAa?$AAp?$AAp?$AAl?$AAi?$AAc@ 1006be70     libucrt:assert.obj
 0002:00006f04       ??_C@_17LGKOMLJ@?$AA?4?$AA?4?$AA?4?$AA?$AA@ 1006bf04     libucrt:assert.obj
 0002:00006f10       ??_C@_01EEMJAFIK@?6?$AA@   1006bf10     libucrt:assert.obj
 0002:00006f14       ??_C@_13LBAGMAIH@?$AA?6?$AA?$AA@ 1006bf14     libucrt:assert.obj
 0002:00006f18       ??_C@_02PHMGELLB@?6?6?$AA@ 1006bf18     libucrt:assert.obj
 0002:00006f1c       ??_C@_15IABLJNFO@?$AA?6?$AA?6?$AA?$AA@ 1006bf1c     libucrt:assert.obj
 0002:00006f24       ??_C@_0BH@DNAGHKFM@?$DMprogram?5name?5unknown?$DO?$AA@ 1006bf24     libucrt:assert.obj
 0002:00006f40       ??_C@_1CO@EAEJAADC@?$AA?$DM?$AAp?$AAr?$AAo?$AAg?$AAr?$AAa?$AAm?$AA?5?$AAn?$AAa?$AAm?$AAe?$AA?5?$AAu?$AAn?$AAk?$AAn?$AAo?$AAw?$AAn?$AA?$DO?$AA?$AA@ 1006bf40     libucrt:assert.obj
 0002:00006f78       _RtlNtPathSeperatorString  1006bf78     libucrt:exit.obj
 0002:00006f84       ??_C@_13FPGAJAPJ@?$AA?2?$AA?$AA@ 1006bf84     libucrt:exit.obj
 0002:00006f88       _RtlDosPathSeperatorsString 1006bf88     libucrt:exit.obj
 0002:00006f94       ??_C@_15MNCACJLI@?$AA?2?$AA?1?$AA?$AA@ 1006bf94     libucrt:exit.obj
 0002:00006f9c       _RtlAlternateDosPathSeperatorString 1006bf9c     libucrt:exit.obj
 0002:00006fa8       ??_C@_13CGOKJPIL@?$AA?1?$AA?$AA@ 1006bfa8     libucrt:exit.obj
 0002:00006fac       ??_C@_1BI@BGOHAHKC@?$AAm?$AAs?$AAc?$AAo?$AAr?$AAe?$AAe?$AA?4?$AAd?$AAl?$AAl?$AA?$AA@ 1006bfac     libucrt:exit.obj
 0002:00006fc8       ??_C@_0P@MIGLKIOC@CorExitProcess?$AA@ 1006bfc8     libucrt:exit.obj
 0002:00006fdc       ??_C@_04FJHINJAO@tanh?$AA@ 1006bfdc     libucrt:fpexcept.obj
 0002:00006fe4       ??_C@_04FIHNOPOL@asin?$AA@ 1006bfe4     libucrt:fpexcept.obj
 0002:00006fec       ??_C@_04PDIFKINK@acos?$AA@ 1006bfec     libucrt:fpexcept.obj
 0002:00006ff4       ??_C@_04MLLJIGOK@atan?$AA@ 1006bff4     libucrt:fpexcept.obj
 0002:00006ffc       ??_C@_05KNGEOGJB@atan2?$AA@ 1006bffc     libucrt:fpexcept.obj
 0002:00007004       ??_C@_04EIAKFFMI@sqrt?$AA@ 1006c004     libucrt:fpexcept.obj
 0002:0000700c       ??_C@_03BLEJJJBH@sin?$AA@  1006c00c     libucrt:fpexcept.obj
 0002:00007010       ??_C@_03LALBNOCG@cos?$AA@  1006c010     libucrt:fpexcept.obj
 0002:00007014       ??_C@_03IIINPABG@tan?$AA@  1006c014     libucrt:fpexcept.obj
 0002:00007018       ??_C@_04GFPJNGEK@ceil?$AA@ 1006c018     libucrt:fpexcept.obj
 0002:00007020       ??_C@_05PBJFFIGL@floor?$AA@ 1006c020     libucrt:fpexcept.obj
 0002:00007028       ??_C@_04ODHECPBC@fabs?$AA@ 1006c028     libucrt:fpexcept.obj
 0002:00007030       ??_C@_04EHEDPDJG@modf?$AA@ 1006c030     libucrt:fpexcept.obj
 0002:00007038       ??_C@_05CEJMAHNP@ldexp?$AA@ 1006c038     libucrt:fpexcept.obj
 0002:00007040       ??_C@_05KBKMEMPO@_cabs?$AA@ 1006c040     libucrt:fpexcept.obj
 0002:00007048       ??_C@_06MEIMCGCF@_hypot?$AA@ 1006c048     libucrt:fpexcept.obj
 0002:00007050       ??_C@_04KEPJIHGP@fmod?$AA@ 1006c050     libucrt:fpexcept.obj
 0002:00007058       ??_C@_05GKKHEGJL@frexp?$AA@ 1006c058     libucrt:fpexcept.obj
 0002:00007060       ??_C@_03MJLDFKDL@_y0?$AA@  1006c060     libucrt:fpexcept.obj
 0002:00007064       ??_C@_03NAKIGLHK@_y1?$AA@  1006c064     libucrt:fpexcept.obj
 0002:00007068       ??_C@_03ONILCKOB@_yn?$AA@  1006c068     libucrt:fpexcept.obj
 0002:0000706c       ??_C@_05JGDBENOH@_logb?$AA@ 1006c06c     libucrt:fpexcept.obj
 0002:00007074       ??_C@_0L@KDOEJCKC@_nextafter?$AA@ 1006c074     libucrt:fpexcept.obj
 0002:000071a0       ??_C@_03KHJOGHMM@exp?$AA@  1006c1a0     libucrt:fpexcept.obj
 0002:000071a4       ??_C@_03JGHBODFD@pow?$AA@  1006c1a4     libucrt:fpexcept.obj
 0002:000071a8       ??_C@_03MGHMBJCF@log?$AA@  1006c1a8     libucrt:fpexcept.obj
 0002:000071ac       ??_C@_05HGHHAHAP@log10?$AA@ 1006c1ac     libucrt:fpexcept.obj
 0002:000071b4       ??_C@_04COOMCNPB@sinh?$AA@ 1006c1b4     libucrt:fpexcept.obj
 0002:000071bc       ??_C@_04HPJJNFIM@cosh?$AA@ 1006c1bc     libucrt:fpexcept.obj
 0002:000071c8       ___acrt_exception_action_table 1006c1c8     libucrt:exception_filter.obj
 0002:00007274       ___acrt_signal_action_table_count 1006c274     libucrt:exception_filter.obj
 0002:00007278       ___acrt_signal_action_table_size 1006c278     libucrt:exception_filter.obj
 0002:0000727c       ___acrt_signal_action_first_fpe_index 1006c27c     libucrt:exception_filter.obj
 0002:00007280       ___acrt_signal_action_fpe_count 1006c280     libucrt:exception_filter.obj
 0002:00007318       ??_C@_1BG@HHIFPOEK@?$AAm?$AAs?$AAv?$AAc?$AAr?$AAt?$AA?4?$AAd?$AAl?$AAl?$AA?$AA@ 1006c318     libucrt:free_base.obj
 0002:00007334       __Fenv0                    1006c334     libucrt:atox.obj
 0002:00007550       ??_C@_1EG@CNNIPFIM@?$AAa?$AAp?$AAi?$AA?9?$AAm?$AAs?$AA?9?$AAw?$AAi?$AAn?$AA?9?$AAa?$AAp?$AAp?$AAm?$AAo?$AAd?$AAe?$AAl?$AA?9?$AAr?$AAu?$AAn?$AAt?$AAi?$AAm?$AAe?$AA?9?$AAl?$AA1?$AA?9?$AA1@ 1006c550     libucrt:winapi_thunks.obj
 0002:000075a8       ??_C@_1EA@JGEFHKEI@?$AAa?$AAp?$AAi?$AA?9?$AAm?$AAs?$AA?9?$AAw?$AAi?$AAn?$AA?9?$AAc?$AAo?$AAr?$AAe?$AA?9?$AAd?$AAa?$AAt?$AAe?$AAt?$AAi?$AAm?$AAe?$AA?9?$AAl?$AA1?$AA?9?$AA1?$AA?9?$AA1?$AA?$AA@ 1006c5a8     libucrt:winapi_thunks.obj
 0002:000075f4       ??_C@_1DI@GCIAAENM@?$AAa?$AAp?$AAi?$AA?9?$AAm?$AAs?$AA?9?$AAw?$AAi?$AAn?$AA?9?$AAc?$AAo?$AAr?$AAe?$AA?9?$AAf?$AAi?$AAl?$AAe?$AA?9?$AAl?$AA2?$AA?9?$AA1?$AA?9?$AA1?$AA?$AA@ 1006c5f4     libucrt:winapi_thunks.obj
 0002:00007638       ??_C@_1EI@MPIAOHOC@?$AAa?$AAp?$AAi?$AA?9?$AAm?$AAs?$AA?9?$AAw?$AAi?$AAn?$AA?9?$AAc?$AAo?$AAr?$AAe?$AA?9?$AAl?$AAo?$AAc?$AAa?$AAl?$AAi?$AAz?$AAa?$AAt?$AAi?$AAo?$AAn?$AA?9?$AAl?$AA1?$AA?9@ 1006c638     libucrt:winapi_thunks.obj
 0002:00007690       ??_C@_1FK@FPHCKFIE@?$AAa?$AAp?$AAi?$AA?9?$AAm?$AAs?$AA?9?$AAw?$AAi?$AAn?$AA?9?$AAc?$AAo?$AAr?$AAe?$AA?9?$AAl?$AAo?$AAc?$AAa?$AAl?$AAi?$AAz?$AAa?$AAt?$AAi?$AAo?$AAn?$AA?9?$AAo?$AAb?$AAs@ 1006c690     libucrt:winapi_thunks.obj
 0002:00007700       ??_C@_1EM@DILCGIIO@?$AAa?$AAp?$AAi?$AA?9?$AAm?$AAs?$AA?9?$AAw?$AAi?$AAn?$AA?9?$AAc?$AAo?$AAr?$AAe?$AA?9?$AAp?$AAr?$AAo?$AAc?$AAe?$AAs?$AAs?$AAt?$AAh?$AAr?$AAe?$AAa?$AAd?$AAs?$AA?9?$AAl@ 1006c700     libucrt:winapi_thunks.obj
 0002:0000775c       ??_C@_1DM@LNCGDDPN@?$AAa?$AAp?$AAi?$AA?9?$AAm?$AAs?$AA?9?$AAw?$AAi?$AAn?$AA?9?$AAc?$AAo?$AAr?$AAe?$AA?9?$AAs?$AAt?$AAr?$AAi?$AAn?$AAg?$AA?9?$AAl?$AA1?$AA?9?$AA1?$AA?9?$AA0?$AA?$AA@ 1006c75c     libucrt:winapi_thunks.obj
 0002:000077a4       ??_C@_1DO@FPAPJEMD@?$AAa?$AAp?$AAi?$AA?9?$AAm?$AAs?$AA?9?$AAw?$AAi?$AAn?$AA?9?$AAc?$AAo?$AAr?$AAe?$AA?9?$AAs?$AAy?$AAs?$AAi?$AAn?$AAf?$AAo?$AA?9?$AAl?$AA1?$AA?9?$AA2?$AA?9?$AA1?$AA?$AA@ 1006c7a4     libucrt:winapi_thunks.obj
 0002:000077f0       ??_C@_1DK@NDHNAHIO@?$AAa?$AAp?$AAi?$AA?9?$AAm?$AAs?$AA?9?$AAw?$AAi?$AAn?$AA?9?$AAc?$AAo?$AAr?$AAe?$AA?9?$AAw?$AAi?$AAn?$AAr?$AAt?$AA?9?$AAl?$AA1?$AA?9?$AA1?$AA?9?$AA0?$AA?$AA@ 1006c7f0     libucrt:winapi_thunks.obj
 0002:00007838       ??_C@_1DM@KGHDGBCM@?$AAa?$AAp?$AAi?$AA?9?$AAm?$AAs?$AA?9?$AAw?$AAi?$AAn?$AA?9?$AAc?$AAo?$AAr?$AAe?$AA?9?$AAx?$AAs?$AAt?$AAa?$AAt?$AAe?$AA?9?$AAl?$AA2?$AA?9?$AA1?$AA?9?$AA0?$AA?$AA@ 1006c838     libucrt:winapi_thunks.obj
 0002:00007880       ??_C@_1EO@IJIOEFOH@?$AAa?$AAp?$AAi?$AA?9?$AAm?$AAs?$AA?9?$AAw?$AAi?$AAn?$AA?9?$AAr?$AAt?$AAc?$AAo?$AAr?$AAe?$AA?9?$AAn?$AAt?$AAu?$AAs?$AAe?$AAr?$AA?9?$AAw?$AAi?$AAn?$AAd?$AAo?$AAw?$AA?9@ 1006c880     libucrt:winapi_thunks.obj
 0002:000078e0       ??_C@_1FG@HHGEKANL@?$AAa?$AAp?$AAi?$AA?9?$AAm?$AAs?$AA?9?$AAw?$AAi?$AAn?$AA?9?$AAs?$AAe?$AAc?$AAu?$AAr?$AAi?$AAt?$AAy?$AA?9?$AAs?$AAy?$AAs?$AAt?$AAe?$AAm?$AAf?$AAu?$AAn?$AAc?$AAt?$AAi@ 1006c8e0     libucrt:winapi_thunks.obj
 0002:00007948       ??_C@_1FG@NCKKOLKO@?$AAe?$AAx?$AAt?$AA?9?$AAm?$AAs?$AA?9?$AAw?$AAi?$AAn?$AA?9?$AAk?$AAe?$AAr?$AAn?$AAe?$AAl?$AA3?$AA2?$AA?9?$AAp?$AAa?$AAc?$AAk?$AAa?$AAg?$AAe?$AA?9?$AAc?$AAu?$AAr?$AAr@ 1006c948     libucrt:winapi_thunks.obj
 0002:000079b0       ??_C@_1EG@DBIOJECG@?$AAe?$AAx?$AAt?$AA?9?$AAm?$AAs?$AA?9?$AAw?$AAi?$AAn?$AA?9?$AAn?$AAt?$AAu?$AAs?$AAe?$AAr?$AA?9?$AAd?$AAi?$AAa?$AAl?$AAo?$AAg?$AAb?$AAo?$AAx?$AA?9?$AAl?$AA1?$AA?9?$AA1@ 1006c9b0     libucrt:winapi_thunks.obj
 0002:00007a08       ??_C@_1EO@FIHMJCLF@?$AAe?$AAx?$AAt?$AA?9?$AAm?$AAs?$AA?9?$AAw?$AAi?$AAn?$AA?9?$AAn?$AAt?$AAu?$AAs?$AAe?$AAr?$AA?9?$AAw?$AAi?$AAn?$AAd?$AAo?$AAw?$AAs?$AAt?$AAa?$AAt?$AAi?$AAo?$AAn?$AA?9@ 1006ca08     libucrt:winapi_thunks.obj
 0002:00007a68       ??_C@_1O@BCCLBEOE@?$AAu?$AAs?$AAe?$AAr?$AA3?$AA2?$AA?$AA@ 1006ca68     libucrt:winapi_thunks.obj
 0002:00007a7c       ??_C@_0BA@FHFNEAED@AreFileApisANSI?$AA@ 1006ca7c     libucrt:winapi_thunks.obj
 0002:00007a9c       ??_C@_0BA@IHGNDAEB@CompareStringEx?$AA@ 1006ca9c     libucrt:winapi_thunks.obj
 0002:00007abc       ??_C@_0BE@LJANKFHF@EnumSystemLocalesEx?$AA@ 1006cabc     libucrt:winapi_thunks.obj
 0002:00007b10       ??_C@_0BA@HNOPNCHB@GetActiveWindow?$AA@ 1006cb10     libucrt:winapi_thunks.obj
 0002:00007b30       ??_C@_0BE@JOGNEJCI@GetCurrentPackageId?$AA@ 1006cb30     libucrt:winapi_thunks.obj
 0002:00007b54       ??_C@_0BA@EPCJIIPD@GetDateFormatEx?$AA@ 1006cb54     libucrt:winapi_thunks.obj
 0002:00007b74       ??_C@_0BJ@DIBIJBHA@GetEnabledXStateFeatures?$AA@ 1006cb74     libucrt:winapi_thunks.obj
 0002:00007ba0       ??_C@_0BN@NEEHBBPO@GetFileInformationByHandleEx?$AA@ 1006cba0     libucrt:winapi_thunks.obj
 0002:00007bd0       ??_C@_0BD@HHGDFDBJ@GetLastActivePopup?$AA@ 1006cbd0     libucrt:winapi_thunks.obj
 0002:00007bf4       ??_C@_0BA@ONOKGCMP@GetLocaleInfoEx?$AA@ 1006cbf4     libucrt:winapi_thunks.obj
 0002:00007c14       ??_C@_0BI@DFKBFLJE@GetProcessWindowStation?$AA@ 1006cc14     libucrt:winapi_thunks.obj
 0002:00007c34       ??_C@_0BP@FPNJPEJC@GetSystemTimePreciseAsFileTime?$AA@ 1006cc34     libucrt:winapi_thunks.obj
 0002:00007c68       ??_C@_0BA@CIJJKCJJ@GetTimeFormatEx?$AA@ 1006cc68     libucrt:winapi_thunks.obj
 0002:00007c88       ??_C@_0BJ@PBCCBIPI@GetUserDefaultLocaleName?$AA@ 1006cc88     libucrt:winapi_thunks.obj
 0002:00007cb4       ??_C@_0BK@DEKFELLI@GetUserObjectInformationW?$AA@ 1006ccb4     libucrt:winapi_thunks.obj
 0002:00007ce0       ??_C@_0BG@IKLDMBLM@GetXStateFeaturesMask?$AA@ 1006cce0     libucrt:winapi_thunks.obj
 0002:00007d14       ??_C@_0BC@CELBKLLA@IsValidLocaleName?$AA@ 1006cd14     libucrt:winapi_thunks.obj
 0002:00007d38       ??_C@_0O@KKBNKAPF@LCMapStringEx?$AA@ 1006cd38     libucrt:winapi_thunks.obj
 0002:00007d54       ??_C@_0BB@CDHDDLLP@LCIDToLocaleName?$AA@ 1006cd54     libucrt:winapi_thunks.obj
 0002:00007d74       ??_C@_0BB@HBDEELFH@LocaleNameToLCID?$AA@ 1006cd74     libucrt:winapi_thunks.obj
 0002:00007d94       ??_C@_0BE@KINNKFDA@LocateXStateFeature?$AA@ 1006cd94     libucrt:winapi_thunks.obj
 0002:00007db8       ??_C@_0M@CHKKJDAI@MessageBoxA?$AA@ 1006cdb8     libucrt:winapi_thunks.obj
 0002:00007dd4       ??_C@_0M@DLDCCGNP@MessageBoxW?$AA@ 1006cdd4     libucrt:winapi_thunks.obj
 0002:00007de8       ??_C@_0N@PPOMPGGK@RoInitialize?$AA@ 1006cde8     libucrt:winapi_thunks.obj
 0002:00007dfc       ??_C@_0P@LLFHBIJD@RoUninitialize?$AA@ 1006cdfc     libucrt:winapi_thunks.obj
 0002:00007e1c       ??_C@_0BI@BKLFFAPO@SetThreadStackGuarantee?$AA@ 1006ce1c     libucrt:winapi_thunks.obj
 0002:00007e44       ??_C@_0BC@JEAENNKH@SystemFunction036?$AA@ 1006ce44     libucrt:winapi_thunks.obj
 0002:00007e5c       ??_C@_03OEIAHPBN@INF?$AA@  1006ce5c     libucrt:cvt.obj
 0002:00007e60       ??_C@_03OJHLLCGB@inf?$AA@  1006ce60     libucrt:cvt.obj
 0002:00007e64       ??_C@_03LKNCIKJB@NAN?$AA@  1006ce64     libucrt:cvt.obj
 0002:00007e68       ??_C@_03LHCJEHON@nan?$AA@  1006ce68     libucrt:cvt.obj
 0002:00007e6c       ??_C@_09OFJJIMPC@NAN?$CISNAN?$CJ?$AA@ 1006ce6c     libucrt:cvt.obj
 0002:00007e78       ??_C@_09IPFBKMDL@nan?$CIsnan?$CJ?$AA@ 1006ce78     libucrt:cvt.obj
 0002:00007e84       ??_C@_08IKHNHAJ@NAN?$CIIND?$CJ?$AA@ 1006ce84     libucrt:cvt.obj
 0002:00007e90       ??_C@_08OFCDMILK@nan?$CIind?$CJ?$AA@ 1006ce90     libucrt:cvt.obj
 0002:00007e9c       ??_C@_05KLBDPFGC@e?$CL000?$AA@ 1006ce9c     libucrt:cvt.obj
 0002:00007ea8       ___lc_category             1006cea8     libucrt:wsetlocale.obj
 0002:00007f00       ??_C@_1O@GIFLHMA@?$AAL?$AAC?$AA_?$AAA?$AAL?$AAL?$AA?$AA@ 1006cf00     libucrt:wsetlocale.obj
 0002:00007f10       ??_C@_1BG@PPOMIBNJ@?$AAL?$AAC?$AA_?$AAC?$AAO?$AAL?$AAL?$AAA?$AAT?$AAE?$AA?$AA@ 1006cf10     libucrt:wsetlocale.obj
 0002:00007f2c       ??_C@_1BC@FFJGAPJM@?$AAL?$AAC?$AA_?$AAC?$AAT?$AAY?$AAP?$AAE?$AA?$AA@ 1006cf2c     libucrt:wsetlocale.obj
 0002:00007f44       ??_C@_1BI@PCKFNJFB@?$AAL?$AAC?$AA_?$AAM?$AAO?$AAN?$AAE?$AAT?$AAA?$AAR?$AAY?$AA?$AA@ 1006cf44     libucrt:wsetlocale.obj
 0002:00007f60       ??_C@_1BG@ENIEDKID@?$AAL?$AAC?$AA_?$AAN?$AAU?$AAM?$AAE?$AAR?$AAI?$AAC?$AA?$AA@ 1006cf60     libucrt:wsetlocale.obj
 0002:00007f7c       ??_C@_1BA@HAAOMIIG@?$AAL?$AAC?$AA_?$AAT?$AAI?$AAM?$AAE?$AA?$AA@ 1006cf7c     libucrt:wsetlocale.obj
 0002:00008028       ??_C@_15NBPDDFIP@?$AA?$DN?$AA?$DL?$AA?$AA@ 1006d028     libucrt:wsetlocale.obj
 0002:00008030       ??_C@_13PJJBFPED@?$AA?$DL?$AA?$AA@ 1006d030     libucrt:wsetlocale.obj
 0002:00008034       ??_C@_13NMPKAAJP@?$AA?$DN?$AA?$AA@ 1006d034     libucrt:wsetlocale.obj
 0002:00008038       ??_C@_13FHBKNHDA@?$AAC?$AA?$AA@ 1006d038     libucrt:wsetlocale.obj
 0002:0000803c       ??_C@_17MBJJLFDM@?$AA_?$AA?4?$AA?0?$AA?$AA@ 1006d03c     libucrt:wsetlocale.obj
 0002:00008048       ??_C@_13ENNFDPBH@?$AA_?$AA?$AA@ 1006d048     libucrt:wsetlocale.obj
 0002:0000804c       ??_C@_13JOFGPIOO@?$AA?4?$AA?$AA@ 1006d04c     libucrt:wsetlocale.obj
 0002:00008050       ??_C@_03KOEHGMDN@Sun?$AA@  1006d050     libucrt:nlsdata.obj
 0002:00008054       ??_C@_03PDAGKDH@Mon?$AA@   1006d054     libucrt:nlsdata.obj
 0002:00008058       ??_C@_03NAGEINEP@Tue?$AA@  1006d058     libucrt:nlsdata.obj
 0002:0000805c       ??_C@_03MHOMLAJA@Wed?$AA@  1006d05c     libucrt:nlsdata.obj
 0002:00008060       ??_C@_03IOFIKPDN@Thu?$AA@  1006d060     libucrt:nlsdata.obj
 0002:00008064       ??_C@_03IDIOELNC@Fri?$AA@  1006d064     libucrt:nlsdata.obj
 0002:00008068       ??_C@_03FEFJNEK@Sat?$AA@   1006d068     libucrt:nlsdata.obj
 0002:0000806c       ??_C@_06OOPIFAJ@Sunday?$AA@ 1006d06c     libucrt:nlsdata.obj
 0002:00008074       ??_C@_06JLEDEDGH@Monday?$AA@ 1006d074     libucrt:nlsdata.obj
 0002:0000807c       ??_C@_07BAAGCFCM@Tuesday?$AA@ 1006d07c     libucrt:nlsdata.obj
 0002:00008088       ??_C@_09DLIGFAKA@Wednesday?$AA@ 1006d088     libucrt:nlsdata.obj
 0002:00008094       ??_C@_08HACCIKIA@Thursday?$AA@ 1006d094     libucrt:nlsdata.obj
 0002:000080a0       ??_C@_06JECMNKMI@Friday?$AA@ 1006d0a0     libucrt:nlsdata.obj
 0002:000080a8       ??_C@_08INBOOONO@Saturday?$AA@ 1006d0a8     libucrt:nlsdata.obj
 0002:000080b4       ??_C@_03JIHJHPIE@Jan?$AA@  1006d0b4     libucrt:nlsdata.obj
 0002:000080b8       ??_C@_03HJBDCHOM@Feb?$AA@  1006d0b8     libucrt:nlsdata.obj
 0002:000080bc       ??_C@_03ODNJBKGA@Mar?$AA@  1006d0bc     libucrt:nlsdata.obj
 0002:000080c0       ??_C@_03LEOLGMJP@Apr?$AA@  1006d0c0     libucrt:nlsdata.obj
 0002:000080c4       ??_C@_03CNMDKL@May?$AA@    1006d0c4     libucrt:nlsdata.obj
 0002:000080c8       ??_C@_03IDFGHECI@Jun?$AA@  1006d0c8     libucrt:nlsdata.obj
 0002:000080cc       ??_C@_03LBGABGKK@Jul?$AA@  1006d0cc     libucrt:nlsdata.obj
 0002:000080d0       ??_C@_03IFJFEIGA@Aug?$AA@  1006d0d0     libucrt:nlsdata.obj
 0002:000080d4       ??_C@_03GGCAPAJC@Sep?$AA@  1006d0d4     libucrt:nlsdata.obj
 0002:000080d8       ??_C@_03BMAOKBAD@Oct?$AA@  1006d0d8     libucrt:nlsdata.obj
 0002:000080dc       ??_C@_03JPJOFNIA@Nov?$AA@  1006d0dc     libucrt:nlsdata.obj
 0002:000080e0       ??_C@_03MKABNOCG@Dec?$AA@  1006d0e0     libucrt:nlsdata.obj
 0002:000080e4       ??_C@_07CGJPFGJA@January?$AA@ 1006d0e4     libucrt:nlsdata.obj
 0002:000080f0       ??_C@_08GNJGEPFN@February?$AA@ 1006d0f0     libucrt:nlsdata.obj
 0002:000080fc       ??_C@_05HPCKOFNC@March?$AA@ 1006d0fc     libucrt:nlsdata.obj
 0002:00008104       ??_C@_05DMJDNLEJ@April?$AA@ 1006d104     libucrt:nlsdata.obj
 0002:0000810c       ??_C@_04CNLMGBGM@June?$AA@ 1006d10c     libucrt:nlsdata.obj
 0002:00008114       ??_C@_04MIEPOIFP@July?$AA@ 1006d114     libucrt:nlsdata.obj
 0002:0000811c       ??_C@_06LBBHFDDG@August?$AA@ 1006d11c     libucrt:nlsdata.obj
 0002:00008124       ??_C@_09BHHEALKD@September?$AA@ 1006d124     libucrt:nlsdata.obj
 0002:00008130       ??_C@_07JJNFCEND@October?$AA@ 1006d130     libucrt:nlsdata.obj
 0002:0000813c       ??_C@_08HCHEGEOA@November?$AA@ 1006d13c     libucrt:nlsdata.obj
 0002:00008148       ??_C@_08EDHMEBNP@December?$AA@ 1006d148     libucrt:nlsdata.obj
 0002:00008154       ??_C@_02DEDBPAFC@AM?$AA@   1006d154     libucrt:nlsdata.obj
 0002:00008158       ??_C@_02CJNFDJBF@PM?$AA@   1006d158     libucrt:nlsdata.obj
 0002:0000815c       ??_C@_08BPBNCDIB@MM?1dd?1yy?$AA@ 1006d15c     libucrt:nlsdata.obj
 0002:00008168       ??_C@_0BE@CKGJFCPC@dddd?0?5MMMM?5dd?0?5yyyy?$AA@ 1006d168     libucrt:nlsdata.obj
 0002:00008180       ??_C@_08JCCMCCIL@HH?3mm?3ss?$AA@ 1006d180     libucrt:nlsdata.obj
 0002:0000818c       ??_C@_17MBGCMIPB@?$AAS?$AAu?$AAn?$AA?$AA@ 1006d18c     libucrt:nlsdata.obj
 0002:00008198       ??_C@_17KBOMKBF@?$AAM?$AAo?$AAn?$AA?$AA@ 1006d198     libucrt:nlsdata.obj
 0002:000081a4       ??_C@_17BMKGEGOJ@?$AAT?$AAu?$AAe?$AA?$AA@ 1006d1a4     libucrt:nlsdata.obj
 0002:000081b0       ??_C@_17CJEDCEPE@?$AAW?$AAe?$AAd?$AA?$AA@ 1006d1b0     libucrt:nlsdata.obj
 0002:000081bc       ??_C@_17PDPHAADD@?$AAT?$AAh?$AAu?$AA?$AA@ 1006d1bc     libucrt:nlsdata.obj
 0002:000081c8       ??_C@_17HFOLPPLP@?$AAF?$AAr?$AAi?$AA?$AA@ 1006d1c8     libucrt:nlsdata.obj
 0002:000081d4       ??_C@_17GGIBDPIH@?$AAS?$AAa?$AAt?$AA?$AA@ 1006d1d4     libucrt:nlsdata.obj
 0002:000081e0       ??_C@_1O@IHNHDHPB@?$AAS?$AAu?$AAn?$AAd?$AAa?$AAy?$AA?$AA@ 1006d1e0     libucrt:nlsdata.obj
 0002:000081f0       ??_C@_1O@MMNBFLIA@?$AAM?$AAo?$AAn?$AAd?$AAa?$AAy?$AA?$AA@ 1006d1f0     libucrt:nlsdata.obj
 0002:00008200       ??_C@_1BA@ENFBFFEK@?$AAT?$AAu?$AAe?$AAs?$AAd?$AAa?$AAy?$AA?$AA@ 1006d200     libucrt:nlsdata.obj
 0002:00008214       ??_C@_1BE@EBOGMDOH@?$AAW?$AAe?$AAd?$AAn?$AAe?$AAs?$AAd?$AAa?$AAy?$AA?$AA@ 1006d214     libucrt:nlsdata.obj
 0002:0000822c       ??_C@_1BC@HHMNLIHE@?$AAT?$AAh?$AAu?$AAr?$AAs?$AAd?$AAa?$AAy?$AA?$AA@ 1006d22c     libucrt:nlsdata.obj
 0002:00008244       ??_C@_1O@PDICJHAG@?$AAF?$AAr?$AAi?$AAd?$AAa?$AAy?$AA?$AA@ 1006d244     libucrt:nlsdata.obj
 0002:00008254       ??_C@_1BC@ENMNNPAJ@?$AAS?$AAa?$AAt?$AAu?$AAr?$AAd?$AAa?$AAy?$AA?$AA@ 1006d254     libucrt:nlsdata.obj
 0002:0000826c       ??_C@_17DKNBKCHM@?$AAJ?$AAa?$AAn?$AA?$AA@ 1006d26c     libucrt:nlsdata.obj
 0002:00008278       ??_C@_17LMDJEKJN@?$AAF?$AAe?$AAb?$AA?$AA@ 1006d278     libucrt:nlsdata.obj
 0002:00008284       ??_C@_17CKNLEDEC@?$AAM?$AAa?$AAr?$AA?$AA@ 1006d284     libucrt:nlsdata.obj
 0002:00008290       ??_C@_17LFPOIHDD@?$AAA?$AAp?$AAr?$AA?$AA@ 1006d290     libucrt:nlsdata.obj
 0002:0000829c       ??_C@_17PNNKMEED@?$AAM?$AAa?$AAy?$AA?$AA@ 1006d29c     libucrt:nlsdata.obj
 0002:000082a8       ??_C@_17KCJGOCPB@?$AAJ?$AAu?$AAn?$AA?$AA@ 1006d2a8     libucrt:nlsdata.obj
 0002:000082b4       ??_C@_17IJPCKHK@?$AAJ?$AAu?$AAl?$AA?$AA@ 1006d2b4     libucrt:nlsdata.obj
 0002:000082c0       ??_C@_17ICPELBCN@?$AAA?$AAu?$AAg?$AA?$AA@ 1006d2c0     libucrt:nlsdata.obj
 0002:000082cc       ??_C@_17HCHCOKMG@?$AAS?$AAe?$AAp?$AA?$AA@ 1006d2cc     libucrt:nlsdata.obj
 0002:000082d8       ??_C@_17FNLKOI@?$AAO?$AAc?$AAt?$AA?$AA@ 1006d2d8     libucrt:nlsdata.obj
 0002:000082e4       ??_C@_17BBDMLCIG@?$AAN?$AAo?$AAv?$AA?$AA@ 1006d2e4     libucrt:nlsdata.obj
 0002:000082f0       ??_C@_17EGKACKIF@?$AAD?$AAe?$AAc?$AA?$AA@ 1006d2f0     libucrt:nlsdata.obj
 0002:000082fc       ??_C@_1BA@EFMEIEBA@?$AAJ?$AAa?$AAn?$AAu?$AAa?$AAr?$AAy?$AA?$AA@ 1006d2fc     libucrt:nlsdata.obj
 0002:00008310       ??_C@_1BC@JGDDFFAM@?$AAF?$AAe?$AAb?$AAr?$AAu?$AAa?$AAr?$AAy?$AA?$AA@ 1006d310     libucrt:nlsdata.obj
 0002:00008328       ??_C@_1M@IKEENEDF@?$AAM?$AAa?$AAr?$AAc?$AAh?$AA?$AA@ 1006d328     libucrt:nlsdata.obj
 0002:00008338       ??_C@_1M@GJNLMHFD@?$AAA?$AAp?$AAr?$AAi?$AAl?$AA?$AA@ 1006d338     libucrt:nlsdata.obj
 0002:00008348       ??_C@_19EPFLPGAP@?$AAJ?$AAu?$AAn?$AAe?$AA?$AA@ 1006d348     libucrt:nlsdata.obj
 0002:00008354       ??_C@_19BIFMLPCD@?$AAJ?$AAu?$AAl?$AAy?$AA?$AA@ 1006d354     libucrt:nlsdata.obj
 0002:00008360       ??_C@_1O@PAHLKOAC@?$AAA?$AAu?$AAg?$AAu?$AAs?$AAt?$AA?$AA@ 1006d360     libucrt:nlsdata.obj
 0002:00008370       ??_C@_1BE@DKAAMBJL@?$AAS?$AAe?$AAp?$AAt?$AAe?$AAm?$AAb?$AAe?$AAr?$AA?$AA@ 1006d370     libucrt:nlsdata.obj
 0002:00008388       ??_C@_1BA@EPANDLNG@?$AAO?$AAc?$AAt?$AAo?$AAb?$AAe?$AAr?$AA?$AA@ 1006d388     libucrt:nlsdata.obj
 0002:0000839c       ??_C@_1BC@BGLIFPF@?$AAN?$AAo?$AAv?$AAe?$AAm?$AAb?$AAe?$AAr?$AA?$AA@ 1006d39c     libucrt:nlsdata.obj
 0002:000083b4       ??_C@_1BC@FEMKIFH@?$AAD?$AAe?$AAc?$AAe?$AAm?$AAb?$AAe?$AAr?$AA?$AA@ 1006d3b4     libucrt:nlsdata.obj
 0002:000083cc       ??_C@_15ODEHAHHF@?$AAA?$AAM?$AA?$AA@ 1006d3cc     libucrt:nlsdata.obj
 0002:000083d4       ??_C@_15CLMNNGEL@?$AAP?$AAM?$AA?$AA@ 1006d3d4     libucrt:nlsdata.obj
 0002:000083dc       ??_C@_1BC@IEBCMHCM@?$AAM?$AAM?$AA?1?$AAd?$AAd?$AA?1?$AAy?$AAy?$AA?$AA@ 1006d3dc     libucrt:nlsdata.obj
 0002:000083f4       ??_C@_1CI@KNAKOEBC@?$AAd?$AAd?$AAd?$AAd?$AA?0?$AA?5?$AAM?$AAM?$AAM?$AAM?$AA?5?$AAd?$AAd?$AA?0?$AA?5?$AAy?$AAy?$AAy?$AAy?$AA?$AA@ 1006d3f4     libucrt:nlsdata.obj
 0002:00008424       ??_C@_1BC@GDGBMEMK@?$AAH?$AAH?$AA?3?$AAm?$AAm?$AA?3?$AAs?$AAs?$AA?$AA@ 1006d424     libucrt:nlsdata.obj
 0002:0000843c       ??_C@_1M@BMHNFIME@?$AAe?$AAn?$AA?9?$AAU?$AAS?$AA?$AA@ 1006d43c     libucrt:nlsdata.obj
 0002:00008450       ___lc_time_c               1006d450     libucrt:nlsdata.obj
 0002:000085fc       ??_C@_1DE@JNGNBFGO@?$AAR?$AAu?$AAn?$AAt?$AAi?$AAm?$AAe?$AA?5?$AAE?$AAr?$AAr?$AAo?$AAr?$AA?$CB?$AA?6?$AA?6?$AAP?$AAr?$AAo?$AAg?$AAr?$AAa?$AAm?$AA?3?$AA?5?$AA?$AA@ 1006d5fc     libucrt:report_runtime_error.obj
 0002:0000863c       ?ccs@?BL@???$__acrt_stdio_parse_mode@D@@YA?AU__acrt_stdio_stream_mode@@QBD@Z@4QBDB 1006d63c     libucrt:openfile.obj
 0002:00008640       ?utf8_encoding@?BL@???$__acrt_stdio_parse_mode@D@@YA?AU__acrt_stdio_stream_mode@@QBD@Z@4QBDB 1006d640     libucrt:openfile.obj
 0002:00008648       ?utf16_encoding@?BL@???$__acrt_stdio_parse_mode@D@@YA?AU__acrt_stdio_stream_mode@@QBD@Z@4QBDB 1006d648     libucrt:openfile.obj
 0002:00008654       ?unicode_encoding@?BL@???$__acrt_stdio_parse_mode@D@@YA?AU__acrt_stdio_stream_mode@@QBD@Z@4QBDB 1006d654     libucrt:openfile.obj
 0002:0000865c       ?ccs@?BL@???$__acrt_stdio_parse_mode@_W@@YA?AU__acrt_stdio_stream_mode@@QB_W@Z@4QB_WB 1006d65c     libucrt:openfile.obj
 0002:00008664       ?utf8_encoding@?BL@???$__acrt_stdio_parse_mode@_W@@YA?AU__acrt_stdio_stream_mode@@QB_W@Z@4QB_WB 1006d664     libucrt:openfile.obj
 0002:00008670       ?utf16_encoding@?BL@???$__acrt_stdio_parse_mode@_W@@YA?AU__acrt_stdio_stream_mode@@QB_W@Z@4QB_WB 1006d670     libucrt:openfile.obj
 0002:00008684       ?unicode_encoding@?BL@???$__acrt_stdio_parse_mode@_W@@YA?AU__acrt_stdio_stream_mode@@QB_W@Z@4QB_WB 1006d684     libucrt:openfile.obj
 0002:00008698       __d_inf                    1006d698     libucrt:util.obj
 0002:000086a8       __d_ind                    1006d6a8     libucrt:util.obj
 0002:000086b8       __d_max                    1006d6b8     libucrt:util.obj
 0002:000086c8       __d_min                    1006d6c8     libucrt:util.obj
 0002:000086d8       __d_mzero                  1006d6d8     libucrt:util.obj
 0002:00008718       ??_C@_1M@HPNHIDJI@?$AAj?$AAa?$AA?9?$AAJ?$AAP?$AA?$AA@ 1006d718     libucrt:mbctype.obj
 0002:00008728       ??_C@_1M@BIBDDEMK@?$AAz?$AAh?$AA?9?$AAC?$AAN?$AA?$AA@ 1006d728     libucrt:mbctype.obj
 0002:00008738       ??_C@_1M@JLOOOEGK@?$AAk?$AAo?$AA?9?$AAK?$AAR?$AA?$AA@ 1006d738     libucrt:mbctype.obj
 0002:00008748       ??_C@_1M@CLNBBOPM@?$AAz?$AAh?$AA?9?$AAT?$AAW?$AA?$AA@ 1006d748     libucrt:mbctype.obj
 0002:00008758       __wctype                   1006d758     libucrt:ctype.obj
 0002:000089c8       ___newctype                1006d9c8     libucrt:ctype.obj
 0002:00008d68       ___newclmap                1006dd68     libucrt:ctype.obj
 0002:00008f38       ___newcumap                1006df38     libucrt:ctype.obj
 0002:00009994       ??_C@_15EMKDOKLE@?$AAa?$AAr?$AA?$AA@ 1006e994     libucrt:lcidtoname_downlevel.obj
 0002:0000999c       ??_C@_15KNPADPLH@?$AAb?$AAg?$AA?$AA@ 1006e99c     libucrt:lcidtoname_downlevel.obj
 0002:000099a4       ??_C@_15EDMHLDMO@?$AAc?$AAa?$AA?$AA@ 1006e9a4     libucrt:lcidtoname_downlevel.obj
 0002:000099ac       ??_C@_1O@BPEAJADD@?$AAz?$AAh?$AA?9?$AAC?$AAH?$AAS?$AA?$AA@ 1006e9ac     libucrt:lcidtoname_downlevel.obj
 0002:000099bc       ??_C@_15LJNHCMNK@?$AAc?$AAs?$AA?$AA@ 1006e9bc     libucrt:lcidtoname_downlevel.obj
 0002:000099c4       ??_C@_15FOMCIDHG@?$AAd?$AAa?$AA?$AA@ 1006e9c4     libucrt:lcidtoname_downlevel.obj
 0002:000099cc       ??_C@_15NBKABECB@?$AAd?$AAe?$AA?$AA@ 1006e9cc     libucrt:lcidtoname_downlevel.obj
 0002:000099d4       ??_C@_15GHPEIIAO@?$AAe?$AAl?$AA?$AA@ 1006e9d4     libucrt:lcidtoname_downlevel.obj
 0002:000099dc       ??_C@_15MNPNEAIF@?$AAe?$AAn?$AA?$AA@ 1006e9dc     libucrt:lcidtoname_downlevel.obj
 0002:000099e4       ??_C@_15GPIOMPMH@?$AAe?$AAs?$AA?$AA@ 1006e9e4     libucrt:lcidtoname_downlevel.obj
 0002:000099ec       ??_C@_15NGLOAKJC@?$AAf?$AAi?$AA?$AA@ 1006e9ec     libucrt:lcidtoname_downlevel.obj
 0002:000099f4       ??_C@_15FBKGNKAM@?$AAf?$AAr?$AA?$AA@ 1006e9f4     libucrt:lcidtoname_downlevel.obj
 0002:000099fc       ??_C@_15KGGCNEFK@?$AAh?$AAe?$AA?$AA@ 1006e9fc     libucrt:lcidtoname_downlevel.obj
 0002:00009a04       ??_C@_15PGHLIDMF@?$AAh?$AAu?$AA?$AA@ 1006ea04     libucrt:lcidtoname_downlevel.obj
 0002:00009a0c       ??_C@_15BIEMAPLM@?$AAi?$AAs?$AA?$AA@ 1006ea0c     libucrt:lcidtoname_downlevel.obj
 0002:00009a14       ??_C@_15IFJLDHAF@?$AAi?$AAt?$AA?$AA@ 1006ea14     libucrt:lcidtoname_downlevel.obj
 0002:00009a1c       ??_C@_15GEMIOCAG@?$AAj?$AAa?$AA?$AA@ 1006ea1c     libucrt:lcidtoname_downlevel.obj
 0002:00009a24       ??_C@_15EPELEGJA@?$AAk?$AAo?$AA?$AA@ 1006ea24     libucrt:lcidtoname_downlevel.obj
 0002:00009a2c       ??_C@_15NDDHIMN@?$AAn?$AAl?$AA?$AA@ 1006ea2c     libucrt:lcidtoname_downlevel.obj
 0002:00009a34       ??_C@_15BPIGNHCD@?$AAn?$AAo?$AA?$AA@ 1006ea34     libucrt:lcidtoname_downlevel.obj
 0002:00009a3c       ??_C@_15DEOPBLCG@?$AAp?$AAl?$AA?$AA@ 1006ea3c     libucrt:lcidtoname_downlevel.obj
 0002:00009a44       ??_C@_15KBECGEFG@?$AAp?$AAt?$AA?$AA@ 1006ea44     libucrt:lcidtoname_downlevel.obj
 0002:00009a4c       ??_C@_15GLJCBFMD@?$AAr?$AAo?$AA?$AA@ 1006ea4c     libucrt:lcidtoname_downlevel.obj
 0002:00009a54       ??_C@_15FEDGKCDI@?$AAr?$AAu?$AA?$AA@ 1006ea54     libucrt:lcidtoname_downlevel.obj
 0002:00009a5c       ??_C@_15GLKMLLHM@?$AAh?$AAr?$AA?$AA@ 1006ea5c     libucrt:lcidtoname_downlevel.obj
 0002:00009a64       ??_C@_15CPKMFBDB@?$AAs?$AAk?$AA?$AA@ 1006ea64     libucrt:lcidtoname_downlevel.obj
 0002:00009a6c       ??_C@_15BAAIOGMK@?$AAs?$AAq?$AA?$AA@ 1006ea6c     libucrt:lcidtoname_downlevel.obj
 0002:00009a74       ??_C@_15INNPNOHD@?$AAs?$AAv?$AA?$AA@ 1006ea74     libucrt:lcidtoname_downlevel.obj
 0002:00009a7c       ??_C@_15CABMMOGH@?$AAt?$AAh?$AA?$AA@ 1006ea7c     libucrt:lcidtoname_downlevel.obj
 0002:00009a84       ??_C@_15BPLIHJJM@?$AAt?$AAr?$AA?$AA@ 1006ea84     libucrt:lcidtoname_downlevel.obj
 0002:00009a8c       ??_C@_15NEOEKKDJ@?$AAu?$AAr?$AA?$AA@ 1006ea8c     libucrt:lcidtoname_downlevel.obj
 0002:00009a94       ??_C@_15NFICGAJK@?$AAi?$AAd?$AA?$AA@ 1006ea94     libucrt:lcidtoname_downlevel.obj
 0002:00009a9c       ??_C@_15PJPFLCCM@?$AAu?$AAk?$AA?$AA@ 1006ea9c     libucrt:lcidtoname_downlevel.obj
 0002:00009aa4       ??_C@_15HPJPHDM@?$AAb?$AAe?$AA?$AA@ 1006eaa4     libucrt:lcidtoname_downlevel.obj
 0002:00009aac       ??_C@_15LCHLGJII@?$AAs?$AAl?$AA?$AA@ 1006eaac     libucrt:lcidtoname_downlevel.obj
 0002:00009ab4       ??_C@_15PCFJPHHO@?$AAe?$AAt?$AA?$AA@ 1006eab4     libucrt:lcidtoname_downlevel.obj
 0002:00009abc       ??_C@_15HPFPGODN@?$AAl?$AAv?$AA?$AA@ 1006eabc     libucrt:lcidtoname_downlevel.obj
 0002:00009ac4       ??_C@_15NFFGKGLG@?$AAl?$AAt?$AA?$AA@ 1006eac4     libucrt:lcidtoname_downlevel.obj
 0002:00009acc       ??_C@_15BDAKCCHN@?$AAf?$AAa?$AA?$AA@ 1006eacc     libucrt:lcidtoname_downlevel.obj
 0002:00009ad4       ??_C@_15NFGIAIAJ@?$AAv?$AAi?$AA?$AA@ 1006ead4     libucrt:lcidtoname_downlevel.obj
 0002:00009adc       ??_C@_15LMKNDMHN@?$AAh?$AAy?$AA?$AA@ 1006eadc     libucrt:lcidtoname_downlevel.obj
 0002:00009ae4       ??_C@_15IJBHMCFL@?$AAa?$AAz?$AA?$AA@ 1006eae4     libucrt:lcidtoname_downlevel.obj
 0002:00009aec       ??_C@_15EKOFJABL@?$AAe?$AAu?$AA?$AA@ 1006eaec     libucrt:lcidtoname_downlevel.obj
 0002:00009af4       ??_C@_15BGHADCNK@?$AAm?$AAk?$AA?$AA@ 1006eaf4     libucrt:lcidtoname_downlevel.obj
 0002:00009afc       ??_C@_15JDNICKHM@?$AAa?$AAf?$AA?$AA@ 1006eafc     libucrt:lcidtoname_downlevel.obj
 0002:00009b04       ??_C@_15KPJEDBKD@?$AAk?$AAa?$AA?$AA@ 1006eb04     libucrt:lcidtoname_downlevel.obj
 0002:00009b0c       ??_C@_15PDNFFFEO@?$AAf?$AAo?$AA?$AA@ 1006eb0c     libucrt:lcidtoname_downlevel.obj
 0002:00009b14       ??_C@_15OMLEGLOC@?$AAh?$AAi?$AA?$AA@ 1006eb14     libucrt:lcidtoname_downlevel.obj
 0002:00009b1c       ??_C@_15IDNNENKK@?$AAm?$AAs?$AA?$AA@ 1006eb1c     libucrt:lcidtoname_downlevel.obj
 0002:00009b24       ??_C@_15MACJNBMH@?$AAk?$AAk?$AA?$AA@ 1006eb24     libucrt:lcidtoname_downlevel.obj
 0002:00009b2c       ??_C@_15DKDJEOND@?$AAk?$AAy?$AA?$AA@ 1006eb2c     libucrt:lcidtoname_downlevel.obj
 0002:00009b34       ??_C@_15DFGDLJBG@?$AAs?$AAw?$AA?$AA@ 1006eb34     libucrt:lcidtoname_downlevel.obj
 0002:00009b3c       ??_C@_15BBFAICNG@?$AAu?$AAz?$AA?$AA@ 1006eb3c     libucrt:lcidtoname_downlevel.obj
 0002:00009b44       ??_C@_15DKNDCGEA@?$AAt?$AAt?$AA?$AA@ 1006eb44     libucrt:lcidtoname_downlevel.obj
 0002:00009b4c       ??_C@_15MGIFMDPL@?$AAp?$AAa?$AA?$AA@ 1006eb4c     libucrt:lcidtoname_downlevel.obj
 0002:00009b54       ??_C@_15HCNDBBA@?$AAg?$AAu?$AA?$AA@ 1006eb54     libucrt:lcidtoname_downlevel.obj
 0002:00009b5c       ??_C@_15FNBEIBON@?$AAt?$AAa?$AA?$AA@ 1006eb5c     libucrt:lcidtoname_downlevel.obj
 0002:00009b64       ??_C@_15NCHGBGLK@?$AAt?$AAe?$AA?$AA@ 1006eb64     libucrt:lcidtoname_downlevel.obj
 0002:00009b6c       ??_C@_15PHPHCBPF@?$AAk?$AAn?$AA?$AA@ 1006eb6c     libucrt:lcidtoname_downlevel.obj
 0002:00009b74       ??_C@_15DLGBCKMP@?$AAm?$AAr?$AA?$AA@ 1006eb74     libucrt:lcidtoname_downlevel.obj
 0002:00009b7c       ??_C@_15EABBLBFF@?$AAs?$AAa?$AA?$AA@ 1006eb7c     libucrt:lcidtoname_downlevel.obj
 0002:00009b84       ??_C@_15CBKOMCOI@?$AAm?$AAn?$AA?$AA@ 1006eb84     libucrt:lcidtoname_downlevel.obj
 0002:00009b8c       ??_C@_15CKDMCJAF@?$AAg?$AAl?$AA?$AA@ 1006eb8c     libucrt:lcidtoname_downlevel.obj
 0002:00009b94       ??_C@_17CNJFBPG@?$AAk?$AAo?$AAk?$AA?$AA@ 1006eb94     libucrt:lcidtoname_downlevel.obj
 0002:00009ba0       ??_C@_17FFBJICPL@?$AAs?$AAy?$AAr?$AA?$AA@ 1006eba0     libucrt:lcidtoname_downlevel.obj
 0002:00009bac       ??_C@_17KPNDCPAF@?$AAd?$AAi?$AAv?$AA?$AA@ 1006ebac     libucrt:lcidtoname_downlevel.obj
 0002:00009bb8       ??_C@_11LOCGONAA@?$AA?$AA@ 1006ebb8     libucrt:lcidtoname_downlevel.obj
 0002:00009bbc       ??_C@_1M@OKAHONE@?$AAa?$AAr?$AA?9?$AAS?$AAA?$AA?$AA@ 1006ebbc     libucrt:lcidtoname_downlevel.obj
 0002:00009bcc       ??_C@_1M@FFFIGIGK@?$AAb?$AAg?$AA?9?$AAB?$AAG?$AA?$AA@ 1006ebcc     libucrt:lcidtoname_downlevel.obj
 0002:00009bdc       ??_C@_1M@BJNKEDC@?$AAc?$AAa?$AA?9?$AAE?$AAS?$AA?$AA@ 1006ebdc     libucrt:lcidtoname_downlevel.obj
 0002:00009bec       ??_C@_1M@IJJHFJHA@?$AAc?$AAs?$AA?9?$AAC?$AAZ?$AA?$AA@ 1006ebec     libucrt:lcidtoname_downlevel.obj
 0002:00009bfc       ??_C@_1M@CLPEOBGI@?$AAd?$AAa?$AA?9?$AAD?$AAK?$AA?$AA@ 1006ebfc     libucrt:lcidtoname_downlevel.obj
 0002:00009c0c       ??_C@_1M@MCMADGCB@?$AAd?$AAe?$AA?9?$AAD?$AAE?$AA?$AA@ 1006ec0c     libucrt:lcidtoname_downlevel.obj
 0002:00009c1c       ??_C@_1M@OOCKEMAM@?$AAe?$AAl?$AA?9?$AAG?$AAR?$AA?$AA@ 1006ec1c     libucrt:lcidtoname_downlevel.obj
 0002:00009c2c       ??_C@_1M@DDNJFGID@?$AAf?$AAi?$AA?9?$AAF?$AAI?$AA?$AA@ 1006ec2c     libucrt:lcidtoname_downlevel.obj
 0002:00009c3c       ??_C@_1M@GLIPPMAC@?$AAf?$AAr?$AA?9?$AAF?$AAR?$AA?$AA@ 1006ec3c     libucrt:lcidtoname_downlevel.obj
 0002:00009c4c       ??_C@_1M@GFMCHPE@?$AAh?$AAe?$AA?9?$AAI?$AAL?$AA?$AA@ 1006ec4c     libucrt:lcidtoname_downlevel.obj
 0002:00009c5c       ??_C@_1M@MHLPGNKM@?$AAh?$AAu?$AA?9?$AAH?$AAU?$AA?$AA@ 1006ec5c     libucrt:lcidtoname_downlevel.obj
 0002:00009c6c       ??_C@_1M@LPDDNNPN@?$AAi?$AAs?$AA?9?$AAI?$AAS?$AA?$AA@ 1006ec6c     libucrt:lcidtoname_downlevel.obj
 0002:00009c7c       ??_C@_1M@MADIPODN@?$AAi?$AAt?$AA?9?$AAI?$AAT?$AA?$AA@ 1006ec7c     libucrt:lcidtoname_downlevel.obj
 0002:00009c8c       ??_C@_1M@IHBJJGG@?$AAn?$AAl?$AA?9?$AAN?$AAL?$AA?$AA@ 1006ec8c     libucrt:lcidtoname_downlevel.obj
 0002:00009c9c       ??_C@_1M@EANAGDL@?$AAn?$AAb?$AA?9?$AAN?$AAO?$AA?$AA@ 1006ec9c     libucrt:lcidtoname_downlevel.obj
 0002:00009cac       ??_C@_1M@NEIEMEGP@?$AAp?$AAl?$AA?9?$AAP?$AAL?$AA?$AA@ 1006ecac     libucrt:lcidtoname_downlevel.obj
 0002:00009cbc       ??_C@_1M@BOCFIGEP@?$AAp?$AAt?$AA?9?$AAB?$AAR?$AA?$AA@ 1006ecbc     libucrt:lcidtoname_downlevel.obj
 0002:00009ccc       ??_C@_1M@IMPFOPBG@?$AAr?$AAo?$AA?9?$AAR?$AAO?$AA?$AA@ 1006eccc     libucrt:lcidtoname_downlevel.obj
 0002:00009cdc       ??_C@_1M@IDNNEJMM@?$AAr?$AAu?$AA?9?$AAR?$AAU?$AA?$AA@ 1006ecdc     libucrt:lcidtoname_downlevel.obj
 0002:00009cec       ??_C@_1M@LILEEOGM@?$AAh?$AAr?$AA?9?$AAH?$AAR?$AA?$AA@ 1006ecec     libucrt:lcidtoname_downlevel.obj
 0002:00009cfc       ??_C@_1M@FKIFEHPB@?$AAs?$AAk?$AA?9?$AAS?$AAK?$AA?$AA@ 1006ecfc     libucrt:lcidtoname_downlevel.obj
 0002:00009d0c       ??_C@_1M@LJMAMNPJ@?$AAs?$AAq?$AA?9?$AAA?$AAL?$AA?$AA@ 1006ed0c     libucrt:lcidtoname_downlevel.obj
 0002:00009d1c       ??_C@_1M@GIAKDKJK@?$AAs?$AAv?$AA?9?$AAS?$AAE?$AA?$AA@ 1006ed1c     libucrt:lcidtoname_downlevel.obj
 0002:00009d2c       ??_C@_1M@MKJKIKCL@?$AAt?$AAh?$AA?9?$AAT?$AAH?$AA?$AA@ 1006ed2c     libucrt:lcidtoname_downlevel.obj
 0002:00009d3c       ??_C@_1M@MFLCCMPB@?$AAt?$AAr?$AA?9?$AAT?$AAR?$AA?$AA@ 1006ed3c     libucrt:lcidtoname_downlevel.obj
 0002:00009d4c       ??_C@_1M@OIJHDKJN@?$AAu?$AAr?$AA?9?$AAP?$AAK?$AA?$AA@ 1006ed4c     libucrt:lcidtoname_downlevel.obj
 0002:00009d5c       ??_C@_1M@LHIPCIEK@?$AAi?$AAd?$AA?9?$AAI?$AAD?$AA?$AA@ 1006ed5c     libucrt:lcidtoname_downlevel.obj
 0002:00009d6c       ??_C@_1M@MFMOBGI@?$AAu?$AAk?$AA?9?$AAU?$AAA?$AA?$AA@ 1006ed6c     libucrt:lcidtoname_downlevel.obj
 0002:00009d7c       ??_C@_1M@OBGLJIPL@?$AAb?$AAe?$AA?9?$AAB?$AAY?$AA?$AA@ 1006ed7c     libucrt:lcidtoname_downlevel.obj
 0002:00009d8c       ??_C@_1M@BCFAJEAD@?$AAs?$AAl?$AA?9?$AAS?$AAI?$AA?$AA@ 1006ed8c     libucrt:lcidtoname_downlevel.obj
 0002:00009d9c       ??_C@_1M@FKFFEDDN@?$AAe?$AAt?$AA?9?$AAE?$AAE?$AA?$AA@ 1006ed9c     libucrt:lcidtoname_downlevel.obj
 0002:00009dac       ??_C@_1M@KGKKAACI@?$AAl?$AAv?$AA?9?$AAL?$AAV?$AA?$AA@ 1006edac     libucrt:lcidtoname_downlevel.obj
 0002:00009dbc       ??_C@_1M@IFGBIJO@?$AAl?$AAt?$AA?9?$AAL?$AAT?$AA?$AA@ 1006edbc     libucrt:lcidtoname_downlevel.obj
 0002:00009dcc       ??_C@_1M@FGEAHEDM@?$AAf?$AAa?$AA?9?$AAI?$AAR?$AA?$AA@ 1006edcc     libucrt:lcidtoname_downlevel.obj
 0002:00009ddc       ??_C@_1M@KBMAIBFN@?$AAv?$AAi?$AA?9?$AAV?$AAN?$AA?$AA@ 1006eddc     libucrt:lcidtoname_downlevel.obj
 0002:00009dec       ??_C@_1M@GPCBKDJK@?$AAh?$AAy?$AA?9?$AAA?$AAM?$AA?$AA@ 1006edec     libucrt:lcidtoname_downlevel.obj
 0002:00009dfc       ??_C@_1BG@BECMDDJB@?$AAa?$AAz?$AA?9?$AAA?$AAZ?$AA?9?$AAL?$AAa?$AAt?$AAn?$AA?$AA@ 1006edfc     libucrt:lcidtoname_downlevel.obj
 0002:00009e18       ??_C@_1M@MAOFCAEA@?$AAe?$AAu?$AA?9?$AAE?$AAS?$AA?$AA@ 1006ee18     libucrt:lcidtoname_downlevel.obj
 0002:00009e28       ??_C@_1M@IGHABKPI@?$AAm?$AAk?$AA?9?$AAM?$AAK?$AA?$AA@ 1006ee28     libucrt:lcidtoname_downlevel.obj
 0002:00009e38       ??_C@_1M@IAIGNEJG@?$AAt?$AAn?$AA?9?$AAZ?$AAA?$AA?$AA@ 1006ee38     libucrt:lcidtoname_downlevel.obj
 0002:00009e48       ??_C@_1M@IIJCOJFA@?$AAx?$AAh?$AA?9?$AAZ?$AAA?$AA?$AA@ 1006ee48     libucrt:lcidtoname_downlevel.obj
 0002:00009e58       ??_C@_1M@LGPJHNJH@?$AAz?$AAu?$AA?9?$AAZ?$AAA?$AA?$AA@ 1006ee58     libucrt:lcidtoname_downlevel.obj
 0002:00009e68       ??_C@_1M@HOKAOIO@?$AAa?$AAf?$AA?9?$AAZ?$AAA?$AA?$AA@ 1006ee68     libucrt:lcidtoname_downlevel.obj
 0002:00009e78       ??_C@_1M@DPCLHLIE@?$AAk?$AAa?$AA?9?$AAG?$AAE?$AA?$AA@ 1006ee78     libucrt:lcidtoname_downlevel.obj
 0002:00009e88       ??_C@_1M@BLKMHJBI@?$AAf?$AAo?$AA?9?$AAF?$AAO?$AA?$AA@ 1006ee88     libucrt:lcidtoname_downlevel.obj
 0002:00009e98       ??_C@_1M@LGGJAPPB@?$AAh?$AAi?$AA?9?$AAI?$AAN?$AA?$AA@ 1006ee98     libucrt:lcidtoname_downlevel.obj
 0002:00009ea8       ??_C@_1M@FIKPIHFE@?$AAm?$AAt?$AA?9?$AAM?$AAT?$AA?$AA@ 1006eea8     libucrt:lcidtoname_downlevel.obj
 0002:00009eb8       ??_C@_1M@HEGGPBFA@?$AAs?$AAe?$AA?9?$AAN?$AAO?$AA?$AA@ 1006eeb8     libucrt:lcidtoname_downlevel.obj
 0002:00009ec8       ??_C@_1M@EIBJEEPA@?$AAm?$AAs?$AA?9?$AAM?$AAY?$AA?$AA@ 1006eec8     libucrt:lcidtoname_downlevel.obj
 0002:00009ed8       ??_C@_1M@FHLBGMPP@?$AAk?$AAk?$AA?9?$AAK?$AAZ?$AA?$AA@ 1006eed8     libucrt:lcidtoname_downlevel.obj
 0002:00009ee8       ??_C@_1M@NGJJLCGI@?$AAk?$AAy?$AA?9?$AAK?$AAG?$AA?$AA@ 1006eee8     libucrt:lcidtoname_downlevel.obj
 0002:00009ef8       ??_C@_1M@GIENNBFC@?$AAs?$AAw?$AA?9?$AAK?$AAE?$AA?$AA@ 1006eef8     libucrt:lcidtoname_downlevel.obj
 0002:00009f08       ??_C@_1BG@NDGMJIMJ@?$AAu?$AAz?$AA?9?$AAU?$AAZ?$AA?9?$AAL?$AAa?$AAt?$AAn?$AA?$AA@ 1006ef08     libucrt:lcidtoname_downlevel.obj
 0002:00009f24       ??_C@_1M@IDCCIHBC@?$AAt?$AAt?$AA?9?$AAR?$AAU?$AA?$AA@ 1006ef24     libucrt:lcidtoname_downlevel.obj
 0002:00009f34       ??_C@_1M@LOICPMOJ@?$AAb?$AAn?$AA?9?$AAI?$AAN?$AA?$AA@ 1006ef34     libucrt:lcidtoname_downlevel.obj
 0002:00009f44       ??_C@_1M@KPKKNEAH@?$AAp?$AAa?$AA?9?$AAI?$AAN?$AA?$AA@ 1006ef44     libucrt:lcidtoname_downlevel.obj
 0002:00009f54       ??_C@_1M@PJGPPBOG@?$AAg?$AAu?$AA?9?$AAI?$AAN?$AA?$AA@ 1006ef54     libucrt:lcidtoname_downlevel.obj
 0002:00009f64       ??_C@_1M@KMKMOPHI@?$AAt?$AAa?$AA?9?$AAI?$AAN?$AA?$AA@ 1006ef64     libucrt:lcidtoname_downlevel.obj
 0002:00009f74       ??_C@_1M@KFEHEPAC@?$AAt?$AAe?$AA?9?$AAI?$AAN?$AA?$AA@ 1006ef74     libucrt:lcidtoname_downlevel.obj
 0002:00009f84       ??_C@_1M@CDCLMGHI@?$AAk?$AAn?$AA?9?$AAI?$AAN?$AA?$AA@ 1006ef84     libucrt:lcidtoname_downlevel.obj
 0002:00009f94       ??_C@_1M@MIODLDKF@?$AAm?$AAl?$AA?9?$AAI?$AAN?$AA?$AA@ 1006ef94     libucrt:lcidtoname_downlevel.obj
 0002:00009fa4       ??_C@_1M@PBIEACPO@?$AAm?$AAr?$AA?9?$AAI?$AAN?$AA?$AA@ 1006efa4     libucrt:lcidtoname_downlevel.obj
 0002:00009fb4       ??_C@_1M@NIDEAGPH@?$AAs?$AAa?$AA?9?$AAI?$AAN?$AA?$AA@ 1006efb4     libucrt:lcidtoname_downlevel.obj
 0002:00009fc4       ??_C@_1M@FHIHCBIO@?$AAm?$AAn?$AA?9?$AAM?$AAN?$AA?$AA@ 1006efc4     libucrt:lcidtoname_downlevel.obj
 0002:00009fd4       ??_C@_1M@JAIJPENP@?$AAc?$AAy?$AA?9?$AAG?$AAB?$AA?$AA@ 1006efd4     libucrt:lcidtoname_downlevel.obj
 0002:00009fe4       ??_C@_1M@PHGFBEPN@?$AAg?$AAl?$AA?9?$AAE?$AAS?$AA?$AA@ 1006efe4     libucrt:lcidtoname_downlevel.obj
 0002:00009ff4       ??_C@_1O@KPIPDNCP@?$AAk?$AAo?$AAk?$AA?9?$AAI?$AAN?$AA?$AA@ 1006eff4     libucrt:lcidtoname_downlevel.obj
 0002:0000a004       ??_C@_1O@KNHJLDJA@?$AAs?$AAy?$AAr?$AA?9?$AAS?$AAY?$AA?$AA@ 1006f004     libucrt:lcidtoname_downlevel.obj
 0002:0000a014       ??_C@_1O@MKEKBLAH@?$AAd?$AAi?$AAv?$AA?9?$AAM?$AAV?$AA?$AA@ 1006f014     libucrt:lcidtoname_downlevel.obj
 0002:0000a024       ??_C@_1O@OHDCKDDF@?$AAq?$AAu?$AAz?$AA?9?$AAB?$AAO?$AA?$AA@ 1006f024     libucrt:lcidtoname_downlevel.obj
 0002:0000a034       ??_C@_1M@LEPJNLFD@?$AAn?$AAs?$AA?9?$AAZ?$AAA?$AA?$AA@ 1006f034     libucrt:lcidtoname_downlevel.obj
 0002:0000a044       ??_C@_1M@OMLEIIJB@?$AAm?$AAi?$AA?9?$AAN?$AAZ?$AA?$AA@ 1006f044     libucrt:lcidtoname_downlevel.obj
 0002:0000a054       ??_C@_1M@PMPEAILG@?$AAa?$AAr?$AA?9?$AAI?$AAQ?$AA?$AA@ 1006f054     libucrt:lcidtoname_downlevel.obj
 0002:0000a064       ??_C@_1M@CNKPNOEE@?$AAd?$AAe?$AA?9?$AAC?$AAH?$AA?$AA@ 1006f064     libucrt:lcidtoname_downlevel.obj
 0002:0000a074       ??_C@_1M@LKMGMLKO@?$AAe?$AAn?$AA?9?$AAG?$AAB?$AA?$AA@ 1006f074     libucrt:lcidtoname_downlevel.obj
 0002:0000a084       ??_C@_1M@PGKJFFGL@?$AAe?$AAs?$AA?9?$AAM?$AAX?$AA?$AA@ 1006f084     libucrt:lcidtoname_downlevel.obj
 0002:0000a094       ??_C@_1M@DNNANBDC@?$AAf?$AAr?$AA?9?$AAB?$AAE?$AA?$AA@ 1006f094     libucrt:lcidtoname_downlevel.obj
 0002:0000a0a4       ??_C@_1M@HLGMDFHM@?$AAi?$AAt?$AA?9?$AAC?$AAH?$AA?$AA@ 1006f0a4     libucrt:lcidtoname_downlevel.obj
 0002:0000a0b4       ??_C@_1M@CLLBGJH@?$AAn?$AAl?$AA?9?$AAB?$AAE?$AA?$AA@ 1006f0b4     libucrt:lcidtoname_downlevel.obj
 0002:0000a0c4       ??_C@_1M@BODBOGLF@?$AAn?$AAn?$AA?9?$AAN?$AAO?$AA?$AA@ 1006f0c4     libucrt:lcidtoname_downlevel.obj
 0002:0000a0d4       ??_C@_1M@HFFAHKAD@?$AAp?$AAt?$AA?9?$AAP?$AAT?$AA?$AA@ 1006f0d4     libucrt:lcidtoname_downlevel.obj
 0002:0000a0e4       ??_C@_1BG@LNOAKHIE@?$AAs?$AAr?$AA?9?$AAS?$AAP?$AA?9?$AAL?$AAa?$AAt?$AAn?$AA?$AA@ 1006f0e4     libucrt:lcidtoname_downlevel.obj
 0002:0000a100       ??_C@_1M@HBMHBGAK@?$AAs?$AAv?$AA?9?$AAF?$AAI?$AA?$AA@ 1006f100     libucrt:lcidtoname_downlevel.obj
 0002:0000a110       ??_C@_1BG@DGCJGJBE@?$AAa?$AAz?$AA?9?$AAA?$AAZ?$AA?9?$AAC?$AAy?$AAr?$AAl?$AA?$AA@ 1006f110     libucrt:lcidtoname_downlevel.obj
 0002:0000a12c       ??_C@_1M@KEJDAAHB@?$AAs?$AAe?$AA?9?$AAS?$AAE?$AA?$AA@ 1006f12c     libucrt:lcidtoname_downlevel.obj
 0002:0000a13c       ??_C@_1M@HEIBJJAD@?$AAm?$AAs?$AA?9?$AAB?$AAN?$AA?$AA@ 1006f13c     libucrt:lcidtoname_downlevel.obj
 0002:0000a14c       ??_C@_1BG@PBGJMCEM@?$AAu?$AAz?$AA?9?$AAU?$AAZ?$AA?9?$AAC?$AAy?$AAr?$AAl?$AA?$AA@ 1006f14c     libucrt:lcidtoname_downlevel.obj
 0002:0000a168       ??_C@_1O@LAOBCMDF@?$AAq?$AAu?$AAz?$AA?9?$AAE?$AAC?$AA?$AA@ 1006f168     libucrt:lcidtoname_downlevel.obj
 0002:0000a178       ??_C@_1M@POEEMAIO@?$AAa?$AAr?$AA?9?$AAE?$AAG?$AA?$AA@ 1006f178     libucrt:lcidtoname_downlevel.obj
 0002:0000a188       ??_C@_1M@EFAKDEDL@?$AAz?$AAh?$AA?9?$AAH?$AAK?$AA?$AA@ 1006f188     libucrt:lcidtoname_downlevel.obj
 0002:0000a198       ??_C@_1M@HKKIJHGI@?$AAd?$AAe?$AA?9?$AAA?$AAT?$AA?$AA@ 1006f198     libucrt:lcidtoname_downlevel.obj
 0002:0000a1a8       ??_C@_1M@KBFBEHJF@?$AAe?$AAn?$AA?9?$AAA?$AAU?$AA?$AA@ 1006f1a8     libucrt:lcidtoname_downlevel.obj
 0002:0000a1b8       ??_C@_1M@MNPLFAAH@?$AAe?$AAs?$AA?9?$AAE?$AAS?$AA?$AA@ 1006f1b8     libucrt:lcidtoname_downlevel.obj
 0002:0000a1c8       ??_C@_1M@HJOOJFMA@?$AAf?$AAr?$AA?9?$AAC?$AAA?$AA?$AA@ 1006f1c8     libucrt:lcidtoname_downlevel.obj
 0002:0000a1d8       ??_C@_1BG@JPOFPNAB@?$AAs?$AAr?$AA?9?$AAS?$AAP?$AA?9?$AAC?$AAy?$AAr?$AAl?$AA?$AA@ 1006f1d8     libucrt:lcidtoname_downlevel.obj
 0002:0000a1f4       ??_C@_1M@LNFOCMOB@?$AAs?$AAe?$AA?9?$AAF?$AAI?$AA?$AA@ 1006f1f4     libucrt:lcidtoname_downlevel.obj
 0002:0000a204       ??_C@_1O@MGJBOAMB@?$AAq?$AAu?$AAz?$AA?9?$AAP?$AAE?$AA?$AA@ 1006f204     libucrt:lcidtoname_downlevel.obj
 0002:0000a214       ??_C@_1M@GJINLBOK@?$AAa?$AAr?$AA?9?$AAL?$AAY?$AA?$AA@ 1006f214     libucrt:lcidtoname_downlevel.obj
 0002:0000a224       ??_C@_1M@GGMNHJNL@?$AAz?$AAh?$AA?9?$AAS?$AAG?$AA?$AA@ 1006f224     libucrt:lcidtoname_downlevel.obj
 0002:0000a234       ??_C@_1M@HOIKODND@?$AAd?$AAe?$AA?9?$AAL?$AAU?$AA?$AA@ 1006f234     libucrt:lcidtoname_downlevel.obj
 0002:0000a244       ??_C@_1M@DDOCCGFG@?$AAe?$AAn?$AA?9?$AAC?$AAA?$AA?$AA@ 1006f244     libucrt:lcidtoname_downlevel.obj
 0002:0000a254       ??_C@_1M@BNOEMJLF@?$AAe?$AAs?$AA?9?$AAG?$AAT?$AA?$AA@ 1006f254     libucrt:lcidtoname_downlevel.obj
 0002:0000a264       ??_C@_1M@EOGNKEK@?$AAf?$AAr?$AA?9?$AAC?$AAH?$AA?$AA@ 1006f264     libucrt:lcidtoname_downlevel.obj
 0002:0000a274       ??_C@_1M@FLIDJFHL@?$AAh?$AAr?$AA?9?$AAB?$AAA?$AA?$AA@ 1006f274     libucrt:lcidtoname_downlevel.obj
 0002:0000a284       ??_C@_1O@FMCELNAJ@?$AAs?$AAm?$AAj?$AA?9?$AAN?$AAO?$AA?$AA@ 1006f284     libucrt:lcidtoname_downlevel.obj
 0002:0000a294       ??_C@_1M@JHGLJMGJ@?$AAa?$AAr?$AA?9?$AAD?$AAZ?$AA?$AA@ 1006f294     libucrt:lcidtoname_downlevel.obj
 0002:0000a2a4       ??_C@_1M@JKKFDCNP@?$AAz?$AAh?$AA?9?$AAM?$AAO?$AA?$AA@ 1006f2a4     libucrt:lcidtoname_downlevel.obj
 0002:0000a2b4       ??_C@_1M@GEEFALPE@?$AAd?$AAe?$AA?9?$AAL?$AAI?$AA?$AA@ 1006f2b4     libucrt:lcidtoname_downlevel.obj
 0002:0000a2c4       ??_C@_1M@IGEOFBG@?$AAe?$AAn?$AA?9?$AAN?$AAZ?$AA?$AA@ 1006f2c4     libucrt:lcidtoname_downlevel.obj
 0002:0000a2d4       ??_C@_1M@KDBONEHP@?$AAe?$AAs?$AA?9?$AAC?$AAR?$AA?$AA@ 1006f2d4     libucrt:lcidtoname_downlevel.obj
 0002:0000a2e4       ??_C@_1M@FHMDOHNN@?$AAf?$AAr?$AA?9?$AAL?$AAU?$AA?$AA@ 1006f2e4     libucrt:lcidtoname_downlevel.obj
 0002:0000a2f4       ??_C@_1BG@NFKKMAFG@?$AAb?$AAs?$AA?9?$AAB?$AAA?$AA?9?$AAL?$AAa?$AAt?$AAn?$AA?$AA@ 1006f2f4     libucrt:lcidtoname_downlevel.obj
 0002:0000a310       ??_C@_1O@IMNBEMCI@?$AAs?$AAm?$AAj?$AA?9?$AAS?$AAE?$AA?$AA@ 1006f310     libucrt:lcidtoname_downlevel.obj
 0002:0000a320       ??_C@_1M@DHHMBNDP@?$AAa?$AAr?$AA?9?$AAM?$AAA?$AA?$AA@ 1006f320     libucrt:lcidtoname_downlevel.obj
 0002:0000a330       ??_C@_1M@BNBLJCGH@?$AAe?$AAn?$AA?9?$AAI?$AAE?$AA?$AA@ 1006f330     libucrt:lcidtoname_downlevel.obj
 0002:0000a340       ??_C@_1M@GEPAFMDL@?$AAe?$AAs?$AA?9?$AAP?$AAA?$AA?$AA@ 1006f340     libucrt:lcidtoname_downlevel.obj
 0002:0000a350       ??_C@_1M@OJONDMDL@?$AAf?$AAr?$AA?9?$AAM?$AAC?$AA?$AA@ 1006f350     libucrt:lcidtoname_downlevel.obj
 0002:0000a360       ??_C@_1BG@OBCNFJB@?$AAs?$AAr?$AA?9?$AAB?$AAA?$AA?9?$AAL?$AAa?$AAt?$AAn?$AA?$AA@ 1006f360     libucrt:lcidtoname_downlevel.obj
 0002:0000a37c       ??_C@_1O@KEMEEGPO@?$AAs?$AAm?$AAa?$AA?9?$AAN?$AAO?$AA?$AA@ 1006f37c     libucrt:lcidtoname_downlevel.obj
 0002:0000a38c       ??_C@_1M@ELMGFODK@?$AAa?$AAr?$AA?9?$AAT?$AAN?$AA?$AA@ 1006f38c     libucrt:lcidtoname_downlevel.obj
 0002:0000a39c       ??_C@_1M@BHDLHFAF@?$AAe?$AAn?$AA?9?$AAZ?$AAA?$AA?$AA@ 1006f39c     libucrt:lcidtoname_downlevel.obj
 0002:0000a3ac       ??_C@_1M@BMGIGLIF@?$AAe?$AAs?$AA?9?$AAD?$AAO?$AA?$AA@ 1006f3ac     libucrt:lcidtoname_downlevel.obj
 0002:0000a3bc       ??_C@_1BG@CMBHIPBE@?$AAs?$AAr?$AA?9?$AAB?$AAA?$AA?9?$AAC?$AAy?$AAr?$AAl?$AA?$AA@ 1006f3bc     libucrt:lcidtoname_downlevel.obj
 0002:0000a3d8       ??_C@_1O@HEDBLHNP@?$AAs?$AAm?$AAa?$AA?9?$AAS?$AAE?$AA?$AA@ 1006f3d8     libucrt:lcidtoname_downlevel.obj
 0002:0000a3e8       ??_C@_1M@DAGCADIM@?$AAa?$AAr?$AA?9?$AAO?$AAM?$AA?$AA@ 1006f3e8     libucrt:lcidtoname_downlevel.obj
 0002:0000a3f8       ??_C@_1M@FODLMICG@?$AAe?$AAn?$AA?9?$AAJ?$AAM?$AA?$AA@ 1006f3f8     libucrt:lcidtoname_downlevel.obj
 0002:0000a408       ??_C@_1M@DNMLCIHB@?$AAe?$AAs?$AA?9?$AAV?$AAE?$AA?$AA@ 1006f408     libucrt:lcidtoname_downlevel.obj
 0002:0000a418       ??_C@_1O@EOKHMKJK@?$AAs?$AAm?$AAs?$AA?9?$AAF?$AAI?$AA?$AA@ 1006f418     libucrt:lcidtoname_downlevel.obj
 0002:0000a428       ??_C@_1M@CAFJMKOF@?$AAa?$AAr?$AA?9?$AAY?$AAE?$AA?$AA@ 1006f428     libucrt:lcidtoname_downlevel.obj
 0002:0000a438       ??_C@_1M@CBFHIJLI@?$AAe?$AAn?$AA?9?$AAC?$AAB?$AA?$AA@ 1006f438     libucrt:lcidtoname_downlevel.obj
 0002:0000a448       ??_C@_1M@BGNFLDN@?$AAe?$AAs?$AA?9?$AAC?$AAO?$AA?$AA@ 1006f448     libucrt:lcidtoname_downlevel.obj
 0002:0000a458       ??_C@_1O@JMPHMAMC@?$AAs?$AAm?$AAn?$AA?9?$AAF?$AAI?$AA?$AA@ 1006f458     libucrt:lcidtoname_downlevel.obj
 0002:0000a468       ??_C@_1M@JLANABKE@?$AAa?$AAr?$AA?9?$AAS?$AAY?$AA?$AA@ 1006f468     libucrt:lcidtoname_downlevel.obj
 0002:0000a478       ??_C@_1M@HPKGCFGN@?$AAe?$AAn?$AA?9?$AAB?$AAZ?$AA?$AA@ 1006f478     libucrt:lcidtoname_downlevel.obj
 0002:0000a488       ??_C@_1M@OLJCMLGM@?$AAe?$AAs?$AA?9?$AAP?$AAE?$AA?$AA@ 1006f488     libucrt:lcidtoname_downlevel.obj
 0002:0000a498       ??_C@_1M@MKKGFKLE@?$AAa?$AAr?$AA?9?$AAJ?$AAO?$AA?$AA@ 1006f498     libucrt:lcidtoname_downlevel.obj
 0002:0000a4a8       ??_C@_1M@EKPGLDNI@?$AAe?$AAn?$AA?9?$AAT?$AAT?$AA?$AA@ 1006f4a8     libucrt:lcidtoname_downlevel.obj
 0002:0000a4b8       ??_C@_1M@OONGHFHE@?$AAe?$AAs?$AA?9?$AAA?$AAR?$AA?$AA@ 1006f4b8     libucrt:lcidtoname_downlevel.obj
 0002:0000a4c8       ??_C@_1M@OOJFGBHE@?$AAa?$AAr?$AA?9?$AAL?$AAB?$AA?$AA@ 1006f4c8     libucrt:lcidtoname_downlevel.obj
 0002:0000a4d8       ??_C@_1M@GCEJHNEG@?$AAe?$AAn?$AA?9?$AAZ?$AAW?$AA?$AA@ 1006f4d8     libucrt:lcidtoname_downlevel.obj
 0002:0000a4e8       ??_C@_1M@JNOCAHJI@?$AAe?$AAs?$AA?9?$AAE?$AAC?$AA?$AA@ 1006f4e8     libucrt:lcidtoname_downlevel.obj
 0002:0000a4f8       ??_C@_1M@JEFHPGGB@?$AAa?$AAr?$AA?9?$AAK?$AAW?$AA?$AA@ 1006f4f8     libucrt:lcidtoname_downlevel.obj
 0002:0000a508       ??_C@_1M@MLKIBJOJ@?$AAe?$AAn?$AA?9?$AAP?$AAH?$AA?$AA@ 1006f508     libucrt:lcidtoname_downlevel.obj
 0002:0000a518       ??_C@_1M@BDNIPEND@?$AAe?$AAs?$AA?9?$AAC?$AAL?$AA?$AA@ 1006f518     libucrt:lcidtoname_downlevel.obj
 0002:0000a528       ??_C@_1M@MPNMEKBD@?$AAa?$AAr?$AA?9?$AAA?$AAE?$AA?$AA@ 1006f528     libucrt:lcidtoname_downlevel.obj
 0002:0000a538       ??_C@_1M@KBJALCPI@?$AAe?$AAs?$AA?9?$AAU?$AAY?$AA?$AA@ 1006f538     libucrt:lcidtoname_downlevel.obj
 0002:0000a548       ??_C@_1M@LLCCOAGA@?$AAa?$AAr?$AA?9?$AAB?$AAH?$AA?$AA@ 1006f548     libucrt:lcidtoname_downlevel.obj
 0002:0000a558       ??_C@_1M@PBFNCDEL@?$AAe?$AAs?$AA?9?$AAP?$AAY?$AA?$AA@ 1006f558     libucrt:lcidtoname_downlevel.obj
 0002:0000a568       ??_C@_1M@EDGINPNP@?$AAa?$AAr?$AA?9?$AAQ?$AAA?$AA?$AA@ 1006f568     libucrt:lcidtoname_downlevel.obj
 0002:0000a578       ??_C@_1M@MKDBIIJI@?$AAe?$AAs?$AA?9?$AAB?$AAO?$AA?$AA@ 1006f578     libucrt:lcidtoname_downlevel.obj
 0002:0000a588       ??_C@_1M@CPKKEBLD@?$AAe?$AAs?$AA?9?$AAS?$AAV?$AA?$AA@ 1006f588     libucrt:lcidtoname_downlevel.obj
 0002:0000a598       ??_C@_1M@NDBGMMJL@?$AAe?$AAs?$AA?9?$AAH?$AAN?$AA?$AA@ 1006f598     libucrt:lcidtoname_downlevel.obj
 0002:0000a5a8       ??_C@_1M@JIJIBHDP@?$AAe?$AAs?$AA?9?$AAN?$AAI?$AA?$AA@ 1006f5a8     libucrt:lcidtoname_downlevel.obj
 0002:0000a5b8       ??_C@_1M@CGFMKEEK@?$AAe?$AAs?$AA?9?$AAP?$AAR?$AA?$AA@ 1006f5b8     libucrt:lcidtoname_downlevel.obj
 0002:0000a5c8       ??_C@_1O@ICJHKIIK@?$AAz?$AAh?$AA?9?$AAC?$AAH?$AAT?$AA?$AA@ 1006f5c8     libucrt:lcidtoname_downlevel.obj
 0002:0000a5d8       ??_C@_15CLNEJCE@?$AAs?$AAr?$AA?$AA@ 1006f5d8     libucrt:lcidtoname_downlevel.obj
 0002:0000ae6c       ??_C@_1M@KAHEKEIG@?$AAa?$AAf?$AA?9?$AAz?$AAa?$AA?$AA@ 1006fe6c     libucrt:lcidtoname_downlevel.obj
 0002:0000ae7c       ??_C@_1M@GIECOABL@?$AAa?$AAr?$AA?9?$AAa?$AAe?$AA?$AA@ 1006fe7c     libucrt:lcidtoname_downlevel.obj
 0002:0000ae8c       ??_C@_1M@BMLMEKGI@?$AAa?$AAr?$AA?9?$AAb?$AAh?$AA?$AA@ 1006fe8c     libucrt:lcidtoname_downlevel.obj
 0002:0000ae9c       ??_C@_1M@DAPFDGGB@?$AAa?$AAr?$AA?9?$AAd?$AAz?$AA?$AA@ 1006fe9c     libucrt:lcidtoname_downlevel.obj
 0002:0000aeac       ??_C@_1M@FJNKGKIG@?$AAa?$AAr?$AA?9?$AAe?$AAg?$AA?$AA@ 1006feac     libucrt:lcidtoname_downlevel.obj
 0002:0000aebc       ??_C@_1M@FLGKKCLO@?$AAa?$AAr?$AA?9?$AAi?$AAq?$AA?$AA@ 1006febc     libucrt:lcidtoname_downlevel.obj
 0002:0000aecc       ??_C@_1M@GNDIPALM@?$AAa?$AAr?$AA?9?$AAj?$AAo?$AA?$AA@ 1006fecc     libucrt:lcidtoname_downlevel.obj
 0002:0000aedc       ??_C@_1M@DDMJFMGJ@?$AAa?$AAr?$AA?9?$AAk?$AAw?$AA?$AA@ 1006fedc     libucrt:lcidtoname_downlevel.obj
 0002:0000aeec       ??_C@_1M@EJALMLHM@?$AAa?$AAr?$AA?9?$AAl?$AAb?$AA?$AA@ 1006feec     libucrt:lcidtoname_downlevel.obj
 0002:0000aefc       ??_C@_1M@MOBDBLOC@?$AAa?$AAr?$AA?9?$AAl?$AAy?$AA?$AA@ 1006fefc     libucrt:lcidtoname_downlevel.obj
 0002:0000af0c       ??_C@_1M@JAOCLHDH@?$AAa?$AAr?$AA?9?$AAm?$AAa?$AA?$AA@ 1006ff0c     libucrt:lcidtoname_downlevel.obj
 0002:0000af1c       ??_C@_1M@JHPMKJIE@?$AAa?$AAr?$AA?9?$AAo?$AAm?$AA?$AA@ 1006ff1c     libucrt:lcidtoname_downlevel.obj
 0002:0000af2c       ??_C@_1M@OEPGHFNH@?$AAa?$AAr?$AA?9?$AAq?$AAa?$AA?$AA@ 1006ff2c     libucrt:lcidtoname_downlevel.obj
 0002:0000af3c       ??_C@_1M@KJDONENM@?$AAa?$AAr?$AA?9?$AAs?$AAa?$AA?$AA@ 1006ff3c     libucrt:lcidtoname_downlevel.obj
 0002:0000af4c       ??_C@_1M@DMJDKLKM@?$AAa?$AAr?$AA?9?$AAs?$AAy?$AA?$AA@ 1006ff4c     libucrt:lcidtoname_downlevel.obj
 0002:0000af5c       ??_C@_1M@OMFIPEDC@?$AAa?$AAr?$AA?9?$AAt?$AAn?$AA?$AA@ 1006ff5c     libucrt:lcidtoname_downlevel.obj
 0002:0000af6c       ??_C@_1M@IHMHGAON@?$AAa?$AAr?$AA?9?$AAy?$AAe?$AA?$AA@ 1006ff6c     libucrt:lcidtoname_downlevel.obj
 0002:0000af7c       ??_C@_1BG@KDCPGJGB@?$AAa?$AAz?$AA?9?$AAa?$AAz?$AA?9?$AAc?$AAy?$AAr?$AAl?$AA?$AA@ 1006ff7c     libucrt:lcidtoname_downlevel.obj
